ARM GAS  C:\Users\Prog\AppData\Local\Temp\ccf7Rdsw.s 			page 1


   1              		.cpu cortex-m4
   2              		.eabi_attribute 27, 1
   3              		.eabi_attribute 28, 1
   4              		.eabi_attribute 20, 1
   5              		.eabi_attribute 21, 1
   6              		.eabi_attribute 23, 3
   7              		.eabi_attribute 24, 1
   8              		.eabi_attribute 25, 1
   9              		.eabi_attribute 26, 1
  10              		.eabi_attribute 30, 1
  11              		.eabi_attribute 34, 1
  12              		.eabi_attribute 18, 4
  13              		.file	"gd32f30x_can.c"
  14              		.text
  15              	.Ltext0:
  16              		.cfi_sections	.debug_frame
  17              		.section	.text.can_deinit,"ax",%progbits
  18              		.align	1
  19              		.global	can_deinit
  20              		.arch armv7e-m
  21              		.syntax unified
  22              		.thumb
  23              		.thumb_func
  24              		.fpu fpv4-sp-d16
  26              	can_deinit:
  27              	.LVL0:
  28              	.LFB116:
  29              		.file 1 "Drivers/GD32F30x_standard_peripheral/Source/gd32f30x_can.c"
   1:Drivers/GD32F30x_standard_peripheral/Source/gd32f30x_can.c **** /*!
   2:Drivers/GD32F30x_standard_peripheral/Source/gd32f30x_can.c ****     \file    gd32f30x_can.c
   3:Drivers/GD32F30x_standard_peripheral/Source/gd32f30x_can.c ****     \brief   CAN driver
   4:Drivers/GD32F30x_standard_peripheral/Source/gd32f30x_can.c **** 
   5:Drivers/GD32F30x_standard_peripheral/Source/gd32f30x_can.c ****     \version 2017-02-10, V1.0.0, firmware for GD32F30x
   6:Drivers/GD32F30x_standard_peripheral/Source/gd32f30x_can.c ****     \version 2018-10-10, V1.1.0, firmware for GD32F30x
   7:Drivers/GD32F30x_standard_peripheral/Source/gd32f30x_can.c ****     \version 2018-12-25, V2.0.0, firmware for GD32F30x
   8:Drivers/GD32F30x_standard_peripheral/Source/gd32f30x_can.c ****     \version 2019-11-27, V2.0.1, firmware for GD32F30x
   9:Drivers/GD32F30x_standard_peripheral/Source/gd32f30x_can.c ****     \version 2020-03-02, V2.0.2, firmware for GD32F30x
  10:Drivers/GD32F30x_standard_peripheral/Source/gd32f30x_can.c ****     \version 2020-07-14, V2.0.3, firmware for GD32F30x
  11:Drivers/GD32F30x_standard_peripheral/Source/gd32f30x_can.c ****     \version 2020-09-30, V2.1.0, firmware for GD32F30x
  12:Drivers/GD32F30x_standard_peripheral/Source/gd32f30x_can.c **** */
  13:Drivers/GD32F30x_standard_peripheral/Source/gd32f30x_can.c **** 
  14:Drivers/GD32F30x_standard_peripheral/Source/gd32f30x_can.c **** /*
  15:Drivers/GD32F30x_standard_peripheral/Source/gd32f30x_can.c ****     Copyright (c) 2020, GigaDevice Semiconductor Inc.
  16:Drivers/GD32F30x_standard_peripheral/Source/gd32f30x_can.c **** 
  17:Drivers/GD32F30x_standard_peripheral/Source/gd32f30x_can.c ****     Redistribution and use in source and binary forms, with or without modification, 
  18:Drivers/GD32F30x_standard_peripheral/Source/gd32f30x_can.c **** are permitted provided that the following conditions are met:
  19:Drivers/GD32F30x_standard_peripheral/Source/gd32f30x_can.c **** 
  20:Drivers/GD32F30x_standard_peripheral/Source/gd32f30x_can.c ****     1. Redistributions of source code must retain the above copyright notice, this 
  21:Drivers/GD32F30x_standard_peripheral/Source/gd32f30x_can.c ****        list of conditions and the following disclaimer.
  22:Drivers/GD32F30x_standard_peripheral/Source/gd32f30x_can.c ****     2. Redistributions in binary form must reproduce the above copyright notice, 
  23:Drivers/GD32F30x_standard_peripheral/Source/gd32f30x_can.c ****        this list of conditions and the following disclaimer in the documentation 
  24:Drivers/GD32F30x_standard_peripheral/Source/gd32f30x_can.c ****        and/or other materials provided with the distribution.
  25:Drivers/GD32F30x_standard_peripheral/Source/gd32f30x_can.c ****     3. Neither the name of the copyright holder nor the names of its contributors 
  26:Drivers/GD32F30x_standard_peripheral/Source/gd32f30x_can.c ****        may be used to endorse or promote products derived from this software without 
  27:Drivers/GD32F30x_standard_peripheral/Source/gd32f30x_can.c ****        specific prior written permission.
  28:Drivers/GD32F30x_standard_peripheral/Source/gd32f30x_can.c **** 
  29:Drivers/GD32F30x_standard_peripheral/Source/gd32f30x_can.c ****     THIS SOFTWARE IS PROVIDED BY THE COPYRIGHT HOLDERS AND CONTRIBUTORS "AS IS" 
ARM GAS  C:\Users\Prog\AppData\Local\Temp\ccf7Rdsw.s 			page 2


  30:Drivers/GD32F30x_standard_peripheral/Source/gd32f30x_can.c **** AND ANY EXPRESS OR IMPLIED WARRANTIES, INCLUDING, BUT NOT LIMITED TO, THE IMPLIED 
  31:Drivers/GD32F30x_standard_peripheral/Source/gd32f30x_can.c **** WARRANTIES OF MERCHANTABILITY AND FITNESS FOR A PARTICULAR PURPOSE ARE DISCLAIMED. 
  32:Drivers/GD32F30x_standard_peripheral/Source/gd32f30x_can.c **** IN NO EVENT SHALL THE COPYRIGHT HOLDER OR CONTRIBUTORS BE LIABLE FOR ANY DIRECT, 
  33:Drivers/GD32F30x_standard_peripheral/Source/gd32f30x_can.c **** INDIRECT, INCIDENTAL, SPECIAL, EXEMPLARY, OR CONSEQUENTIAL DAMAGES (INCLUDING, BUT 
  34:Drivers/GD32F30x_standard_peripheral/Source/gd32f30x_can.c **** NOT LIMITED TO, PROCUREMENT OF SUBSTITUTE GOODS OR SERVICES; LOSS OF USE, DATA, OR 
  35:Drivers/GD32F30x_standard_peripheral/Source/gd32f30x_can.c **** PROFITS; OR BUSINESS INTERRUPTION) HOWEVER CAUSED AND ON ANY THEORY OF LIABILITY, 
  36:Drivers/GD32F30x_standard_peripheral/Source/gd32f30x_can.c **** WHETHER IN CONTRACT, STRICT LIABILITY, OR TORT (INCLUDING NEGLIGENCE OR OTHERWISE) 
  37:Drivers/GD32F30x_standard_peripheral/Source/gd32f30x_can.c **** ARISING IN ANY WAY OUT OF THE USE OF THIS SOFTWARE, EVEN IF ADVISED OF THE POSSIBILITY 
  38:Drivers/GD32F30x_standard_peripheral/Source/gd32f30x_can.c **** OF SUCH DAMAGE.
  39:Drivers/GD32F30x_standard_peripheral/Source/gd32f30x_can.c **** */
  40:Drivers/GD32F30x_standard_peripheral/Source/gd32f30x_can.c **** 
  41:Drivers/GD32F30x_standard_peripheral/Source/gd32f30x_can.c **** #include "gd32f30x_can.h"
  42:Drivers/GD32F30x_standard_peripheral/Source/gd32f30x_can.c **** #include <stdlib.h>
  43:Drivers/GD32F30x_standard_peripheral/Source/gd32f30x_can.c **** 
  44:Drivers/GD32F30x_standard_peripheral/Source/gd32f30x_can.c **** #define CAN_ERROR_HANDLE(s)     do{}while(1)
  45:Drivers/GD32F30x_standard_peripheral/Source/gd32f30x_can.c **** 
  46:Drivers/GD32F30x_standard_peripheral/Source/gd32f30x_can.c **** /*!
  47:Drivers/GD32F30x_standard_peripheral/Source/gd32f30x_can.c ****     \brief      deinitialize CAN 
  48:Drivers/GD32F30x_standard_peripheral/Source/gd32f30x_can.c ****     \param[in]  can_periph
  49:Drivers/GD32F30x_standard_peripheral/Source/gd32f30x_can.c ****     \arg        CANx(x=0,1),the CAN1 only for GD32F30X_CL 
  50:Drivers/GD32F30x_standard_peripheral/Source/gd32f30x_can.c ****     \param[out] none
  51:Drivers/GD32F30x_standard_peripheral/Source/gd32f30x_can.c ****     \retval     none
  52:Drivers/GD32F30x_standard_peripheral/Source/gd32f30x_can.c **** */
  53:Drivers/GD32F30x_standard_peripheral/Source/gd32f30x_can.c **** void can_deinit(uint32_t can_periph)
  54:Drivers/GD32F30x_standard_peripheral/Source/gd32f30x_can.c **** {
  30              		.loc 1 54 1 view -0
  31              		.cfi_startproc
  32              		@ args = 0, pretend = 0, frame = 0
  33              		@ frame_needed = 0, uses_anonymous_args = 0
  34              		.loc 1 54 1 is_stmt 0 view .LVU1
  35 0000 08B5     		push	{r3, lr}
  36              	.LCFI0:
  37              		.cfi_def_cfa_offset 8
  38              		.cfi_offset 3, -8
  39              		.cfi_offset 14, -4
  55:Drivers/GD32F30x_standard_peripheral/Source/gd32f30x_can.c **** #ifdef GD32F30X_CL
  56:Drivers/GD32F30x_standard_peripheral/Source/gd32f30x_can.c ****     if(CAN0 == can_periph){
  57:Drivers/GD32F30x_standard_peripheral/Source/gd32f30x_can.c ****         rcu_periph_reset_enable(RCU_CAN0RST);
  58:Drivers/GD32F30x_standard_peripheral/Source/gd32f30x_can.c ****         rcu_periph_reset_disable(RCU_CAN0RST);
  59:Drivers/GD32F30x_standard_peripheral/Source/gd32f30x_can.c ****     }else{
  60:Drivers/GD32F30x_standard_peripheral/Source/gd32f30x_can.c ****         rcu_periph_reset_enable(RCU_CAN1RST);
  61:Drivers/GD32F30x_standard_peripheral/Source/gd32f30x_can.c ****         rcu_periph_reset_disable(RCU_CAN1RST);
  62:Drivers/GD32F30x_standard_peripheral/Source/gd32f30x_can.c ****     }
  63:Drivers/GD32F30x_standard_peripheral/Source/gd32f30x_can.c **** #else
  64:Drivers/GD32F30x_standard_peripheral/Source/gd32f30x_can.c ****     if(CAN0 == can_periph){
  40              		.loc 1 64 5 is_stmt 1 view .LVU2
  41              		.loc 1 64 7 is_stmt 0 view .LVU3
  42 0002 064B     		ldr	r3, .L5
  43 0004 9842     		cmp	r0, r3
  44 0006 00D0     		beq	.L4
  45              	.LVL1:
  46              	.L1:
  65:Drivers/GD32F30x_standard_peripheral/Source/gd32f30x_can.c ****         rcu_periph_reset_enable(RCU_CAN0RST);
  66:Drivers/GD32F30x_standard_peripheral/Source/gd32f30x_can.c ****         rcu_periph_reset_disable(RCU_CAN0RST);
  67:Drivers/GD32F30x_standard_peripheral/Source/gd32f30x_can.c ****     }
  68:Drivers/GD32F30x_standard_peripheral/Source/gd32f30x_can.c **** #endif
  69:Drivers/GD32F30x_standard_peripheral/Source/gd32f30x_can.c **** }
ARM GAS  C:\Users\Prog\AppData\Local\Temp\ccf7Rdsw.s 			page 3


  47              		.loc 1 69 1 view .LVU4
  48 0008 08BD     		pop	{r3, pc}
  49              	.LVL2:
  50              	.L4:
  65:Drivers/GD32F30x_standard_peripheral/Source/gd32f30x_can.c ****         rcu_periph_reset_enable(RCU_CAN0RST);
  51              		.loc 1 65 9 is_stmt 1 view .LVU5
  52 000a 40F21940 		movw	r0, #1049
  53              	.LVL3:
  65:Drivers/GD32F30x_standard_peripheral/Source/gd32f30x_can.c ****         rcu_periph_reset_enable(RCU_CAN0RST);
  54              		.loc 1 65 9 is_stmt 0 view .LVU6
  55 000e FFF7FEFF 		bl	rcu_periph_reset_enable
  56              	.LVL4:
  66:Drivers/GD32F30x_standard_peripheral/Source/gd32f30x_can.c ****     }
  57              		.loc 1 66 9 is_stmt 1 view .LVU7
  58 0012 40F21940 		movw	r0, #1049
  59 0016 FFF7FEFF 		bl	rcu_periph_reset_disable
  60              	.LVL5:
  61              		.loc 1 69 1 is_stmt 0 view .LVU8
  62 001a F5E7     		b	.L1
  63              	.L6:
  64              		.align	2
  65              	.L5:
  66 001c 00640040 		.word	1073767424
  67              		.cfi_endproc
  68              	.LFE116:
  70              		.section	.text.can_struct_para_init,"ax",%progbits
  71              		.align	1
  72              		.global	can_struct_para_init
  73              		.syntax unified
  74              		.thumb
  75              		.thumb_func
  76              		.fpu fpv4-sp-d16
  78              	can_struct_para_init:
  79              	.LVL6:
  80              	.LFB117:
  70:Drivers/GD32F30x_standard_peripheral/Source/gd32f30x_can.c **** 
  71:Drivers/GD32F30x_standard_peripheral/Source/gd32f30x_can.c **** /*!
  72:Drivers/GD32F30x_standard_peripheral/Source/gd32f30x_can.c ****     \brief      initialize CAN parameter struct with a default value
  73:Drivers/GD32F30x_standard_peripheral/Source/gd32f30x_can.c ****     \param[in]  type: the type of CAN parameter struct  
  74:Drivers/GD32F30x_standard_peripheral/Source/gd32f30x_can.c ****                 only one parameter can be selected which is shown as below:
  75:Drivers/GD32F30x_standard_peripheral/Source/gd32f30x_can.c ****       \arg        CAN_INIT_STRUCT: the CAN initial struct
  76:Drivers/GD32F30x_standard_peripheral/Source/gd32f30x_can.c ****       \arg        CAN_FILTER_STRUCT: the CAN filter struct
  77:Drivers/GD32F30x_standard_peripheral/Source/gd32f30x_can.c ****       \arg        CAN_TX_MESSAGE_STRUCT: the CAN TX message struct
  78:Drivers/GD32F30x_standard_peripheral/Source/gd32f30x_can.c ****       \arg        CAN_RX_MESSAGE_STRUCT: the CAN RX message struct
  79:Drivers/GD32F30x_standard_peripheral/Source/gd32f30x_can.c ****     \param[in]  p_struct: the pointer of the specific struct 
  80:Drivers/GD32F30x_standard_peripheral/Source/gd32f30x_can.c ****     \param[out] none
  81:Drivers/GD32F30x_standard_peripheral/Source/gd32f30x_can.c ****     \retval     none
  82:Drivers/GD32F30x_standard_peripheral/Source/gd32f30x_can.c **** */
  83:Drivers/GD32F30x_standard_peripheral/Source/gd32f30x_can.c **** void can_struct_para_init(can_struct_type_enum type, void* p_struct)
  84:Drivers/GD32F30x_standard_peripheral/Source/gd32f30x_can.c **** {
  81              		.loc 1 84 1 is_stmt 1 view -0
  82              		.cfi_startproc
  83              		@ args = 0, pretend = 0, frame = 0
  84              		@ frame_needed = 0, uses_anonymous_args = 0
  85              		@ link register save eliminated.
  85:Drivers/GD32F30x_standard_peripheral/Source/gd32f30x_can.c ****     uint8_t i;
  86              		.loc 1 85 5 view .LVU10
ARM GAS  C:\Users\Prog\AppData\Local\Temp\ccf7Rdsw.s 			page 4


  86:Drivers/GD32F30x_standard_peripheral/Source/gd32f30x_can.c ****     
  87:Drivers/GD32F30x_standard_peripheral/Source/gd32f30x_can.c ****     if(NULL == p_struct){
  87              		.loc 1 87 5 view .LVU11
  88              		.loc 1 87 7 is_stmt 0 view .LVU12
  89 0000 0B46     		mov	r3, r1
  90 0002 29B1     		cbz	r1, .L9
  88:Drivers/GD32F30x_standard_peripheral/Source/gd32f30x_can.c ****         CAN_ERROR_HANDLE("struct parameter can not be NULL \r\n");
  89:Drivers/GD32F30x_standard_peripheral/Source/gd32f30x_can.c ****     }
  90:Drivers/GD32F30x_standard_peripheral/Source/gd32f30x_can.c ****     
  91:Drivers/GD32F30x_standard_peripheral/Source/gd32f30x_can.c ****     /* get type of the struct */
  92:Drivers/GD32F30x_standard_peripheral/Source/gd32f30x_can.c ****     switch(type){
  91              		.loc 1 92 5 is_stmt 1 view .LVU13
  92 0004 0328     		cmp	r0, #3
  93 0006 41D8     		bhi	.L10
  94 0008 DFE800F0 		tbb	[pc, r0]
  95              	.L12:
  96 000c 03       		.byte	(.L15-.L12)/2
  97 000d 13       		.byte	(.L14-.L12)/2
  98 000e 2D       		.byte	(.L19-.L12)/2
  99 000f 3E       		.byte	(.L20-.L12)/2
 100              		.p2align 1
 101              	.L9:
  88:Drivers/GD32F30x_standard_peripheral/Source/gd32f30x_can.c ****         CAN_ERROR_HANDLE("struct parameter can not be NULL \r\n");
 102              		.loc 1 88 9 discriminator 1 view .LVU14
  88:Drivers/GD32F30x_standard_peripheral/Source/gd32f30x_can.c ****         CAN_ERROR_HANDLE("struct parameter can not be NULL \r\n");
 103              		.loc 1 88 9 discriminator 1 view .LVU15
 104 0010 FEE7     		b	.L9
 105              	.L15:
  93:Drivers/GD32F30x_standard_peripheral/Source/gd32f30x_can.c ****         /* used for can_init() */
  94:Drivers/GD32F30x_standard_peripheral/Source/gd32f30x_can.c ****         case CAN_INIT_STRUCT:
  95:Drivers/GD32F30x_standard_peripheral/Source/gd32f30x_can.c ****             ((can_parameter_struct*)p_struct)->auto_bus_off_recovery = DISABLE;
 106              		.loc 1 95 13 view .LVU16
 107              		.loc 1 95 70 is_stmt 0 view .LVU17
 108 0012 0022     		movs	r2, #0
 109 0014 4A71     		strb	r2, [r1, #5]
  96:Drivers/GD32F30x_standard_peripheral/Source/gd32f30x_can.c ****             ((can_parameter_struct*)p_struct)->no_auto_retrans = DISABLE;
 110              		.loc 1 96 13 is_stmt 1 view .LVU18
 111              		.loc 1 96 64 is_stmt 0 view .LVU19
 112 0016 CA71     		strb	r2, [r1, #7]
  97:Drivers/GD32F30x_standard_peripheral/Source/gd32f30x_can.c ****             ((can_parameter_struct*)p_struct)->auto_wake_up = DISABLE;
 113              		.loc 1 97 13 is_stmt 1 view .LVU20
 114              		.loc 1 97 61 is_stmt 0 view .LVU21
 115 0018 8A71     		strb	r2, [r1, #6]
  98:Drivers/GD32F30x_standard_peripheral/Source/gd32f30x_can.c ****             ((can_parameter_struct*)p_struct)->prescaler = 0x03FFU; 
 116              		.loc 1 98 13 is_stmt 1 view .LVU22
 117              		.loc 1 98 58 is_stmt 0 view .LVU23
 118 001a 40F2FF31 		movw	r1, #1023
 119              	.LVL7:
 120              		.loc 1 98 58 view .LVU24
 121 001e 5981     		strh	r1, [r3, #10]	@ movhi
  99:Drivers/GD32F30x_standard_peripheral/Source/gd32f30x_can.c ****             ((can_parameter_struct*)p_struct)->rec_fifo_overwrite = DISABLE; 
 122              		.loc 1 99 13 is_stmt 1 view .LVU25
 123              		.loc 1 99 67 is_stmt 0 view .LVU26
 124 0020 1A72     		strb	r2, [r3, #8]
 100:Drivers/GD32F30x_standard_peripheral/Source/gd32f30x_can.c ****             ((can_parameter_struct*)p_struct)->resync_jump_width = CAN_BT_SJW_1TQ;
 125              		.loc 1 100 13 is_stmt 1 view .LVU27
 126              		.loc 1 100 66 is_stmt 0 view .LVU28
ARM GAS  C:\Users\Prog\AppData\Local\Temp\ccf7Rdsw.s 			page 5


 127 0022 5A70     		strb	r2, [r3, #1]
 101:Drivers/GD32F30x_standard_peripheral/Source/gd32f30x_can.c ****             ((can_parameter_struct*)p_struct)->time_segment_1 = CAN_BT_BS1_3TQ;
 128              		.loc 1 101 13 is_stmt 1 view .LVU29
 129              		.loc 1 101 63 is_stmt 0 view .LVU30
 130 0024 0221     		movs	r1, #2
 131 0026 9970     		strb	r1, [r3, #2]
 102:Drivers/GD32F30x_standard_peripheral/Source/gd32f30x_can.c ****             ((can_parameter_struct*)p_struct)->time_segment_2 = CAN_BT_BS2_1TQ;
 132              		.loc 1 102 13 is_stmt 1 view .LVU31
 133              		.loc 1 102 63 is_stmt 0 view .LVU32
 134 0028 DA70     		strb	r2, [r3, #3]
 103:Drivers/GD32F30x_standard_peripheral/Source/gd32f30x_can.c ****             ((can_parameter_struct*)p_struct)->time_triggered = DISABLE;
 135              		.loc 1 103 13 is_stmt 1 view .LVU33
 136              		.loc 1 103 63 is_stmt 0 view .LVU34
 137 002a 1A71     		strb	r2, [r3, #4]
 104:Drivers/GD32F30x_standard_peripheral/Source/gd32f30x_can.c ****             ((can_parameter_struct*)p_struct)->trans_fifo_order = DISABLE;
 138              		.loc 1 104 13 is_stmt 1 view .LVU35
 139              		.loc 1 104 65 is_stmt 0 view .LVU36
 140 002c 5A72     		strb	r2, [r3, #9]
 105:Drivers/GD32F30x_standard_peripheral/Source/gd32f30x_can.c ****             ((can_parameter_struct*)p_struct)->working_mode = CAN_NORMAL_MODE;
 141              		.loc 1 105 13 is_stmt 1 view .LVU37
 142              		.loc 1 105 61 is_stmt 0 view .LVU38
 143 002e 1A70     		strb	r2, [r3]
 106:Drivers/GD32F30x_standard_peripheral/Source/gd32f30x_can.c ****             
 107:Drivers/GD32F30x_standard_peripheral/Source/gd32f30x_can.c ****             break;
 144              		.loc 1 107 13 is_stmt 1 view .LVU39
 145 0030 7047     		bx	lr
 146              	.LVL8:
 147              	.L14:
 108:Drivers/GD32F30x_standard_peripheral/Source/gd32f30x_can.c ****         /* used for can_filter_init() */
 109:Drivers/GD32F30x_standard_peripheral/Source/gd32f30x_can.c ****         case CAN_FILTER_STRUCT:
 110:Drivers/GD32F30x_standard_peripheral/Source/gd32f30x_can.c ****             ((can_filter_parameter_struct*)p_struct)->filter_bits = CAN_FILTERBITS_32BIT;
 148              		.loc 1 110 13 view .LVU40
 149              		.loc 1 110 67 is_stmt 0 view .LVU41
 150 0032 0122     		movs	r2, #1
 151 0034 CA81     		strh	r2, [r1, #14]	@ movhi
 111:Drivers/GD32F30x_standard_peripheral/Source/gd32f30x_can.c ****             ((can_filter_parameter_struct*)p_struct)->filter_enable = DISABLE;
 152              		.loc 1 111 13 is_stmt 1 view .LVU42
 153              		.loc 1 111 69 is_stmt 0 view .LVU43
 154 0036 0022     		movs	r2, #0
 155 0038 0A74     		strb	r2, [r1, #16]
 112:Drivers/GD32F30x_standard_peripheral/Source/gd32f30x_can.c ****             ((can_filter_parameter_struct*)p_struct)->filter_fifo_number = CAN_FIFO0;
 156              		.loc 1 112 13 is_stmt 1 view .LVU44
 157              		.loc 1 112 74 is_stmt 0 view .LVU45
 158 003a 0A81     		strh	r2, [r1, #8]	@ movhi
 113:Drivers/GD32F30x_standard_peripheral/Source/gd32f30x_can.c ****             ((can_filter_parameter_struct*)p_struct)->filter_list_high = 0x0000U;
 159              		.loc 1 113 13 is_stmt 1 view .LVU46
 160              		.loc 1 113 72 is_stmt 0 view .LVU47
 161 003c 0A80     		strh	r2, [r1]	@ movhi
 114:Drivers/GD32F30x_standard_peripheral/Source/gd32f30x_can.c ****             ((can_filter_parameter_struct*)p_struct)->filter_list_low = 0x0000U;
 162              		.loc 1 114 13 is_stmt 1 view .LVU48
 163              		.loc 1 114 71 is_stmt 0 view .LVU49
 164 003e 4A80     		strh	r2, [r1, #2]	@ movhi
 115:Drivers/GD32F30x_standard_peripheral/Source/gd32f30x_can.c ****             ((can_filter_parameter_struct*)p_struct)->filter_mask_high = 0x0000U;
 165              		.loc 1 115 13 is_stmt 1 view .LVU50
 166              		.loc 1 115 72 is_stmt 0 view .LVU51
 167 0040 8A80     		strh	r2, [r1, #4]	@ movhi
 116:Drivers/GD32F30x_standard_peripheral/Source/gd32f30x_can.c ****             ((can_filter_parameter_struct*)p_struct)->filter_mask_low = 0x0000U;
ARM GAS  C:\Users\Prog\AppData\Local\Temp\ccf7Rdsw.s 			page 6


 168              		.loc 1 116 13 is_stmt 1 view .LVU52
 169              		.loc 1 116 71 is_stmt 0 view .LVU53
 170 0042 CA80     		strh	r2, [r1, #6]	@ movhi
 117:Drivers/GD32F30x_standard_peripheral/Source/gd32f30x_can.c ****             ((can_filter_parameter_struct*)p_struct)->filter_mode = CAN_FILTERMODE_MASK;
 171              		.loc 1 117 13 is_stmt 1 view .LVU54
 172              		.loc 1 117 67 is_stmt 0 view .LVU55
 173 0044 8A81     		strh	r2, [r1, #12]	@ movhi
 118:Drivers/GD32F30x_standard_peripheral/Source/gd32f30x_can.c ****             ((can_filter_parameter_struct*)p_struct)->filter_number = 0U;
 174              		.loc 1 118 13 is_stmt 1 view .LVU56
 175              		.loc 1 118 69 is_stmt 0 view .LVU57
 176 0046 4A81     		strh	r2, [r1, #10]	@ movhi
 119:Drivers/GD32F30x_standard_peripheral/Source/gd32f30x_can.c **** 
 120:Drivers/GD32F30x_standard_peripheral/Source/gd32f30x_can.c ****             break;
 177              		.loc 1 120 13 is_stmt 1 view .LVU58
 178 0048 7047     		bx	lr
 179              	.LVL9:
 180              	.L17:
 121:Drivers/GD32F30x_standard_peripheral/Source/gd32f30x_can.c ****         /* used for can_message_transmit() */
 122:Drivers/GD32F30x_standard_peripheral/Source/gd32f30x_can.c ****         case CAN_TX_MESSAGE_STRUCT:
 123:Drivers/GD32F30x_standard_peripheral/Source/gd32f30x_can.c ****             for(i = 0U; i < 8U; i++){
 124:Drivers/GD32F30x_standard_peripheral/Source/gd32f30x_can.c ****                 ((can_trasnmit_message_struct*)p_struct)->tx_data[i] = 0U;
 181              		.loc 1 124 17 discriminator 3 view .LVU59
 182              		.loc 1 124 70 is_stmt 0 discriminator 3 view .LVU60
 183 004a 9918     		adds	r1, r3, r2
 184 004c 0020     		movs	r0, #0
 185 004e C872     		strb	r0, [r1, #11]
 123:Drivers/GD32F30x_standard_peripheral/Source/gd32f30x_can.c ****                 ((can_trasnmit_message_struct*)p_struct)->tx_data[i] = 0U;
 186              		.loc 1 123 34 discriminator 3 view .LVU61
 187 0050 0132     		adds	r2, r2, #1
 188              	.LVL10:
 123:Drivers/GD32F30x_standard_peripheral/Source/gd32f30x_can.c ****                 ((can_trasnmit_message_struct*)p_struct)->tx_data[i] = 0U;
 189              		.loc 1 123 34 discriminator 3 view .LVU62
 190 0052 D2B2     		uxtb	r2, r2
 191              	.LVL11:
 192              	.L13:
 123:Drivers/GD32F30x_standard_peripheral/Source/gd32f30x_can.c ****                 ((can_trasnmit_message_struct*)p_struct)->tx_data[i] = 0U;
 193              		.loc 1 123 13 discriminator 1 view .LVU63
 194 0054 072A     		cmp	r2, #7
 195 0056 F8D9     		bls	.L17
 125:Drivers/GD32F30x_standard_peripheral/Source/gd32f30x_can.c ****             }
 126:Drivers/GD32F30x_standard_peripheral/Source/gd32f30x_can.c ****             
 127:Drivers/GD32F30x_standard_peripheral/Source/gd32f30x_can.c ****             ((can_trasnmit_message_struct*)p_struct)->tx_dlen = 0u;
 196              		.loc 1 127 13 is_stmt 1 view .LVU64
 197              		.loc 1 127 63 is_stmt 0 view .LVU65
 198 0058 0022     		movs	r2, #0
 199              	.LVL12:
 200              		.loc 1 127 63 view .LVU66
 201 005a 9A72     		strb	r2, [r3, #10]
 128:Drivers/GD32F30x_standard_peripheral/Source/gd32f30x_can.c ****             ((can_trasnmit_message_struct*)p_struct)->tx_efid = 0U;
 202              		.loc 1 128 13 is_stmt 1 view .LVU67
 203              		.loc 1 128 63 is_stmt 0 view .LVU68
 204 005c 5A60     		str	r2, [r3, #4]
 129:Drivers/GD32F30x_standard_peripheral/Source/gd32f30x_can.c ****             ((can_trasnmit_message_struct*)p_struct)->tx_ff = (uint8_t)CAN_FF_STANDARD;
 205              		.loc 1 129 13 is_stmt 1 view .LVU69
 206              		.loc 1 129 61 is_stmt 0 view .LVU70
 207 005e 1A72     		strb	r2, [r3, #8]
 130:Drivers/GD32F30x_standard_peripheral/Source/gd32f30x_can.c ****             ((can_trasnmit_message_struct*)p_struct)->tx_ft = (uint8_t)CAN_FT_DATA;
ARM GAS  C:\Users\Prog\AppData\Local\Temp\ccf7Rdsw.s 			page 7


 208              		.loc 1 130 13 is_stmt 1 view .LVU71
 209              		.loc 1 130 61 is_stmt 0 view .LVU72
 210 0060 5A72     		strb	r2, [r3, #9]
 131:Drivers/GD32F30x_standard_peripheral/Source/gd32f30x_can.c ****             ((can_trasnmit_message_struct*)p_struct)->tx_sfid = 0U;
 211              		.loc 1 131 13 is_stmt 1 view .LVU73
 212              		.loc 1 131 63 is_stmt 0 view .LVU74
 213 0062 1A60     		str	r2, [r3]
 132:Drivers/GD32F30x_standard_peripheral/Source/gd32f30x_can.c ****             
 133:Drivers/GD32F30x_standard_peripheral/Source/gd32f30x_can.c ****             break;
 214              		.loc 1 133 13 is_stmt 1 view .LVU75
 215 0064 7047     		bx	lr
 216              	.LVL13:
 217              	.L19:
 123:Drivers/GD32F30x_standard_peripheral/Source/gd32f30x_can.c ****                 ((can_trasnmit_message_struct*)p_struct)->tx_data[i] = 0U;
 218              		.loc 1 123 19 is_stmt 0 view .LVU76
 219 0066 0022     		movs	r2, #0
 220 0068 F4E7     		b	.L13
 221              	.LVL14:
 222              	.L18:
 134:Drivers/GD32F30x_standard_peripheral/Source/gd32f30x_can.c ****         /* used for can_message_receive() */
 135:Drivers/GD32F30x_standard_peripheral/Source/gd32f30x_can.c ****         case CAN_RX_MESSAGE_STRUCT:
 136:Drivers/GD32F30x_standard_peripheral/Source/gd32f30x_can.c ****             for(i = 0U; i < 8U; i++){
 137:Drivers/GD32F30x_standard_peripheral/Source/gd32f30x_can.c ****                 ((can_receive_message_struct*)p_struct)->rx_data[i] = 0U;
 223              		.loc 1 137 17 is_stmt 1 discriminator 3 view .LVU77
 224              		.loc 1 137 69 is_stmt 0 discriminator 3 view .LVU78
 225 006a 9918     		adds	r1, r3, r2
 226 006c 0020     		movs	r0, #0
 227 006e C872     		strb	r0, [r1, #11]
 136:Drivers/GD32F30x_standard_peripheral/Source/gd32f30x_can.c ****                 ((can_receive_message_struct*)p_struct)->rx_data[i] = 0U;
 228              		.loc 1 136 34 discriminator 3 view .LVU79
 229 0070 0132     		adds	r2, r2, #1
 230              	.LVL15:
 136:Drivers/GD32F30x_standard_peripheral/Source/gd32f30x_can.c ****                 ((can_receive_message_struct*)p_struct)->rx_data[i] = 0U;
 231              		.loc 1 136 34 discriminator 3 view .LVU80
 232 0072 D2B2     		uxtb	r2, r2
 233              	.LVL16:
 234              	.L11:
 136:Drivers/GD32F30x_standard_peripheral/Source/gd32f30x_can.c ****                 ((can_receive_message_struct*)p_struct)->rx_data[i] = 0U;
 235              		.loc 1 136 13 discriminator 1 view .LVU81
 236 0074 072A     		cmp	r2, #7
 237 0076 F8D9     		bls	.L18
 138:Drivers/GD32F30x_standard_peripheral/Source/gd32f30x_can.c ****             }
 139:Drivers/GD32F30x_standard_peripheral/Source/gd32f30x_can.c ****             
 140:Drivers/GD32F30x_standard_peripheral/Source/gd32f30x_can.c ****             ((can_receive_message_struct*)p_struct)->rx_dlen = 0U;
 238              		.loc 1 140 13 is_stmt 1 view .LVU82
 239              		.loc 1 140 62 is_stmt 0 view .LVU83
 240 0078 0022     		movs	r2, #0
 241              	.LVL17:
 242              		.loc 1 140 62 view .LVU84
 243 007a 9A72     		strb	r2, [r3, #10]
 141:Drivers/GD32F30x_standard_peripheral/Source/gd32f30x_can.c ****             ((can_receive_message_struct*)p_struct)->rx_efid = 0U;
 244              		.loc 1 141 13 is_stmt 1 view .LVU85
 245              		.loc 1 141 62 is_stmt 0 view .LVU86
 246 007c 5A60     		str	r2, [r3, #4]
 142:Drivers/GD32F30x_standard_peripheral/Source/gd32f30x_can.c ****             ((can_receive_message_struct*)p_struct)->rx_ff = (uint8_t)CAN_FF_STANDARD;
 247              		.loc 1 142 13 is_stmt 1 view .LVU87
 248              		.loc 1 142 60 is_stmt 0 view .LVU88
ARM GAS  C:\Users\Prog\AppData\Local\Temp\ccf7Rdsw.s 			page 8


 249 007e 1A72     		strb	r2, [r3, #8]
 143:Drivers/GD32F30x_standard_peripheral/Source/gd32f30x_can.c ****             ((can_receive_message_struct*)p_struct)->rx_fi = 0U;
 250              		.loc 1 143 13 is_stmt 1 view .LVU89
 251              		.loc 1 143 60 is_stmt 0 view .LVU90
 252 0080 DA74     		strb	r2, [r3, #19]
 144:Drivers/GD32F30x_standard_peripheral/Source/gd32f30x_can.c ****             ((can_receive_message_struct*)p_struct)->rx_ft = (uint8_t)CAN_FT_DATA;
 253              		.loc 1 144 13 is_stmt 1 view .LVU91
 254              		.loc 1 144 60 is_stmt 0 view .LVU92
 255 0082 5A72     		strb	r2, [r3, #9]
 145:Drivers/GD32F30x_standard_peripheral/Source/gd32f30x_can.c ****             ((can_receive_message_struct*)p_struct)->rx_sfid = 0U;
 256              		.loc 1 145 13 is_stmt 1 view .LVU93
 257              		.loc 1 145 62 is_stmt 0 view .LVU94
 258 0084 1A60     		str	r2, [r3]
 146:Drivers/GD32F30x_standard_peripheral/Source/gd32f30x_can.c ****             
 147:Drivers/GD32F30x_standard_peripheral/Source/gd32f30x_can.c ****             break;
 259              		.loc 1 147 13 is_stmt 1 view .LVU95
 148:Drivers/GD32F30x_standard_peripheral/Source/gd32f30x_can.c **** 
 149:Drivers/GD32F30x_standard_peripheral/Source/gd32f30x_can.c ****         default:
 150:Drivers/GD32F30x_standard_peripheral/Source/gd32f30x_can.c ****             CAN_ERROR_HANDLE("parameter is invalid \r\n");
 151:Drivers/GD32F30x_standard_peripheral/Source/gd32f30x_can.c ****     }
 152:Drivers/GD32F30x_standard_peripheral/Source/gd32f30x_can.c **** }
 260              		.loc 1 152 1 is_stmt 0 view .LVU96
 261 0086 7047     		bx	lr
 262              	.LVL18:
 263              	.L20:
 136:Drivers/GD32F30x_standard_peripheral/Source/gd32f30x_can.c ****                 ((can_receive_message_struct*)p_struct)->rx_data[i] = 0U;
 264              		.loc 1 136 19 view .LVU97
 265 0088 0022     		movs	r2, #0
 266 008a F3E7     		b	.L11
 267              	.L10:
 150:Drivers/GD32F30x_standard_peripheral/Source/gd32f30x_can.c ****     }
 268              		.loc 1 150 13 is_stmt 1 discriminator 1 view .LVU98
 150:Drivers/GD32F30x_standard_peripheral/Source/gd32f30x_can.c ****     }
 269              		.loc 1 150 13 discriminator 1 view .LVU99
 270 008c FEE7     		b	.L10
 271              		.cfi_endproc
 272              	.LFE117:
 274              		.section	.text.can_init,"ax",%progbits
 275              		.align	1
 276              		.global	can_init
 277              		.syntax unified
 278              		.thumb
 279              		.thumb_func
 280              		.fpu fpv4-sp-d16
 282              	can_init:
 283              	.LVL19:
 284              	.LFB118:
 153:Drivers/GD32F30x_standard_peripheral/Source/gd32f30x_can.c **** 
 154:Drivers/GD32F30x_standard_peripheral/Source/gd32f30x_can.c **** /*!
 155:Drivers/GD32F30x_standard_peripheral/Source/gd32f30x_can.c ****     \brief      initialize CAN
 156:Drivers/GD32F30x_standard_peripheral/Source/gd32f30x_can.c ****     \param[in]  can_periph
 157:Drivers/GD32F30x_standard_peripheral/Source/gd32f30x_can.c ****       \arg        CANx(x=0,1),the CAN1 only for GD32F30X_CL 
 158:Drivers/GD32F30x_standard_peripheral/Source/gd32f30x_can.c ****     \param[in]  can_parameter_init: parameters for CAN initializtion
 159:Drivers/GD32F30x_standard_peripheral/Source/gd32f30x_can.c ****       \arg        working_mode: CAN_NORMAL_MODE, CAN_LOOPBACK_MODE, CAN_SILENT_MODE, CAN_SILENT_LOO
 160:Drivers/GD32F30x_standard_peripheral/Source/gd32f30x_can.c ****       \arg        resync_jump_width: CAN_BT_SJW_xTQ(x=1, 2, 3, 4)
 161:Drivers/GD32F30x_standard_peripheral/Source/gd32f30x_can.c ****       \arg        time_segment_1: CAN_BT_BS1_xTQ(1..16)
 162:Drivers/GD32F30x_standard_peripheral/Source/gd32f30x_can.c ****       \arg        time_segment_2: CAN_BT_BS2_xTQ(1..8)
ARM GAS  C:\Users\Prog\AppData\Local\Temp\ccf7Rdsw.s 			page 9


 163:Drivers/GD32F30x_standard_peripheral/Source/gd32f30x_can.c ****       \arg        time_triggered: ENABLE or DISABLE
 164:Drivers/GD32F30x_standard_peripheral/Source/gd32f30x_can.c ****       \arg        auto_bus_off_recovery: ENABLE or DISABLE
 165:Drivers/GD32F30x_standard_peripheral/Source/gd32f30x_can.c ****       \arg        auto_wake_up: ENABLE or DISABLE
 166:Drivers/GD32F30x_standard_peripheral/Source/gd32f30x_can.c ****       \arg        no_auto_retrans: ENABLE or DISABLE
 167:Drivers/GD32F30x_standard_peripheral/Source/gd32f30x_can.c ****       \arg        rec_fifo_overwrite: ENABLE or DISABLE
 168:Drivers/GD32F30x_standard_peripheral/Source/gd32f30x_can.c ****       \arg        trans_fifo_order: ENABLE or DISABLE
 169:Drivers/GD32F30x_standard_peripheral/Source/gd32f30x_can.c ****       \arg        prescaler: 0x0001 - 0x0400
 170:Drivers/GD32F30x_standard_peripheral/Source/gd32f30x_can.c ****     \param[out] none
 171:Drivers/GD32F30x_standard_peripheral/Source/gd32f30x_can.c ****     \retval     ErrStatus: SUCCESS or ERROR
 172:Drivers/GD32F30x_standard_peripheral/Source/gd32f30x_can.c **** */
 173:Drivers/GD32F30x_standard_peripheral/Source/gd32f30x_can.c **** ErrStatus can_init(uint32_t can_periph, can_parameter_struct* can_parameter_init)
 174:Drivers/GD32F30x_standard_peripheral/Source/gd32f30x_can.c **** {
 285              		.loc 1 174 1 view -0
 286              		.cfi_startproc
 287              		@ args = 0, pretend = 0, frame = 0
 288              		@ frame_needed = 0, uses_anonymous_args = 0
 289              		@ link register save eliminated.
 290              		.loc 1 174 1 is_stmt 0 view .LVU101
 291 0000 10B4     		push	{r4}
 292              	.LCFI1:
 293              		.cfi_def_cfa_offset 4
 294              		.cfi_offset 4, -4
 175:Drivers/GD32F30x_standard_peripheral/Source/gd32f30x_can.c ****     uint32_t timeout = CAN_TIMEOUT;
 295              		.loc 1 175 5 is_stmt 1 view .LVU102
 296              	.LVL20:
 176:Drivers/GD32F30x_standard_peripheral/Source/gd32f30x_can.c ****     ErrStatus flag = ERROR;
 297              		.loc 1 176 5 view .LVU103
 177:Drivers/GD32F30x_standard_peripheral/Source/gd32f30x_can.c ****     
 178:Drivers/GD32F30x_standard_peripheral/Source/gd32f30x_can.c ****     /* disable sleep mode */
 179:Drivers/GD32F30x_standard_peripheral/Source/gd32f30x_can.c ****     CAN_CTL(can_periph) &= ~CAN_CTL_SLPWMOD;
 298              		.loc 1 179 5 view .LVU104
 299              		.loc 1 179 25 is_stmt 0 view .LVU105
 300 0002 0368     		ldr	r3, [r0]
 301 0004 23F00203 		bic	r3, r3, #2
 302 0008 0360     		str	r3, [r0]
 180:Drivers/GD32F30x_standard_peripheral/Source/gd32f30x_can.c ****     /* enable initialize mode */
 181:Drivers/GD32F30x_standard_peripheral/Source/gd32f30x_can.c ****     CAN_CTL(can_periph) |= CAN_CTL_IWMOD;
 303              		.loc 1 181 5 is_stmt 1 view .LVU106
 304              		.loc 1 181 25 is_stmt 0 view .LVU107
 305 000a 0368     		ldr	r3, [r0]
 306 000c 43F00103 		orr	r3, r3, #1
 307 0010 0360     		str	r3, [r0]
 182:Drivers/GD32F30x_standard_peripheral/Source/gd32f30x_can.c ****     /* wait ACK */
 183:Drivers/GD32F30x_standard_peripheral/Source/gd32f30x_can.c ****     while((CAN_STAT_IWS != (CAN_STAT(can_periph) & CAN_STAT_IWS)) && (0U != timeout)){
 308              		.loc 1 183 5 is_stmt 1 view .LVU108
 175:Drivers/GD32F30x_standard_peripheral/Source/gd32f30x_can.c ****     ErrStatus flag = ERROR;
 309              		.loc 1 175 14 is_stmt 0 view .LVU109
 310 0012 4FF6FF73 		movw	r3, #65535
 311              	.LVL21:
 312              	.L22:
 313              		.loc 1 183 29 view .LVU110
 314 0016 041D     		adds	r4, r0, #4
 315 0018 4268     		ldr	r2, [r0, #4]
 316              		.loc 1 183 10 view .LVU111
 317 001a 12F0010F 		tst	r2, #1
 318 001e 02D1     		bne	.L23
 319              		.loc 1 183 67 discriminator 1 view .LVU112
ARM GAS  C:\Users\Prog\AppData\Local\Temp\ccf7Rdsw.s 			page 10


 320 0020 0BB1     		cbz	r3, .L23
 184:Drivers/GD32F30x_standard_peripheral/Source/gd32f30x_can.c ****         timeout--;
 321              		.loc 1 184 9 is_stmt 1 view .LVU113
 322              		.loc 1 184 16 is_stmt 0 view .LVU114
 323 0022 013B     		subs	r3, r3, #1
 324              	.LVL22:
 325              		.loc 1 184 16 view .LVU115
 326 0024 F7E7     		b	.L22
 327              	.L23:
 185:Drivers/GD32F30x_standard_peripheral/Source/gd32f30x_can.c ****     }
 186:Drivers/GD32F30x_standard_peripheral/Source/gd32f30x_can.c ****     /* check initialize working success */
 187:Drivers/GD32F30x_standard_peripheral/Source/gd32f30x_can.c ****     if(CAN_STAT_IWS != (CAN_STAT(can_periph) & CAN_STAT_IWS)){
 328              		.loc 1 187 5 is_stmt 1 view .LVU116
 329              		.loc 1 187 25 is_stmt 0 view .LVU117
 330 0026 2368     		ldr	r3, [r4]
 331              	.LVL23:
 332              		.loc 1 187 7 view .LVU118
 333 0028 13F0010F 		tst	r3, #1
 334 002c 6ED0     		beq	.L41
 188:Drivers/GD32F30x_standard_peripheral/Source/gd32f30x_can.c ****         flag = ERROR;
 189:Drivers/GD32F30x_standard_peripheral/Source/gd32f30x_can.c ****     }else{
 190:Drivers/GD32F30x_standard_peripheral/Source/gd32f30x_can.c ****         /* set the bit timing register */
 191:Drivers/GD32F30x_standard_peripheral/Source/gd32f30x_can.c ****         CAN_BT(can_periph) = (BT_MODE((uint32_t)can_parameter_init->working_mode) | \
 335              		.loc 1 191 9 is_stmt 1 view .LVU119
 336              		.loc 1 191 31 is_stmt 0 view .LVU120
 337 002e 0A78     		ldrb	r2, [r1]	@ zero_extendqisi2
 192:Drivers/GD32F30x_standard_peripheral/Source/gd32f30x_can.c ****                               BT_SJW((uint32_t)can_parameter_init->resync_jump_width) | \
 338              		.loc 1 192 31 view .LVU121
 339 0030 4B78     		ldrb	r3, [r1, #1]	@ zero_extendqisi2
 340 0032 1B06     		lsls	r3, r3, #24
 341 0034 03F04073 		and	r3, r3, #50331648
 191:Drivers/GD32F30x_standard_peripheral/Source/gd32f30x_can.c ****                               BT_SJW((uint32_t)can_parameter_init->resync_jump_width) | \
 342              		.loc 1 191 83 view .LVU122
 343 0038 43EA8273 		orr	r3, r3, r2, lsl #30
 193:Drivers/GD32F30x_standard_peripheral/Source/gd32f30x_can.c ****                               BT_BS1((uint32_t)can_parameter_init->time_segment_1) | \
 344              		.loc 1 193 31 view .LVU123
 345 003c 8A78     		ldrb	r2, [r1, #2]	@ zero_extendqisi2
 346 003e 1204     		lsls	r2, r2, #16
 347 0040 02F47022 		and	r2, r2, #983040
 192:Drivers/GD32F30x_standard_peripheral/Source/gd32f30x_can.c ****                               BT_SJW((uint32_t)can_parameter_init->resync_jump_width) | \
 348              		.loc 1 192 87 view .LVU124
 349 0044 1343     		orrs	r3, r3, r2
 194:Drivers/GD32F30x_standard_peripheral/Source/gd32f30x_can.c ****                               BT_BS2((uint32_t)can_parameter_init->time_segment_2) | \
 350              		.loc 1 194 31 view .LVU125
 351 0046 CA78     		ldrb	r2, [r1, #3]	@ zero_extendqisi2
 352 0048 1205     		lsls	r2, r2, #20
 353 004a 02F4E002 		and	r2, r2, #7340032
 193:Drivers/GD32F30x_standard_peripheral/Source/gd32f30x_can.c ****                               BT_BS1((uint32_t)can_parameter_init->time_segment_1) | \
 354              		.loc 1 193 84 view .LVU126
 355 004e 1343     		orrs	r3, r3, r2
 195:Drivers/GD32F30x_standard_peripheral/Source/gd32f30x_can.c ****                               BT_BAUDPSC(((uint32_t)(can_parameter_init->prescaler) - 1U)));
 356              		.loc 1 195 31 view .LVU127
 357 0050 4A89     		ldrh	r2, [r1, #10]
 358 0052 013A     		subs	r2, r2, #1
 359 0054 C2F30902 		ubfx	r2, r2, #0, #10
 194:Drivers/GD32F30x_standard_peripheral/Source/gd32f30x_can.c ****                               BT_BS2((uint32_t)can_parameter_init->time_segment_2) | \
 360              		.loc 1 194 84 view .LVU128
ARM GAS  C:\Users\Prog\AppData\Local\Temp\ccf7Rdsw.s 			page 11


 361 0058 1343     		orrs	r3, r3, r2
 191:Drivers/GD32F30x_standard_peripheral/Source/gd32f30x_can.c ****                               BT_SJW((uint32_t)can_parameter_init->resync_jump_width) | \
 362              		.loc 1 191 28 view .LVU129
 363 005a C361     		str	r3, [r0, #28]
 196:Drivers/GD32F30x_standard_peripheral/Source/gd32f30x_can.c **** 
 197:Drivers/GD32F30x_standard_peripheral/Source/gd32f30x_can.c ****         /* time trigger communication mode */
 198:Drivers/GD32F30x_standard_peripheral/Source/gd32f30x_can.c ****         if(ENABLE == can_parameter_init->time_triggered){
 364              		.loc 1 198 9 is_stmt 1 view .LVU130
 365              		.loc 1 198 40 is_stmt 0 view .LVU131
 366 005c 0B79     		ldrb	r3, [r1, #4]	@ zero_extendqisi2
 367              		.loc 1 198 11 view .LVU132
 368 005e 012B     		cmp	r3, #1
 369 0060 33D0     		beq	.L44
 199:Drivers/GD32F30x_standard_peripheral/Source/gd32f30x_can.c ****             CAN_CTL(can_periph) |= CAN_CTL_TTC;
 200:Drivers/GD32F30x_standard_peripheral/Source/gd32f30x_can.c ****         }else{
 201:Drivers/GD32F30x_standard_peripheral/Source/gd32f30x_can.c ****             CAN_CTL(can_periph) &= ~CAN_CTL_TTC;
 370              		.loc 1 201 13 is_stmt 1 view .LVU133
 371              		.loc 1 201 33 is_stmt 0 view .LVU134
 372 0062 0368     		ldr	r3, [r0]
 373 0064 23F08003 		bic	r3, r3, #128
 374 0068 0360     		str	r3, [r0]
 375              	.L27:
 202:Drivers/GD32F30x_standard_peripheral/Source/gd32f30x_can.c ****         }
 203:Drivers/GD32F30x_standard_peripheral/Source/gd32f30x_can.c ****         /* automatic bus-off managment */
 204:Drivers/GD32F30x_standard_peripheral/Source/gd32f30x_can.c ****         if(ENABLE == can_parameter_init->auto_bus_off_recovery){
 376              		.loc 1 204 9 is_stmt 1 view .LVU135
 377              		.loc 1 204 40 is_stmt 0 view .LVU136
 378 006a 4B79     		ldrb	r3, [r1, #5]	@ zero_extendqisi2
 379              		.loc 1 204 11 view .LVU137
 380 006c 012B     		cmp	r3, #1
 381 006e 31D0     		beq	.L45
 205:Drivers/GD32F30x_standard_peripheral/Source/gd32f30x_can.c ****             CAN_CTL(can_periph) |= CAN_CTL_ABOR;
 206:Drivers/GD32F30x_standard_peripheral/Source/gd32f30x_can.c ****         }else{
 207:Drivers/GD32F30x_standard_peripheral/Source/gd32f30x_can.c ****             CAN_CTL(can_periph) &= ~CAN_CTL_ABOR;
 382              		.loc 1 207 13 is_stmt 1 view .LVU138
 383              		.loc 1 207 33 is_stmt 0 view .LVU139
 384 0070 0368     		ldr	r3, [r0]
 385 0072 23F04003 		bic	r3, r3, #64
 386 0076 0360     		str	r3, [r0]
 387              	.L29:
 208:Drivers/GD32F30x_standard_peripheral/Source/gd32f30x_can.c ****         }
 209:Drivers/GD32F30x_standard_peripheral/Source/gd32f30x_can.c ****         /* automatic wakeup mode */
 210:Drivers/GD32F30x_standard_peripheral/Source/gd32f30x_can.c ****         if(ENABLE == can_parameter_init->auto_wake_up){
 388              		.loc 1 210 9 is_stmt 1 view .LVU140
 389              		.loc 1 210 40 is_stmt 0 view .LVU141
 390 0078 8B79     		ldrb	r3, [r1, #6]	@ zero_extendqisi2
 391              		.loc 1 210 11 view .LVU142
 392 007a 012B     		cmp	r3, #1
 393 007c 2FD0     		beq	.L46
 211:Drivers/GD32F30x_standard_peripheral/Source/gd32f30x_can.c ****             CAN_CTL(can_periph) |= CAN_CTL_AWU;
 212:Drivers/GD32F30x_standard_peripheral/Source/gd32f30x_can.c ****         }else{
 213:Drivers/GD32F30x_standard_peripheral/Source/gd32f30x_can.c ****             CAN_CTL(can_periph) &= ~CAN_CTL_AWU;
 394              		.loc 1 213 13 is_stmt 1 view .LVU143
 395              		.loc 1 213 33 is_stmt 0 view .LVU144
 396 007e 0368     		ldr	r3, [r0]
 397 0080 23F02003 		bic	r3, r3, #32
 398 0084 0360     		str	r3, [r0]
ARM GAS  C:\Users\Prog\AppData\Local\Temp\ccf7Rdsw.s 			page 12


 399              	.L31:
 214:Drivers/GD32F30x_standard_peripheral/Source/gd32f30x_can.c ****         }
 215:Drivers/GD32F30x_standard_peripheral/Source/gd32f30x_can.c ****         /* automatic retransmission mode disable */
 216:Drivers/GD32F30x_standard_peripheral/Source/gd32f30x_can.c ****         if(ENABLE == can_parameter_init->no_auto_retrans){
 400              		.loc 1 216 9 is_stmt 1 view .LVU145
 401              		.loc 1 216 40 is_stmt 0 view .LVU146
 402 0086 CB79     		ldrb	r3, [r1, #7]	@ zero_extendqisi2
 403              		.loc 1 216 11 view .LVU147
 404 0088 012B     		cmp	r3, #1
 405 008a 2DD0     		beq	.L47
 217:Drivers/GD32F30x_standard_peripheral/Source/gd32f30x_can.c ****             CAN_CTL(can_periph) |= CAN_CTL_ARD;
 218:Drivers/GD32F30x_standard_peripheral/Source/gd32f30x_can.c ****         }else{
 219:Drivers/GD32F30x_standard_peripheral/Source/gd32f30x_can.c ****             CAN_CTL(can_periph) &= ~CAN_CTL_ARD;
 406              		.loc 1 219 13 is_stmt 1 view .LVU148
 407              		.loc 1 219 33 is_stmt 0 view .LVU149
 408 008c 0368     		ldr	r3, [r0]
 409 008e 23F01003 		bic	r3, r3, #16
 410 0092 0360     		str	r3, [r0]
 411              	.L33:
 220:Drivers/GD32F30x_standard_peripheral/Source/gd32f30x_can.c ****         }
 221:Drivers/GD32F30x_standard_peripheral/Source/gd32f30x_can.c ****         /* receive fifo overwrite mode */        
 222:Drivers/GD32F30x_standard_peripheral/Source/gd32f30x_can.c ****         if(ENABLE == can_parameter_init->rec_fifo_overwrite){
 412              		.loc 1 222 9 is_stmt 1 view .LVU150
 413              		.loc 1 222 40 is_stmt 0 view .LVU151
 414 0094 0B7A     		ldrb	r3, [r1, #8]	@ zero_extendqisi2
 415              		.loc 1 222 11 view .LVU152
 416 0096 012B     		cmp	r3, #1
 417 0098 2BD0     		beq	.L48
 223:Drivers/GD32F30x_standard_peripheral/Source/gd32f30x_can.c ****             CAN_CTL(can_periph) |= CAN_CTL_RFOD;
 224:Drivers/GD32F30x_standard_peripheral/Source/gd32f30x_can.c ****         }else{
 225:Drivers/GD32F30x_standard_peripheral/Source/gd32f30x_can.c ****             CAN_CTL(can_periph) &= ~CAN_CTL_RFOD;
 418              		.loc 1 225 13 is_stmt 1 view .LVU153
 419              		.loc 1 225 33 is_stmt 0 view .LVU154
 420 009a 0368     		ldr	r3, [r0]
 421 009c 23F00803 		bic	r3, r3, #8
 422 00a0 0360     		str	r3, [r0]
 423              	.L35:
 226:Drivers/GD32F30x_standard_peripheral/Source/gd32f30x_can.c ****         } 
 227:Drivers/GD32F30x_standard_peripheral/Source/gd32f30x_can.c ****         /* transmit fifo order */
 228:Drivers/GD32F30x_standard_peripheral/Source/gd32f30x_can.c ****         if(ENABLE == can_parameter_init->trans_fifo_order){
 424              		.loc 1 228 9 is_stmt 1 view .LVU155
 425              		.loc 1 228 40 is_stmt 0 view .LVU156
 426 00a2 4B7A     		ldrb	r3, [r1, #9]	@ zero_extendqisi2
 427              		.loc 1 228 11 view .LVU157
 428 00a4 012B     		cmp	r3, #1
 429 00a6 29D0     		beq	.L49
 229:Drivers/GD32F30x_standard_peripheral/Source/gd32f30x_can.c ****             CAN_CTL(can_periph) |= CAN_CTL_TFO;
 230:Drivers/GD32F30x_standard_peripheral/Source/gd32f30x_can.c ****         }else{
 231:Drivers/GD32F30x_standard_peripheral/Source/gd32f30x_can.c ****             CAN_CTL(can_periph) &= ~CAN_CTL_TFO;
 430              		.loc 1 231 13 is_stmt 1 view .LVU158
 431              		.loc 1 231 33 is_stmt 0 view .LVU159
 432 00a8 0368     		ldr	r3, [r0]
 433 00aa 23F00403 		bic	r3, r3, #4
 434 00ae 0360     		str	r3, [r0]
 435              	.L37:
 232:Drivers/GD32F30x_standard_peripheral/Source/gd32f30x_can.c ****         }  
 233:Drivers/GD32F30x_standard_peripheral/Source/gd32f30x_can.c ****         /* disable initialize mode */
ARM GAS  C:\Users\Prog\AppData\Local\Temp\ccf7Rdsw.s 			page 13


 234:Drivers/GD32F30x_standard_peripheral/Source/gd32f30x_can.c ****         CAN_CTL(can_periph) &= ~CAN_CTL_IWMOD;
 436              		.loc 1 234 9 is_stmt 1 view .LVU160
 437              		.loc 1 234 29 is_stmt 0 view .LVU161
 438 00b0 0368     		ldr	r3, [r0]
 439 00b2 23F00103 		bic	r3, r3, #1
 440 00b6 0360     		str	r3, [r0]
 235:Drivers/GD32F30x_standard_peripheral/Source/gd32f30x_can.c ****         timeout = CAN_TIMEOUT;
 441              		.loc 1 235 9 is_stmt 1 view .LVU162
 442              	.LVL24:
 236:Drivers/GD32F30x_standard_peripheral/Source/gd32f30x_can.c ****         /* wait the ACK */
 237:Drivers/GD32F30x_standard_peripheral/Source/gd32f30x_can.c ****         while((CAN_STAT_IWS == (CAN_STAT(can_periph) & CAN_STAT_IWS)) && (0U != timeout)){
 443              		.loc 1 237 9 view .LVU163
 235:Drivers/GD32F30x_standard_peripheral/Source/gd32f30x_can.c ****         timeout = CAN_TIMEOUT;
 444              		.loc 1 235 17 is_stmt 0 view .LVU164
 445 00b8 4FF6FF73 		movw	r3, #65535
 446              	.LVL25:
 447              	.L38:
 448              		.loc 1 237 33 view .LVU165
 449 00bc 2268     		ldr	r2, [r4]
 450              		.loc 1 237 14 view .LVU166
 451 00be 12F0010F 		tst	r2, #1
 452 00c2 20D0     		beq	.L39
 453              		.loc 1 237 71 discriminator 1 view .LVU167
 454 00c4 FBB1     		cbz	r3, .L39
 238:Drivers/GD32F30x_standard_peripheral/Source/gd32f30x_can.c ****             timeout--;
 455              		.loc 1 238 13 is_stmt 1 view .LVU168
 456              		.loc 1 238 20 is_stmt 0 view .LVU169
 457 00c6 013B     		subs	r3, r3, #1
 458              	.LVL26:
 459              		.loc 1 238 20 view .LVU170
 460 00c8 F8E7     		b	.L38
 461              	.LVL27:
 462              	.L44:
 199:Drivers/GD32F30x_standard_peripheral/Source/gd32f30x_can.c ****         }else{
 463              		.loc 1 199 13 is_stmt 1 view .LVU171
 199:Drivers/GD32F30x_standard_peripheral/Source/gd32f30x_can.c ****         }else{
 464              		.loc 1 199 33 is_stmt 0 view .LVU172
 465 00ca 0368     		ldr	r3, [r0]
 466 00cc 43F08003 		orr	r3, r3, #128
 467 00d0 0360     		str	r3, [r0]
 468 00d2 CAE7     		b	.L27
 469              	.L45:
 205:Drivers/GD32F30x_standard_peripheral/Source/gd32f30x_can.c ****         }else{
 470              		.loc 1 205 13 is_stmt 1 view .LVU173
 205:Drivers/GD32F30x_standard_peripheral/Source/gd32f30x_can.c ****         }else{
 471              		.loc 1 205 33 is_stmt 0 view .LVU174
 472 00d4 0368     		ldr	r3, [r0]
 473 00d6 43F04003 		orr	r3, r3, #64
 474 00da 0360     		str	r3, [r0]
 475 00dc CCE7     		b	.L29
 476              	.L46:
 211:Drivers/GD32F30x_standard_peripheral/Source/gd32f30x_can.c ****         }else{
 477              		.loc 1 211 13 is_stmt 1 view .LVU175
 211:Drivers/GD32F30x_standard_peripheral/Source/gd32f30x_can.c ****         }else{
 478              		.loc 1 211 33 is_stmt 0 view .LVU176
 479 00de 0368     		ldr	r3, [r0]
 480 00e0 43F02003 		orr	r3, r3, #32
ARM GAS  C:\Users\Prog\AppData\Local\Temp\ccf7Rdsw.s 			page 14


 481 00e4 0360     		str	r3, [r0]
 482 00e6 CEE7     		b	.L31
 483              	.L47:
 217:Drivers/GD32F30x_standard_peripheral/Source/gd32f30x_can.c ****         }else{
 484              		.loc 1 217 13 is_stmt 1 view .LVU177
 217:Drivers/GD32F30x_standard_peripheral/Source/gd32f30x_can.c ****         }else{
 485              		.loc 1 217 33 is_stmt 0 view .LVU178
 486 00e8 0368     		ldr	r3, [r0]
 487 00ea 43F01003 		orr	r3, r3, #16
 488 00ee 0360     		str	r3, [r0]
 489 00f0 D0E7     		b	.L33
 490              	.L48:
 223:Drivers/GD32F30x_standard_peripheral/Source/gd32f30x_can.c ****         }else{
 491              		.loc 1 223 13 is_stmt 1 view .LVU179
 223:Drivers/GD32F30x_standard_peripheral/Source/gd32f30x_can.c ****         }else{
 492              		.loc 1 223 33 is_stmt 0 view .LVU180
 493 00f2 0368     		ldr	r3, [r0]
 494 00f4 43F00803 		orr	r3, r3, #8
 495 00f8 0360     		str	r3, [r0]
 496 00fa D2E7     		b	.L35
 497              	.L49:
 229:Drivers/GD32F30x_standard_peripheral/Source/gd32f30x_can.c ****         }else{
 498              		.loc 1 229 13 is_stmt 1 view .LVU181
 229:Drivers/GD32F30x_standard_peripheral/Source/gd32f30x_can.c ****         }else{
 499              		.loc 1 229 33 is_stmt 0 view .LVU182
 500 00fc 0368     		ldr	r3, [r0]
 501 00fe 43F00403 		orr	r3, r3, #4
 502 0102 0360     		str	r3, [r0]
 503 0104 D4E7     		b	.L37
 504              	.LVL28:
 505              	.L39:
 239:Drivers/GD32F30x_standard_peripheral/Source/gd32f30x_can.c ****         }
 240:Drivers/GD32F30x_standard_peripheral/Source/gd32f30x_can.c ****         /* check exit initialize mode */
 241:Drivers/GD32F30x_standard_peripheral/Source/gd32f30x_can.c ****         if(0U != timeout){
 506              		.loc 1 241 9 is_stmt 1 view .LVU183
 507              		.loc 1 241 11 is_stmt 0 view .LVU184
 508 0106 2BB9     		cbnz	r3, .L42
 176:Drivers/GD32F30x_standard_peripheral/Source/gd32f30x_can.c ****     
 509              		.loc 1 176 15 view .LVU185
 510 0108 0020     		movs	r0, #0
 511              	.LVL29:
 176:Drivers/GD32F30x_standard_peripheral/Source/gd32f30x_can.c ****     
 512              		.loc 1 176 15 view .LVU186
 513 010a 00E0     		b	.L25
 514              	.LVL30:
 515              	.L41:
 188:Drivers/GD32F30x_standard_peripheral/Source/gd32f30x_can.c ****     }else{
 516              		.loc 1 188 14 view .LVU187
 517 010c 0020     		movs	r0, #0
 518              	.LVL31:
 519              	.L25:
 242:Drivers/GD32F30x_standard_peripheral/Source/gd32f30x_can.c ****             flag = SUCCESS;
 243:Drivers/GD32F30x_standard_peripheral/Source/gd32f30x_can.c ****         }
 244:Drivers/GD32F30x_standard_peripheral/Source/gd32f30x_can.c ****     }  
 245:Drivers/GD32F30x_standard_peripheral/Source/gd32f30x_can.c ****     return flag;
 520              		.loc 1 245 5 is_stmt 1 view .LVU188
 246:Drivers/GD32F30x_standard_peripheral/Source/gd32f30x_can.c **** }
ARM GAS  C:\Users\Prog\AppData\Local\Temp\ccf7Rdsw.s 			page 15


 521              		.loc 1 246 1 is_stmt 0 view .LVU189
 522 010e 5DF8044B 		ldr	r4, [sp], #4
 523              	.LCFI2:
 524              		.cfi_remember_state
 525              		.cfi_restore 4
 526              		.cfi_def_cfa_offset 0
 527              	.LVL32:
 528              		.loc 1 246 1 view .LVU190
 529 0112 7047     		bx	lr
 530              	.LVL33:
 531              	.L42:
 532              	.LCFI3:
 533              		.cfi_restore_state
 242:Drivers/GD32F30x_standard_peripheral/Source/gd32f30x_can.c ****             flag = SUCCESS;
 534              		.loc 1 242 18 view .LVU191
 535 0114 0120     		movs	r0, #1
 536              	.LVL34:
 242:Drivers/GD32F30x_standard_peripheral/Source/gd32f30x_can.c ****             flag = SUCCESS;
 537              		.loc 1 242 18 view .LVU192
 538 0116 FAE7     		b	.L25
 539              		.cfi_endproc
 540              	.LFE118:
 542              		.section	.text.can_filter_init,"ax",%progbits
 543              		.align	1
 544              		.global	can_filter_init
 545              		.syntax unified
 546              		.thumb
 547              		.thumb_func
 548              		.fpu fpv4-sp-d16
 550              	can_filter_init:
 551              	.LVL35:
 552              	.LFB119:
 247:Drivers/GD32F30x_standard_peripheral/Source/gd32f30x_can.c **** 
 248:Drivers/GD32F30x_standard_peripheral/Source/gd32f30x_can.c **** /*!
 249:Drivers/GD32F30x_standard_peripheral/Source/gd32f30x_can.c ****     \brief      initialize CAN filter 
 250:Drivers/GD32F30x_standard_peripheral/Source/gd32f30x_can.c ****     \param[in]  can_filter_parameter_init: struct for CAN filter initialization
 251:Drivers/GD32F30x_standard_peripheral/Source/gd32f30x_can.c ****       \arg        filter_list_high: 0x0000 - 0xFFFF
 252:Drivers/GD32F30x_standard_peripheral/Source/gd32f30x_can.c ****       \arg        filter_list_low: 0x0000 - 0xFFFF
 253:Drivers/GD32F30x_standard_peripheral/Source/gd32f30x_can.c ****       \arg        filter_mask_high: 0x0000 - 0xFFFF
 254:Drivers/GD32F30x_standard_peripheral/Source/gd32f30x_can.c ****       \arg        filter_mask_low: 0x0000 - 0xFFFF
 255:Drivers/GD32F30x_standard_peripheral/Source/gd32f30x_can.c ****       \arg        filter_fifo_number: CAN_FIFO0, CAN_FIFO1 
 256:Drivers/GD32F30x_standard_peripheral/Source/gd32f30x_can.c ****       \arg        filter_number: 0 - 27
 257:Drivers/GD32F30x_standard_peripheral/Source/gd32f30x_can.c ****       \arg        filter_mode: CAN_FILTERMODE_MASK, CAN_FILTERMODE_LIST
 258:Drivers/GD32F30x_standard_peripheral/Source/gd32f30x_can.c ****       \arg        filter_bits: CAN_FILTERBITS_32BIT, CAN_FILTERBITS_16BIT 
 259:Drivers/GD32F30x_standard_peripheral/Source/gd32f30x_can.c ****       \arg        filter_enable: ENABLE or DISABLE
 260:Drivers/GD32F30x_standard_peripheral/Source/gd32f30x_can.c ****     \param[out] none
 261:Drivers/GD32F30x_standard_peripheral/Source/gd32f30x_can.c ****     \retval     none
 262:Drivers/GD32F30x_standard_peripheral/Source/gd32f30x_can.c **** */
 263:Drivers/GD32F30x_standard_peripheral/Source/gd32f30x_can.c **** void can_filter_init(can_filter_parameter_struct* can_filter_parameter_init)
 264:Drivers/GD32F30x_standard_peripheral/Source/gd32f30x_can.c **** {
 553              		.loc 1 264 1 is_stmt 1 view -0
 554              		.cfi_startproc
 555              		@ args = 0, pretend = 0, frame = 0
 556              		@ frame_needed = 0, uses_anonymous_args = 0
 557              		@ link register save eliminated.
 558              		.loc 1 264 1 is_stmt 0 view .LVU194
 559 0000 30B4     		push	{r4, r5}
ARM GAS  C:\Users\Prog\AppData\Local\Temp\ccf7Rdsw.s 			page 16


 560              	.LCFI4:
 561              		.cfi_def_cfa_offset 8
 562              		.cfi_offset 4, -8
 563              		.cfi_offset 5, -4
 265:Drivers/GD32F30x_standard_peripheral/Source/gd32f30x_can.c ****     uint32_t val = 0U;
 564              		.loc 1 265 5 is_stmt 1 view .LVU195
 565              	.LVL36:
 266:Drivers/GD32F30x_standard_peripheral/Source/gd32f30x_can.c ****     
 267:Drivers/GD32F30x_standard_peripheral/Source/gd32f30x_can.c ****     val = ((uint32_t)1) << (can_filter_parameter_init->filter_number);
 566              		.loc 1 267 5 view .LVU196
 567              		.loc 1 267 54 is_stmt 0 view .LVU197
 568 0002 4389     		ldrh	r3, [r0, #10]
 569              		.loc 1 267 9 view .LVU198
 570 0004 0122     		movs	r2, #1
 571 0006 02FA03F3 		lsl	r3, r2, r3
 572              	.LVL37:
 268:Drivers/GD32F30x_standard_peripheral/Source/gd32f30x_can.c ****     /* filter lock disable */
 269:Drivers/GD32F30x_standard_peripheral/Source/gd32f30x_can.c ****     CAN_FCTL(CAN0) |= CAN_FCTL_FLD;
 573              		.loc 1 269 5 is_stmt 1 view .LVU199
 574              		.loc 1 269 20 is_stmt 0 view .LVU200
 575 000a 3549     		ldr	r1, .L61
 576 000c 0A68     		ldr	r2, [r1]
 577 000e 42F00102 		orr	r2, r2, #1
 578 0012 0A60     		str	r2, [r1]
 270:Drivers/GD32F30x_standard_peripheral/Source/gd32f30x_can.c ****     /* disable filter */
 271:Drivers/GD32F30x_standard_peripheral/Source/gd32f30x_can.c ****     CAN_FW(CAN0) &= ~(uint32_t)val;
 579              		.loc 1 271 5 is_stmt 1 view .LVU201
 580              		.loc 1 271 18 is_stmt 0 view .LVU202
 581 0014 334C     		ldr	r4, .L61+4
 582 0016 2168     		ldr	r1, [r4]
 583              		.loc 1 271 21 view .LVU203
 584 0018 DA43     		mvns	r2, r3
 585              		.loc 1 271 18 view .LVU204
 586 001a 1140     		ands	r1, r1, r2
 587 001c 2160     		str	r1, [r4]
 272:Drivers/GD32F30x_standard_peripheral/Source/gd32f30x_can.c ****     
 273:Drivers/GD32F30x_standard_peripheral/Source/gd32f30x_can.c ****     /* filter 16 bits */
 274:Drivers/GD32F30x_standard_peripheral/Source/gd32f30x_can.c ****     if(CAN_FILTERBITS_16BIT == can_filter_parameter_init->filter_bits){
 588              		.loc 1 274 5 is_stmt 1 view .LVU205
 589              		.loc 1 274 57 is_stmt 0 view .LVU206
 590 001e C189     		ldrh	r1, [r0, #14]
 591              		.loc 1 274 7 view .LVU207
 592 0020 C9B9     		cbnz	r1, .L51
 275:Drivers/GD32F30x_standard_peripheral/Source/gd32f30x_can.c ****         /* set filter 16 bits */
 276:Drivers/GD32F30x_standard_peripheral/Source/gd32f30x_can.c ****         CAN_FSCFG(CAN0) &= ~(uint32_t)val;
 593              		.loc 1 276 9 is_stmt 1 view .LVU208
 594              		.loc 1 276 25 is_stmt 0 view .LVU209
 595 0022 103C     		subs	r4, r4, #16
 596 0024 2168     		ldr	r1, [r4]
 597 0026 1140     		ands	r1, r1, r2
 598 0028 2160     		str	r1, [r4]
 277:Drivers/GD32F30x_standard_peripheral/Source/gd32f30x_can.c ****         /* first 16 bits list and first 16 bits mask or first 16 bits list and second 16 bits list 
 278:Drivers/GD32F30x_standard_peripheral/Source/gd32f30x_can.c ****         CAN_FDATA0(CAN0, can_filter_parameter_init->filter_number) = \
 599              		.loc 1 278 9 is_stmt 1 view .LVU210
 279:Drivers/GD32F30x_standard_peripheral/Source/gd32f30x_can.c ****                                 FDATA_MASK_HIGH((can_filter_parameter_init->filter_mask_low) & CAN_
 600              		.loc 1 279 33 is_stmt 0 view .LVU211
 601 002a C588     		ldrh	r5, [r0, #6]
ARM GAS  C:\Users\Prog\AppData\Local\Temp\ccf7Rdsw.s 			page 17


 280:Drivers/GD32F30x_standard_peripheral/Source/gd32f30x_can.c ****                                 FDATA_MASK_LOW((can_filter_parameter_init->filter_list_low) & CAN_F
 602              		.loc 1 280 33 view .LVU212
 603 002c 4488     		ldrh	r4, [r0, #2]
 278:Drivers/GD32F30x_standard_peripheral/Source/gd32f30x_can.c ****                                 FDATA_MASK_HIGH((can_filter_parameter_init->filter_mask_low) & CAN_
 604              		.loc 1 278 9 view .LVU213
 605 002e 4189     		ldrh	r1, [r0, #10]
 606 0030 01F10061 		add	r1, r1, #134217728
 607 0034 01F6C841 		addw	r1, r1, #3272
 608 0038 C900     		lsls	r1, r1, #3
 279:Drivers/GD32F30x_standard_peripheral/Source/gd32f30x_can.c ****                                 FDATA_MASK_HIGH((can_filter_parameter_init->filter_mask_low) & CAN_
 609              		.loc 1 279 120 view .LVU214
 610 003a 44EA0544 		orr	r4, r4, r5, lsl #16
 278:Drivers/GD32F30x_standard_peripheral/Source/gd32f30x_can.c ****                                 FDATA_MASK_HIGH((can_filter_parameter_init->filter_mask_low) & CAN_
 611              		.loc 1 278 68 view .LVU215
 612 003e 0C60     		str	r4, [r1]
 281:Drivers/GD32F30x_standard_peripheral/Source/gd32f30x_can.c ****         /* second 16 bits list and second 16 bits mask or third 16 bits list and fourth 16 bits lis
 282:Drivers/GD32F30x_standard_peripheral/Source/gd32f30x_can.c ****         CAN_FDATA1(CAN0, can_filter_parameter_init->filter_number) = \
 613              		.loc 1 282 9 is_stmt 1 view .LVU216
 283:Drivers/GD32F30x_standard_peripheral/Source/gd32f30x_can.c ****                                 FDATA_MASK_HIGH((can_filter_parameter_init->filter_mask_high) & CAN
 614              		.loc 1 283 33 is_stmt 0 view .LVU217
 615 0040 8588     		ldrh	r5, [r0, #4]
 284:Drivers/GD32F30x_standard_peripheral/Source/gd32f30x_can.c ****                                 FDATA_MASK_LOW((can_filter_parameter_init->filter_list_high) & CAN_
 616              		.loc 1 284 33 view .LVU218
 617 0042 0488     		ldrh	r4, [r0]
 282:Drivers/GD32F30x_standard_peripheral/Source/gd32f30x_can.c ****                                 FDATA_MASK_HIGH((can_filter_parameter_init->filter_mask_high) & CAN
 618              		.loc 1 282 9 view .LVU219
 619 0044 4189     		ldrh	r1, [r0, #10]
 620 0046 01F10061 		add	r1, r1, #134217728
 621 004a 01F6C841 		addw	r1, r1, #3272
 622 004e C900     		lsls	r1, r1, #3
 283:Drivers/GD32F30x_standard_peripheral/Source/gd32f30x_can.c ****                                 FDATA_MASK_HIGH((can_filter_parameter_init->filter_mask_high) & CAN
 623              		.loc 1 283 121 view .LVU220
 624 0050 44EA0544 		orr	r4, r4, r5, lsl #16
 282:Drivers/GD32F30x_standard_peripheral/Source/gd32f30x_can.c ****                                 FDATA_MASK_HIGH((can_filter_parameter_init->filter_mask_high) & CAN
 625              		.loc 1 282 68 view .LVU221
 626 0054 4C60     		str	r4, [r1, #4]
 627              	.L51:
 285:Drivers/GD32F30x_standard_peripheral/Source/gd32f30x_can.c ****     }
 286:Drivers/GD32F30x_standard_peripheral/Source/gd32f30x_can.c ****     /* filter 32 bits */
 287:Drivers/GD32F30x_standard_peripheral/Source/gd32f30x_can.c ****     if(CAN_FILTERBITS_32BIT == can_filter_parameter_init->filter_bits){
 628              		.loc 1 287 5 is_stmt 1 view .LVU222
 629              		.loc 1 287 57 is_stmt 0 view .LVU223
 630 0056 C189     		ldrh	r1, [r0, #14]
 631              		.loc 1 287 7 view .LVU224
 632 0058 0129     		cmp	r1, #1
 633 005a 17D0     		beq	.L59
 634              	.L52:
 288:Drivers/GD32F30x_standard_peripheral/Source/gd32f30x_can.c ****         /* set filter 32 bits */
 289:Drivers/GD32F30x_standard_peripheral/Source/gd32f30x_can.c ****         CAN_FSCFG(CAN0) |= (uint32_t)val;
 290:Drivers/GD32F30x_standard_peripheral/Source/gd32f30x_can.c ****         /* 32 bits list or first 32 bits list */
 291:Drivers/GD32F30x_standard_peripheral/Source/gd32f30x_can.c ****         CAN_FDATA0(CAN0, can_filter_parameter_init->filter_number) = \
 292:Drivers/GD32F30x_standard_peripheral/Source/gd32f30x_can.c ****                                 FDATA_MASK_HIGH((can_filter_parameter_init->filter_list_high) & CAN
 293:Drivers/GD32F30x_standard_peripheral/Source/gd32f30x_can.c ****                                 FDATA_MASK_LOW((can_filter_parameter_init->filter_list_low) & CAN_F
 294:Drivers/GD32F30x_standard_peripheral/Source/gd32f30x_can.c ****         /* 32 bits mask or second 32 bits list */
 295:Drivers/GD32F30x_standard_peripheral/Source/gd32f30x_can.c ****         CAN_FDATA1(CAN0, can_filter_parameter_init->filter_number) = \
 296:Drivers/GD32F30x_standard_peripheral/Source/gd32f30x_can.c ****                                 FDATA_MASK_HIGH((can_filter_parameter_init->filter_mask_high) & CAN
 297:Drivers/GD32F30x_standard_peripheral/Source/gd32f30x_can.c ****                                 FDATA_MASK_LOW((can_filter_parameter_init->filter_mask_low) & CAN_F
ARM GAS  C:\Users\Prog\AppData\Local\Temp\ccf7Rdsw.s 			page 18


 298:Drivers/GD32F30x_standard_peripheral/Source/gd32f30x_can.c ****     }
 299:Drivers/GD32F30x_standard_peripheral/Source/gd32f30x_can.c ****     
 300:Drivers/GD32F30x_standard_peripheral/Source/gd32f30x_can.c ****     /* filter mode */
 301:Drivers/GD32F30x_standard_peripheral/Source/gd32f30x_can.c ****     if(CAN_FILTERMODE_MASK == can_filter_parameter_init->filter_mode){
 635              		.loc 1 301 5 is_stmt 1 view .LVU225
 636              		.loc 1 301 56 is_stmt 0 view .LVU226
 637 005c 8189     		ldrh	r1, [r0, #12]
 638              		.loc 1 301 7 view .LVU227
 639 005e 0029     		cmp	r1, #0
 640 0060 2FD1     		bne	.L53
 302:Drivers/GD32F30x_standard_peripheral/Source/gd32f30x_can.c ****         /* mask mode */
 303:Drivers/GD32F30x_standard_peripheral/Source/gd32f30x_can.c ****         CAN_FMCFG(CAN0) &= ~(uint32_t)val;
 641              		.loc 1 303 9 is_stmt 1 view .LVU228
 642              		.loc 1 303 25 is_stmt 0 view .LVU229
 643 0062 214C     		ldr	r4, .L61+8
 644 0064 2168     		ldr	r1, [r4]
 645 0066 1140     		ands	r1, r1, r2
 646 0068 2160     		str	r1, [r4]
 647              	.L54:
 304:Drivers/GD32F30x_standard_peripheral/Source/gd32f30x_can.c ****     }else{
 305:Drivers/GD32F30x_standard_peripheral/Source/gd32f30x_can.c ****         /* list mode */
 306:Drivers/GD32F30x_standard_peripheral/Source/gd32f30x_can.c ****         CAN_FMCFG(CAN0) |= (uint32_t)val;
 307:Drivers/GD32F30x_standard_peripheral/Source/gd32f30x_can.c ****     }
 308:Drivers/GD32F30x_standard_peripheral/Source/gd32f30x_can.c ****     
 309:Drivers/GD32F30x_standard_peripheral/Source/gd32f30x_can.c ****     /* filter FIFO */
 310:Drivers/GD32F30x_standard_peripheral/Source/gd32f30x_can.c ****     if(CAN_FIFO0 == (can_filter_parameter_init->filter_fifo_number)){
 648              		.loc 1 310 5 is_stmt 1 view .LVU230
 649              		.loc 1 310 47 is_stmt 0 view .LVU231
 650 006a 0189     		ldrh	r1, [r0, #8]
 651              		.loc 1 310 7 view .LVU232
 652 006c 0029     		cmp	r1, #0
 653 006e 2DD1     		bne	.L55
 311:Drivers/GD32F30x_standard_peripheral/Source/gd32f30x_can.c ****         /* FIFO0 */
 312:Drivers/GD32F30x_standard_peripheral/Source/gd32f30x_can.c ****         CAN_FAFIFO(CAN0) &= ~(uint32_t)val;
 654              		.loc 1 312 9 is_stmt 1 view .LVU233
 655              		.loc 1 312 26 is_stmt 0 view .LVU234
 656 0070 1E49     		ldr	r1, .L61+12
 657 0072 0C68     		ldr	r4, [r1]
 658 0074 2240     		ands	r2, r2, r4
 659 0076 0A60     		str	r2, [r1]
 660              	.L56:
 313:Drivers/GD32F30x_standard_peripheral/Source/gd32f30x_can.c ****     }else{
 314:Drivers/GD32F30x_standard_peripheral/Source/gd32f30x_can.c ****         /* FIFO1 */
 315:Drivers/GD32F30x_standard_peripheral/Source/gd32f30x_can.c ****         CAN_FAFIFO(CAN0) |= (uint32_t)val;
 316:Drivers/GD32F30x_standard_peripheral/Source/gd32f30x_can.c ****     }
 317:Drivers/GD32F30x_standard_peripheral/Source/gd32f30x_can.c ****     
 318:Drivers/GD32F30x_standard_peripheral/Source/gd32f30x_can.c ****     /* filter working */
 319:Drivers/GD32F30x_standard_peripheral/Source/gd32f30x_can.c ****     if(ENABLE == can_filter_parameter_init->filter_enable){
 661              		.loc 1 319 5 is_stmt 1 view .LVU235
 662              		.loc 1 319 43 is_stmt 0 view .LVU236
 663 0078 027C     		ldrb	r2, [r0, #16]	@ zero_extendqisi2
 664              		.loc 1 319 7 view .LVU237
 665 007a 012A     		cmp	r2, #1
 666 007c 2BD0     		beq	.L60
 667              	.LVL38:
 668              	.L57:
 320:Drivers/GD32F30x_standard_peripheral/Source/gd32f30x_can.c ****         
ARM GAS  C:\Users\Prog\AppData\Local\Temp\ccf7Rdsw.s 			page 19


 321:Drivers/GD32F30x_standard_peripheral/Source/gd32f30x_can.c ****         CAN_FW(CAN0) |= (uint32_t)val;
 322:Drivers/GD32F30x_standard_peripheral/Source/gd32f30x_can.c ****     }
 323:Drivers/GD32F30x_standard_peripheral/Source/gd32f30x_can.c ****     
 324:Drivers/GD32F30x_standard_peripheral/Source/gd32f30x_can.c ****     /* filter lock enable */
 325:Drivers/GD32F30x_standard_peripheral/Source/gd32f30x_can.c ****     CAN_FCTL(CAN0) &= ~CAN_FCTL_FLD;
 669              		.loc 1 325 5 is_stmt 1 view .LVU238
 670              		.loc 1 325 20 is_stmt 0 view .LVU239
 671 007e 184A     		ldr	r2, .L61
 672 0080 1368     		ldr	r3, [r2]
 673 0082 23F00103 		bic	r3, r3, #1
 674 0086 1360     		str	r3, [r2]
 326:Drivers/GD32F30x_standard_peripheral/Source/gd32f30x_can.c **** }
 675              		.loc 1 326 1 view .LVU240
 676 0088 30BC     		pop	{r4, r5}
 677              	.LCFI5:
 678              		.cfi_remember_state
 679              		.cfi_restore 5
 680              		.cfi_restore 4
 681              		.cfi_def_cfa_offset 0
 682 008a 7047     		bx	lr
 683              	.LVL39:
 684              	.L59:
 685              	.LCFI6:
 686              		.cfi_restore_state
 289:Drivers/GD32F30x_standard_peripheral/Source/gd32f30x_can.c ****         /* 32 bits list or first 32 bits list */
 687              		.loc 1 289 9 is_stmt 1 view .LVU241
 289:Drivers/GD32F30x_standard_peripheral/Source/gd32f30x_can.c ****         /* 32 bits list or first 32 bits list */
 688              		.loc 1 289 25 is_stmt 0 view .LVU242
 689 008c 184C     		ldr	r4, .L61+16
 690 008e 2168     		ldr	r1, [r4]
 691 0090 1943     		orrs	r1, r1, r3
 692 0092 2160     		str	r1, [r4]
 291:Drivers/GD32F30x_standard_peripheral/Source/gd32f30x_can.c ****                                 FDATA_MASK_HIGH((can_filter_parameter_init->filter_list_high) & CAN
 693              		.loc 1 291 9 is_stmt 1 view .LVU243
 292:Drivers/GD32F30x_standard_peripheral/Source/gd32f30x_can.c ****                                 FDATA_MASK_LOW((can_filter_parameter_init->filter_list_low) & CAN_F
 694              		.loc 1 292 33 is_stmt 0 view .LVU244
 695 0094 0588     		ldrh	r5, [r0]
 293:Drivers/GD32F30x_standard_peripheral/Source/gd32f30x_can.c ****         /* 32 bits mask or second 32 bits list */
 696              		.loc 1 293 33 view .LVU245
 697 0096 4488     		ldrh	r4, [r0, #2]
 291:Drivers/GD32F30x_standard_peripheral/Source/gd32f30x_can.c ****                                 FDATA_MASK_HIGH((can_filter_parameter_init->filter_list_high) & CAN
 698              		.loc 1 291 9 view .LVU246
 699 0098 4189     		ldrh	r1, [r0, #10]
 700 009a 01F10061 		add	r1, r1, #134217728
 701 009e 01F6C841 		addw	r1, r1, #3272
 702 00a2 C900     		lsls	r1, r1, #3
 292:Drivers/GD32F30x_standard_peripheral/Source/gd32f30x_can.c ****                                 FDATA_MASK_LOW((can_filter_parameter_init->filter_list_low) & CAN_F
 703              		.loc 1 292 121 view .LVU247
 704 00a4 44EA0544 		orr	r4, r4, r5, lsl #16
 291:Drivers/GD32F30x_standard_peripheral/Source/gd32f30x_can.c ****                                 FDATA_MASK_HIGH((can_filter_parameter_init->filter_list_high) & CAN
 705              		.loc 1 291 68 view .LVU248
 706 00a8 0C60     		str	r4, [r1]
 295:Drivers/GD32F30x_standard_peripheral/Source/gd32f30x_can.c ****                                 FDATA_MASK_HIGH((can_filter_parameter_init->filter_mask_high) & CAN
 707              		.loc 1 295 9 is_stmt 1 view .LVU249
 296:Drivers/GD32F30x_standard_peripheral/Source/gd32f30x_can.c ****                                 FDATA_MASK_LOW((can_filter_parameter_init->filter_mask_low) & CAN_F
 708              		.loc 1 296 33 is_stmt 0 view .LVU250
 709 00aa 8588     		ldrh	r5, [r0, #4]
ARM GAS  C:\Users\Prog\AppData\Local\Temp\ccf7Rdsw.s 			page 20


 297:Drivers/GD32F30x_standard_peripheral/Source/gd32f30x_can.c ****     }
 710              		.loc 1 297 33 view .LVU251
 711 00ac C488     		ldrh	r4, [r0, #6]
 295:Drivers/GD32F30x_standard_peripheral/Source/gd32f30x_can.c ****                                 FDATA_MASK_HIGH((can_filter_parameter_init->filter_mask_high) & CAN
 712              		.loc 1 295 9 view .LVU252
 713 00ae 4189     		ldrh	r1, [r0, #10]
 714 00b0 01F10061 		add	r1, r1, #134217728
 715 00b4 01F6C841 		addw	r1, r1, #3272
 716 00b8 C900     		lsls	r1, r1, #3
 296:Drivers/GD32F30x_standard_peripheral/Source/gd32f30x_can.c ****                                 FDATA_MASK_LOW((can_filter_parameter_init->filter_mask_low) & CAN_F
 717              		.loc 1 296 121 view .LVU253
 718 00ba 44EA0544 		orr	r4, r4, r5, lsl #16
 295:Drivers/GD32F30x_standard_peripheral/Source/gd32f30x_can.c ****                                 FDATA_MASK_HIGH((can_filter_parameter_init->filter_mask_high) & CAN
 719              		.loc 1 295 68 view .LVU254
 720 00be 4C60     		str	r4, [r1, #4]
 721 00c0 CCE7     		b	.L52
 722              	.L53:
 306:Drivers/GD32F30x_standard_peripheral/Source/gd32f30x_can.c ****     }
 723              		.loc 1 306 9 is_stmt 1 view .LVU255
 306:Drivers/GD32F30x_standard_peripheral/Source/gd32f30x_can.c ****     }
 724              		.loc 1 306 25 is_stmt 0 view .LVU256
 725 00c2 094C     		ldr	r4, .L61+8
 726 00c4 2168     		ldr	r1, [r4]
 727 00c6 1943     		orrs	r1, r1, r3
 728 00c8 2160     		str	r1, [r4]
 729 00ca CEE7     		b	.L54
 730              	.L55:
 315:Drivers/GD32F30x_standard_peripheral/Source/gd32f30x_can.c ****     }
 731              		.loc 1 315 9 is_stmt 1 view .LVU257
 315:Drivers/GD32F30x_standard_peripheral/Source/gd32f30x_can.c ****     }
 732              		.loc 1 315 26 is_stmt 0 view .LVU258
 733 00cc 0749     		ldr	r1, .L61+12
 734 00ce 0A68     		ldr	r2, [r1]
 735 00d0 1A43     		orrs	r2, r2, r3
 736 00d2 0A60     		str	r2, [r1]
 737 00d4 D0E7     		b	.L56
 738              	.L60:
 321:Drivers/GD32F30x_standard_peripheral/Source/gd32f30x_can.c ****     }
 739              		.loc 1 321 9 is_stmt 1 view .LVU259
 321:Drivers/GD32F30x_standard_peripheral/Source/gd32f30x_can.c ****     }
 740              		.loc 1 321 22 is_stmt 0 view .LVU260
 741 00d6 0349     		ldr	r1, .L61+4
 742 00d8 0A68     		ldr	r2, [r1]
 743 00da 1343     		orrs	r3, r3, r2
 744              	.LVL40:
 321:Drivers/GD32F30x_standard_peripheral/Source/gd32f30x_can.c ****     }
 745              		.loc 1 321 22 view .LVU261
 746 00dc 0B60     		str	r3, [r1]
 747 00de CEE7     		b	.L57
 748              	.L62:
 749              		.align	2
 750              	.L61:
 751 00e0 00660040 		.word	1073767936
 752 00e4 1C660040 		.word	1073767964
 753 00e8 04660040 		.word	1073767940
 754 00ec 14660040 		.word	1073767956
 755 00f0 0C660040 		.word	1073767948
ARM GAS  C:\Users\Prog\AppData\Local\Temp\ccf7Rdsw.s 			page 21


 756              		.cfi_endproc
 757              	.LFE119:
 759              		.section	.text.can1_filter_start_bank,"ax",%progbits
 760              		.align	1
 761              		.global	can1_filter_start_bank
 762              		.syntax unified
 763              		.thumb
 764              		.thumb_func
 765              		.fpu fpv4-sp-d16
 767              	can1_filter_start_bank:
 768              	.LVL41:
 769              	.LFB120:
 327:Drivers/GD32F30x_standard_peripheral/Source/gd32f30x_can.c **** 
 328:Drivers/GD32F30x_standard_peripheral/Source/gd32f30x_can.c **** /*!
 329:Drivers/GD32F30x_standard_peripheral/Source/gd32f30x_can.c ****     \brief      set CAN1 fliter start bank number
 330:Drivers/GD32F30x_standard_peripheral/Source/gd32f30x_can.c ****     \param[in]  start_bank: CAN1 start bank number
 331:Drivers/GD32F30x_standard_peripheral/Source/gd32f30x_can.c ****                 only one parameter can be selected which is shown as below:
 332:Drivers/GD32F30x_standard_peripheral/Source/gd32f30x_can.c ****       \arg        (1..27)
 333:Drivers/GD32F30x_standard_peripheral/Source/gd32f30x_can.c ****     \param[out] none
 334:Drivers/GD32F30x_standard_peripheral/Source/gd32f30x_can.c ****     \retval     none
 335:Drivers/GD32F30x_standard_peripheral/Source/gd32f30x_can.c **** */
 336:Drivers/GD32F30x_standard_peripheral/Source/gd32f30x_can.c **** void can1_filter_start_bank(uint8_t start_bank)
 337:Drivers/GD32F30x_standard_peripheral/Source/gd32f30x_can.c **** {
 770              		.loc 1 337 1 is_stmt 1 view -0
 771              		.cfi_startproc
 772              		@ args = 0, pretend = 0, frame = 0
 773              		@ frame_needed = 0, uses_anonymous_args = 0
 774              		@ link register save eliminated.
 338:Drivers/GD32F30x_standard_peripheral/Source/gd32f30x_can.c ****     /* filter lock disable */
 339:Drivers/GD32F30x_standard_peripheral/Source/gd32f30x_can.c ****     CAN_FCTL(CAN0) |= CAN_FCTL_FLD;
 775              		.loc 1 339 5 view .LVU263
 776              		.loc 1 339 20 is_stmt 0 view .LVU264
 777 0000 094B     		ldr	r3, .L64
 778 0002 1A68     		ldr	r2, [r3]
 779 0004 42F00102 		orr	r2, r2, #1
 780 0008 1A60     		str	r2, [r3]
 340:Drivers/GD32F30x_standard_peripheral/Source/gd32f30x_can.c ****     /* set CAN1 filter start number */
 341:Drivers/GD32F30x_standard_peripheral/Source/gd32f30x_can.c ****     CAN_FCTL(CAN0) &= ~(uint32_t)CAN_FCTL_HBC1F;
 781              		.loc 1 341 5 is_stmt 1 view .LVU265
 782              		.loc 1 341 20 is_stmt 0 view .LVU266
 783 000a 1A68     		ldr	r2, [r3]
 784 000c 22F47C52 		bic	r2, r2, #16128
 785 0010 1A60     		str	r2, [r3]
 342:Drivers/GD32F30x_standard_peripheral/Source/gd32f30x_can.c ****     CAN_FCTL(CAN0) |= FCTL_HBC1F(start_bank);
 786              		.loc 1 342 5 is_stmt 1 view .LVU267
 787              		.loc 1 342 20 is_stmt 0 view .LVU268
 788 0012 1A68     		ldr	r2, [r3]
 789              		.loc 1 342 23 view .LVU269
 790 0014 0002     		lsls	r0, r0, #8
 791              	.LVL42:
 792              		.loc 1 342 23 view .LVU270
 793 0016 00F47C50 		and	r0, r0, #16128
 794              		.loc 1 342 20 view .LVU271
 795 001a 0243     		orrs	r2, r2, r0
 796 001c 1A60     		str	r2, [r3]
 343:Drivers/GD32F30x_standard_peripheral/Source/gd32f30x_can.c ****     /* filter lock enaable */
 344:Drivers/GD32F30x_standard_peripheral/Source/gd32f30x_can.c ****     CAN_FCTL(CAN0) &= ~CAN_FCTL_FLD;
ARM GAS  C:\Users\Prog\AppData\Local\Temp\ccf7Rdsw.s 			page 22


 797              		.loc 1 344 5 is_stmt 1 view .LVU272
 798              		.loc 1 344 20 is_stmt 0 view .LVU273
 799 001e 1A68     		ldr	r2, [r3]
 800 0020 22F00102 		bic	r2, r2, #1
 801 0024 1A60     		str	r2, [r3]
 345:Drivers/GD32F30x_standard_peripheral/Source/gd32f30x_can.c **** }
 802              		.loc 1 345 1 view .LVU274
 803 0026 7047     		bx	lr
 804              	.L65:
 805              		.align	2
 806              	.L64:
 807 0028 00660040 		.word	1073767936
 808              		.cfi_endproc
 809              	.LFE120:
 811              		.section	.text.can_debug_freeze_enable,"ax",%progbits
 812              		.align	1
 813              		.global	can_debug_freeze_enable
 814              		.syntax unified
 815              		.thumb
 816              		.thumb_func
 817              		.fpu fpv4-sp-d16
 819              	can_debug_freeze_enable:
 820              	.LVL43:
 821              	.LFB121:
 346:Drivers/GD32F30x_standard_peripheral/Source/gd32f30x_can.c **** 
 347:Drivers/GD32F30x_standard_peripheral/Source/gd32f30x_can.c **** /*!
 348:Drivers/GD32F30x_standard_peripheral/Source/gd32f30x_can.c ****     \brief      enable CAN debug freeze
 349:Drivers/GD32F30x_standard_peripheral/Source/gd32f30x_can.c ****     \param[in]  can_periph
 350:Drivers/GD32F30x_standard_peripheral/Source/gd32f30x_can.c ****       \arg        CANx(x=0,1),the CAN1 only for GD32F30X_CL 
 351:Drivers/GD32F30x_standard_peripheral/Source/gd32f30x_can.c ****     \param[out] none
 352:Drivers/GD32F30x_standard_peripheral/Source/gd32f30x_can.c ****     \retval     none
 353:Drivers/GD32F30x_standard_peripheral/Source/gd32f30x_can.c **** */
 354:Drivers/GD32F30x_standard_peripheral/Source/gd32f30x_can.c **** void can_debug_freeze_enable(uint32_t can_periph)
 355:Drivers/GD32F30x_standard_peripheral/Source/gd32f30x_can.c **** {
 822              		.loc 1 355 1 is_stmt 1 view -0
 823              		.cfi_startproc
 824              		@ args = 0, pretend = 0, frame = 0
 825              		@ frame_needed = 0, uses_anonymous_args = 0
 826              		.loc 1 355 1 is_stmt 0 view .LVU276
 827 0000 08B5     		push	{r3, lr}
 828              	.LCFI7:
 829              		.cfi_def_cfa_offset 8
 830              		.cfi_offset 3, -8
 831              		.cfi_offset 14, -4
 356:Drivers/GD32F30x_standard_peripheral/Source/gd32f30x_can.c ****     CAN_CTL(can_periph) |= CAN_CTL_DFZ;
 832              		.loc 1 356 5 is_stmt 1 view .LVU277
 833              		.loc 1 356 25 is_stmt 0 view .LVU278
 834 0002 0368     		ldr	r3, [r0]
 835 0004 43F48033 		orr	r3, r3, #65536
 836 0008 0360     		str	r3, [r0]
 357:Drivers/GD32F30x_standard_peripheral/Source/gd32f30x_can.c **** #ifdef GD32F30X_CL
 358:Drivers/GD32F30x_standard_peripheral/Source/gd32f30x_can.c ****     if(CAN0 == can_periph){
 359:Drivers/GD32F30x_standard_peripheral/Source/gd32f30x_can.c ****         dbg_periph_enable(DBG_CAN0_HOLD);
 360:Drivers/GD32F30x_standard_peripheral/Source/gd32f30x_can.c ****     }else{
 361:Drivers/GD32F30x_standard_peripheral/Source/gd32f30x_can.c ****         dbg_periph_enable(DBG_CAN1_HOLD);
 362:Drivers/GD32F30x_standard_peripheral/Source/gd32f30x_can.c ****     }
 363:Drivers/GD32F30x_standard_peripheral/Source/gd32f30x_can.c **** #else
ARM GAS  C:\Users\Prog\AppData\Local\Temp\ccf7Rdsw.s 			page 23


 364:Drivers/GD32F30x_standard_peripheral/Source/gd32f30x_can.c ****     if(CAN0 == can_periph){
 837              		.loc 1 364 5 is_stmt 1 view .LVU279
 838              		.loc 1 364 7 is_stmt 0 view .LVU280
 839 000a 044B     		ldr	r3, .L70
 840 000c 9842     		cmp	r0, r3
 841 000e 00D0     		beq	.L69
 842              	.LVL44:
 843              	.L66:
 365:Drivers/GD32F30x_standard_peripheral/Source/gd32f30x_can.c ****         dbg_periph_enable(DBG_CAN0_HOLD);
 366:Drivers/GD32F30x_standard_peripheral/Source/gd32f30x_can.c ****     }
 367:Drivers/GD32F30x_standard_peripheral/Source/gd32f30x_can.c **** #endif
 368:Drivers/GD32F30x_standard_peripheral/Source/gd32f30x_can.c **** }
 844              		.loc 1 368 1 view .LVU281
 845 0010 08BD     		pop	{r3, pc}
 846              	.LVL45:
 847              	.L69:
 365:Drivers/GD32F30x_standard_peripheral/Source/gd32f30x_can.c ****         dbg_periph_enable(DBG_CAN0_HOLD);
 848              		.loc 1 365 9 is_stmt 1 view .LVU282
 849 0012 4FF48770 		mov	r0, #270
 850              	.LVL46:
 365:Drivers/GD32F30x_standard_peripheral/Source/gd32f30x_can.c ****         dbg_periph_enable(DBG_CAN0_HOLD);
 851              		.loc 1 365 9 is_stmt 0 view .LVU283
 852 0016 FFF7FEFF 		bl	dbg_periph_enable
 853              	.LVL47:
 854              		.loc 1 368 1 view .LVU284
 855 001a F9E7     		b	.L66
 856              	.L71:
 857              		.align	2
 858              	.L70:
 859 001c 00640040 		.word	1073767424
 860              		.cfi_endproc
 861              	.LFE121:
 863              		.section	.text.can_debug_freeze_disable,"ax",%progbits
 864              		.align	1
 865              		.global	can_debug_freeze_disable
 866              		.syntax unified
 867              		.thumb
 868              		.thumb_func
 869              		.fpu fpv4-sp-d16
 871              	can_debug_freeze_disable:
 872              	.LVL48:
 873              	.LFB122:
 369:Drivers/GD32F30x_standard_peripheral/Source/gd32f30x_can.c **** 
 370:Drivers/GD32F30x_standard_peripheral/Source/gd32f30x_can.c **** /*!
 371:Drivers/GD32F30x_standard_peripheral/Source/gd32f30x_can.c ****     \brief      disable CAN debug freeze
 372:Drivers/GD32F30x_standard_peripheral/Source/gd32f30x_can.c ****     \param[in]  can_periph
 373:Drivers/GD32F30x_standard_peripheral/Source/gd32f30x_can.c ****       \arg        CANx(x=0,1),the CAN1 only for GD32F30X_CL 
 374:Drivers/GD32F30x_standard_peripheral/Source/gd32f30x_can.c ****     \param[out] none
 375:Drivers/GD32F30x_standard_peripheral/Source/gd32f30x_can.c ****     \retval     none
 376:Drivers/GD32F30x_standard_peripheral/Source/gd32f30x_can.c **** */
 377:Drivers/GD32F30x_standard_peripheral/Source/gd32f30x_can.c **** void can_debug_freeze_disable(uint32_t can_periph)
 378:Drivers/GD32F30x_standard_peripheral/Source/gd32f30x_can.c **** {
 874              		.loc 1 378 1 is_stmt 1 view -0
 875              		.cfi_startproc
 876              		@ args = 0, pretend = 0, frame = 0
 877              		@ frame_needed = 0, uses_anonymous_args = 0
 878              		.loc 1 378 1 is_stmt 0 view .LVU286
ARM GAS  C:\Users\Prog\AppData\Local\Temp\ccf7Rdsw.s 			page 24


 879 0000 08B5     		push	{r3, lr}
 880              	.LCFI8:
 881              		.cfi_def_cfa_offset 8
 882              		.cfi_offset 3, -8
 883              		.cfi_offset 14, -4
 379:Drivers/GD32F30x_standard_peripheral/Source/gd32f30x_can.c ****     CAN_CTL(can_periph) &= ~CAN_CTL_DFZ;
 884              		.loc 1 379 5 is_stmt 1 view .LVU287
 885              		.loc 1 379 25 is_stmt 0 view .LVU288
 886 0002 0368     		ldr	r3, [r0]
 887 0004 23F48033 		bic	r3, r3, #65536
 888 0008 0360     		str	r3, [r0]
 380:Drivers/GD32F30x_standard_peripheral/Source/gd32f30x_can.c **** #ifdef GD32F30X_CL
 381:Drivers/GD32F30x_standard_peripheral/Source/gd32f30x_can.c ****     if(CAN0 == can_periph){
 382:Drivers/GD32F30x_standard_peripheral/Source/gd32f30x_can.c ****         dbg_periph_disable(DBG_CAN0_HOLD);
 383:Drivers/GD32F30x_standard_peripheral/Source/gd32f30x_can.c ****     }else{
 384:Drivers/GD32F30x_standard_peripheral/Source/gd32f30x_can.c ****         dbg_periph_disable(DBG_CAN1_HOLD);
 385:Drivers/GD32F30x_standard_peripheral/Source/gd32f30x_can.c ****     }
 386:Drivers/GD32F30x_standard_peripheral/Source/gd32f30x_can.c **** #else
 387:Drivers/GD32F30x_standard_peripheral/Source/gd32f30x_can.c ****     if(CAN0 == can_periph){
 889              		.loc 1 387 5 is_stmt 1 view .LVU289
 890              		.loc 1 387 7 is_stmt 0 view .LVU290
 891 000a 044B     		ldr	r3, .L76
 892 000c 9842     		cmp	r0, r3
 893 000e 00D0     		beq	.L75
 894              	.LVL49:
 895              	.L72:
 388:Drivers/GD32F30x_standard_peripheral/Source/gd32f30x_can.c ****         dbg_periph_enable(DBG_CAN0_HOLD);
 389:Drivers/GD32F30x_standard_peripheral/Source/gd32f30x_can.c ****     }
 390:Drivers/GD32F30x_standard_peripheral/Source/gd32f30x_can.c **** #endif
 391:Drivers/GD32F30x_standard_peripheral/Source/gd32f30x_can.c **** }
 896              		.loc 1 391 1 view .LVU291
 897 0010 08BD     		pop	{r3, pc}
 898              	.LVL50:
 899              	.L75:
 388:Drivers/GD32F30x_standard_peripheral/Source/gd32f30x_can.c ****         dbg_periph_enable(DBG_CAN0_HOLD);
 900              		.loc 1 388 9 is_stmt 1 view .LVU292
 901 0012 4FF48770 		mov	r0, #270
 902              	.LVL51:
 388:Drivers/GD32F30x_standard_peripheral/Source/gd32f30x_can.c ****         dbg_periph_enable(DBG_CAN0_HOLD);
 903              		.loc 1 388 9 is_stmt 0 view .LVU293
 904 0016 FFF7FEFF 		bl	dbg_periph_enable
 905              	.LVL52:
 906              		.loc 1 391 1 view .LVU294
 907 001a F9E7     		b	.L72
 908              	.L77:
 909              		.align	2
 910              	.L76:
 911 001c 00640040 		.word	1073767424
 912              		.cfi_endproc
 913              	.LFE122:
 915              		.section	.text.can_time_trigger_mode_enable,"ax",%progbits
 916              		.align	1
 917              		.global	can_time_trigger_mode_enable
 918              		.syntax unified
 919              		.thumb
 920              		.thumb_func
 921              		.fpu fpv4-sp-d16
ARM GAS  C:\Users\Prog\AppData\Local\Temp\ccf7Rdsw.s 			page 25


 923              	can_time_trigger_mode_enable:
 924              	.LVL53:
 925              	.LFB123:
 392:Drivers/GD32F30x_standard_peripheral/Source/gd32f30x_can.c **** 
 393:Drivers/GD32F30x_standard_peripheral/Source/gd32f30x_can.c **** /*!
 394:Drivers/GD32F30x_standard_peripheral/Source/gd32f30x_can.c ****     \brief      enable CAN time trigger mode
 395:Drivers/GD32F30x_standard_peripheral/Source/gd32f30x_can.c ****     \param[in]  can_periph
 396:Drivers/GD32F30x_standard_peripheral/Source/gd32f30x_can.c ****       \arg        CANx(x=0,1),the CAN1 only for GD32F30X_CL 
 397:Drivers/GD32F30x_standard_peripheral/Source/gd32f30x_can.c ****     \param[out] none
 398:Drivers/GD32F30x_standard_peripheral/Source/gd32f30x_can.c ****     \retval     none
 399:Drivers/GD32F30x_standard_peripheral/Source/gd32f30x_can.c **** */
 400:Drivers/GD32F30x_standard_peripheral/Source/gd32f30x_can.c **** void can_time_trigger_mode_enable(uint32_t can_periph)
 401:Drivers/GD32F30x_standard_peripheral/Source/gd32f30x_can.c **** {
 926              		.loc 1 401 1 is_stmt 1 view -0
 927              		.cfi_startproc
 928              		@ args = 0, pretend = 0, frame = 0
 929              		@ frame_needed = 0, uses_anonymous_args = 0
 930              		@ link register save eliminated.
 402:Drivers/GD32F30x_standard_peripheral/Source/gd32f30x_can.c ****     uint8_t mailbox_number;
 931              		.loc 1 402 5 view .LVU296
 403:Drivers/GD32F30x_standard_peripheral/Source/gd32f30x_can.c ****     
 404:Drivers/GD32F30x_standard_peripheral/Source/gd32f30x_can.c ****     /* enable the tcc mode */
 405:Drivers/GD32F30x_standard_peripheral/Source/gd32f30x_can.c ****     CAN_CTL(can_periph) |= CAN_CTL_TTC;
 932              		.loc 1 405 5 view .LVU297
 933              		.loc 1 405 25 is_stmt 0 view .LVU298
 934 0000 0368     		ldr	r3, [r0]
 935 0002 43F08003 		orr	r3, r3, #128
 936 0006 0360     		str	r3, [r0]
 406:Drivers/GD32F30x_standard_peripheral/Source/gd32f30x_can.c ****     /* enable time stamp */
 407:Drivers/GD32F30x_standard_peripheral/Source/gd32f30x_can.c ****     for(mailbox_number = 0U; mailbox_number < 3U; mailbox_number++){
 937              		.loc 1 407 5 is_stmt 1 view .LVU299
 938              	.LVL54:
 939              		.loc 1 407 24 is_stmt 0 view .LVU300
 940 0008 0023     		movs	r3, #0
 941              	.LVL55:
 942              	.L79:
 943              		.loc 1 407 5 discriminator 1 view .LVU301
 944 000a 022B     		cmp	r3, #2
 945 000c 0AD8     		bhi	.L81
 408:Drivers/GD32F30x_standard_peripheral/Source/gd32f30x_can.c ****         CAN_TMP(can_periph, mailbox_number) |= CAN_TMP_TSEN;
 946              		.loc 1 408 9 is_stmt 1 discriminator 3 view .LVU302
 947              		.loc 1 408 45 is_stmt 0 discriminator 3 view .LVU303
 948 000e 00EB0311 		add	r1, r0, r3, lsl #4
 949 0012 D1F88421 		ldr	r2, [r1, #388]
 950 0016 42F48072 		orr	r2, r2, #256
 951 001a C1F88421 		str	r2, [r1, #388]
 407:Drivers/GD32F30x_standard_peripheral/Source/gd32f30x_can.c ****         CAN_TMP(can_periph, mailbox_number) |= CAN_TMP_TSEN;
 952              		.loc 1 407 65 discriminator 3 view .LVU304
 953 001e 0133     		adds	r3, r3, #1
 954              	.LVL56:
 407:Drivers/GD32F30x_standard_peripheral/Source/gd32f30x_can.c ****         CAN_TMP(can_periph, mailbox_number) |= CAN_TMP_TSEN;
 955              		.loc 1 407 65 discriminator 3 view .LVU305
 956 0020 DBB2     		uxtb	r3, r3
 957              	.LVL57:
 407:Drivers/GD32F30x_standard_peripheral/Source/gd32f30x_can.c ****         CAN_TMP(can_periph, mailbox_number) |= CAN_TMP_TSEN;
 958              		.loc 1 407 65 discriminator 3 view .LVU306
 959 0022 F2E7     		b	.L79
ARM GAS  C:\Users\Prog\AppData\Local\Temp\ccf7Rdsw.s 			page 26


 960              	.L81:
 409:Drivers/GD32F30x_standard_peripheral/Source/gd32f30x_can.c ****     }
 410:Drivers/GD32F30x_standard_peripheral/Source/gd32f30x_can.c **** }
 961              		.loc 1 410 1 view .LVU307
 962 0024 7047     		bx	lr
 963              		.cfi_endproc
 964              	.LFE123:
 966              		.section	.text.can_time_trigger_mode_disable,"ax",%progbits
 967              		.align	1
 968              		.global	can_time_trigger_mode_disable
 969              		.syntax unified
 970              		.thumb
 971              		.thumb_func
 972              		.fpu fpv4-sp-d16
 974              	can_time_trigger_mode_disable:
 975              	.LVL58:
 976              	.LFB124:
 411:Drivers/GD32F30x_standard_peripheral/Source/gd32f30x_can.c **** 
 412:Drivers/GD32F30x_standard_peripheral/Source/gd32f30x_can.c **** /*!
 413:Drivers/GD32F30x_standard_peripheral/Source/gd32f30x_can.c ****     \brief      disable CAN time trigger mode
 414:Drivers/GD32F30x_standard_peripheral/Source/gd32f30x_can.c ****     \param[in]  can_periph
 415:Drivers/GD32F30x_standard_peripheral/Source/gd32f30x_can.c ****       \arg        CANx(x=0,1),the CAN1 only for GD32F30X_CL 
 416:Drivers/GD32F30x_standard_peripheral/Source/gd32f30x_can.c ****     \param[out] none
 417:Drivers/GD32F30x_standard_peripheral/Source/gd32f30x_can.c ****     \retval     none
 418:Drivers/GD32F30x_standard_peripheral/Source/gd32f30x_can.c **** */
 419:Drivers/GD32F30x_standard_peripheral/Source/gd32f30x_can.c **** void can_time_trigger_mode_disable(uint32_t can_periph)
 420:Drivers/GD32F30x_standard_peripheral/Source/gd32f30x_can.c **** {
 977              		.loc 1 420 1 is_stmt 1 view -0
 978              		.cfi_startproc
 979              		@ args = 0, pretend = 0, frame = 0
 980              		@ frame_needed = 0, uses_anonymous_args = 0
 981              		@ link register save eliminated.
 421:Drivers/GD32F30x_standard_peripheral/Source/gd32f30x_can.c ****     uint8_t mailbox_number; 
 982              		.loc 1 421 5 view .LVU309
 422:Drivers/GD32F30x_standard_peripheral/Source/gd32f30x_can.c ****     
 423:Drivers/GD32F30x_standard_peripheral/Source/gd32f30x_can.c ****     /* disable the TCC mode */
 424:Drivers/GD32F30x_standard_peripheral/Source/gd32f30x_can.c ****     CAN_CTL(can_periph) &= ~CAN_CTL_TTC;
 983              		.loc 1 424 5 view .LVU310
 984              		.loc 1 424 25 is_stmt 0 view .LVU311
 985 0000 0368     		ldr	r3, [r0]
 986 0002 23F08003 		bic	r3, r3, #128
 987 0006 0360     		str	r3, [r0]
 425:Drivers/GD32F30x_standard_peripheral/Source/gd32f30x_can.c ****     /* reset TSEN bits */
 426:Drivers/GD32F30x_standard_peripheral/Source/gd32f30x_can.c ****     for(mailbox_number = 0U; mailbox_number < 3U; mailbox_number++){
 988              		.loc 1 426 5 is_stmt 1 view .LVU312
 989              	.LVL59:
 990              		.loc 1 426 24 is_stmt 0 view .LVU313
 991 0008 0023     		movs	r3, #0
 992              	.LVL60:
 993              	.L83:
 994              		.loc 1 426 5 discriminator 1 view .LVU314
 995 000a 022B     		cmp	r3, #2
 996 000c 0AD8     		bhi	.L85
 427:Drivers/GD32F30x_standard_peripheral/Source/gd32f30x_can.c ****         CAN_TMP(can_periph, mailbox_number) &= ~CAN_TMP_TSEN;
 997              		.loc 1 427 9 is_stmt 1 discriminator 3 view .LVU315
 998              		.loc 1 427 45 is_stmt 0 discriminator 3 view .LVU316
 999 000e 00EB0311 		add	r1, r0, r3, lsl #4
ARM GAS  C:\Users\Prog\AppData\Local\Temp\ccf7Rdsw.s 			page 27


 1000 0012 D1F88421 		ldr	r2, [r1, #388]
 1001 0016 22F48072 		bic	r2, r2, #256
 1002 001a C1F88421 		str	r2, [r1, #388]
 426:Drivers/GD32F30x_standard_peripheral/Source/gd32f30x_can.c ****         CAN_TMP(can_periph, mailbox_number) &= ~CAN_TMP_TSEN;
 1003              		.loc 1 426 65 discriminator 3 view .LVU317
 1004 001e 0133     		adds	r3, r3, #1
 1005              	.LVL61:
 426:Drivers/GD32F30x_standard_peripheral/Source/gd32f30x_can.c ****         CAN_TMP(can_periph, mailbox_number) &= ~CAN_TMP_TSEN;
 1006              		.loc 1 426 65 discriminator 3 view .LVU318
 1007 0020 DBB2     		uxtb	r3, r3
 1008              	.LVL62:
 426:Drivers/GD32F30x_standard_peripheral/Source/gd32f30x_can.c ****         CAN_TMP(can_periph, mailbox_number) &= ~CAN_TMP_TSEN;
 1009              		.loc 1 426 65 discriminator 3 view .LVU319
 1010 0022 F2E7     		b	.L83
 1011              	.L85:
 428:Drivers/GD32F30x_standard_peripheral/Source/gd32f30x_can.c ****     }
 429:Drivers/GD32F30x_standard_peripheral/Source/gd32f30x_can.c **** }
 1012              		.loc 1 429 1 view .LVU320
 1013 0024 7047     		bx	lr
 1014              		.cfi_endproc
 1015              	.LFE124:
 1017              		.section	.text.can_message_transmit,"ax",%progbits
 1018              		.align	1
 1019              		.global	can_message_transmit
 1020              		.syntax unified
 1021              		.thumb
 1022              		.thumb_func
 1023              		.fpu fpv4-sp-d16
 1025              	can_message_transmit:
 1026              	.LVL63:
 1027              	.LFB125:
 430:Drivers/GD32F30x_standard_peripheral/Source/gd32f30x_can.c **** 
 431:Drivers/GD32F30x_standard_peripheral/Source/gd32f30x_can.c **** /*!
 432:Drivers/GD32F30x_standard_peripheral/Source/gd32f30x_can.c ****     \brief       transmit CAN message
 433:Drivers/GD32F30x_standard_peripheral/Source/gd32f30x_can.c ****     \param[in]  can_periph
 434:Drivers/GD32F30x_standard_peripheral/Source/gd32f30x_can.c ****       \arg        CANx(x=0,1),the CAN1 only for GD32F30X_CL 
 435:Drivers/GD32F30x_standard_peripheral/Source/gd32f30x_can.c ****     \param[in]  transmit_message: struct for CAN transmit message
 436:Drivers/GD32F30x_standard_peripheral/Source/gd32f30x_can.c ****       \arg        tx_sfid: 0x00000000 - 0x000007FF
 437:Drivers/GD32F30x_standard_peripheral/Source/gd32f30x_can.c ****       \arg        tx_efid: 0x00000000 - 0x1FFFFFFF
 438:Drivers/GD32F30x_standard_peripheral/Source/gd32f30x_can.c ****       \arg        tx_ff: CAN_FF_STANDARD, CAN_FF_EXTENDED
 439:Drivers/GD32F30x_standard_peripheral/Source/gd32f30x_can.c ****       \arg        tx_ft: CAN_FT_DATA, CAN_FT_REMOTE
 440:Drivers/GD32F30x_standard_peripheral/Source/gd32f30x_can.c ****       \arg        tx_dlen: 0 - 8
 441:Drivers/GD32F30x_standard_peripheral/Source/gd32f30x_can.c ****       \arg        tx_data[]: 0x00 - 0xFF
 442:Drivers/GD32F30x_standard_peripheral/Source/gd32f30x_can.c ****     \param[out] none
 443:Drivers/GD32F30x_standard_peripheral/Source/gd32f30x_can.c ****     \retval     mailbox_number
 444:Drivers/GD32F30x_standard_peripheral/Source/gd32f30x_can.c **** */
 445:Drivers/GD32F30x_standard_peripheral/Source/gd32f30x_can.c **** uint8_t can_message_transmit(uint32_t can_periph, can_trasnmit_message_struct* transmit_message)
 446:Drivers/GD32F30x_standard_peripheral/Source/gd32f30x_can.c **** {
 1028              		.loc 1 446 1 is_stmt 1 view -0
 1029              		.cfi_startproc
 1030              		@ args = 0, pretend = 0, frame = 0
 1031              		@ frame_needed = 0, uses_anonymous_args = 0
 1032              		@ link register save eliminated.
 1033              		.loc 1 446 1 is_stmt 0 view .LVU322
 1034 0000 30B4     		push	{r4, r5}
 1035              	.LCFI9:
 1036              		.cfi_def_cfa_offset 8
ARM GAS  C:\Users\Prog\AppData\Local\Temp\ccf7Rdsw.s 			page 28


 1037              		.cfi_offset 4, -8
 1038              		.cfi_offset 5, -4
 447:Drivers/GD32F30x_standard_peripheral/Source/gd32f30x_can.c ****     uint8_t mailbox_number = CAN_MAILBOX0;
 1039              		.loc 1 447 5 is_stmt 1 view .LVU323
 1040              	.LVL64:
 448:Drivers/GD32F30x_standard_peripheral/Source/gd32f30x_can.c **** 
 449:Drivers/GD32F30x_standard_peripheral/Source/gd32f30x_can.c ****     /* select one empty mailbox */
 450:Drivers/GD32F30x_standard_peripheral/Source/gd32f30x_can.c ****     if(CAN_TSTAT_TME0 == (CAN_TSTAT(can_periph)&CAN_TSTAT_TME0)){
 1041              		.loc 1 450 5 view .LVU324
 1042              		.loc 1 450 27 is_stmt 0 view .LVU325
 1043 0002 8368     		ldr	r3, [r0, #8]
 1044              		.loc 1 450 7 view .LVU326
 1045 0004 13F0806F 		tst	r3, #67108864
 1046 0008 09D1     		bne	.L91
 451:Drivers/GD32F30x_standard_peripheral/Source/gd32f30x_can.c ****         mailbox_number = CAN_MAILBOX0;
 452:Drivers/GD32F30x_standard_peripheral/Source/gd32f30x_can.c ****     }else if(CAN_TSTAT_TME1 == (CAN_TSTAT(can_periph)&CAN_TSTAT_TME1)){
 1047              		.loc 1 452 11 is_stmt 1 view .LVU327
 1048              		.loc 1 452 33 is_stmt 0 view .LVU328
 1049 000a 8368     		ldr	r3, [r0, #8]
 1050              		.loc 1 452 13 view .LVU329
 1051 000c 13F0006F 		tst	r3, #134217728
 1052 0010 47D1     		bne	.L92
 453:Drivers/GD32F30x_standard_peripheral/Source/gd32f30x_can.c ****         mailbox_number = CAN_MAILBOX1;
 454:Drivers/GD32F30x_standard_peripheral/Source/gd32f30x_can.c ****     }else if(CAN_TSTAT_TME2 == (CAN_TSTAT(can_periph)&CAN_TSTAT_TME2)){
 1053              		.loc 1 454 11 is_stmt 1 view .LVU330
 1054              		.loc 1 454 33 is_stmt 0 view .LVU331
 1055 0012 8368     		ldr	r3, [r0, #8]
 1056              		.loc 1 454 13 view .LVU332
 1057 0014 13F0805F 		tst	r3, #268435456
 1058 0018 50D0     		beq	.L93
 455:Drivers/GD32F30x_standard_peripheral/Source/gd32f30x_can.c ****         mailbox_number = CAN_MAILBOX2;
 1059              		.loc 1 455 24 view .LVU333
 1060 001a 0224     		movs	r4, #2
 1061 001c 00E0     		b	.L87
 1062              	.L91:
 451:Drivers/GD32F30x_standard_peripheral/Source/gd32f30x_can.c ****         mailbox_number = CAN_MAILBOX0;
 1063              		.loc 1 451 24 view .LVU334
 1064 001e 0024     		movs	r4, #0
 1065              	.L87:
 456:Drivers/GD32F30x_standard_peripheral/Source/gd32f30x_can.c ****     }else{
 457:Drivers/GD32F30x_standard_peripheral/Source/gd32f30x_can.c ****         mailbox_number = CAN_NOMAILBOX;
 458:Drivers/GD32F30x_standard_peripheral/Source/gd32f30x_can.c ****     }
 459:Drivers/GD32F30x_standard_peripheral/Source/gd32f30x_can.c ****     /* return no mailbox empty */
 460:Drivers/GD32F30x_standard_peripheral/Source/gd32f30x_can.c ****     if(CAN_NOMAILBOX == mailbox_number){
 461:Drivers/GD32F30x_standard_peripheral/Source/gd32f30x_can.c ****         return CAN_NOMAILBOX;
 462:Drivers/GD32F30x_standard_peripheral/Source/gd32f30x_can.c ****     }
 463:Drivers/GD32F30x_standard_peripheral/Source/gd32f30x_can.c ****     
 464:Drivers/GD32F30x_standard_peripheral/Source/gd32f30x_can.c ****     CAN_TMI(can_periph, mailbox_number) &= CAN_TMI_TEN;
 1066              		.loc 1 464 5 is_stmt 1 view .LVU335
 1067              		.loc 1 464 41 is_stmt 0 view .LVU336
 1068 0020 00EB0413 		add	r3, r0, r4, lsl #4
 1069 0024 D3F88021 		ldr	r2, [r3, #384]
 1070 0028 02F00102 		and	r2, r2, #1
 1071 002c C3F88021 		str	r2, [r3, #384]
 465:Drivers/GD32F30x_standard_peripheral/Source/gd32f30x_can.c ****     if(CAN_FF_STANDARD == transmit_message->tx_ff){
 1072              		.loc 1 465 5 is_stmt 1 view .LVU337
 1073              		.loc 1 465 43 is_stmt 0 view .LVU338
ARM GAS  C:\Users\Prog\AppData\Local\Temp\ccf7Rdsw.s 			page 29


 1074 0030 0A7A     		ldrb	r2, [r1, #8]	@ zero_extendqisi2
 1075              		.loc 1 465 7 view .LVU339
 1076 0032 002A     		cmp	r2, #0
 1077 0034 37D1     		bne	.L89
 466:Drivers/GD32F30x_standard_peripheral/Source/gd32f30x_can.c ****         /* set transmit mailbox standard identifier */
 467:Drivers/GD32F30x_standard_peripheral/Source/gd32f30x_can.c ****         CAN_TMI(can_periph, mailbox_number) |= (uint32_t)(TMI_SFID(transmit_message->tx_sfid) | \
 1078              		.loc 1 467 9 is_stmt 1 view .LVU340
 1079              		.loc 1 467 45 is_stmt 0 view .LVU341
 1080 0036 D3F88021 		ldr	r2, [r3, #384]
 1081              		.loc 1 467 59 view .LVU342
 1082 003a 0D68     		ldr	r5, [r1]
 468:Drivers/GD32F30x_standard_peripheral/Source/gd32f30x_can.c ****                                                 transmit_message->tx_ft);
 1083              		.loc 1 468 65 view .LVU343
 1084 003c 487A     		ldrb	r0, [r1, #9]	@ zero_extendqisi2
 1085              	.LVL65:
 467:Drivers/GD32F30x_standard_peripheral/Source/gd32f30x_can.c ****                                                 transmit_message->tx_ft);
 1086              		.loc 1 467 48 view .LVU344
 1087 003e 40EA4550 		orr	r0, r0, r5, lsl #21
 467:Drivers/GD32F30x_standard_peripheral/Source/gd32f30x_can.c ****                                                 transmit_message->tx_ft);
 1088              		.loc 1 467 45 view .LVU345
 1089 0042 0243     		orrs	r2, r2, r0
 1090 0044 C3F88021 		str	r2, [r3, #384]
 1091              	.L90:
 469:Drivers/GD32F30x_standard_peripheral/Source/gd32f30x_can.c ****     }else{
 470:Drivers/GD32F30x_standard_peripheral/Source/gd32f30x_can.c ****         /* set transmit mailbox extended identifier */
 471:Drivers/GD32F30x_standard_peripheral/Source/gd32f30x_can.c ****         CAN_TMI(can_periph, mailbox_number) |= (uint32_t)(TMI_EFID(transmit_message->tx_efid) | \
 472:Drivers/GD32F30x_standard_peripheral/Source/gd32f30x_can.c ****                                                 transmit_message->tx_ff | \
 473:Drivers/GD32F30x_standard_peripheral/Source/gd32f30x_can.c ****                                                 transmit_message->tx_ft);
 474:Drivers/GD32F30x_standard_peripheral/Source/gd32f30x_can.c ****     }
 475:Drivers/GD32F30x_standard_peripheral/Source/gd32f30x_can.c ****     /* set the data length */
 476:Drivers/GD32F30x_standard_peripheral/Source/gd32f30x_can.c ****     CAN_TMP(can_periph, mailbox_number) &= ~CAN_TMP_DLENC;
 1092              		.loc 1 476 5 is_stmt 1 view .LVU346
 1093              		.loc 1 476 41 is_stmt 0 view .LVU347
 1094 0048 D3F88421 		ldr	r2, [r3, #388]
 1095 004c 22F00F02 		bic	r2, r2, #15
 1096 0050 C3F88421 		str	r2, [r3, #388]
 477:Drivers/GD32F30x_standard_peripheral/Source/gd32f30x_can.c ****     CAN_TMP(can_periph, mailbox_number) |= transmit_message->tx_dlen;
 1097              		.loc 1 477 5 is_stmt 1 view .LVU348
 1098              		.loc 1 477 41 is_stmt 0 view .LVU349
 1099 0054 D3F88421 		ldr	r2, [r3, #388]
 1100              		.loc 1 477 60 view .LVU350
 1101 0058 887A     		ldrb	r0, [r1, #10]	@ zero_extendqisi2
 1102              		.loc 1 477 41 view .LVU351
 1103 005a 0243     		orrs	r2, r2, r0
 1104 005c C3F88421 		str	r2, [r3, #388]
 478:Drivers/GD32F30x_standard_peripheral/Source/gd32f30x_can.c ****     /* set the data */
 479:Drivers/GD32F30x_standard_peripheral/Source/gd32f30x_can.c ****     CAN_TMDATA0(can_periph, mailbox_number) = TMDATA0_DB3(transmit_message->tx_data[3]) | \
 1105              		.loc 1 479 5 is_stmt 1 view .LVU352
 1106              		.loc 1 479 47 is_stmt 0 view .LVU353
 1107 0060 887B     		ldrb	r0, [r1, #14]	@ zero_extendqisi2
 480:Drivers/GD32F30x_standard_peripheral/Source/gd32f30x_can.c ****                                               TMDATA0_DB2(transmit_message->tx_data[2]) | \
 1108              		.loc 1 480 47 view .LVU354
 1109 0062 4A7B     		ldrb	r2, [r1, #13]	@ zero_extendqisi2
 1110 0064 1204     		lsls	r2, r2, #16
 479:Drivers/GD32F30x_standard_peripheral/Source/gd32f30x_can.c ****                                               TMDATA0_DB2(transmit_message->tx_data[2]) | \
 1111              		.loc 1 479 89 view .LVU355
 1112 0066 42EA0062 		orr	r2, r2, r0, lsl #24
ARM GAS  C:\Users\Prog\AppData\Local\Temp\ccf7Rdsw.s 			page 30


 481:Drivers/GD32F30x_standard_peripheral/Source/gd32f30x_can.c ****                                               TMDATA0_DB1(transmit_message->tx_data[1]) | \
 1113              		.loc 1 481 47 view .LVU356
 1114 006a 087B     		ldrb	r0, [r1, #12]	@ zero_extendqisi2
 480:Drivers/GD32F30x_standard_peripheral/Source/gd32f30x_can.c ****                                               TMDATA0_DB2(transmit_message->tx_data[2]) | \
 1115              		.loc 1 480 89 view .LVU357
 1116 006c 42EA0022 		orr	r2, r2, r0, lsl #8
 482:Drivers/GD32F30x_standard_peripheral/Source/gd32f30x_can.c ****                                               TMDATA0_DB0(transmit_message->tx_data[0]);
 1117              		.loc 1 482 47 view .LVU358
 1118 0070 C87A     		ldrb	r0, [r1, #11]	@ zero_extendqisi2
 481:Drivers/GD32F30x_standard_peripheral/Source/gd32f30x_can.c ****                                               TMDATA0_DB1(transmit_message->tx_data[1]) | \
 1119              		.loc 1 481 89 view .LVU359
 1120 0072 0243     		orrs	r2, r2, r0
 479:Drivers/GD32F30x_standard_peripheral/Source/gd32f30x_can.c ****                                               TMDATA0_DB2(transmit_message->tx_data[2]) | \
 1121              		.loc 1 479 45 view .LVU360
 1122 0074 C3F88821 		str	r2, [r3, #392]
 483:Drivers/GD32F30x_standard_peripheral/Source/gd32f30x_can.c ****     CAN_TMDATA1(can_periph, mailbox_number) = TMDATA1_DB7(transmit_message->tx_data[7]) | \
 1123              		.loc 1 483 5 is_stmt 1 view .LVU361
 1124              		.loc 1 483 47 is_stmt 0 view .LVU362
 1125 0078 887C     		ldrb	r0, [r1, #18]	@ zero_extendqisi2
 484:Drivers/GD32F30x_standard_peripheral/Source/gd32f30x_can.c ****                                               TMDATA1_DB6(transmit_message->tx_data[6]) | \
 1126              		.loc 1 484 47 view .LVU363
 1127 007a 4A7C     		ldrb	r2, [r1, #17]	@ zero_extendqisi2
 1128 007c 1204     		lsls	r2, r2, #16
 483:Drivers/GD32F30x_standard_peripheral/Source/gd32f30x_can.c ****     CAN_TMDATA1(can_periph, mailbox_number) = TMDATA1_DB7(transmit_message->tx_data[7]) | \
 1129              		.loc 1 483 89 view .LVU364
 1130 007e 42EA0062 		orr	r2, r2, r0, lsl #24
 485:Drivers/GD32F30x_standard_peripheral/Source/gd32f30x_can.c ****                                               TMDATA1_DB5(transmit_message->tx_data[5]) | \
 1131              		.loc 1 485 47 view .LVU365
 1132 0082 087C     		ldrb	r0, [r1, #16]	@ zero_extendqisi2
 484:Drivers/GD32F30x_standard_peripheral/Source/gd32f30x_can.c ****                                               TMDATA1_DB6(transmit_message->tx_data[6]) | \
 1133              		.loc 1 484 89 view .LVU366
 1134 0084 42EA0022 		orr	r2, r2, r0, lsl #8
 486:Drivers/GD32F30x_standard_peripheral/Source/gd32f30x_can.c ****                                               TMDATA1_DB4(transmit_message->tx_data[4]);
 1135              		.loc 1 486 47 view .LVU367
 1136 0088 C97B     		ldrb	r1, [r1, #15]	@ zero_extendqisi2
 1137              	.LVL66:
 485:Drivers/GD32F30x_standard_peripheral/Source/gd32f30x_can.c ****                                               TMDATA1_DB5(transmit_message->tx_data[5]) | \
 1138              		.loc 1 485 89 view .LVU368
 1139 008a 0A43     		orrs	r2, r2, r1
 483:Drivers/GD32F30x_standard_peripheral/Source/gd32f30x_can.c ****                                               TMDATA1_DB6(transmit_message->tx_data[6]) | \
 1140              		.loc 1 483 45 view .LVU369
 1141 008c C3F88C21 		str	r2, [r3, #396]
 487:Drivers/GD32F30x_standard_peripheral/Source/gd32f30x_can.c ****     /* enable transmission */
 488:Drivers/GD32F30x_standard_peripheral/Source/gd32f30x_can.c ****     CAN_TMI(can_periph, mailbox_number) |= CAN_TMI_TEN;
 1142              		.loc 1 488 5 is_stmt 1 view .LVU370
 1143              		.loc 1 488 41 is_stmt 0 view .LVU371
 1144 0090 D3F88021 		ldr	r2, [r3, #384]
 1145 0094 42F00102 		orr	r2, r2, #1
 1146 0098 C3F88021 		str	r2, [r3, #384]
 489:Drivers/GD32F30x_standard_peripheral/Source/gd32f30x_can.c **** 
 490:Drivers/GD32F30x_standard_peripheral/Source/gd32f30x_can.c ****     return mailbox_number;
 1147              		.loc 1 490 5 is_stmt 1 view .LVU372
 1148              	.L88:
 491:Drivers/GD32F30x_standard_peripheral/Source/gd32f30x_can.c **** }
 1149              		.loc 1 491 1 is_stmt 0 view .LVU373
 1150 009c 2046     		mov	r0, r4
 1151 009e 30BC     		pop	{r4, r5}
ARM GAS  C:\Users\Prog\AppData\Local\Temp\ccf7Rdsw.s 			page 31


 1152              	.LCFI10:
 1153              		.cfi_remember_state
 1154              		.cfi_restore 5
 1155              		.cfi_restore 4
 1156              		.cfi_def_cfa_offset 0
 1157 00a0 7047     		bx	lr
 1158              	.LVL67:
 1159              	.L92:
 1160              	.LCFI11:
 1161              		.cfi_restore_state
 453:Drivers/GD32F30x_standard_peripheral/Source/gd32f30x_can.c ****     }else if(CAN_TSTAT_TME2 == (CAN_TSTAT(can_periph)&CAN_TSTAT_TME2)){
 1162              		.loc 1 453 24 view .LVU374
 1163 00a2 0124     		movs	r4, #1
 1164 00a4 BCE7     		b	.L87
 1165              	.L89:
 471:Drivers/GD32F30x_standard_peripheral/Source/gd32f30x_can.c ****                                                 transmit_message->tx_ff | \
 1166              		.loc 1 471 9 is_stmt 1 view .LVU375
 471:Drivers/GD32F30x_standard_peripheral/Source/gd32f30x_can.c ****                                                 transmit_message->tx_ff | \
 1167              		.loc 1 471 45 is_stmt 0 view .LVU376
 1168 00a6 D3F88001 		ldr	r0, [r3, #384]
 1169              	.LVL68:
 471:Drivers/GD32F30x_standard_peripheral/Source/gd32f30x_can.c ****                                                 transmit_message->tx_ff | \
 1170              		.loc 1 471 59 view .LVU377
 1171 00aa 4D68     		ldr	r5, [r1, #4]
 471:Drivers/GD32F30x_standard_peripheral/Source/gd32f30x_can.c ****                                                 transmit_message->tx_ff | \
 1172              		.loc 1 471 95 view .LVU378
 1173 00ac 42EAC502 		orr	r2, r2, r5, lsl #3
 473:Drivers/GD32F30x_standard_peripheral/Source/gd32f30x_can.c ****     }
 1174              		.loc 1 473 65 view .LVU379
 1175 00b0 4D7A     		ldrb	r5, [r1, #9]	@ zero_extendqisi2
 471:Drivers/GD32F30x_standard_peripheral/Source/gd32f30x_can.c ****                                                 transmit_message->tx_ff | \
 1176              		.loc 1 471 48 view .LVU380
 1177 00b2 2A43     		orrs	r2, r2, r5
 471:Drivers/GD32F30x_standard_peripheral/Source/gd32f30x_can.c ****                                                 transmit_message->tx_ff | \
 1178              		.loc 1 471 45 view .LVU381
 1179 00b4 0243     		orrs	r2, r2, r0
 1180 00b6 C3F88021 		str	r2, [r3, #384]
 1181 00ba C5E7     		b	.L90
 1182              	.LVL69:
 1183              	.L93:
 461:Drivers/GD32F30x_standard_peripheral/Source/gd32f30x_can.c ****     }
 1184              		.loc 1 461 16 view .LVU382
 1185 00bc 0324     		movs	r4, #3
 1186 00be EDE7     		b	.L88
 1187              		.cfi_endproc
 1188              	.LFE125:
 1190              		.section	.text.can_transmit_states,"ax",%progbits
 1191              		.align	1
 1192              		.global	can_transmit_states
 1193              		.syntax unified
 1194              		.thumb
 1195              		.thumb_func
 1196              		.fpu fpv4-sp-d16
 1198              	can_transmit_states:
 1199              	.LVL70:
 1200              	.LFB126:
 492:Drivers/GD32F30x_standard_peripheral/Source/gd32f30x_can.c **** 
ARM GAS  C:\Users\Prog\AppData\Local\Temp\ccf7Rdsw.s 			page 32


 493:Drivers/GD32F30x_standard_peripheral/Source/gd32f30x_can.c **** /*!
 494:Drivers/GD32F30x_standard_peripheral/Source/gd32f30x_can.c ****     \brief      get CAN transmit state 
 495:Drivers/GD32F30x_standard_peripheral/Source/gd32f30x_can.c ****     \param[in]  can_periph
 496:Drivers/GD32F30x_standard_peripheral/Source/gd32f30x_can.c ****       \arg        CANx(x=0,1),the CAN1 only for GD32F30X_CL 
 497:Drivers/GD32F30x_standard_peripheral/Source/gd32f30x_can.c ****     \param[in]  mailbox_number
 498:Drivers/GD32F30x_standard_peripheral/Source/gd32f30x_can.c ****                 only one parameter can be selected which is shown as below:
 499:Drivers/GD32F30x_standard_peripheral/Source/gd32f30x_can.c ****       \arg        CAN_MAILBOX(x=0,1,2)
 500:Drivers/GD32F30x_standard_peripheral/Source/gd32f30x_can.c ****     \param[out] none
 501:Drivers/GD32F30x_standard_peripheral/Source/gd32f30x_can.c ****     \retval     can_transmit_state_enum
 502:Drivers/GD32F30x_standard_peripheral/Source/gd32f30x_can.c **** */
 503:Drivers/GD32F30x_standard_peripheral/Source/gd32f30x_can.c **** can_transmit_state_enum can_transmit_states(uint32_t can_periph, uint8_t mailbox_number)
 504:Drivers/GD32F30x_standard_peripheral/Source/gd32f30x_can.c **** {
 1201              		.loc 1 504 1 is_stmt 1 view -0
 1202              		.cfi_startproc
 1203              		@ args = 0, pretend = 0, frame = 0
 1204              		@ frame_needed = 0, uses_anonymous_args = 0
 1205              		@ link register save eliminated.
 505:Drivers/GD32F30x_standard_peripheral/Source/gd32f30x_can.c ****     can_transmit_state_enum state = CAN_TRANSMIT_FAILED;
 1206              		.loc 1 505 5 view .LVU384
 506:Drivers/GD32F30x_standard_peripheral/Source/gd32f30x_can.c ****     uint32_t val = 0U;
 1207              		.loc 1 506 5 view .LVU385
 507:Drivers/GD32F30x_standard_peripheral/Source/gd32f30x_can.c ****     
 508:Drivers/GD32F30x_standard_peripheral/Source/gd32f30x_can.c ****     /* check selected mailbox state */    
 509:Drivers/GD32F30x_standard_peripheral/Source/gd32f30x_can.c ****     switch(mailbox_number){
 1208              		.loc 1 509 5 view .LVU386
 1209 0000 0129     		cmp	r1, #1
 1210 0002 1AD0     		beq	.L96
 1211 0004 4BB2     		sxtb	r3, r1
 1212 0006 1BB1     		cbz	r3, .L97
 1213 0008 0229     		cmp	r1, #2
 1214 000a 1AD0     		beq	.L98
 510:Drivers/GD32F30x_standard_peripheral/Source/gd32f30x_can.c ****     /* mailbox0 */
 511:Drivers/GD32F30x_standard_peripheral/Source/gd32f30x_can.c ****     case CAN_MAILBOX0:
 512:Drivers/GD32F30x_standard_peripheral/Source/gd32f30x_can.c ****         val = CAN_TSTAT(can_periph) & (CAN_TSTAT_MTF0 | CAN_TSTAT_MTFNERR0 | CAN_TSTAT_TME0);
 513:Drivers/GD32F30x_standard_peripheral/Source/gd32f30x_can.c ****         break;
 514:Drivers/GD32F30x_standard_peripheral/Source/gd32f30x_can.c ****     /* mailbox1 */
 515:Drivers/GD32F30x_standard_peripheral/Source/gd32f30x_can.c ****     case CAN_MAILBOX1:
 516:Drivers/GD32F30x_standard_peripheral/Source/gd32f30x_can.c ****         val = CAN_TSTAT(can_periph) & (CAN_TSTAT_MTF1 | CAN_TSTAT_MTFNERR1 | CAN_TSTAT_TME1);
 517:Drivers/GD32F30x_standard_peripheral/Source/gd32f30x_can.c ****         break;
 518:Drivers/GD32F30x_standard_peripheral/Source/gd32f30x_can.c ****     /* mailbox2 */
 519:Drivers/GD32F30x_standard_peripheral/Source/gd32f30x_can.c ****     case CAN_MAILBOX2:
 520:Drivers/GD32F30x_standard_peripheral/Source/gd32f30x_can.c ****         val = CAN_TSTAT(can_periph) & (CAN_TSTAT_MTF2 | CAN_TSTAT_MTFNERR2 | CAN_TSTAT_TME2);
 521:Drivers/GD32F30x_standard_peripheral/Source/gd32f30x_can.c ****         break;
 522:Drivers/GD32F30x_standard_peripheral/Source/gd32f30x_can.c ****     default:
 523:Drivers/GD32F30x_standard_peripheral/Source/gd32f30x_can.c ****         val = CAN_TRANSMIT_FAILED;
 524:Drivers/GD32F30x_standard_peripheral/Source/gd32f30x_can.c ****         break;
 525:Drivers/GD32F30x_standard_peripheral/Source/gd32f30x_can.c ****     }
 526:Drivers/GD32F30x_standard_peripheral/Source/gd32f30x_can.c ****     
 527:Drivers/GD32F30x_standard_peripheral/Source/gd32f30x_can.c ****     switch(val){
 528:Drivers/GD32F30x_standard_peripheral/Source/gd32f30x_can.c ****         /* transmit pending */
 529:Drivers/GD32F30x_standard_peripheral/Source/gd32f30x_can.c ****     case (CAN_STATE_PENDING): 
 530:Drivers/GD32F30x_standard_peripheral/Source/gd32f30x_can.c ****         state = CAN_TRANSMIT_PENDING;
 1215              		.loc 1 530 15 is_stmt 0 view .LVU387
 1216 000c 0220     		movs	r0, #2
 1217              	.LVL71:
 1218              		.loc 1 530 15 view .LVU388
 1219 000e 7047     		bx	lr
ARM GAS  C:\Users\Prog\AppData\Local\Temp\ccf7Rdsw.s 			page 33


 1220              	.LVL72:
 1221              	.L97:
 512:Drivers/GD32F30x_standard_peripheral/Source/gd32f30x_can.c ****         break;
 1222              		.loc 1 512 9 is_stmt 1 view .LVU389
 512:Drivers/GD32F30x_standard_peripheral/Source/gd32f30x_can.c ****         break;
 1223              		.loc 1 512 15 is_stmt 0 view .LVU390
 1224 0010 8368     		ldr	r3, [r0, #8]
 512:Drivers/GD32F30x_standard_peripheral/Source/gd32f30x_can.c ****         break;
 1225              		.loc 1 512 13 view .LVU391
 1226 0012 23F07B43 		bic	r3, r3, #-83886080
 1227 0016 23F47F03 		bic	r3, r3, #16711680
 1228 001a 23F47F43 		bic	r3, r3, #65280
 1229 001e 23F0FC03 		bic	r3, r3, #252
 1230              	.LVL73:
 513:Drivers/GD32F30x_standard_peripheral/Source/gd32f30x_can.c ****     /* mailbox1 */
 1231              		.loc 1 513 9 is_stmt 1 view .LVU392
 1232              	.L100:
 527:Drivers/GD32F30x_standard_peripheral/Source/gd32f30x_can.c ****         /* transmit pending */
 1233              		.loc 1 527 5 view .LVU393
 1234 0022 114A     		ldr	r2, .L109
 1235 0024 9342     		cmp	r3, r2
 1236 0026 1BD0     		beq	.L102
 527:Drivers/GD32F30x_standard_peripheral/Source/gd32f30x_can.c ****         /* transmit pending */
 1237              		.loc 1 527 5 is_stmt 0 view .LVU394
 1238 0028 13D9     		bls	.L106
 1239 002a 104A     		ldr	r2, .L109+4
 1240 002c 9342     		cmp	r3, r2
 1241 002e 19D0     		beq	.L104
 1242 0030 0F4A     		ldr	r2, .L109+8
 1243 0032 9342     		cmp	r3, r2
 1244 0034 12D1     		bne	.L107
 531:Drivers/GD32F30x_standard_peripheral/Source/gd32f30x_can.c ****         break;
 532:Drivers/GD32F30x_standard_peripheral/Source/gd32f30x_can.c ****         /* mailbox0 transmit succeeded */
 533:Drivers/GD32F30x_standard_peripheral/Source/gd32f30x_can.c ****     case (CAN_TSTAT_MTF0 | CAN_TSTAT_MTFNERR0 | CAN_TSTAT_TME0):
 534:Drivers/GD32F30x_standard_peripheral/Source/gd32f30x_can.c ****         state = CAN_TRANSMIT_OK;
 535:Drivers/GD32F30x_standard_peripheral/Source/gd32f30x_can.c ****         break;
 536:Drivers/GD32F30x_standard_peripheral/Source/gd32f30x_can.c ****         /* mailbox1 transmit succeeded */
 537:Drivers/GD32F30x_standard_peripheral/Source/gd32f30x_can.c ****     case (CAN_TSTAT_MTF1 | CAN_TSTAT_MTFNERR1 | CAN_TSTAT_TME1):
 538:Drivers/GD32F30x_standard_peripheral/Source/gd32f30x_can.c ****         state = CAN_TRANSMIT_OK;
 539:Drivers/GD32F30x_standard_peripheral/Source/gd32f30x_can.c ****         break;
 540:Drivers/GD32F30x_standard_peripheral/Source/gd32f30x_can.c ****         /* mailbox2 transmit succeeded */
 541:Drivers/GD32F30x_standard_peripheral/Source/gd32f30x_can.c ****     case (CAN_TSTAT_MTF2 | CAN_TSTAT_MTFNERR2 | CAN_TSTAT_TME2):
 542:Drivers/GD32F30x_standard_peripheral/Source/gd32f30x_can.c ****         state = CAN_TRANSMIT_OK;
 1245              		.loc 1 542 15 view .LVU395
 1246 0036 0120     		movs	r0, #1
 1247              	.LVL74:
 543:Drivers/GD32F30x_standard_peripheral/Source/gd32f30x_can.c ****         break;
 544:Drivers/GD32F30x_standard_peripheral/Source/gd32f30x_can.c ****         /* transmit failed */
 545:Drivers/GD32F30x_standard_peripheral/Source/gd32f30x_can.c ****     default: 
 546:Drivers/GD32F30x_standard_peripheral/Source/gd32f30x_can.c ****         state = CAN_TRANSMIT_FAILED;
 547:Drivers/GD32F30x_standard_peripheral/Source/gd32f30x_can.c ****         break;
 548:Drivers/GD32F30x_standard_peripheral/Source/gd32f30x_can.c ****     }
 549:Drivers/GD32F30x_standard_peripheral/Source/gd32f30x_can.c ****     return state;
 1248              		.loc 1 549 5 is_stmt 1 view .LVU396
 550:Drivers/GD32F30x_standard_peripheral/Source/gd32f30x_can.c **** }
 1249              		.loc 1 550 1 is_stmt 0 view .LVU397
 1250 0038 7047     		bx	lr
ARM GAS  C:\Users\Prog\AppData\Local\Temp\ccf7Rdsw.s 			page 34


 1251              	.LVL75:
 1252              	.L96:
 516:Drivers/GD32F30x_standard_peripheral/Source/gd32f30x_can.c ****         break;
 1253              		.loc 1 516 9 is_stmt 1 view .LVU398
 516:Drivers/GD32F30x_standard_peripheral/Source/gd32f30x_can.c ****         break;
 1254              		.loc 1 516 15 is_stmt 0 view .LVU399
 1255 003a 8268     		ldr	r2, [r0, #8]
 516:Drivers/GD32F30x_standard_peripheral/Source/gd32f30x_can.c ****         break;
 1256              		.loc 1 516 13 view .LVU400
 1257 003c 0B4B     		ldr	r3, .L109+4
 1258 003e 1340     		ands	r3, r3, r2
 1259              	.LVL76:
 517:Drivers/GD32F30x_standard_peripheral/Source/gd32f30x_can.c ****     /* mailbox2 */
 1260              		.loc 1 517 9 is_stmt 1 view .LVU401
 1261 0040 EFE7     		b	.L100
 1262              	.LVL77:
 1263              	.L98:
 520:Drivers/GD32F30x_standard_peripheral/Source/gd32f30x_can.c ****         break;
 1264              		.loc 1 520 9 view .LVU402
 520:Drivers/GD32F30x_standard_peripheral/Source/gd32f30x_can.c ****         break;
 1265              		.loc 1 520 15 is_stmt 0 view .LVU403
 1266 0042 8368     		ldr	r3, [r0, #8]
 520:Drivers/GD32F30x_standard_peripheral/Source/gd32f30x_can.c ****         break;
 1267              		.loc 1 520 13 view .LVU404
 1268 0044 23F06F43 		bic	r3, r3, #-285212672
 1269 0048 23F47C03 		bic	r3, r3, #16515072
 1270 004c 1B0C     		lsrs	r3, r3, #16
 1271 004e 1B04     		lsls	r3, r3, #16
 1272              	.LVL78:
 521:Drivers/GD32F30x_standard_peripheral/Source/gd32f30x_can.c ****     default:
 1273              		.loc 1 521 9 is_stmt 1 view .LVU405
 1274 0050 E7E7     		b	.L100
 1275              	.L106:
 527:Drivers/GD32F30x_standard_peripheral/Source/gd32f30x_can.c ****         /* transmit pending */
 1276              		.loc 1 527 5 is_stmt 0 view .LVU406
 1277 0052 0BB9     		cbnz	r3, .L108
 530:Drivers/GD32F30x_standard_peripheral/Source/gd32f30x_can.c ****         break;
 1278              		.loc 1 530 15 view .LVU407
 1279 0054 0220     		movs	r0, #2
 1280              	.LVL79:
 530:Drivers/GD32F30x_standard_peripheral/Source/gd32f30x_can.c ****         break;
 1281              		.loc 1 530 15 view .LVU408
 1282 0056 7047     		bx	lr
 1283              	.LVL80:
 1284              	.L108:
 546:Drivers/GD32F30x_standard_peripheral/Source/gd32f30x_can.c ****         break;
 1285              		.loc 1 546 15 view .LVU409
 1286 0058 0020     		movs	r0, #0
 1287              	.LVL81:
 546:Drivers/GD32F30x_standard_peripheral/Source/gd32f30x_can.c ****         break;
 1288              		.loc 1 546 15 view .LVU410
 1289 005a 7047     		bx	lr
 1290              	.LVL82:
 1291              	.L107:
 546:Drivers/GD32F30x_standard_peripheral/Source/gd32f30x_can.c ****         break;
 1292              		.loc 1 546 15 view .LVU411
 1293 005c 0020     		movs	r0, #0
ARM GAS  C:\Users\Prog\AppData\Local\Temp\ccf7Rdsw.s 			page 35


 1294              	.LVL83:
 546:Drivers/GD32F30x_standard_peripheral/Source/gd32f30x_can.c ****         break;
 1295              		.loc 1 546 15 view .LVU412
 1296 005e 7047     		bx	lr
 1297              	.LVL84:
 1298              	.L102:
 534:Drivers/GD32F30x_standard_peripheral/Source/gd32f30x_can.c ****         break;
 1299              		.loc 1 534 15 view .LVU413
 1300 0060 0120     		movs	r0, #1
 1301              	.LVL85:
 534:Drivers/GD32F30x_standard_peripheral/Source/gd32f30x_can.c ****         break;
 1302              		.loc 1 534 15 view .LVU414
 1303 0062 7047     		bx	lr
 1304              	.LVL86:
 1305              	.L104:
 538:Drivers/GD32F30x_standard_peripheral/Source/gd32f30x_can.c ****         break;
 1306              		.loc 1 538 15 view .LVU415
 1307 0064 0120     		movs	r0, #1
 1308              	.LVL87:
 538:Drivers/GD32F30x_standard_peripheral/Source/gd32f30x_can.c ****         break;
 1309              		.loc 1 538 15 view .LVU416
 1310 0066 7047     		bx	lr
 1311              	.L110:
 1312              		.align	2
 1313              	.L109:
 1314 0068 03000004 		.word	67108867
 1315 006c 00030008 		.word	134218496
 1316 0070 00000310 		.word	268632064
 1317              		.cfi_endproc
 1318              	.LFE126:
 1320              		.section	.text.can_transmission_stop,"ax",%progbits
 1321              		.align	1
 1322              		.global	can_transmission_stop
 1323              		.syntax unified
 1324              		.thumb
 1325              		.thumb_func
 1326              		.fpu fpv4-sp-d16
 1328              	can_transmission_stop:
 1329              	.LVL88:
 1330              	.LFB127:
 551:Drivers/GD32F30x_standard_peripheral/Source/gd32f30x_can.c **** 
 552:Drivers/GD32F30x_standard_peripheral/Source/gd32f30x_can.c **** /*!
 553:Drivers/GD32F30x_standard_peripheral/Source/gd32f30x_can.c ****     \brief      stop CAN transmission
 554:Drivers/GD32F30x_standard_peripheral/Source/gd32f30x_can.c ****     \param[in]  can_periph
 555:Drivers/GD32F30x_standard_peripheral/Source/gd32f30x_can.c ****       \arg        CANx(x=0,1),the CAN1 only for GD32F30X_CL 
 556:Drivers/GD32F30x_standard_peripheral/Source/gd32f30x_can.c ****     \param[in]  mailbox_number
 557:Drivers/GD32F30x_standard_peripheral/Source/gd32f30x_can.c ****                 only one parameter can be selected which is shown as below:
 558:Drivers/GD32F30x_standard_peripheral/Source/gd32f30x_can.c ****       \arg        CAN_MAILBOXx(x=0,1,2)
 559:Drivers/GD32F30x_standard_peripheral/Source/gd32f30x_can.c ****     \param[out] none
 560:Drivers/GD32F30x_standard_peripheral/Source/gd32f30x_can.c ****     \retval     none
 561:Drivers/GD32F30x_standard_peripheral/Source/gd32f30x_can.c **** */
 562:Drivers/GD32F30x_standard_peripheral/Source/gd32f30x_can.c **** void can_transmission_stop(uint32_t can_periph, uint8_t mailbox_number)
 563:Drivers/GD32F30x_standard_peripheral/Source/gd32f30x_can.c **** {
 1331              		.loc 1 563 1 is_stmt 1 view -0
 1332              		.cfi_startproc
 1333              		@ args = 0, pretend = 0, frame = 0
 1334              		@ frame_needed = 0, uses_anonymous_args = 0
ARM GAS  C:\Users\Prog\AppData\Local\Temp\ccf7Rdsw.s 			page 36


 1335              		@ link register save eliminated.
 564:Drivers/GD32F30x_standard_peripheral/Source/gd32f30x_can.c ****     if(CAN_MAILBOX0 == mailbox_number){
 1336              		.loc 1 564 5 view .LVU418
 1337              		.loc 1 564 7 is_stmt 0 view .LVU419
 1338 0000 51B9     		cbnz	r1, .L112
 565:Drivers/GD32F30x_standard_peripheral/Source/gd32f30x_can.c ****         CAN_TSTAT(can_periph) |= CAN_TSTAT_MST0;
 1339              		.loc 1 565 9 is_stmt 1 view .LVU420
 1340              		.loc 1 565 31 is_stmt 0 view .LVU421
 1341 0002 00F10802 		add	r2, r0, #8
 1342 0006 8368     		ldr	r3, [r0, #8]
 1343 0008 43F08003 		orr	r3, r3, #128
 1344 000c 8360     		str	r3, [r0, #8]
 566:Drivers/GD32F30x_standard_peripheral/Source/gd32f30x_can.c ****         while(CAN_TSTAT_MST0 == (CAN_TSTAT(can_periph) & CAN_TSTAT_MST0)){
 1345              		.loc 1 566 9 is_stmt 1 view .LVU422
 1346              	.L113:
 567:Drivers/GD32F30x_standard_peripheral/Source/gd32f30x_can.c ****         }
 1347              		.loc 1 567 9 discriminator 1 view .LVU423
 566:Drivers/GD32F30x_standard_peripheral/Source/gd32f30x_can.c ****         while(CAN_TSTAT_MST0 == (CAN_TSTAT(can_periph) & CAN_TSTAT_MST0)){
 1348              		.loc 1 566 34 is_stmt 0 discriminator 1 view .LVU424
 1349 000e 1368     		ldr	r3, [r2]
 566:Drivers/GD32F30x_standard_peripheral/Source/gd32f30x_can.c ****         while(CAN_TSTAT_MST0 == (CAN_TSTAT(can_periph) & CAN_TSTAT_MST0)){
 1350              		.loc 1 566 14 discriminator 1 view .LVU425
 1351 0010 13F0800F 		tst	r3, #128
 1352 0014 FBD1     		bne	.L113
 1353 0016 7047     		bx	lr
 1354              	.L112:
 568:Drivers/GD32F30x_standard_peripheral/Source/gd32f30x_can.c ****     }else if(CAN_MAILBOX1 == mailbox_number){
 1355              		.loc 1 568 11 is_stmt 1 view .LVU426
 1356              		.loc 1 568 13 is_stmt 0 view .LVU427
 1357 0018 0129     		cmp	r1, #1
 1358 001a 02D0     		beq	.L118
 569:Drivers/GD32F30x_standard_peripheral/Source/gd32f30x_can.c ****         CAN_TSTAT(can_periph) |= CAN_TSTAT_MST1;
 570:Drivers/GD32F30x_standard_peripheral/Source/gd32f30x_can.c ****         while(CAN_TSTAT_MST1 == (CAN_TSTAT(can_periph) & CAN_TSTAT_MST1)){
 571:Drivers/GD32F30x_standard_peripheral/Source/gd32f30x_can.c ****         }
 572:Drivers/GD32F30x_standard_peripheral/Source/gd32f30x_can.c ****     }else if(CAN_MAILBOX2 == mailbox_number){
 1359              		.loc 1 572 11 is_stmt 1 view .LVU428
 1360              		.loc 1 572 13 is_stmt 0 view .LVU429
 1361 001c 0229     		cmp	r1, #2
 1362 001e 0BD0     		beq	.L119
 1363              	.L111:
 573:Drivers/GD32F30x_standard_peripheral/Source/gd32f30x_can.c ****         CAN_TSTAT(can_periph) |= CAN_TSTAT_MST2;
 574:Drivers/GD32F30x_standard_peripheral/Source/gd32f30x_can.c ****         while(CAN_TSTAT_MST2 == (CAN_TSTAT(can_periph) & CAN_TSTAT_MST2)){
 575:Drivers/GD32F30x_standard_peripheral/Source/gd32f30x_can.c ****         }
 576:Drivers/GD32F30x_standard_peripheral/Source/gd32f30x_can.c ****     }else{
 577:Drivers/GD32F30x_standard_peripheral/Source/gd32f30x_can.c ****         /* illegal parameters */
 578:Drivers/GD32F30x_standard_peripheral/Source/gd32f30x_can.c ****     }
 579:Drivers/GD32F30x_standard_peripheral/Source/gd32f30x_can.c **** }
 1364              		.loc 1 579 1 view .LVU430
 1365 0020 7047     		bx	lr
 1366              	.L118:
 569:Drivers/GD32F30x_standard_peripheral/Source/gd32f30x_can.c ****         CAN_TSTAT(can_periph) |= CAN_TSTAT_MST1;
 1367              		.loc 1 569 9 is_stmt 1 view .LVU431
 569:Drivers/GD32F30x_standard_peripheral/Source/gd32f30x_can.c ****         CAN_TSTAT(can_periph) |= CAN_TSTAT_MST1;
 1368              		.loc 1 569 31 is_stmt 0 view .LVU432
 1369 0022 00F10802 		add	r2, r0, #8
 1370 0026 8368     		ldr	r3, [r0, #8]
 1371 0028 43F40043 		orr	r3, r3, #32768
ARM GAS  C:\Users\Prog\AppData\Local\Temp\ccf7Rdsw.s 			page 37


 1372 002c 8360     		str	r3, [r0, #8]
 570:Drivers/GD32F30x_standard_peripheral/Source/gd32f30x_can.c ****         }
 1373              		.loc 1 570 9 is_stmt 1 view .LVU433
 1374              	.L116:
 571:Drivers/GD32F30x_standard_peripheral/Source/gd32f30x_can.c ****     }else if(CAN_MAILBOX2 == mailbox_number){
 1375              		.loc 1 571 9 discriminator 1 view .LVU434
 570:Drivers/GD32F30x_standard_peripheral/Source/gd32f30x_can.c ****         }
 1376              		.loc 1 570 34 is_stmt 0 discriminator 1 view .LVU435
 1377 002e 1368     		ldr	r3, [r2]
 570:Drivers/GD32F30x_standard_peripheral/Source/gd32f30x_can.c ****         }
 1378              		.loc 1 570 14 discriminator 1 view .LVU436
 1379 0030 13F4004F 		tst	r3, #32768
 1380 0034 FBD1     		bne	.L116
 1381 0036 7047     		bx	lr
 1382              	.L119:
 573:Drivers/GD32F30x_standard_peripheral/Source/gd32f30x_can.c ****         CAN_TSTAT(can_periph) |= CAN_TSTAT_MST2;
 1383              		.loc 1 573 9 is_stmt 1 view .LVU437
 573:Drivers/GD32F30x_standard_peripheral/Source/gd32f30x_can.c ****         CAN_TSTAT(can_periph) |= CAN_TSTAT_MST2;
 1384              		.loc 1 573 31 is_stmt 0 view .LVU438
 1385 0038 00F10802 		add	r2, r0, #8
 1386 003c 8368     		ldr	r3, [r0, #8]
 1387 003e 43F40003 		orr	r3, r3, #8388608
 1388 0042 8360     		str	r3, [r0, #8]
 574:Drivers/GD32F30x_standard_peripheral/Source/gd32f30x_can.c ****         }
 1389              		.loc 1 574 9 is_stmt 1 view .LVU439
 1390              	.L117:
 575:Drivers/GD32F30x_standard_peripheral/Source/gd32f30x_can.c ****     }else{
 1391              		.loc 1 575 9 discriminator 1 view .LVU440
 574:Drivers/GD32F30x_standard_peripheral/Source/gd32f30x_can.c ****         }
 1392              		.loc 1 574 34 is_stmt 0 discriminator 1 view .LVU441
 1393 0044 1368     		ldr	r3, [r2]
 574:Drivers/GD32F30x_standard_peripheral/Source/gd32f30x_can.c ****         }
 1394              		.loc 1 574 14 discriminator 1 view .LVU442
 1395 0046 13F4000F 		tst	r3, #8388608
 1396 004a FBD1     		bne	.L117
 1397 004c E8E7     		b	.L111
 1398              		.cfi_endproc
 1399              	.LFE127:
 1401              		.section	.text.can_message_receive,"ax",%progbits
 1402              		.align	1
 1403              		.global	can_message_receive
 1404              		.syntax unified
 1405              		.thumb
 1406              		.thumb_func
 1407              		.fpu fpv4-sp-d16
 1409              	can_message_receive:
 1410              	.LVL89:
 1411              	.LFB128:
 580:Drivers/GD32F30x_standard_peripheral/Source/gd32f30x_can.c **** 
 581:Drivers/GD32F30x_standard_peripheral/Source/gd32f30x_can.c **** /*!
 582:Drivers/GD32F30x_standard_peripheral/Source/gd32f30x_can.c ****     \brief      CAN receive message
 583:Drivers/GD32F30x_standard_peripheral/Source/gd32f30x_can.c ****     \param[in]  can_periph
 584:Drivers/GD32F30x_standard_peripheral/Source/gd32f30x_can.c ****       \arg        CANx(x=0,1),the CAN1 only for GD32F30X_CL 
 585:Drivers/GD32F30x_standard_peripheral/Source/gd32f30x_can.c ****     \param[in]  fifo_number
 586:Drivers/GD32F30x_standard_peripheral/Source/gd32f30x_can.c ****       \arg        CAN_FIFOx(x=0,1)
 587:Drivers/GD32F30x_standard_peripheral/Source/gd32f30x_can.c ****     \param[out] receive_message: struct for CAN receive message
 588:Drivers/GD32F30x_standard_peripheral/Source/gd32f30x_can.c ****       \arg        rx_sfid: 0x00000000 - 0x000007FF
ARM GAS  C:\Users\Prog\AppData\Local\Temp\ccf7Rdsw.s 			page 38


 589:Drivers/GD32F30x_standard_peripheral/Source/gd32f30x_can.c ****       \arg        rx_efid: 0x00000000 - 0x1FFFFFFF
 590:Drivers/GD32F30x_standard_peripheral/Source/gd32f30x_can.c ****       \arg        rx_ff: CAN_FF_STANDARD, CAN_FF_EXTENDED
 591:Drivers/GD32F30x_standard_peripheral/Source/gd32f30x_can.c ****       \arg        rx_ft: CAN_FT_DATA, CAN_FT_REMOTE
 592:Drivers/GD32F30x_standard_peripheral/Source/gd32f30x_can.c ****       \arg        rx_dlen: 0 - 8
 593:Drivers/GD32F30x_standard_peripheral/Source/gd32f30x_can.c ****       \arg        rx_data[]: 0x00 - 0xFF
 594:Drivers/GD32F30x_standard_peripheral/Source/gd32f30x_can.c ****       \arg        rx_fi: 0 - 27
 595:Drivers/GD32F30x_standard_peripheral/Source/gd32f30x_can.c ****     \retval     none
 596:Drivers/GD32F30x_standard_peripheral/Source/gd32f30x_can.c **** */
 597:Drivers/GD32F30x_standard_peripheral/Source/gd32f30x_can.c **** void can_message_receive(uint32_t can_periph, uint8_t fifo_number, can_receive_message_struct* rece
 598:Drivers/GD32F30x_standard_peripheral/Source/gd32f30x_can.c **** {
 1412              		.loc 1 598 1 is_stmt 1 view -0
 1413              		.cfi_startproc
 1414              		@ args = 0, pretend = 0, frame = 0
 1415              		@ frame_needed = 0, uses_anonymous_args = 0
 1416              		@ link register save eliminated.
 1417              		.loc 1 598 1 is_stmt 0 view .LVU444
 1418 0000 10B4     		push	{r4}
 1419              	.LCFI12:
 1420              		.cfi_def_cfa_offset 4
 1421              		.cfi_offset 4, -4
 599:Drivers/GD32F30x_standard_peripheral/Source/gd32f30x_can.c ****     /* get the frame format */
 600:Drivers/GD32F30x_standard_peripheral/Source/gd32f30x_can.c ****     receive_message->rx_ff = (uint8_t)(CAN_RFIFOMI_FF & CAN_RFIFOMI(can_periph, fifo_number));
 1422              		.loc 1 600 5 is_stmt 1 view .LVU445
 1423              		.loc 1 600 57 is_stmt 0 view .LVU446
 1424 0002 00EB0113 		add	r3, r0, r1, lsl #4
 1425 0006 D3F8B041 		ldr	r4, [r3, #432]
 1426              		.loc 1 600 30 view .LVU447
 1427 000a 04F00404 		and	r4, r4, #4
 1428              		.loc 1 600 28 view .LVU448
 1429 000e 1472     		strb	r4, [r2, #8]
 601:Drivers/GD32F30x_standard_peripheral/Source/gd32f30x_can.c ****     if(CAN_FF_STANDARD == receive_message->rx_ff){
 1430              		.loc 1 601 5 is_stmt 1 view .LVU449
 1431              		.loc 1 601 7 is_stmt 0 view .LVU450
 1432 0010 002C     		cmp	r4, #0
 1433 0012 3CD1     		bne	.L121
 602:Drivers/GD32F30x_standard_peripheral/Source/gd32f30x_can.c ****         /* get standard identifier */
 603:Drivers/GD32F30x_standard_peripheral/Source/gd32f30x_can.c ****         receive_message->rx_sfid = (uint32_t)(GET_RFIFOMI_SFID(CAN_RFIFOMI(can_periph, fifo_number)
 1434              		.loc 1 603 9 is_stmt 1 view .LVU451
 1435              		.loc 1 603 47 is_stmt 0 view .LVU452
 1436 0014 D3F8B041 		ldr	r4, [r3, #432]
 1437              		.loc 1 603 36 view .LVU453
 1438 0018 640D     		lsrs	r4, r4, #21
 1439              		.loc 1 603 34 view .LVU454
 1440 001a 1460     		str	r4, [r2]
 1441              	.L122:
 604:Drivers/GD32F30x_standard_peripheral/Source/gd32f30x_can.c ****     }else{
 605:Drivers/GD32F30x_standard_peripheral/Source/gd32f30x_can.c ****         /* get extended identifier */
 606:Drivers/GD32F30x_standard_peripheral/Source/gd32f30x_can.c ****         receive_message->rx_efid = (uint32_t)(GET_RFIFOMI_EFID(CAN_RFIFOMI(can_periph, fifo_number)
 607:Drivers/GD32F30x_standard_peripheral/Source/gd32f30x_can.c ****     }
 608:Drivers/GD32F30x_standard_peripheral/Source/gd32f30x_can.c ****     
 609:Drivers/GD32F30x_standard_peripheral/Source/gd32f30x_can.c ****     /* get frame type */
 610:Drivers/GD32F30x_standard_peripheral/Source/gd32f30x_can.c ****     receive_message->rx_ft = (uint8_t)(CAN_RFIFOMI_FT & CAN_RFIFOMI(can_periph, fifo_number));     
 1442              		.loc 1 610 5 is_stmt 1 view .LVU455
 1443              		.loc 1 610 57 is_stmt 0 view .LVU456
 1444 001c D3F8B041 		ldr	r4, [r3, #432]
 1445              		.loc 1 610 30 view .LVU457
 1446 0020 04F00204 		and	r4, r4, #2
ARM GAS  C:\Users\Prog\AppData\Local\Temp\ccf7Rdsw.s 			page 39


 1447              		.loc 1 610 28 view .LVU458
 1448 0024 5472     		strb	r4, [r2, #9]
 611:Drivers/GD32F30x_standard_peripheral/Source/gd32f30x_can.c ****     /* filtering index */
 612:Drivers/GD32F30x_standard_peripheral/Source/gd32f30x_can.c ****     receive_message->rx_fi = (uint8_t)(GET_RFIFOMP_FI(CAN_RFIFOMP(can_periph, fifo_number)));
 1449              		.loc 1 612 5 is_stmt 1 view .LVU459
 1450              		.loc 1 612 40 is_stmt 0 view .LVU460
 1451 0026 D3F8B441 		ldr	r4, [r3, #436]
 1452              		.loc 1 612 30 view .LVU461
 1453 002a C4F30724 		ubfx	r4, r4, #8, #8
 1454              		.loc 1 612 28 view .LVU462
 1455 002e D474     		strb	r4, [r2, #19]
 613:Drivers/GD32F30x_standard_peripheral/Source/gd32f30x_can.c ****     /* get recevie data length */
 614:Drivers/GD32F30x_standard_peripheral/Source/gd32f30x_can.c ****     receive_message->rx_dlen = (uint8_t)(GET_RFIFOMP_DLENC(CAN_RFIFOMP(can_periph, fifo_number)));
 1456              		.loc 1 614 5 is_stmt 1 view .LVU463
 1457              		.loc 1 614 42 is_stmt 0 view .LVU464
 1458 0030 D3F8B441 		ldr	r4, [r3, #436]
 1459              		.loc 1 614 32 view .LVU465
 1460 0034 04F00F04 		and	r4, r4, #15
 1461              		.loc 1 614 30 view .LVU466
 1462 0038 9472     		strb	r4, [r2, #10]
 615:Drivers/GD32F30x_standard_peripheral/Source/gd32f30x_can.c ****     
 616:Drivers/GD32F30x_standard_peripheral/Source/gd32f30x_can.c ****     /* receive data */
 617:Drivers/GD32F30x_standard_peripheral/Source/gd32f30x_can.c ****     receive_message -> rx_data[0] = (uint8_t)(GET_RFIFOMDATA0_DB0(CAN_RFIFOMDATA0(can_periph, fifo_
 1463              		.loc 1 617 5 is_stmt 1 view .LVU467
 1464              		.loc 1 617 47 is_stmt 0 view .LVU468
 1465 003a D3F8B841 		ldr	r4, [r3, #440]
 1466              		.loc 1 617 35 view .LVU469
 1467 003e D472     		strb	r4, [r2, #11]
 618:Drivers/GD32F30x_standard_peripheral/Source/gd32f30x_can.c ****     receive_message -> rx_data[1] = (uint8_t)(GET_RFIFOMDATA0_DB1(CAN_RFIFOMDATA0(can_periph, fifo_
 1468              		.loc 1 618 5 is_stmt 1 view .LVU470
 1469              		.loc 1 618 47 is_stmt 0 view .LVU471
 1470 0040 D3F8B841 		ldr	r4, [r3, #440]
 1471              		.loc 1 618 37 view .LVU472
 1472 0044 C4F30724 		ubfx	r4, r4, #8, #8
 1473              		.loc 1 618 35 view .LVU473
 1474 0048 1473     		strb	r4, [r2, #12]
 619:Drivers/GD32F30x_standard_peripheral/Source/gd32f30x_can.c ****     receive_message -> rx_data[2] = (uint8_t)(GET_RFIFOMDATA0_DB2(CAN_RFIFOMDATA0(can_periph, fifo_
 1475              		.loc 1 619 5 is_stmt 1 view .LVU474
 1476              		.loc 1 619 47 is_stmt 0 view .LVU475
 1477 004a D3F8B841 		ldr	r4, [r3, #440]
 1478              		.loc 1 619 37 view .LVU476
 1479 004e C4F30744 		ubfx	r4, r4, #16, #8
 1480              		.loc 1 619 35 view .LVU477
 1481 0052 5473     		strb	r4, [r2, #13]
 620:Drivers/GD32F30x_standard_peripheral/Source/gd32f30x_can.c ****     receive_message -> rx_data[3] = (uint8_t)(GET_RFIFOMDATA0_DB3(CAN_RFIFOMDATA0(can_periph, fifo_
 1482              		.loc 1 620 5 is_stmt 1 view .LVU478
 1483              		.loc 1 620 47 is_stmt 0 view .LVU479
 1484 0054 D3F8B841 		ldr	r4, [r3, #440]
 1485              		.loc 1 620 37 view .LVU480
 1486 0058 240E     		lsrs	r4, r4, #24
 1487              		.loc 1 620 35 view .LVU481
 1488 005a 9473     		strb	r4, [r2, #14]
 621:Drivers/GD32F30x_standard_peripheral/Source/gd32f30x_can.c ****     receive_message -> rx_data[4] = (uint8_t)(GET_RFIFOMDATA1_DB4(CAN_RFIFOMDATA1(can_periph, fifo_
 1489              		.loc 1 621 5 is_stmt 1 view .LVU482
 1490              		.loc 1 621 47 is_stmt 0 view .LVU483
 1491 005c D3F8BC41 		ldr	r4, [r3, #444]
 1492              		.loc 1 621 35 view .LVU484
ARM GAS  C:\Users\Prog\AppData\Local\Temp\ccf7Rdsw.s 			page 40


 1493 0060 D473     		strb	r4, [r2, #15]
 622:Drivers/GD32F30x_standard_peripheral/Source/gd32f30x_can.c ****     receive_message -> rx_data[5] = (uint8_t)(GET_RFIFOMDATA1_DB5(CAN_RFIFOMDATA1(can_periph, fifo_
 1494              		.loc 1 622 5 is_stmt 1 view .LVU485
 1495              		.loc 1 622 47 is_stmt 0 view .LVU486
 1496 0062 D3F8BC41 		ldr	r4, [r3, #444]
 1497              		.loc 1 622 37 view .LVU487
 1498 0066 C4F30724 		ubfx	r4, r4, #8, #8
 1499              		.loc 1 622 35 view .LVU488
 1500 006a 1474     		strb	r4, [r2, #16]
 623:Drivers/GD32F30x_standard_peripheral/Source/gd32f30x_can.c ****     receive_message -> rx_data[6] = (uint8_t)(GET_RFIFOMDATA1_DB6(CAN_RFIFOMDATA1(can_periph, fifo_
 1501              		.loc 1 623 5 is_stmt 1 view .LVU489
 1502              		.loc 1 623 47 is_stmt 0 view .LVU490
 1503 006c D3F8BC41 		ldr	r4, [r3, #444]
 1504              		.loc 1 623 37 view .LVU491
 1505 0070 C4F30744 		ubfx	r4, r4, #16, #8
 1506              		.loc 1 623 35 view .LVU492
 1507 0074 5474     		strb	r4, [r2, #17]
 624:Drivers/GD32F30x_standard_peripheral/Source/gd32f30x_can.c ****     receive_message -> rx_data[7] = (uint8_t)(GET_RFIFOMDATA1_DB7(CAN_RFIFOMDATA1(can_periph, fifo_
 1508              		.loc 1 624 5 is_stmt 1 view .LVU493
 1509              		.loc 1 624 47 is_stmt 0 view .LVU494
 1510 0076 D3F8BC31 		ldr	r3, [r3, #444]
 1511              		.loc 1 624 37 view .LVU495
 1512 007a 1B0E     		lsrs	r3, r3, #24
 1513              		.loc 1 624 35 view .LVU496
 1514 007c 9374     		strb	r3, [r2, #18]
 625:Drivers/GD32F30x_standard_peripheral/Source/gd32f30x_can.c ****     
 626:Drivers/GD32F30x_standard_peripheral/Source/gd32f30x_can.c ****     /* release FIFO */
 627:Drivers/GD32F30x_standard_peripheral/Source/gd32f30x_can.c ****     if(CAN_FIFO0 == fifo_number){
 1515              		.loc 1 627 5 is_stmt 1 view .LVU497
 1516              		.loc 1 627 7 is_stmt 0 view .LVU498
 1517 007e 59B9     		cbnz	r1, .L123
 628:Drivers/GD32F30x_standard_peripheral/Source/gd32f30x_can.c ****         CAN_RFIFO0(can_periph) |= CAN_RFIFO0_RFD0;
 1518              		.loc 1 628 9 is_stmt 1 view .LVU499
 1519              		.loc 1 628 32 is_stmt 0 view .LVU500
 1520 0080 C368     		ldr	r3, [r0, #12]
 1521 0082 43F02003 		orr	r3, r3, #32
 1522 0086 C360     		str	r3, [r0, #12]
 1523              	.L120:
 629:Drivers/GD32F30x_standard_peripheral/Source/gd32f30x_can.c ****     }else{
 630:Drivers/GD32F30x_standard_peripheral/Source/gd32f30x_can.c ****         CAN_RFIFO1(can_periph) |= CAN_RFIFO1_RFD1;
 631:Drivers/GD32F30x_standard_peripheral/Source/gd32f30x_can.c ****     }
 632:Drivers/GD32F30x_standard_peripheral/Source/gd32f30x_can.c **** }
 1524              		.loc 1 632 1 view .LVU501
 1525 0088 5DF8044B 		ldr	r4, [sp], #4
 1526              	.LCFI13:
 1527              		.cfi_remember_state
 1528              		.cfi_restore 4
 1529              		.cfi_def_cfa_offset 0
 1530 008c 7047     		bx	lr
 1531              	.L121:
 1532              	.LCFI14:
 1533              		.cfi_restore_state
 606:Drivers/GD32F30x_standard_peripheral/Source/gd32f30x_can.c ****     }
 1534              		.loc 1 606 9 is_stmt 1 view .LVU502
 606:Drivers/GD32F30x_standard_peripheral/Source/gd32f30x_can.c ****     }
 1535              		.loc 1 606 47 is_stmt 0 view .LVU503
 1536 008e D3F8B041 		ldr	r4, [r3, #432]
ARM GAS  C:\Users\Prog\AppData\Local\Temp\ccf7Rdsw.s 			page 41


 606:Drivers/GD32F30x_standard_peripheral/Source/gd32f30x_can.c ****     }
 1537              		.loc 1 606 36 view .LVU504
 1538 0092 E408     		lsrs	r4, r4, #3
 606:Drivers/GD32F30x_standard_peripheral/Source/gd32f30x_can.c ****     }
 1539              		.loc 1 606 34 view .LVU505
 1540 0094 5460     		str	r4, [r2, #4]
 1541 0096 C1E7     		b	.L122
 1542              	.L123:
 630:Drivers/GD32F30x_standard_peripheral/Source/gd32f30x_can.c ****     }
 1543              		.loc 1 630 9 is_stmt 1 view .LVU506
 630:Drivers/GD32F30x_standard_peripheral/Source/gd32f30x_can.c ****     }
 1544              		.loc 1 630 32 is_stmt 0 view .LVU507
 1545 0098 0369     		ldr	r3, [r0, #16]
 1546 009a 43F02003 		orr	r3, r3, #32
 1547 009e 0361     		str	r3, [r0, #16]
 1548              		.loc 1 632 1 view .LVU508
 1549 00a0 F2E7     		b	.L120
 1550              		.cfi_endproc
 1551              	.LFE128:
 1553              		.section	.text.can_fifo_release,"ax",%progbits
 1554              		.align	1
 1555              		.global	can_fifo_release
 1556              		.syntax unified
 1557              		.thumb
 1558              		.thumb_func
 1559              		.fpu fpv4-sp-d16
 1561              	can_fifo_release:
 1562              	.LVL90:
 1563              	.LFB129:
 633:Drivers/GD32F30x_standard_peripheral/Source/gd32f30x_can.c **** 
 634:Drivers/GD32F30x_standard_peripheral/Source/gd32f30x_can.c **** /*!
 635:Drivers/GD32F30x_standard_peripheral/Source/gd32f30x_can.c ****     \brief      release FIFO0
 636:Drivers/GD32F30x_standard_peripheral/Source/gd32f30x_can.c ****     \param[in]  can_periph
 637:Drivers/GD32F30x_standard_peripheral/Source/gd32f30x_can.c ****       \arg        CANx(x=0,1),the CAN1 only for GD32F30X_CL 
 638:Drivers/GD32F30x_standard_peripheral/Source/gd32f30x_can.c ****     \param[in]  fifo_number
 639:Drivers/GD32F30x_standard_peripheral/Source/gd32f30x_can.c ****                 only one parameter can be selected which is shown as below:
 640:Drivers/GD32F30x_standard_peripheral/Source/gd32f30x_can.c ****       \arg        CAN_FIFOx(x=0,1)
 641:Drivers/GD32F30x_standard_peripheral/Source/gd32f30x_can.c ****     \param[out] none
 642:Drivers/GD32F30x_standard_peripheral/Source/gd32f30x_can.c ****     \retval     none
 643:Drivers/GD32F30x_standard_peripheral/Source/gd32f30x_can.c **** */
 644:Drivers/GD32F30x_standard_peripheral/Source/gd32f30x_can.c **** void can_fifo_release(uint32_t can_periph, uint8_t fifo_number)
 645:Drivers/GD32F30x_standard_peripheral/Source/gd32f30x_can.c **** {
 1564              		.loc 1 645 1 is_stmt 1 view -0
 1565              		.cfi_startproc
 1566              		@ args = 0, pretend = 0, frame = 0
 1567              		@ frame_needed = 0, uses_anonymous_args = 0
 1568              		@ link register save eliminated.
 646:Drivers/GD32F30x_standard_peripheral/Source/gd32f30x_can.c ****     if(CAN_FIFO0 == fifo_number){
 1569              		.loc 1 646 5 view .LVU510
 1570              		.loc 1 646 7 is_stmt 0 view .LVU511
 1571 0000 21B9     		cbnz	r1, .L127
 647:Drivers/GD32F30x_standard_peripheral/Source/gd32f30x_can.c ****         CAN_RFIFO0(can_periph) |= CAN_RFIFO0_RFD0;
 1572              		.loc 1 647 9 is_stmt 1 view .LVU512
 1573              		.loc 1 647 32 is_stmt 0 view .LVU513
 1574 0002 C368     		ldr	r3, [r0, #12]
 1575 0004 43F02003 		orr	r3, r3, #32
 1576 0008 C360     		str	r3, [r0, #12]
ARM GAS  C:\Users\Prog\AppData\Local\Temp\ccf7Rdsw.s 			page 42


 1577 000a 7047     		bx	lr
 1578              	.L127:
 648:Drivers/GD32F30x_standard_peripheral/Source/gd32f30x_can.c ****     }else if(CAN_FIFO1 == fifo_number){
 1579              		.loc 1 648 11 is_stmt 1 view .LVU514
 1580              		.loc 1 648 13 is_stmt 0 view .LVU515
 1581 000c 0129     		cmp	r1, #1
 1582 000e 00D0     		beq	.L130
 1583              	.L129:
 649:Drivers/GD32F30x_standard_peripheral/Source/gd32f30x_can.c ****         CAN_RFIFO1(can_periph) |= CAN_RFIFO1_RFD1;
 650:Drivers/GD32F30x_standard_peripheral/Source/gd32f30x_can.c ****     }else{
 651:Drivers/GD32F30x_standard_peripheral/Source/gd32f30x_can.c ****         /* illegal parameters */
 652:Drivers/GD32F30x_standard_peripheral/Source/gd32f30x_can.c ****         CAN_ERROR_HANDLE("CAN FIFO NUM is invalid \r\n");
 1584              		.loc 1 652 9 is_stmt 1 discriminator 1 view .LVU516
 1585              		.loc 1 652 9 discriminator 1 view .LVU517
 1586 0010 FEE7     		b	.L129
 1587              	.L130:
 649:Drivers/GD32F30x_standard_peripheral/Source/gd32f30x_can.c ****         CAN_RFIFO1(can_periph) |= CAN_RFIFO1_RFD1;
 1588              		.loc 1 649 9 view .LVU518
 649:Drivers/GD32F30x_standard_peripheral/Source/gd32f30x_can.c ****         CAN_RFIFO1(can_periph) |= CAN_RFIFO1_RFD1;
 1589              		.loc 1 649 32 is_stmt 0 view .LVU519
 1590 0012 0369     		ldr	r3, [r0, #16]
 1591 0014 43F02003 		orr	r3, r3, #32
 1592 0018 0361     		str	r3, [r0, #16]
 653:Drivers/GD32F30x_standard_peripheral/Source/gd32f30x_can.c ****     }
 654:Drivers/GD32F30x_standard_peripheral/Source/gd32f30x_can.c **** }
 1593              		.loc 1 654 1 view .LVU520
 1594 001a 7047     		bx	lr
 1595              		.cfi_endproc
 1596              	.LFE129:
 1598              		.section	.text.can_receive_message_length_get,"ax",%progbits
 1599              		.align	1
 1600              		.global	can_receive_message_length_get
 1601              		.syntax unified
 1602              		.thumb
 1603              		.thumb_func
 1604              		.fpu fpv4-sp-d16
 1606              	can_receive_message_length_get:
 1607              	.LVL91:
 1608              	.LFB130:
 655:Drivers/GD32F30x_standard_peripheral/Source/gd32f30x_can.c **** 
 656:Drivers/GD32F30x_standard_peripheral/Source/gd32f30x_can.c **** /*!
 657:Drivers/GD32F30x_standard_peripheral/Source/gd32f30x_can.c ****     \brief      CAN receive message length
 658:Drivers/GD32F30x_standard_peripheral/Source/gd32f30x_can.c ****     \param[in]  can_periph
 659:Drivers/GD32F30x_standard_peripheral/Source/gd32f30x_can.c ****       \arg        CANx(x=0,1),the CAN1 only for GD32F30X_CL 
 660:Drivers/GD32F30x_standard_peripheral/Source/gd32f30x_can.c ****     \param[in]  fifo_number
 661:Drivers/GD32F30x_standard_peripheral/Source/gd32f30x_can.c ****                 only one parameter can be selected which is shown as below:
 662:Drivers/GD32F30x_standard_peripheral/Source/gd32f30x_can.c ****       \arg        CAN_FIFOx(x=0,1) 
 663:Drivers/GD32F30x_standard_peripheral/Source/gd32f30x_can.c ****     \param[out] none
 664:Drivers/GD32F30x_standard_peripheral/Source/gd32f30x_can.c ****     \retval     message length
 665:Drivers/GD32F30x_standard_peripheral/Source/gd32f30x_can.c **** */
 666:Drivers/GD32F30x_standard_peripheral/Source/gd32f30x_can.c **** uint8_t can_receive_message_length_get(uint32_t can_periph, uint8_t fifo_number)
 667:Drivers/GD32F30x_standard_peripheral/Source/gd32f30x_can.c **** {
 1609              		.loc 1 667 1 is_stmt 1 view -0
 1610              		.cfi_startproc
 1611              		@ args = 0, pretend = 0, frame = 0
 1612              		@ frame_needed = 0, uses_anonymous_args = 0
 1613              		@ link register save eliminated.
ARM GAS  C:\Users\Prog\AppData\Local\Temp\ccf7Rdsw.s 			page 43


 668:Drivers/GD32F30x_standard_peripheral/Source/gd32f30x_can.c ****     uint8_t val = 0U;
 1614              		.loc 1 668 5 view .LVU522
 669:Drivers/GD32F30x_standard_peripheral/Source/gd32f30x_can.c ****     
 670:Drivers/GD32F30x_standard_peripheral/Source/gd32f30x_can.c ****     if(CAN_FIFO0 == fifo_number){
 1615              		.loc 1 670 5 view .LVU523
 1616              		.loc 1 670 7 is_stmt 0 view .LVU524
 1617 0000 19B9     		cbnz	r1, .L132
 671:Drivers/GD32F30x_standard_peripheral/Source/gd32f30x_can.c ****         /* FIFO0 */
 672:Drivers/GD32F30x_standard_peripheral/Source/gd32f30x_can.c ****         val = (uint8_t)(CAN_RFIFO0(can_periph) & CAN_RFIF_RFL_MASK);
 1618              		.loc 1 672 9 is_stmt 1 view .LVU525
 1619              		.loc 1 672 25 is_stmt 0 view .LVU526
 1620 0002 C068     		ldr	r0, [r0, #12]
 1621              	.LVL92:
 1622              		.loc 1 672 13 view .LVU527
 1623 0004 00F00300 		and	r0, r0, #3
 1624              	.LVL93:
 1625              		.loc 1 672 13 view .LVU528
 1626 0008 7047     		bx	lr
 1627              	.LVL94:
 1628              	.L132:
 673:Drivers/GD32F30x_standard_peripheral/Source/gd32f30x_can.c ****     }else if(CAN_FIFO1 == fifo_number){
 1629              		.loc 1 673 11 is_stmt 1 view .LVU529
 1630              		.loc 1 673 13 is_stmt 0 view .LVU530
 1631 000a 0129     		cmp	r1, #1
 1632 000c 01D0     		beq	.L135
 668:Drivers/GD32F30x_standard_peripheral/Source/gd32f30x_can.c ****     
 1633              		.loc 1 668 13 view .LVU531
 1634 000e 0020     		movs	r0, #0
 1635              	.LVL95:
 674:Drivers/GD32F30x_standard_peripheral/Source/gd32f30x_can.c ****         /* FIFO1 */
 675:Drivers/GD32F30x_standard_peripheral/Source/gd32f30x_can.c ****         val = (uint8_t)(CAN_RFIFO1(can_periph) & CAN_RFIF_RFL_MASK);
 676:Drivers/GD32F30x_standard_peripheral/Source/gd32f30x_can.c ****     }else{
 677:Drivers/GD32F30x_standard_peripheral/Source/gd32f30x_can.c ****         /* illegal parameters */
 678:Drivers/GD32F30x_standard_peripheral/Source/gd32f30x_can.c ****     }
 1636              		.loc 1 678 5 is_stmt 1 view .LVU532
 679:Drivers/GD32F30x_standard_peripheral/Source/gd32f30x_can.c ****     return val;
 1637              		.loc 1 679 5 view .LVU533
 680:Drivers/GD32F30x_standard_peripheral/Source/gd32f30x_can.c **** }
 1638              		.loc 1 680 1 is_stmt 0 view .LVU534
 1639 0010 7047     		bx	lr
 1640              	.LVL96:
 1641              	.L135:
 675:Drivers/GD32F30x_standard_peripheral/Source/gd32f30x_can.c ****     }else{
 1642              		.loc 1 675 9 is_stmt 1 view .LVU535
 675:Drivers/GD32F30x_standard_peripheral/Source/gd32f30x_can.c ****     }else{
 1643              		.loc 1 675 25 is_stmt 0 view .LVU536
 1644 0012 0069     		ldr	r0, [r0, #16]
 1645              	.LVL97:
 675:Drivers/GD32F30x_standard_peripheral/Source/gd32f30x_can.c ****     }else{
 1646              		.loc 1 675 13 view .LVU537
 1647 0014 00F00300 		and	r0, r0, #3
 1648              	.LVL98:
 675:Drivers/GD32F30x_standard_peripheral/Source/gd32f30x_can.c ****     }else{
 1649              		.loc 1 675 13 view .LVU538
 1650 0018 7047     		bx	lr
 1651              		.cfi_endproc
 1652              	.LFE130:
ARM GAS  C:\Users\Prog\AppData\Local\Temp\ccf7Rdsw.s 			page 44


 1654              		.section	.text.can_working_mode_set,"ax",%progbits
 1655              		.align	1
 1656              		.global	can_working_mode_set
 1657              		.syntax unified
 1658              		.thumb
 1659              		.thumb_func
 1660              		.fpu fpv4-sp-d16
 1662              	can_working_mode_set:
 1663              	.LVL99:
 1664              	.LFB131:
 681:Drivers/GD32F30x_standard_peripheral/Source/gd32f30x_can.c **** 
 682:Drivers/GD32F30x_standard_peripheral/Source/gd32f30x_can.c **** /*!
 683:Drivers/GD32F30x_standard_peripheral/Source/gd32f30x_can.c ****     \brief      set CAN working mode
 684:Drivers/GD32F30x_standard_peripheral/Source/gd32f30x_can.c ****     \param[in]  can_periph
 685:Drivers/GD32F30x_standard_peripheral/Source/gd32f30x_can.c ****       \arg        CANx(x=0,1),the CAN1 only for GD32F30X_CL 
 686:Drivers/GD32F30x_standard_peripheral/Source/gd32f30x_can.c ****     \param[in]  can_working_mode
 687:Drivers/GD32F30x_standard_peripheral/Source/gd32f30x_can.c ****                 only one parameter can be selected which is shown as below:
 688:Drivers/GD32F30x_standard_peripheral/Source/gd32f30x_can.c ****       \arg        CAN_MODE_INITIALIZE
 689:Drivers/GD32F30x_standard_peripheral/Source/gd32f30x_can.c ****       \arg        CAN_MODE_NORMAL
 690:Drivers/GD32F30x_standard_peripheral/Source/gd32f30x_can.c ****       \arg        CAN_MODE_SLEEP
 691:Drivers/GD32F30x_standard_peripheral/Source/gd32f30x_can.c ****     \param[out] none
 692:Drivers/GD32F30x_standard_peripheral/Source/gd32f30x_can.c ****     \retval     ErrStatus: SUCCESS or ERROR
 693:Drivers/GD32F30x_standard_peripheral/Source/gd32f30x_can.c **** */
 694:Drivers/GD32F30x_standard_peripheral/Source/gd32f30x_can.c **** ErrStatus can_working_mode_set(uint32_t can_periph, uint8_t working_mode)
 695:Drivers/GD32F30x_standard_peripheral/Source/gd32f30x_can.c **** {
 1665              		.loc 1 695 1 is_stmt 1 view -0
 1666              		.cfi_startproc
 1667              		@ args = 0, pretend = 0, frame = 0
 1668              		@ frame_needed = 0, uses_anonymous_args = 0
 1669              		@ link register save eliminated.
 696:Drivers/GD32F30x_standard_peripheral/Source/gd32f30x_can.c ****     ErrStatus flag = ERROR;
 1670              		.loc 1 696 5 view .LVU540
 697:Drivers/GD32F30x_standard_peripheral/Source/gd32f30x_can.c ****     /* timeout for IWS or also for SLPWS bits */
 698:Drivers/GD32F30x_standard_peripheral/Source/gd32f30x_can.c ****     uint32_t timeout = CAN_TIMEOUT; 
 1671              		.loc 1 698 5 view .LVU541
 699:Drivers/GD32F30x_standard_peripheral/Source/gd32f30x_can.c ****     
 700:Drivers/GD32F30x_standard_peripheral/Source/gd32f30x_can.c ****     if(CAN_MODE_INITIALIZE == working_mode){
 1672              		.loc 1 700 5 view .LVU542
 1673              		.loc 1 700 7 is_stmt 0 view .LVU543
 1674 0000 0129     		cmp	r1, #1
 1675 0002 05D0     		beq	.L153
 701:Drivers/GD32F30x_standard_peripheral/Source/gd32f30x_can.c ****         /* disable sleep mode */
 702:Drivers/GD32F30x_standard_peripheral/Source/gd32f30x_can.c ****         CAN_CTL(can_periph) &= (~(uint32_t)CAN_CTL_SLPWMOD);
 703:Drivers/GD32F30x_standard_peripheral/Source/gd32f30x_can.c ****         /* set initialize mode */
 704:Drivers/GD32F30x_standard_peripheral/Source/gd32f30x_can.c ****         CAN_CTL(can_periph) |= (uint8_t)CAN_CTL_IWMOD;
 705:Drivers/GD32F30x_standard_peripheral/Source/gd32f30x_can.c ****         /* wait the acknowledge */
 706:Drivers/GD32F30x_standard_peripheral/Source/gd32f30x_can.c ****         while((CAN_STAT_IWS != (CAN_STAT(can_periph) & CAN_STAT_IWS)) && (0U != timeout)){
 707:Drivers/GD32F30x_standard_peripheral/Source/gd32f30x_can.c ****             timeout--;
 708:Drivers/GD32F30x_standard_peripheral/Source/gd32f30x_can.c ****         }
 709:Drivers/GD32F30x_standard_peripheral/Source/gd32f30x_can.c ****         if(CAN_STAT_IWS != (CAN_STAT(can_periph) & CAN_STAT_IWS)){
 710:Drivers/GD32F30x_standard_peripheral/Source/gd32f30x_can.c ****             flag = ERROR;
 711:Drivers/GD32F30x_standard_peripheral/Source/gd32f30x_can.c ****         }else{
 712:Drivers/GD32F30x_standard_peripheral/Source/gd32f30x_can.c ****             flag = SUCCESS;
 713:Drivers/GD32F30x_standard_peripheral/Source/gd32f30x_can.c ****         }
 714:Drivers/GD32F30x_standard_peripheral/Source/gd32f30x_can.c ****     }else if(CAN_MODE_NORMAL == working_mode){
 1676              		.loc 1 714 11 is_stmt 1 view .LVU544
 1677              		.loc 1 714 13 is_stmt 0 view .LVU545
ARM GAS  C:\Users\Prog\AppData\Local\Temp\ccf7Rdsw.s 			page 45


 1678 0004 0229     		cmp	r1, #2
 1679 0006 1BD0     		beq	.L154
 715:Drivers/GD32F30x_standard_peripheral/Source/gd32f30x_can.c ****         /* enter normal mode */
 716:Drivers/GD32F30x_standard_peripheral/Source/gd32f30x_can.c ****         CAN_CTL(can_periph) &= ~(uint32_t)(CAN_CTL_SLPWMOD | CAN_CTL_IWMOD);
 717:Drivers/GD32F30x_standard_peripheral/Source/gd32f30x_can.c ****         /* wait the acknowledge */
 718:Drivers/GD32F30x_standard_peripheral/Source/gd32f30x_can.c ****         while((0U != (CAN_STAT(can_periph) & (CAN_STAT_IWS | CAN_STAT_SLPWS))) && (0U != timeout)){
 719:Drivers/GD32F30x_standard_peripheral/Source/gd32f30x_can.c ****             timeout--;
 720:Drivers/GD32F30x_standard_peripheral/Source/gd32f30x_can.c ****         }
 721:Drivers/GD32F30x_standard_peripheral/Source/gd32f30x_can.c ****         if(0U != (CAN_STAT(can_periph) & (CAN_STAT_IWS | CAN_STAT_SLPWS))){
 722:Drivers/GD32F30x_standard_peripheral/Source/gd32f30x_can.c ****             flag = ERROR;
 723:Drivers/GD32F30x_standard_peripheral/Source/gd32f30x_can.c ****         }else{
 724:Drivers/GD32F30x_standard_peripheral/Source/gd32f30x_can.c ****             flag = SUCCESS;
 725:Drivers/GD32F30x_standard_peripheral/Source/gd32f30x_can.c ****         }
 726:Drivers/GD32F30x_standard_peripheral/Source/gd32f30x_can.c ****     }else if(CAN_MODE_SLEEP == working_mode){
 1680              		.loc 1 726 11 is_stmt 1 view .LVU546
 1681              		.loc 1 726 13 is_stmt 0 view .LVU547
 1682 0008 0429     		cmp	r1, #4
 1683 000a 2DD0     		beq	.L155
 727:Drivers/GD32F30x_standard_peripheral/Source/gd32f30x_can.c ****         /* disable initialize mode */
 728:Drivers/GD32F30x_standard_peripheral/Source/gd32f30x_can.c ****         CAN_CTL(can_periph) &= (~(uint32_t)CAN_CTL_IWMOD);
 729:Drivers/GD32F30x_standard_peripheral/Source/gd32f30x_can.c ****         /* set sleep mode */
 730:Drivers/GD32F30x_standard_peripheral/Source/gd32f30x_can.c ****         CAN_CTL(can_periph) |= (uint8_t)CAN_CTL_SLPWMOD;
 731:Drivers/GD32F30x_standard_peripheral/Source/gd32f30x_can.c ****         /* wait the acknowledge */
 732:Drivers/GD32F30x_standard_peripheral/Source/gd32f30x_can.c ****         while((CAN_STAT_SLPWS != (CAN_STAT(can_periph) & CAN_STAT_SLPWS)) && (0U != timeout)){
 733:Drivers/GD32F30x_standard_peripheral/Source/gd32f30x_can.c ****             timeout--;
 734:Drivers/GD32F30x_standard_peripheral/Source/gd32f30x_can.c ****         }
 735:Drivers/GD32F30x_standard_peripheral/Source/gd32f30x_can.c ****         if(CAN_STAT_SLPWS != (CAN_STAT(can_periph) & CAN_STAT_SLPWS)){
 736:Drivers/GD32F30x_standard_peripheral/Source/gd32f30x_can.c ****             flag = ERROR;
 737:Drivers/GD32F30x_standard_peripheral/Source/gd32f30x_can.c ****         }else{
 738:Drivers/GD32F30x_standard_peripheral/Source/gd32f30x_can.c ****             flag = SUCCESS;
 739:Drivers/GD32F30x_standard_peripheral/Source/gd32f30x_can.c ****         }
 740:Drivers/GD32F30x_standard_peripheral/Source/gd32f30x_can.c ****     }else{
 741:Drivers/GD32F30x_standard_peripheral/Source/gd32f30x_can.c ****         flag = ERROR;
 1684              		.loc 1 741 14 view .LVU548
 1685 000c 0020     		movs	r0, #0
 1686              	.LVL100:
 1687              		.loc 1 741 14 view .LVU549
 1688 000e 7047     		bx	lr
 1689              	.LVL101:
 1690              	.L153:
 702:Drivers/GD32F30x_standard_peripheral/Source/gd32f30x_can.c ****         /* set initialize mode */
 1691              		.loc 1 702 9 is_stmt 1 view .LVU550
 702:Drivers/GD32F30x_standard_peripheral/Source/gd32f30x_can.c ****         /* set initialize mode */
 1692              		.loc 1 702 29 is_stmt 0 view .LVU551
 1693 0010 0368     		ldr	r3, [r0]
 1694 0012 23F00203 		bic	r3, r3, #2
 1695 0016 0360     		str	r3, [r0]
 704:Drivers/GD32F30x_standard_peripheral/Source/gd32f30x_can.c ****         /* wait the acknowledge */
 1696              		.loc 1 704 9 is_stmt 1 view .LVU552
 704:Drivers/GD32F30x_standard_peripheral/Source/gd32f30x_can.c ****         /* wait the acknowledge */
 1697              		.loc 1 704 29 is_stmt 0 view .LVU553
 1698 0018 0368     		ldr	r3, [r0]
 1699 001a 43F00103 		orr	r3, r3, #1
 1700 001e 0360     		str	r3, [r0]
 706:Drivers/GD32F30x_standard_peripheral/Source/gd32f30x_can.c ****             timeout--;
 1701              		.loc 1 706 9 is_stmt 1 view .LVU554
 698:Drivers/GD32F30x_standard_peripheral/Source/gd32f30x_can.c ****     
ARM GAS  C:\Users\Prog\AppData\Local\Temp\ccf7Rdsw.s 			page 46


 1702              		.loc 1 698 14 is_stmt 0 view .LVU555
 1703 0020 4FF6FF73 		movw	r3, #65535
 1704              	.LVL102:
 1705              	.L138:
 706:Drivers/GD32F30x_standard_peripheral/Source/gd32f30x_can.c ****             timeout--;
 1706              		.loc 1 706 33 view .LVU556
 1707 0024 011D     		adds	r1, r0, #4
 1708 0026 4268     		ldr	r2, [r0, #4]
 706:Drivers/GD32F30x_standard_peripheral/Source/gd32f30x_can.c ****             timeout--;
 1709              		.loc 1 706 14 view .LVU557
 1710 0028 12F0010F 		tst	r2, #1
 1711 002c 02D1     		bne	.L139
 706:Drivers/GD32F30x_standard_peripheral/Source/gd32f30x_can.c ****             timeout--;
 1712              		.loc 1 706 71 discriminator 1 view .LVU558
 1713 002e 0BB1     		cbz	r3, .L139
 707:Drivers/GD32F30x_standard_peripheral/Source/gd32f30x_can.c ****         }
 1714              		.loc 1 707 13 is_stmt 1 view .LVU559
 707:Drivers/GD32F30x_standard_peripheral/Source/gd32f30x_can.c ****         }
 1715              		.loc 1 707 20 is_stmt 0 view .LVU560
 1716 0030 013B     		subs	r3, r3, #1
 1717              	.LVL103:
 707:Drivers/GD32F30x_standard_peripheral/Source/gd32f30x_can.c ****         }
 1718              		.loc 1 707 20 view .LVU561
 1719 0032 F7E7     		b	.L138
 1720              	.L139:
 709:Drivers/GD32F30x_standard_peripheral/Source/gd32f30x_can.c ****             flag = ERROR;
 1721              		.loc 1 709 9 is_stmt 1 view .LVU562
 709:Drivers/GD32F30x_standard_peripheral/Source/gd32f30x_can.c ****             flag = ERROR;
 1722              		.loc 1 709 29 is_stmt 0 view .LVU563
 1723 0034 0B68     		ldr	r3, [r1]
 1724              	.LVL104:
 709:Drivers/GD32F30x_standard_peripheral/Source/gd32f30x_can.c ****             flag = ERROR;
 1725              		.loc 1 709 11 view .LVU564
 1726 0036 13F0010F 		tst	r3, #1
 1727 003a 2DD1     		bne	.L149
 710:Drivers/GD32F30x_standard_peripheral/Source/gd32f30x_can.c ****         }else{
 1728              		.loc 1 710 18 view .LVU565
 1729 003c 0020     		movs	r0, #0
 1730              	.LVL105:
 710:Drivers/GD32F30x_standard_peripheral/Source/gd32f30x_can.c ****         }else{
 1731              		.loc 1 710 18 view .LVU566
 1732 003e 7047     		bx	lr
 1733              	.LVL106:
 1734              	.L154:
 716:Drivers/GD32F30x_standard_peripheral/Source/gd32f30x_can.c ****         /* wait the acknowledge */
 1735              		.loc 1 716 9 is_stmt 1 view .LVU567
 716:Drivers/GD32F30x_standard_peripheral/Source/gd32f30x_can.c ****         /* wait the acknowledge */
 1736              		.loc 1 716 29 is_stmt 0 view .LVU568
 1737 0040 0368     		ldr	r3, [r0]
 1738 0042 23F00303 		bic	r3, r3, #3
 1739 0046 0360     		str	r3, [r0]
 718:Drivers/GD32F30x_standard_peripheral/Source/gd32f30x_can.c ****             timeout--;
 1740              		.loc 1 718 9 is_stmt 1 view .LVU569
 698:Drivers/GD32F30x_standard_peripheral/Source/gd32f30x_can.c ****     
 1741              		.loc 1 698 14 is_stmt 0 view .LVU570
 1742 0048 4FF6FF73 		movw	r3, #65535
 1743              	.LVL107:
ARM GAS  C:\Users\Prog\AppData\Local\Temp\ccf7Rdsw.s 			page 47


 1744              	.L143:
 718:Drivers/GD32F30x_standard_peripheral/Source/gd32f30x_can.c ****             timeout--;
 1745              		.loc 1 718 23 view .LVU571
 1746 004c 011D     		adds	r1, r0, #4
 1747 004e 4268     		ldr	r2, [r0, #4]
 718:Drivers/GD32F30x_standard_peripheral/Source/gd32f30x_can.c ****             timeout--;
 1748              		.loc 1 718 14 view .LVU572
 1749 0050 12F0030F 		tst	r2, #3
 1750 0054 02D0     		beq	.L144
 718:Drivers/GD32F30x_standard_peripheral/Source/gd32f30x_can.c ****             timeout--;
 1751              		.loc 1 718 80 discriminator 1 view .LVU573
 1752 0056 0BB1     		cbz	r3, .L144
 719:Drivers/GD32F30x_standard_peripheral/Source/gd32f30x_can.c ****         }
 1753              		.loc 1 719 13 is_stmt 1 view .LVU574
 719:Drivers/GD32F30x_standard_peripheral/Source/gd32f30x_can.c ****         }
 1754              		.loc 1 719 20 is_stmt 0 view .LVU575
 1755 0058 013B     		subs	r3, r3, #1
 1756              	.LVL108:
 719:Drivers/GD32F30x_standard_peripheral/Source/gd32f30x_can.c ****         }
 1757              		.loc 1 719 20 view .LVU576
 1758 005a F7E7     		b	.L143
 1759              	.L144:
 721:Drivers/GD32F30x_standard_peripheral/Source/gd32f30x_can.c ****             flag = ERROR;
 1760              		.loc 1 721 9 is_stmt 1 view .LVU577
 721:Drivers/GD32F30x_standard_peripheral/Source/gd32f30x_can.c ****             flag = ERROR;
 1761              		.loc 1 721 19 is_stmt 0 view .LVU578
 1762 005c 0B68     		ldr	r3, [r1]
 1763              	.LVL109:
 721:Drivers/GD32F30x_standard_peripheral/Source/gd32f30x_can.c ****             flag = ERROR;
 1764              		.loc 1 721 11 view .LVU579
 1765 005e 13F0030F 		tst	r3, #3
 1766 0062 1BD0     		beq	.L150
 722:Drivers/GD32F30x_standard_peripheral/Source/gd32f30x_can.c ****         }else{
 1767              		.loc 1 722 18 view .LVU580
 1768 0064 0020     		movs	r0, #0
 1769              	.LVL110:
 722:Drivers/GD32F30x_standard_peripheral/Source/gd32f30x_can.c ****         }else{
 1770              		.loc 1 722 18 view .LVU581
 1771 0066 7047     		bx	lr
 1772              	.LVL111:
 1773              	.L155:
 728:Drivers/GD32F30x_standard_peripheral/Source/gd32f30x_can.c ****         /* set sleep mode */
 1774              		.loc 1 728 9 is_stmt 1 view .LVU582
 728:Drivers/GD32F30x_standard_peripheral/Source/gd32f30x_can.c ****         /* set sleep mode */
 1775              		.loc 1 728 29 is_stmt 0 view .LVU583
 1776 0068 0368     		ldr	r3, [r0]
 1777 006a 23F00103 		bic	r3, r3, #1
 1778 006e 0360     		str	r3, [r0]
 730:Drivers/GD32F30x_standard_peripheral/Source/gd32f30x_can.c ****         /* wait the acknowledge */
 1779              		.loc 1 730 9 is_stmt 1 view .LVU584
 730:Drivers/GD32F30x_standard_peripheral/Source/gd32f30x_can.c ****         /* wait the acknowledge */
 1780              		.loc 1 730 29 is_stmt 0 view .LVU585
 1781 0070 0368     		ldr	r3, [r0]
 1782 0072 43F00203 		orr	r3, r3, #2
 1783 0076 0360     		str	r3, [r0]
 732:Drivers/GD32F30x_standard_peripheral/Source/gd32f30x_can.c ****             timeout--;
 1784              		.loc 1 732 9 is_stmt 1 view .LVU586
ARM GAS  C:\Users\Prog\AppData\Local\Temp\ccf7Rdsw.s 			page 48


 698:Drivers/GD32F30x_standard_peripheral/Source/gd32f30x_can.c ****     
 1785              		.loc 1 698 14 is_stmt 0 view .LVU587
 1786 0078 4FF6FF73 		movw	r3, #65535
 1787              	.LVL112:
 1788              	.L146:
 732:Drivers/GD32F30x_standard_peripheral/Source/gd32f30x_can.c ****             timeout--;
 1789              		.loc 1 732 35 view .LVU588
 1790 007c 011D     		adds	r1, r0, #4
 1791 007e 4268     		ldr	r2, [r0, #4]
 732:Drivers/GD32F30x_standard_peripheral/Source/gd32f30x_can.c ****             timeout--;
 1792              		.loc 1 732 14 view .LVU589
 1793 0080 12F0020F 		tst	r2, #2
 1794 0084 02D1     		bne	.L147
 732:Drivers/GD32F30x_standard_peripheral/Source/gd32f30x_can.c ****             timeout--;
 1795              		.loc 1 732 75 discriminator 1 view .LVU590
 1796 0086 0BB1     		cbz	r3, .L147
 733:Drivers/GD32F30x_standard_peripheral/Source/gd32f30x_can.c ****         }
 1797              		.loc 1 733 13 is_stmt 1 view .LVU591
 733:Drivers/GD32F30x_standard_peripheral/Source/gd32f30x_can.c ****         }
 1798              		.loc 1 733 20 is_stmt 0 view .LVU592
 1799 0088 013B     		subs	r3, r3, #1
 1800              	.LVL113:
 733:Drivers/GD32F30x_standard_peripheral/Source/gd32f30x_can.c ****         }
 1801              		.loc 1 733 20 view .LVU593
 1802 008a F7E7     		b	.L146
 1803              	.L147:
 735:Drivers/GD32F30x_standard_peripheral/Source/gd32f30x_can.c ****             flag = ERROR;
 1804              		.loc 1 735 9 is_stmt 1 view .LVU594
 735:Drivers/GD32F30x_standard_peripheral/Source/gd32f30x_can.c ****             flag = ERROR;
 1805              		.loc 1 735 31 is_stmt 0 view .LVU595
 1806 008c 0B68     		ldr	r3, [r1]
 1807              	.LVL114:
 735:Drivers/GD32F30x_standard_peripheral/Source/gd32f30x_can.c ****             flag = ERROR;
 1808              		.loc 1 735 11 view .LVU596
 1809 008e 13F0020F 		tst	r3, #2
 1810 0092 05D1     		bne	.L152
 736:Drivers/GD32F30x_standard_peripheral/Source/gd32f30x_can.c ****         }else{
 1811              		.loc 1 736 18 view .LVU597
 1812 0094 0020     		movs	r0, #0
 1813              	.LVL115:
 736:Drivers/GD32F30x_standard_peripheral/Source/gd32f30x_can.c ****         }else{
 1814              		.loc 1 736 18 view .LVU598
 1815 0096 7047     		bx	lr
 1816              	.LVL116:
 1817              	.L149:
 712:Drivers/GD32F30x_standard_peripheral/Source/gd32f30x_can.c ****         }
 1818              		.loc 1 712 18 view .LVU599
 1819 0098 0120     		movs	r0, #1
 1820              	.LVL117:
 712:Drivers/GD32F30x_standard_peripheral/Source/gd32f30x_can.c ****         }
 1821              		.loc 1 712 18 view .LVU600
 1822 009a 7047     		bx	lr
 1823              	.LVL118:
 1824              	.L150:
 724:Drivers/GD32F30x_standard_peripheral/Source/gd32f30x_can.c ****         }
 1825              		.loc 1 724 18 view .LVU601
 1826 009c 0120     		movs	r0, #1
ARM GAS  C:\Users\Prog\AppData\Local\Temp\ccf7Rdsw.s 			page 49


 1827              	.LVL119:
 724:Drivers/GD32F30x_standard_peripheral/Source/gd32f30x_can.c ****         }
 1828              		.loc 1 724 18 view .LVU602
 1829 009e 7047     		bx	lr
 1830              	.LVL120:
 1831              	.L152:
 738:Drivers/GD32F30x_standard_peripheral/Source/gd32f30x_can.c ****         }
 1832              		.loc 1 738 18 view .LVU603
 1833 00a0 0120     		movs	r0, #1
 1834              	.LVL121:
 742:Drivers/GD32F30x_standard_peripheral/Source/gd32f30x_can.c ****     }
 743:Drivers/GD32F30x_standard_peripheral/Source/gd32f30x_can.c ****     return flag;
 1835              		.loc 1 743 5 is_stmt 1 view .LVU604
 744:Drivers/GD32F30x_standard_peripheral/Source/gd32f30x_can.c **** }
 1836              		.loc 1 744 1 is_stmt 0 view .LVU605
 1837 00a2 7047     		bx	lr
 1838              		.cfi_endproc
 1839              	.LFE131:
 1841              		.section	.text.can_wakeup,"ax",%progbits
 1842              		.align	1
 1843              		.global	can_wakeup
 1844              		.syntax unified
 1845              		.thumb
 1846              		.thumb_func
 1847              		.fpu fpv4-sp-d16
 1849              	can_wakeup:
 1850              	.LVL122:
 1851              	.LFB132:
 745:Drivers/GD32F30x_standard_peripheral/Source/gd32f30x_can.c **** 
 746:Drivers/GD32F30x_standard_peripheral/Source/gd32f30x_can.c **** /*!
 747:Drivers/GD32F30x_standard_peripheral/Source/gd32f30x_can.c ****     \brief      wake up CAN
 748:Drivers/GD32F30x_standard_peripheral/Source/gd32f30x_can.c ****     \param[in]  can_periph
 749:Drivers/GD32F30x_standard_peripheral/Source/gd32f30x_can.c ****       \arg        CANx(x=0,1),the CAN1 only for GD32F30X_CL 
 750:Drivers/GD32F30x_standard_peripheral/Source/gd32f30x_can.c ****     \param[out] none
 751:Drivers/GD32F30x_standard_peripheral/Source/gd32f30x_can.c ****     \retval     ErrStatus: SUCCESS or ERROR
 752:Drivers/GD32F30x_standard_peripheral/Source/gd32f30x_can.c **** */
 753:Drivers/GD32F30x_standard_peripheral/Source/gd32f30x_can.c **** ErrStatus can_wakeup(uint32_t can_periph)
 754:Drivers/GD32F30x_standard_peripheral/Source/gd32f30x_can.c **** {
 1852              		.loc 1 754 1 is_stmt 1 view -0
 1853              		.cfi_startproc
 1854              		@ args = 0, pretend = 0, frame = 0
 1855              		@ frame_needed = 0, uses_anonymous_args = 0
 1856              		@ link register save eliminated.
 755:Drivers/GD32F30x_standard_peripheral/Source/gd32f30x_can.c ****     ErrStatus flag = ERROR;
 1857              		.loc 1 755 5 view .LVU607
 756:Drivers/GD32F30x_standard_peripheral/Source/gd32f30x_can.c ****     uint32_t timeout = CAN_TIMEOUT;
 1858              		.loc 1 756 5 view .LVU608
 757:Drivers/GD32F30x_standard_peripheral/Source/gd32f30x_can.c ****     
 758:Drivers/GD32F30x_standard_peripheral/Source/gd32f30x_can.c ****     /* wakeup */
 759:Drivers/GD32F30x_standard_peripheral/Source/gd32f30x_can.c ****     CAN_CTL(can_periph) &= ~CAN_CTL_SLPWMOD;
 1859              		.loc 1 759 5 view .LVU609
 1860              		.loc 1 759 25 is_stmt 0 view .LVU610
 1861 0000 0368     		ldr	r3, [r0]
 1862 0002 23F00203 		bic	r3, r3, #2
 1863 0006 0360     		str	r3, [r0]
 760:Drivers/GD32F30x_standard_peripheral/Source/gd32f30x_can.c ****     
 761:Drivers/GD32F30x_standard_peripheral/Source/gd32f30x_can.c ****     while((0U != (CAN_STAT(can_periph) & CAN_STAT_SLPWS)) && (0x00U != timeout)){
ARM GAS  C:\Users\Prog\AppData\Local\Temp\ccf7Rdsw.s 			page 50


 1864              		.loc 1 761 5 is_stmt 1 view .LVU611
 756:Drivers/GD32F30x_standard_peripheral/Source/gd32f30x_can.c ****     
 1865              		.loc 1 756 14 is_stmt 0 view .LVU612
 1866 0008 4FF6FF73 		movw	r3, #65535
 1867              	.LVL123:
 1868              	.L157:
 1869              		.loc 1 761 19 view .LVU613
 1870 000c 011D     		adds	r1, r0, #4
 1871 000e 4268     		ldr	r2, [r0, #4]
 1872              		.loc 1 761 10 view .LVU614
 1873 0010 12F0020F 		tst	r2, #2
 1874 0014 02D0     		beq	.L158
 1875              		.loc 1 761 59 discriminator 1 view .LVU615
 1876 0016 0BB1     		cbz	r3, .L158
 762:Drivers/GD32F30x_standard_peripheral/Source/gd32f30x_can.c ****         timeout--;
 1877              		.loc 1 762 9 is_stmt 1 view .LVU616
 1878              		.loc 1 762 16 is_stmt 0 view .LVU617
 1879 0018 013B     		subs	r3, r3, #1
 1880              	.LVL124:
 1881              		.loc 1 762 16 view .LVU618
 1882 001a F7E7     		b	.L157
 1883              	.L158:
 763:Drivers/GD32F30x_standard_peripheral/Source/gd32f30x_can.c ****     }
 764:Drivers/GD32F30x_standard_peripheral/Source/gd32f30x_can.c ****     /* check state */
 765:Drivers/GD32F30x_standard_peripheral/Source/gd32f30x_can.c ****     if(0U != (CAN_STAT(can_periph) & CAN_STAT_SLPWS)){
 1884              		.loc 1 765 5 is_stmt 1 view .LVU619
 1885              		.loc 1 765 15 is_stmt 0 view .LVU620
 1886 001c 0B68     		ldr	r3, [r1]
 1887              	.LVL125:
 1888              		.loc 1 765 7 view .LVU621
 1889 001e 13F0020F 		tst	r3, #2
 1890 0022 01D0     		beq	.L161
 766:Drivers/GD32F30x_standard_peripheral/Source/gd32f30x_can.c ****         flag = ERROR;
 1891              		.loc 1 766 14 view .LVU622
 1892 0024 0020     		movs	r0, #0
 1893              	.LVL126:
 1894              		.loc 1 766 14 view .LVU623
 1895 0026 7047     		bx	lr
 1896              	.LVL127:
 1897              	.L161:
 767:Drivers/GD32F30x_standard_peripheral/Source/gd32f30x_can.c ****     }else{
 768:Drivers/GD32F30x_standard_peripheral/Source/gd32f30x_can.c ****         flag = SUCCESS;
 1898              		.loc 1 768 14 view .LVU624
 1899 0028 0120     		movs	r0, #1
 1900              	.LVL128:
 769:Drivers/GD32F30x_standard_peripheral/Source/gd32f30x_can.c ****     }
 770:Drivers/GD32F30x_standard_peripheral/Source/gd32f30x_can.c ****     return flag;
 1901              		.loc 1 770 5 is_stmt 1 view .LVU625
 771:Drivers/GD32F30x_standard_peripheral/Source/gd32f30x_can.c **** }
 1902              		.loc 1 771 1 is_stmt 0 view .LVU626
 1903 002a 7047     		bx	lr
 1904              		.cfi_endproc
 1905              	.LFE132:
 1907              		.section	.text.can_error_get,"ax",%progbits
 1908              		.align	1
 1909              		.global	can_error_get
 1910              		.syntax unified
ARM GAS  C:\Users\Prog\AppData\Local\Temp\ccf7Rdsw.s 			page 51


 1911              		.thumb
 1912              		.thumb_func
 1913              		.fpu fpv4-sp-d16
 1915              	can_error_get:
 1916              	.LVL129:
 1917              	.LFB133:
 772:Drivers/GD32F30x_standard_peripheral/Source/gd32f30x_can.c **** 
 773:Drivers/GD32F30x_standard_peripheral/Source/gd32f30x_can.c **** /*!
 774:Drivers/GD32F30x_standard_peripheral/Source/gd32f30x_can.c ****     \brief      get CAN error type
 775:Drivers/GD32F30x_standard_peripheral/Source/gd32f30x_can.c ****     \param[in]  can_periph
 776:Drivers/GD32F30x_standard_peripheral/Source/gd32f30x_can.c ****       \arg        CANx(x=0,1),the CAN1 only for GD32F30X_CL 
 777:Drivers/GD32F30x_standard_peripheral/Source/gd32f30x_can.c ****     \param[out] none
 778:Drivers/GD32F30x_standard_peripheral/Source/gd32f30x_can.c ****     \retval     can_error_enum
 779:Drivers/GD32F30x_standard_peripheral/Source/gd32f30x_can.c ****       \arg        CAN_ERROR_NONE: no error
 780:Drivers/GD32F30x_standard_peripheral/Source/gd32f30x_can.c ****       \arg        CAN_ERROR_FILL: fill error
 781:Drivers/GD32F30x_standard_peripheral/Source/gd32f30x_can.c ****       \arg        CAN_ERROR_FORMATE: format error
 782:Drivers/GD32F30x_standard_peripheral/Source/gd32f30x_can.c ****       \arg        CAN_ERROR_ACK: ACK error
 783:Drivers/GD32F30x_standard_peripheral/Source/gd32f30x_can.c ****       \arg        CAN_ERROR_BITRECESSIVE: bit recessive
 784:Drivers/GD32F30x_standard_peripheral/Source/gd32f30x_can.c ****       \arg        CAN_ERROR_BITDOMINANTER: bit dominant error
 785:Drivers/GD32F30x_standard_peripheral/Source/gd32f30x_can.c ****       \arg        CAN_ERROR_CRC: CRC error
 786:Drivers/GD32F30x_standard_peripheral/Source/gd32f30x_can.c ****       \arg        CAN_ERROR_SOFTWARECFG: software configure
 787:Drivers/GD32F30x_standard_peripheral/Source/gd32f30x_can.c **** */
 788:Drivers/GD32F30x_standard_peripheral/Source/gd32f30x_can.c **** can_error_enum can_error_get(uint32_t can_periph)
 789:Drivers/GD32F30x_standard_peripheral/Source/gd32f30x_can.c **** {
 1918              		.loc 1 789 1 is_stmt 1 view -0
 1919              		.cfi_startproc
 1920              		@ args = 0, pretend = 0, frame = 0
 1921              		@ frame_needed = 0, uses_anonymous_args = 0
 1922              		@ link register save eliminated.
 790:Drivers/GD32F30x_standard_peripheral/Source/gd32f30x_can.c ****     can_error_enum error;
 1923              		.loc 1 790 5 view .LVU628
 791:Drivers/GD32F30x_standard_peripheral/Source/gd32f30x_can.c ****     error = CAN_ERROR_NONE;
 1924              		.loc 1 791 5 view .LVU629
 792:Drivers/GD32F30x_standard_peripheral/Source/gd32f30x_can.c ****     
 793:Drivers/GD32F30x_standard_peripheral/Source/gd32f30x_can.c ****     /* get error type */
 794:Drivers/GD32F30x_standard_peripheral/Source/gd32f30x_can.c ****     error = (can_error_enum)(GET_ERR_ERRN(CAN_ERR(can_periph)));
 1925              		.loc 1 794 5 view .LVU630
 1926              		.loc 1 794 30 is_stmt 0 view .LVU631
 1927 0000 8069     		ldr	r0, [r0, #24]
 1928              	.LVL130:
 795:Drivers/GD32F30x_standard_peripheral/Source/gd32f30x_can.c ****     return error;
 1929              		.loc 1 795 5 is_stmt 1 view .LVU632
 796:Drivers/GD32F30x_standard_peripheral/Source/gd32f30x_can.c **** }
 1930              		.loc 1 796 1 is_stmt 0 view .LVU633
 1931 0002 C0F30210 		ubfx	r0, r0, #4, #3
 1932              	.LVL131:
 1933              		.loc 1 796 1 view .LVU634
 1934 0006 7047     		bx	lr
 1935              		.cfi_endproc
 1936              	.LFE133:
 1938              		.section	.text.can_receive_error_number_get,"ax",%progbits
 1939              		.align	1
 1940              		.global	can_receive_error_number_get
 1941              		.syntax unified
 1942              		.thumb
 1943              		.thumb_func
 1944              		.fpu fpv4-sp-d16
ARM GAS  C:\Users\Prog\AppData\Local\Temp\ccf7Rdsw.s 			page 52


 1946              	can_receive_error_number_get:
 1947              	.LVL132:
 1948              	.LFB134:
 797:Drivers/GD32F30x_standard_peripheral/Source/gd32f30x_can.c **** 
 798:Drivers/GD32F30x_standard_peripheral/Source/gd32f30x_can.c **** /*!
 799:Drivers/GD32F30x_standard_peripheral/Source/gd32f30x_can.c ****     \brief      get CAN receive error number
 800:Drivers/GD32F30x_standard_peripheral/Source/gd32f30x_can.c ****     \param[in]  can_periph
 801:Drivers/GD32F30x_standard_peripheral/Source/gd32f30x_can.c ****       \arg        CANx(x=0,1),the CAN1 only for GD32F30X_CL 
 802:Drivers/GD32F30x_standard_peripheral/Source/gd32f30x_can.c ****     \param[out] none
 803:Drivers/GD32F30x_standard_peripheral/Source/gd32f30x_can.c ****     \retval     error number
 804:Drivers/GD32F30x_standard_peripheral/Source/gd32f30x_can.c **** */
 805:Drivers/GD32F30x_standard_peripheral/Source/gd32f30x_can.c **** uint8_t can_receive_error_number_get(uint32_t can_periph)
 806:Drivers/GD32F30x_standard_peripheral/Source/gd32f30x_can.c **** {
 1949              		.loc 1 806 1 is_stmt 1 view -0
 1950              		.cfi_startproc
 1951              		@ args = 0, pretend = 0, frame = 0
 1952              		@ frame_needed = 0, uses_anonymous_args = 0
 1953              		@ link register save eliminated.
 807:Drivers/GD32F30x_standard_peripheral/Source/gd32f30x_can.c ****     uint8_t val;
 1954              		.loc 1 807 5 view .LVU636
 808:Drivers/GD32F30x_standard_peripheral/Source/gd32f30x_can.c ****     
 809:Drivers/GD32F30x_standard_peripheral/Source/gd32f30x_can.c ****     /* get error count */
 810:Drivers/GD32F30x_standard_peripheral/Source/gd32f30x_can.c ****     val = (uint8_t)(GET_ERR_RECNT(CAN_ERR(can_periph)));
 1955              		.loc 1 810 5 view .LVU637
 1956              		.loc 1 810 21 is_stmt 0 view .LVU638
 1957 0000 8069     		ldr	r0, [r0, #24]
 1958              	.LVL133:
 811:Drivers/GD32F30x_standard_peripheral/Source/gd32f30x_can.c ****     return val;
 1959              		.loc 1 811 5 is_stmt 1 view .LVU639
 812:Drivers/GD32F30x_standard_peripheral/Source/gd32f30x_can.c **** }
 1960              		.loc 1 812 1 is_stmt 0 view .LVU640
 1961 0002 000E     		lsrs	r0, r0, #24
 1962              	.LVL134:
 1963              		.loc 1 812 1 view .LVU641
 1964 0004 7047     		bx	lr
 1965              		.cfi_endproc
 1966              	.LFE134:
 1968              		.section	.text.can_transmit_error_number_get,"ax",%progbits
 1969              		.align	1
 1970              		.global	can_transmit_error_number_get
 1971              		.syntax unified
 1972              		.thumb
 1973              		.thumb_func
 1974              		.fpu fpv4-sp-d16
 1976              	can_transmit_error_number_get:
 1977              	.LVL135:
 1978              	.LFB135:
 813:Drivers/GD32F30x_standard_peripheral/Source/gd32f30x_can.c **** 
 814:Drivers/GD32F30x_standard_peripheral/Source/gd32f30x_can.c **** /*!
 815:Drivers/GD32F30x_standard_peripheral/Source/gd32f30x_can.c ****     \brief      get CAN transmit error number
 816:Drivers/GD32F30x_standard_peripheral/Source/gd32f30x_can.c ****     \param[in]  can_periph
 817:Drivers/GD32F30x_standard_peripheral/Source/gd32f30x_can.c ****       \arg        CANx(x=0,1),the CAN1 only for GD32F30X_CL 
 818:Drivers/GD32F30x_standard_peripheral/Source/gd32f30x_can.c ****     \param[out] none
 819:Drivers/GD32F30x_standard_peripheral/Source/gd32f30x_can.c ****     \retval     error number
 820:Drivers/GD32F30x_standard_peripheral/Source/gd32f30x_can.c **** */
 821:Drivers/GD32F30x_standard_peripheral/Source/gd32f30x_can.c **** uint8_t can_transmit_error_number_get(uint32_t can_periph)
 822:Drivers/GD32F30x_standard_peripheral/Source/gd32f30x_can.c **** {
ARM GAS  C:\Users\Prog\AppData\Local\Temp\ccf7Rdsw.s 			page 53


 1979              		.loc 1 822 1 is_stmt 1 view -0
 1980              		.cfi_startproc
 1981              		@ args = 0, pretend = 0, frame = 0
 1982              		@ frame_needed = 0, uses_anonymous_args = 0
 1983              		@ link register save eliminated.
 823:Drivers/GD32F30x_standard_peripheral/Source/gd32f30x_can.c ****     uint8_t val;
 1984              		.loc 1 823 5 view .LVU643
 824:Drivers/GD32F30x_standard_peripheral/Source/gd32f30x_can.c ****     
 825:Drivers/GD32F30x_standard_peripheral/Source/gd32f30x_can.c ****     val = (uint8_t)(GET_ERR_TECNT(CAN_ERR(can_periph)));
 1985              		.loc 1 825 5 view .LVU644
 1986              		.loc 1 825 21 is_stmt 0 view .LVU645
 1987 0000 8069     		ldr	r0, [r0, #24]
 1988              	.LVL136:
 826:Drivers/GD32F30x_standard_peripheral/Source/gd32f30x_can.c ****     return val;
 1989              		.loc 1 826 5 is_stmt 1 view .LVU646
 827:Drivers/GD32F30x_standard_peripheral/Source/gd32f30x_can.c **** }
 1990              		.loc 1 827 1 is_stmt 0 view .LVU647
 1991 0002 C0F30740 		ubfx	r0, r0, #16, #8
 1992              	.LVL137:
 1993              		.loc 1 827 1 view .LVU648
 1994 0006 7047     		bx	lr
 1995              		.cfi_endproc
 1996              	.LFE135:
 1998              		.section	.text.can_interrupt_enable,"ax",%progbits
 1999              		.align	1
 2000              		.global	can_interrupt_enable
 2001              		.syntax unified
 2002              		.thumb
 2003              		.thumb_func
 2004              		.fpu fpv4-sp-d16
 2006              	can_interrupt_enable:
 2007              	.LVL138:
 2008              	.LFB136:
 828:Drivers/GD32F30x_standard_peripheral/Source/gd32f30x_can.c **** 
 829:Drivers/GD32F30x_standard_peripheral/Source/gd32f30x_can.c **** /*!
 830:Drivers/GD32F30x_standard_peripheral/Source/gd32f30x_can.c ****     \brief      enable CAN interrupt 
 831:Drivers/GD32F30x_standard_peripheral/Source/gd32f30x_can.c ****     \param[in]  can_periph
 832:Drivers/GD32F30x_standard_peripheral/Source/gd32f30x_can.c ****       \arg        CANx(x=0,1),the CAN1 only for GD32F30X_CL 
 833:Drivers/GD32F30x_standard_peripheral/Source/gd32f30x_can.c ****     \param[in]  interrupt 
 834:Drivers/GD32F30x_standard_peripheral/Source/gd32f30x_can.c ****                 one or more parameters can be selected which are shown as below:
 835:Drivers/GD32F30x_standard_peripheral/Source/gd32f30x_can.c ****       \arg        CAN_INT_TME: transmit mailbox empty interrupt enable
 836:Drivers/GD32F30x_standard_peripheral/Source/gd32f30x_can.c ****       \arg        CAN_INT_RFNE0: receive FIFO0 not empty interrupt enable
 837:Drivers/GD32F30x_standard_peripheral/Source/gd32f30x_can.c ****       \arg        CAN_INT_RFF0: receive FIFO0 full interrupt enable
 838:Drivers/GD32F30x_standard_peripheral/Source/gd32f30x_can.c ****       \arg        CAN_INT_RFO0: receive FIFO0 overfull interrupt enable
 839:Drivers/GD32F30x_standard_peripheral/Source/gd32f30x_can.c ****       \arg        CAN_INT_RFNE1: receive FIFO1 not empty interrupt enable
 840:Drivers/GD32F30x_standard_peripheral/Source/gd32f30x_can.c ****       \arg        CAN_INT_RFF1: receive FIFO1 full interrupt enable
 841:Drivers/GD32F30x_standard_peripheral/Source/gd32f30x_can.c ****       \arg        CAN_INT_RFO1: receive FIFO1 overfull interrupt enable
 842:Drivers/GD32F30x_standard_peripheral/Source/gd32f30x_can.c ****       \arg        CAN_INT_WERR: warning error interrupt enable
 843:Drivers/GD32F30x_standard_peripheral/Source/gd32f30x_can.c ****       \arg        CAN_INT_PERR: passive error interrupt enable
 844:Drivers/GD32F30x_standard_peripheral/Source/gd32f30x_can.c ****       \arg        CAN_INT_BO: bus-off interrupt enable
 845:Drivers/GD32F30x_standard_peripheral/Source/gd32f30x_can.c ****       \arg        CAN_INT_ERRN: error number interrupt enable
 846:Drivers/GD32F30x_standard_peripheral/Source/gd32f30x_can.c ****       \arg        CAN_INT_ERR: error interrupt enable
 847:Drivers/GD32F30x_standard_peripheral/Source/gd32f30x_can.c ****       \arg        CAN_INT_WU: wakeup interrupt enable
 848:Drivers/GD32F30x_standard_peripheral/Source/gd32f30x_can.c ****       \arg        CAN_INT_SLPW: sleep working interrupt enable
 849:Drivers/GD32F30x_standard_peripheral/Source/gd32f30x_can.c ****     \param[out] none
 850:Drivers/GD32F30x_standard_peripheral/Source/gd32f30x_can.c ****     \retval     none
 851:Drivers/GD32F30x_standard_peripheral/Source/gd32f30x_can.c **** */
ARM GAS  C:\Users\Prog\AppData\Local\Temp\ccf7Rdsw.s 			page 54


 852:Drivers/GD32F30x_standard_peripheral/Source/gd32f30x_can.c **** void can_interrupt_enable(uint32_t can_periph, uint32_t interrupt)
 853:Drivers/GD32F30x_standard_peripheral/Source/gd32f30x_can.c **** {
 2009              		.loc 1 853 1 is_stmt 1 view -0
 2010              		.cfi_startproc
 2011              		@ args = 0, pretend = 0, frame = 0
 2012              		@ frame_needed = 0, uses_anonymous_args = 0
 2013              		@ link register save eliminated.
 854:Drivers/GD32F30x_standard_peripheral/Source/gd32f30x_can.c ****     CAN_INTEN(can_periph) |= interrupt;
 2014              		.loc 1 854 5 view .LVU650
 2015              		.loc 1 854 27 is_stmt 0 view .LVU651
 2016 0000 4369     		ldr	r3, [r0, #20]
 2017 0002 1943     		orrs	r1, r1, r3
 2018              	.LVL139:
 2019              		.loc 1 854 27 view .LVU652
 2020 0004 4161     		str	r1, [r0, #20]
 855:Drivers/GD32F30x_standard_peripheral/Source/gd32f30x_can.c **** }
 2021              		.loc 1 855 1 view .LVU653
 2022 0006 7047     		bx	lr
 2023              		.cfi_endproc
 2024              	.LFE136:
 2026              		.section	.text.can_interrupt_disable,"ax",%progbits
 2027              		.align	1
 2028              		.global	can_interrupt_disable
 2029              		.syntax unified
 2030              		.thumb
 2031              		.thumb_func
 2032              		.fpu fpv4-sp-d16
 2034              	can_interrupt_disable:
 2035              	.LVL140:
 2036              	.LFB137:
 856:Drivers/GD32F30x_standard_peripheral/Source/gd32f30x_can.c **** 
 857:Drivers/GD32F30x_standard_peripheral/Source/gd32f30x_can.c **** /*!
 858:Drivers/GD32F30x_standard_peripheral/Source/gd32f30x_can.c ****     \brief      disable CAN interrupt 
 859:Drivers/GD32F30x_standard_peripheral/Source/gd32f30x_can.c ****     \param[in]  can_periph
 860:Drivers/GD32F30x_standard_peripheral/Source/gd32f30x_can.c ****       \arg        CANx(x=0,1),the CAN1 only for GD32F30X_CL 
 861:Drivers/GD32F30x_standard_peripheral/Source/gd32f30x_can.c ****     \param[in]  interrupt
 862:Drivers/GD32F30x_standard_peripheral/Source/gd32f30x_can.c ****                 one or more parameters can be selected which are shown as below:
 863:Drivers/GD32F30x_standard_peripheral/Source/gd32f30x_can.c ****       \arg        CAN_INT_TME: transmit mailbox empty interrupt enable
 864:Drivers/GD32F30x_standard_peripheral/Source/gd32f30x_can.c ****       \arg        CAN_INT_RFNE0: receive FIFO0 not empty interrupt enable
 865:Drivers/GD32F30x_standard_peripheral/Source/gd32f30x_can.c ****       \arg        CAN_INT_RFF0: receive FIFO0 full interrupt enable
 866:Drivers/GD32F30x_standard_peripheral/Source/gd32f30x_can.c ****       \arg        CAN_INT_RFO0: receive FIFO0 overfull interrupt enable
 867:Drivers/GD32F30x_standard_peripheral/Source/gd32f30x_can.c ****       \arg        CAN_INT_RFNE1: receive FIFO1 not empty interrupt enable
 868:Drivers/GD32F30x_standard_peripheral/Source/gd32f30x_can.c ****       \arg        CAN_INT_RFF1: receive FIFO1 full interrupt enable
 869:Drivers/GD32F30x_standard_peripheral/Source/gd32f30x_can.c ****       \arg        CAN_INT_RFO1: receive FIFO1 overfull interrupt enable
 870:Drivers/GD32F30x_standard_peripheral/Source/gd32f30x_can.c ****       \arg        CAN_INT_WERR: warning error interrupt enable
 871:Drivers/GD32F30x_standard_peripheral/Source/gd32f30x_can.c ****       \arg        CAN_INT_PERR: passive error interrupt enable
 872:Drivers/GD32F30x_standard_peripheral/Source/gd32f30x_can.c ****       \arg        CAN_INT_BO: bus-off interrupt enable
 873:Drivers/GD32F30x_standard_peripheral/Source/gd32f30x_can.c ****       \arg        CAN_INT_ERRN: error number interrupt enable
 874:Drivers/GD32F30x_standard_peripheral/Source/gd32f30x_can.c ****       \arg        CAN_INT_ERR: error interrupt enable
 875:Drivers/GD32F30x_standard_peripheral/Source/gd32f30x_can.c ****       \arg        CAN_INT_WU: wakeup interrupt enable
 876:Drivers/GD32F30x_standard_peripheral/Source/gd32f30x_can.c ****       \arg        CAN_INT_SLPW: sleep working interrupt enable
 877:Drivers/GD32F30x_standard_peripheral/Source/gd32f30x_can.c ****     \param[out] none
 878:Drivers/GD32F30x_standard_peripheral/Source/gd32f30x_can.c ****     \retval     none
 879:Drivers/GD32F30x_standard_peripheral/Source/gd32f30x_can.c **** */
 880:Drivers/GD32F30x_standard_peripheral/Source/gd32f30x_can.c **** void can_interrupt_disable(uint32_t can_periph, uint32_t interrupt)
 881:Drivers/GD32F30x_standard_peripheral/Source/gd32f30x_can.c **** {
 2037              		.loc 1 881 1 is_stmt 1 view -0
ARM GAS  C:\Users\Prog\AppData\Local\Temp\ccf7Rdsw.s 			page 55


 2038              		.cfi_startproc
 2039              		@ args = 0, pretend = 0, frame = 0
 2040              		@ frame_needed = 0, uses_anonymous_args = 0
 2041              		@ link register save eliminated.
 882:Drivers/GD32F30x_standard_peripheral/Source/gd32f30x_can.c ****     CAN_INTEN(can_periph) &= ~interrupt;
 2042              		.loc 1 882 5 view .LVU655
 2043              		.loc 1 882 27 is_stmt 0 view .LVU656
 2044 0000 4369     		ldr	r3, [r0, #20]
 2045 0002 23EA0101 		bic	r1, r3, r1
 2046              	.LVL141:
 2047              		.loc 1 882 27 view .LVU657
 2048 0006 4161     		str	r1, [r0, #20]
 883:Drivers/GD32F30x_standard_peripheral/Source/gd32f30x_can.c **** }
 2049              		.loc 1 883 1 view .LVU658
 2050 0008 7047     		bx	lr
 2051              		.cfi_endproc
 2052              	.LFE137:
 2054              		.section	.text.can_flag_get,"ax",%progbits
 2055              		.align	1
 2056              		.global	can_flag_get
 2057              		.syntax unified
 2058              		.thumb
 2059              		.thumb_func
 2060              		.fpu fpv4-sp-d16
 2062              	can_flag_get:
 2063              	.LVL142:
 2064              	.LFB138:
 884:Drivers/GD32F30x_standard_peripheral/Source/gd32f30x_can.c **** 
 885:Drivers/GD32F30x_standard_peripheral/Source/gd32f30x_can.c **** /*!
 886:Drivers/GD32F30x_standard_peripheral/Source/gd32f30x_can.c ****     \brief      get CAN flag state
 887:Drivers/GD32F30x_standard_peripheral/Source/gd32f30x_can.c ****     \param[in]  can_periph
 888:Drivers/GD32F30x_standard_peripheral/Source/gd32f30x_can.c ****       \arg        CANx(x=0,1),the CAN1 only for GD32F30X_CL 
 889:Drivers/GD32F30x_standard_peripheral/Source/gd32f30x_can.c ****     \param[in]  flag: CAN flags, refer to can_flag_enum
 890:Drivers/GD32F30x_standard_peripheral/Source/gd32f30x_can.c ****                 only one parameter can be selected which is shown as below:
 891:Drivers/GD32F30x_standard_peripheral/Source/gd32f30x_can.c ****       \arg        CAN_FLAG_RXL: RX level
 892:Drivers/GD32F30x_standard_peripheral/Source/gd32f30x_can.c ****       \arg        CAN_FLAG_LASTRX: last sample value of RX pin
 893:Drivers/GD32F30x_standard_peripheral/Source/gd32f30x_can.c ****       \arg        CAN_FLAG_RS: receiving state
 894:Drivers/GD32F30x_standard_peripheral/Source/gd32f30x_can.c ****       \arg        CAN_FLAG_TS: transmitting state
 895:Drivers/GD32F30x_standard_peripheral/Source/gd32f30x_can.c ****       \arg        CAN_FLAG_SLPIF: status change flag of entering sleep working mode
 896:Drivers/GD32F30x_standard_peripheral/Source/gd32f30x_can.c ****       \arg        CAN_FLAG_WUIF: status change flag of wakeup from sleep working mode
 897:Drivers/GD32F30x_standard_peripheral/Source/gd32f30x_can.c ****       \arg        CAN_FLAG_ERRIF: error flag
 898:Drivers/GD32F30x_standard_peripheral/Source/gd32f30x_can.c ****       \arg        CAN_FLAG_SLPWS: sleep working state
 899:Drivers/GD32F30x_standard_peripheral/Source/gd32f30x_can.c ****       \arg        CAN_FLAG_IWS: initial working state
 900:Drivers/GD32F30x_standard_peripheral/Source/gd32f30x_can.c ****       \arg        CAN_FLAG_TMLS2: transmit mailbox 2 last sending in Tx FIFO
 901:Drivers/GD32F30x_standard_peripheral/Source/gd32f30x_can.c ****       \arg        CAN_FLAG_TMLS1: transmit mailbox 1 last sending in Tx FIFO
 902:Drivers/GD32F30x_standard_peripheral/Source/gd32f30x_can.c ****       \arg        CAN_FLAG_TMLS0: transmit mailbox 0 last sending in Tx FIFO
 903:Drivers/GD32F30x_standard_peripheral/Source/gd32f30x_can.c ****       \arg        CAN_FLAG_TME2: transmit mailbox 2 empty
 904:Drivers/GD32F30x_standard_peripheral/Source/gd32f30x_can.c ****       \arg        CAN_FLAG_TME1: transmit mailbox 1 empty
 905:Drivers/GD32F30x_standard_peripheral/Source/gd32f30x_can.c ****       \arg        CAN_FLAG_TME0: transmit mailbox 0 empty
 906:Drivers/GD32F30x_standard_peripheral/Source/gd32f30x_can.c ****       \arg        CAN_FLAG_MTE2: mailbox 2 transmit error
 907:Drivers/GD32F30x_standard_peripheral/Source/gd32f30x_can.c ****       \arg        CAN_FLAG_MTE1: mailbox 1 transmit error
 908:Drivers/GD32F30x_standard_peripheral/Source/gd32f30x_can.c ****       \arg        CAN_FLAG_MTE0: mailbox 0 transmit error
 909:Drivers/GD32F30x_standard_peripheral/Source/gd32f30x_can.c ****       \arg        CAN_FLAG_MAL2: mailbox 2 arbitration lost
 910:Drivers/GD32F30x_standard_peripheral/Source/gd32f30x_can.c ****       \arg        CAN_FLAG_MAL1: mailbox 1 arbitration lost
 911:Drivers/GD32F30x_standard_peripheral/Source/gd32f30x_can.c ****       \arg        CAN_FLAG_MAL0: mailbox 0 arbitration lost
 912:Drivers/GD32F30x_standard_peripheral/Source/gd32f30x_can.c ****       \arg        CAN_FLAG_MTFNERR2: mailbox 2 transmit finished with no error
 913:Drivers/GD32F30x_standard_peripheral/Source/gd32f30x_can.c ****       \arg        CAN_FLAG_MTFNERR1: mailbox 1 transmit finished with no error
ARM GAS  C:\Users\Prog\AppData\Local\Temp\ccf7Rdsw.s 			page 56


 914:Drivers/GD32F30x_standard_peripheral/Source/gd32f30x_can.c ****       \arg        CAN_FLAG_MTFNERR0: mailbox 0 transmit finished with no error
 915:Drivers/GD32F30x_standard_peripheral/Source/gd32f30x_can.c ****       \arg        CAN_FLAG_MTF2: mailbox 2 transmit finished
 916:Drivers/GD32F30x_standard_peripheral/Source/gd32f30x_can.c ****       \arg        CAN_FLAG_MTF1: mailbox 1 transmit finished
 917:Drivers/GD32F30x_standard_peripheral/Source/gd32f30x_can.c ****       \arg        CAN_FLAG_MTF0: mailbox 0 transmit finished
 918:Drivers/GD32F30x_standard_peripheral/Source/gd32f30x_can.c ****       \arg        CAN_FLAG_RFO0: receive FIFO0 overfull
 919:Drivers/GD32F30x_standard_peripheral/Source/gd32f30x_can.c ****       \arg        CAN_FLAG_RFF0: receive FIFO0 full
 920:Drivers/GD32F30x_standard_peripheral/Source/gd32f30x_can.c ****       \arg        CAN_FLAG_RFO1: receive FIFO1 overfull
 921:Drivers/GD32F30x_standard_peripheral/Source/gd32f30x_can.c ****       \arg        CAN_FLAG_RFF1: receive FIFO1 full
 922:Drivers/GD32F30x_standard_peripheral/Source/gd32f30x_can.c ****       \arg        CAN_FLAG_BOERR: bus-off error
 923:Drivers/GD32F30x_standard_peripheral/Source/gd32f30x_can.c ****       \arg        CAN_FLAG_PERR: passive error
 924:Drivers/GD32F30x_standard_peripheral/Source/gd32f30x_can.c ****       \arg        CAN_FLAG_WERR: warning error
 925:Drivers/GD32F30x_standard_peripheral/Source/gd32f30x_can.c ****     \param[out] none
 926:Drivers/GD32F30x_standard_peripheral/Source/gd32f30x_can.c ****     \retval     FlagStatus: SET or RESET
 927:Drivers/GD32F30x_standard_peripheral/Source/gd32f30x_can.c **** */
 928:Drivers/GD32F30x_standard_peripheral/Source/gd32f30x_can.c **** FlagStatus can_flag_get(uint32_t can_periph, can_flag_enum flag)
 929:Drivers/GD32F30x_standard_peripheral/Source/gd32f30x_can.c **** {  
 2065              		.loc 1 929 1 is_stmt 1 view -0
 2066              		.cfi_startproc
 2067              		@ args = 0, pretend = 0, frame = 0
 2068              		@ frame_needed = 0, uses_anonymous_args = 0
 2069              		@ link register save eliminated.
 930:Drivers/GD32F30x_standard_peripheral/Source/gd32f30x_can.c ****     /* get flag and interrupt enable state */
 931:Drivers/GD32F30x_standard_peripheral/Source/gd32f30x_can.c ****     if(RESET != (CAN_REG_VAL(can_periph, flag) & BIT(CAN_BIT_POS(flag)))){
 2070              		.loc 1 931 5 view .LVU660
 2071              		.loc 1 931 18 is_stmt 0 view .LVU661
 2072 0000 8B09     		lsrs	r3, r1, #6
 2073 0002 1B58     		ldr	r3, [r3, r0]
 2074              		.loc 1 931 50 view .LVU662
 2075 0004 01F01F01 		and	r1, r1, #31
 2076              	.LVL143:
 2077              		.loc 1 931 14 view .LVU663
 2078 0008 23FA01F1 		lsr	r1, r3, r1
 2079              		.loc 1 931 7 view .LVU664
 2080 000c 11F0010F 		tst	r1, #1
 2081 0010 01D0     		beq	.L169
 932:Drivers/GD32F30x_standard_peripheral/Source/gd32f30x_can.c ****         return SET;
 2082              		.loc 1 932 16 view .LVU665
 2083 0012 0120     		movs	r0, #1
 2084              	.LVL144:
 2085              		.loc 1 932 16 view .LVU666
 2086 0014 7047     		bx	lr
 2087              	.LVL145:
 2088              	.L169:
 933:Drivers/GD32F30x_standard_peripheral/Source/gd32f30x_can.c ****     }else{
 934:Drivers/GD32F30x_standard_peripheral/Source/gd32f30x_can.c ****         return RESET;
 2089              		.loc 1 934 16 view .LVU667
 2090 0016 0020     		movs	r0, #0
 2091              	.LVL146:
 935:Drivers/GD32F30x_standard_peripheral/Source/gd32f30x_can.c ****     }
 936:Drivers/GD32F30x_standard_peripheral/Source/gd32f30x_can.c **** }
 2092              		.loc 1 936 1 view .LVU668
 2093 0018 7047     		bx	lr
 2094              		.cfi_endproc
 2095              	.LFE138:
 2097              		.section	.text.can_flag_clear,"ax",%progbits
 2098              		.align	1
 2099              		.global	can_flag_clear
ARM GAS  C:\Users\Prog\AppData\Local\Temp\ccf7Rdsw.s 			page 57


 2100              		.syntax unified
 2101              		.thumb
 2102              		.thumb_func
 2103              		.fpu fpv4-sp-d16
 2105              	can_flag_clear:
 2106              	.LVL147:
 2107              	.LFB139:
 937:Drivers/GD32F30x_standard_peripheral/Source/gd32f30x_can.c **** 
 938:Drivers/GD32F30x_standard_peripheral/Source/gd32f30x_can.c **** /*!
 939:Drivers/GD32F30x_standard_peripheral/Source/gd32f30x_can.c ****     \brief      clear CAN flag state
 940:Drivers/GD32F30x_standard_peripheral/Source/gd32f30x_can.c ****     \param[in]  can_periph
 941:Drivers/GD32F30x_standard_peripheral/Source/gd32f30x_can.c ****       \arg        CANx(x=0,1),the CAN1 only for GD32F30X_CL 
 942:Drivers/GD32F30x_standard_peripheral/Source/gd32f30x_can.c ****     \param[in]  flag: CAN flags, refer to can_flag_enum
 943:Drivers/GD32F30x_standard_peripheral/Source/gd32f30x_can.c ****                 only one parameter can be selected which is shown as below:
 944:Drivers/GD32F30x_standard_peripheral/Source/gd32f30x_can.c ****       \arg        CAN_FLAG_SLPIF: status change flag of entering sleep working mode
 945:Drivers/GD32F30x_standard_peripheral/Source/gd32f30x_can.c ****       \arg        CAN_FLAG_WUIF: status change flag of wakeup from sleep working mode
 946:Drivers/GD32F30x_standard_peripheral/Source/gd32f30x_can.c ****       \arg        CAN_FLAG_ERRIF: error flag
 947:Drivers/GD32F30x_standard_peripheral/Source/gd32f30x_can.c ****       \arg        CAN_FLAG_MTE2: mailbox 2 transmit error
 948:Drivers/GD32F30x_standard_peripheral/Source/gd32f30x_can.c ****       \arg        CAN_FLAG_MTE1: mailbox 1 transmit error
 949:Drivers/GD32F30x_standard_peripheral/Source/gd32f30x_can.c ****       \arg        CAN_FLAG_MTE0: mailbox 0 transmit error
 950:Drivers/GD32F30x_standard_peripheral/Source/gd32f30x_can.c ****       \arg        CAN_FLAG_MAL2: mailbox 2 arbitration lost
 951:Drivers/GD32F30x_standard_peripheral/Source/gd32f30x_can.c ****       \arg        CAN_FLAG_MAL1: mailbox 1 arbitration lost
 952:Drivers/GD32F30x_standard_peripheral/Source/gd32f30x_can.c ****       \arg        CAN_FLAG_MAL0: mailbox 0 arbitration lost
 953:Drivers/GD32F30x_standard_peripheral/Source/gd32f30x_can.c ****       \arg        CAN_FLAG_MTFNERR2: mailbox 2 transmit finished with no error
 954:Drivers/GD32F30x_standard_peripheral/Source/gd32f30x_can.c ****       \arg        CAN_FLAG_MTFNERR1: mailbox 1 transmit finished with no error
 955:Drivers/GD32F30x_standard_peripheral/Source/gd32f30x_can.c ****       \arg        CAN_FLAG_MTFNERR0: mailbox 0 transmit finished with no error
 956:Drivers/GD32F30x_standard_peripheral/Source/gd32f30x_can.c ****       \arg        CAN_FLAG_MTF2: mailbox 2 transmit finished
 957:Drivers/GD32F30x_standard_peripheral/Source/gd32f30x_can.c ****       \arg        CAN_FLAG_MTF1: mailbox 1 transmit finished
 958:Drivers/GD32F30x_standard_peripheral/Source/gd32f30x_can.c ****       \arg        CAN_FLAG_MTF0: mailbox 0 transmit finished
 959:Drivers/GD32F30x_standard_peripheral/Source/gd32f30x_can.c ****       \arg        CAN_FLAG_RFO0: receive FIFO0 overfull
 960:Drivers/GD32F30x_standard_peripheral/Source/gd32f30x_can.c ****       \arg        CAN_FLAG_RFF0: receive FIFO0 full
 961:Drivers/GD32F30x_standard_peripheral/Source/gd32f30x_can.c ****       \arg        CAN_FLAG_RFO1: receive FIFO1 overfull
 962:Drivers/GD32F30x_standard_peripheral/Source/gd32f30x_can.c ****       \arg        CAN_FLAG_RFF1: receive FIFO1 full
 963:Drivers/GD32F30x_standard_peripheral/Source/gd32f30x_can.c ****     \param[out] none
 964:Drivers/GD32F30x_standard_peripheral/Source/gd32f30x_can.c ****     \retval     none
 965:Drivers/GD32F30x_standard_peripheral/Source/gd32f30x_can.c **** */
 966:Drivers/GD32F30x_standard_peripheral/Source/gd32f30x_can.c **** void can_flag_clear(uint32_t can_periph, can_flag_enum flag)
 967:Drivers/GD32F30x_standard_peripheral/Source/gd32f30x_can.c **** {
 2108              		.loc 1 967 1 is_stmt 1 view -0
 2109              		.cfi_startproc
 2110              		@ args = 0, pretend = 0, frame = 0
 2111              		@ frame_needed = 0, uses_anonymous_args = 0
 2112              		@ link register save eliminated.
 968:Drivers/GD32F30x_standard_peripheral/Source/gd32f30x_can.c ****     CAN_REG_VAL(can_periph, flag) = BIT(CAN_BIT_POS(flag));
 2113              		.loc 1 968 5 view .LVU670
 2114              		.loc 1 968 37 is_stmt 0 view .LVU671
 2115 0000 01F01F02 		and	r2, r1, #31
 2116              		.loc 1 968 5 view .LVU672
 2117 0004 8909     		lsrs	r1, r1, #6
 2118              	.LVL148:
 2119              		.loc 1 968 37 view .LVU673
 2120 0006 0123     		movs	r3, #1
 2121 0008 9340     		lsls	r3, r3, r2
 2122              		.loc 1 968 35 view .LVU674
 2123 000a 0B50     		str	r3, [r1, r0]
 969:Drivers/GD32F30x_standard_peripheral/Source/gd32f30x_can.c **** }
 2124              		.loc 1 969 1 view .LVU675
ARM GAS  C:\Users\Prog\AppData\Local\Temp\ccf7Rdsw.s 			page 58


 2125 000c 7047     		bx	lr
 2126              		.cfi_endproc
 2127              	.LFE139:
 2129              		.section	.text.can_interrupt_flag_get,"ax",%progbits
 2130              		.align	1
 2131              		.global	can_interrupt_flag_get
 2132              		.syntax unified
 2133              		.thumb
 2134              		.thumb_func
 2135              		.fpu fpv4-sp-d16
 2137              	can_interrupt_flag_get:
 2138              	.LVL149:
 2139              	.LFB140:
 970:Drivers/GD32F30x_standard_peripheral/Source/gd32f30x_can.c **** 
 971:Drivers/GD32F30x_standard_peripheral/Source/gd32f30x_can.c **** /*!
 972:Drivers/GD32F30x_standard_peripheral/Source/gd32f30x_can.c ****     \brief      get CAN interrupt flag state
 973:Drivers/GD32F30x_standard_peripheral/Source/gd32f30x_can.c ****     \param[in]  can_periph
 974:Drivers/GD32F30x_standard_peripheral/Source/gd32f30x_can.c ****       \arg        CANx(x=0,1),the CAN1 only for GD32F30X_CL 
 975:Drivers/GD32F30x_standard_peripheral/Source/gd32f30x_can.c ****     \param[in]  flag: CAN interrupt flags, refer to can_interrupt_flag_enum
 976:Drivers/GD32F30x_standard_peripheral/Source/gd32f30x_can.c ****                 only one parameter can be selected which is shown as below:
 977:Drivers/GD32F30x_standard_peripheral/Source/gd32f30x_can.c ****       \arg        CAN_INT_FLAG_SLPIF: status change interrupt flag of sleep working mode entering
 978:Drivers/GD32F30x_standard_peripheral/Source/gd32f30x_can.c ****       \arg        CAN_INT_FLAG_WUIF: status change interrupt flag of wakeup from sleep working mode
 979:Drivers/GD32F30x_standard_peripheral/Source/gd32f30x_can.c ****       \arg        CAN_INT_FLAG_ERRIF: error interrupt flag
 980:Drivers/GD32F30x_standard_peripheral/Source/gd32f30x_can.c ****       \arg        CAN_INT_FLAG_MTF2: mailbox 2 transmit finished interrupt flag
 981:Drivers/GD32F30x_standard_peripheral/Source/gd32f30x_can.c ****       \arg        CAN_INT_FLAG_MTF1: mailbox 1 transmit finished interrupt flag
 982:Drivers/GD32F30x_standard_peripheral/Source/gd32f30x_can.c ****       \arg        CAN_INT_FLAG_MTF0: mailbox 0 transmit finished interrupt flag
 983:Drivers/GD32F30x_standard_peripheral/Source/gd32f30x_can.c ****       \arg        CAN_INT_FLAG_RFO0: receive FIFO0 overfull interrupt flag
 984:Drivers/GD32F30x_standard_peripheral/Source/gd32f30x_can.c ****       \arg        CAN_INT_FLAG_RFF0: receive FIFO0 full interrupt flag
 985:Drivers/GD32F30x_standard_peripheral/Source/gd32f30x_can.c ****       \arg        CAN_INT_FLAG_RFL0: receive FIFO0 not empty interrupt flag
 986:Drivers/GD32F30x_standard_peripheral/Source/gd32f30x_can.c ****       \arg        CAN_INT_FLAG_RFO1: receive FIFO1 overfull interrupt flag
 987:Drivers/GD32F30x_standard_peripheral/Source/gd32f30x_can.c ****       \arg        CAN_INT_FLAG_RFF1: receive FIFO1 full interrupt flag
 988:Drivers/GD32F30x_standard_peripheral/Source/gd32f30x_can.c ****       \arg        CAN_INT_FLAG_RFL1: receive FIFO1 not empty interrupt flag
 989:Drivers/GD32F30x_standard_peripheral/Source/gd32f30x_can.c ****       \arg        CAN_INT_FLAG_ERRN: error number interrupt flag
 990:Drivers/GD32F30x_standard_peripheral/Source/gd32f30x_can.c ****       \arg        CAN_INT_FLAG_BOERR: bus-off error interrupt flag
 991:Drivers/GD32F30x_standard_peripheral/Source/gd32f30x_can.c ****       \arg        CAN_INT_FLAG_PERR: passive error interrupt flag
 992:Drivers/GD32F30x_standard_peripheral/Source/gd32f30x_can.c ****       \arg        CAN_INT_FLAG_WERR: warning error interrupt flag
 993:Drivers/GD32F30x_standard_peripheral/Source/gd32f30x_can.c ****     \param[out] none
 994:Drivers/GD32F30x_standard_peripheral/Source/gd32f30x_can.c ****     \retval     FlagStatus: SET or RESET
 995:Drivers/GD32F30x_standard_peripheral/Source/gd32f30x_can.c **** */
 996:Drivers/GD32F30x_standard_peripheral/Source/gd32f30x_can.c **** FlagStatus can_interrupt_flag_get(uint32_t can_periph, can_interrupt_flag_enum flag)
 997:Drivers/GD32F30x_standard_peripheral/Source/gd32f30x_can.c **** {
 2140              		.loc 1 997 1 is_stmt 1 view -0
 2141              		.cfi_startproc
 2142              		@ args = 0, pretend = 0, frame = 0
 2143              		@ frame_needed = 0, uses_anonymous_args = 0
 2144              		.loc 1 997 1 is_stmt 0 view .LVU677
 2145 0000 38B5     		push	{r3, r4, r5, lr}
 2146              	.LCFI15:
 2147              		.cfi_def_cfa_offset 16
 2148              		.cfi_offset 3, -16
 2149              		.cfi_offset 4, -12
 2150              		.cfi_offset 5, -8
 2151              		.cfi_offset 14, -4
 2152 0002 0546     		mov	r5, r0
 2153 0004 0C46     		mov	r4, r1
 998:Drivers/GD32F30x_standard_peripheral/Source/gd32f30x_can.c ****     uint32_t ret1 = RESET;
 2154              		.loc 1 998 5 is_stmt 1 view .LVU678
ARM GAS  C:\Users\Prog\AppData\Local\Temp\ccf7Rdsw.s 			page 59


 2155              	.LVL150:
 999:Drivers/GD32F30x_standard_peripheral/Source/gd32f30x_can.c ****     uint32_t ret2 = RESET;
 2156              		.loc 1 999 5 view .LVU679
1000:Drivers/GD32F30x_standard_peripheral/Source/gd32f30x_can.c ****     
1001:Drivers/GD32F30x_standard_peripheral/Source/gd32f30x_can.c ****     /* get the staus of interrupt flag */
1002:Drivers/GD32F30x_standard_peripheral/Source/gd32f30x_can.c ****     if (flag == CAN_INT_FLAG_RFL0) {
 2157              		.loc 1 1002 5 view .LVU680
 2158              		.loc 1 1002 8 is_stmt 0 view .LVU681
 2159 0006 4CF28103 		movw	r3, #49281
 2160 000a 9942     		cmp	r1, r3
 2161 000c 17D0     		beq	.L180
1003:Drivers/GD32F30x_standard_peripheral/Source/gd32f30x_can.c ****         ret1 = can_receive_message_length_get(can_periph, CAN_FIFO0);
1004:Drivers/GD32F30x_standard_peripheral/Source/gd32f30x_can.c ****     } else if (flag == CAN_INT_FLAG_RFL1) {
 2162              		.loc 1 1004 12 is_stmt 1 view .LVU682
 2163              		.loc 1 1004 15 is_stmt 0 view .LVU683
 2164 000e 134B     		ldr	r3, .L183
 2165 0010 9942     		cmp	r1, r3
 2166 0012 18D0     		beq	.L181
1005:Drivers/GD32F30x_standard_peripheral/Source/gd32f30x_can.c ****         ret1 = can_receive_message_length_get(can_periph, CAN_FIFO1);
1006:Drivers/GD32F30x_standard_peripheral/Source/gd32f30x_can.c ****     } else if (flag == CAN_INT_FLAG_ERRN) {
 2167              		.loc 1 1006 12 is_stmt 1 view .LVU684
 2168              		.loc 1 1006 15 is_stmt 0 view .LVU685
 2169 0014 124B     		ldr	r3, .L183+4
 2170 0016 9942     		cmp	r1, r3
 2171 0018 19D0     		beq	.L182
1007:Drivers/GD32F30x_standard_peripheral/Source/gd32f30x_can.c ****         ret1 = can_error_get(can_periph);
1008:Drivers/GD32F30x_standard_peripheral/Source/gd32f30x_can.c ****     } else {
1009:Drivers/GD32F30x_standard_peripheral/Source/gd32f30x_can.c ****         ret1 = CAN_REG_VALS(can_periph, flag) & BIT(CAN_BIT_POS0(flag));
 2172              		.loc 1 1009 9 is_stmt 1 view .LVU686
 2173              		.loc 1 1009 16 is_stmt 0 view .LVU687
 2174 001a 0B0B     		lsrs	r3, r1, #12
 2175 001c 1858     		ldr	r0, [r3, r0]
 2176              	.LVL151:
 2177              		.loc 1 1009 49 view .LVU688
 2178 001e C1F38412 		ubfx	r2, r1, #6, #5
 2179 0022 0123     		movs	r3, #1
 2180 0024 9340     		lsls	r3, r3, r2
 2181              		.loc 1 1009 14 view .LVU689
 2182 0026 1840     		ands	r0, r0, r3
 2183              	.LVL152:
 2184              	.L173:
1010:Drivers/GD32F30x_standard_peripheral/Source/gd32f30x_can.c ****     }
1011:Drivers/GD32F30x_standard_peripheral/Source/gd32f30x_can.c ****     /* get the staus of interrupt enale bit */
1012:Drivers/GD32F30x_standard_peripheral/Source/gd32f30x_can.c ****     ret2 = CAN_INTEN(can_periph) & BIT(CAN_BIT_POS1(flag));
 2185              		.loc 1 1012 5 is_stmt 1 view .LVU690
 2186              		.loc 1 1012 12 is_stmt 0 view .LVU691
 2187 0028 6A69     		ldr	r2, [r5, #20]
 2188              		.loc 1 1012 36 view .LVU692
 2189 002a 04F01F04 		and	r4, r4, #31
 2190              	.LVL153:
 2191              		.loc 1 1012 36 view .LVU693
 2192 002e 0123     		movs	r3, #1
 2193 0030 03FA04F4 		lsl	r4, r3, r4
 2194              		.loc 1 1012 10 view .LVU694
 2195 0034 1440     		ands	r4, r4, r2
 2196              	.LVL154:
1013:Drivers/GD32F30x_standard_peripheral/Source/gd32f30x_can.c ****     if(ret1 && ret2){
ARM GAS  C:\Users\Prog\AppData\Local\Temp\ccf7Rdsw.s 			page 60


 2197              		.loc 1 1013 5 is_stmt 1 view .LVU695
 2198              		.loc 1 1013 7 is_stmt 0 view .LVU696
 2199 0036 68B1     		cbz	r0, .L177
 2200              		.loc 1 1013 13 discriminator 1 view .LVU697
 2201 0038 74B9     		cbnz	r4, .L178
1014:Drivers/GD32F30x_standard_peripheral/Source/gd32f30x_can.c ****         return SET;
1015:Drivers/GD32F30x_standard_peripheral/Source/gd32f30x_can.c ****     }else{
1016:Drivers/GD32F30x_standard_peripheral/Source/gd32f30x_can.c ****         return RESET;
 2202              		.loc 1 1016 16 view .LVU698
 2203 003a 0020     		movs	r0, #0
 2204              	.LVL155:
 2205              		.loc 1 1016 16 view .LVU699
 2206 003c 0BE0     		b	.L176
 2207              	.LVL156:
 2208              	.L180:
1003:Drivers/GD32F30x_standard_peripheral/Source/gd32f30x_can.c ****     } else if (flag == CAN_INT_FLAG_RFL1) {
 2209              		.loc 1 1003 9 is_stmt 1 view .LVU700
1003:Drivers/GD32F30x_standard_peripheral/Source/gd32f30x_can.c ****     } else if (flag == CAN_INT_FLAG_RFL1) {
 2210              		.loc 1 1003 16 is_stmt 0 view .LVU701
 2211 003e 0021     		movs	r1, #0
 2212              	.LVL157:
1003:Drivers/GD32F30x_standard_peripheral/Source/gd32f30x_can.c ****     } else if (flag == CAN_INT_FLAG_RFL1) {
 2213              		.loc 1 1003 16 view .LVU702
 2214 0040 FFF7FEFF 		bl	can_receive_message_length_get
 2215              	.LVL158:
1003:Drivers/GD32F30x_standard_peripheral/Source/gd32f30x_can.c ****     } else if (flag == CAN_INT_FLAG_RFL1) {
 2216              		.loc 1 1003 16 view .LVU703
 2217 0044 F0E7     		b	.L173
 2218              	.LVL159:
 2219              	.L181:
1005:Drivers/GD32F30x_standard_peripheral/Source/gd32f30x_can.c ****     } else if (flag == CAN_INT_FLAG_ERRN) {
 2220              		.loc 1 1005 9 is_stmt 1 view .LVU704
1005:Drivers/GD32F30x_standard_peripheral/Source/gd32f30x_can.c ****     } else if (flag == CAN_INT_FLAG_ERRN) {
 2221              		.loc 1 1005 16 is_stmt 0 view .LVU705
 2222 0046 0121     		movs	r1, #1
 2223              	.LVL160:
1005:Drivers/GD32F30x_standard_peripheral/Source/gd32f30x_can.c ****     } else if (flag == CAN_INT_FLAG_ERRN) {
 2224              		.loc 1 1005 16 view .LVU706
 2225 0048 FFF7FEFF 		bl	can_receive_message_length_get
 2226              	.LVL161:
1005:Drivers/GD32F30x_standard_peripheral/Source/gd32f30x_can.c ****     } else if (flag == CAN_INT_FLAG_ERRN) {
 2227              		.loc 1 1005 16 view .LVU707
 2228 004c ECE7     		b	.L173
 2229              	.LVL162:
 2230              	.L182:
1007:Drivers/GD32F30x_standard_peripheral/Source/gd32f30x_can.c ****     } else {
 2231              		.loc 1 1007 9 is_stmt 1 view .LVU708
1007:Drivers/GD32F30x_standard_peripheral/Source/gd32f30x_can.c ****     } else {
 2232              		.loc 1 1007 16 is_stmt 0 view .LVU709
 2233 004e FFF7FEFF 		bl	can_error_get
 2234              	.LVL163:
1007:Drivers/GD32F30x_standard_peripheral/Source/gd32f30x_can.c ****     } else {
 2235              		.loc 1 1007 16 view .LVU710
 2236 0052 E9E7     		b	.L173
 2237              	.LVL164:
 2238              	.L177:
 2239              		.loc 1 1016 16 view .LVU711
ARM GAS  C:\Users\Prog\AppData\Local\Temp\ccf7Rdsw.s 			page 61


 2240 0054 0020     		movs	r0, #0
 2241              	.LVL165:
 2242              	.L176:
1017:Drivers/GD32F30x_standard_peripheral/Source/gd32f30x_can.c ****     }
1018:Drivers/GD32F30x_standard_peripheral/Source/gd32f30x_can.c **** }
 2243              		.loc 1 1018 1 view .LVU712
 2244 0056 38BD     		pop	{r3, r4, r5, pc}
 2245              	.LVL166:
 2246              	.L178:
1014:Drivers/GD32F30x_standard_peripheral/Source/gd32f30x_can.c ****     }else{
 2247              		.loc 1 1014 16 view .LVU713
 2248 0058 0120     		movs	r0, #1
 2249              	.LVL167:
1014:Drivers/GD32F30x_standard_peripheral/Source/gd32f30x_can.c ****     }else{
 2250              		.loc 1 1014 16 view .LVU714
 2251 005a FCE7     		b	.L176
 2252              	.L184:
 2253              		.align	2
 2254              	.L183:
 2255 005c 84000100 		.word	65668
 2256 0060 CB800100 		.word	98507
 2257              		.cfi_endproc
 2258              	.LFE140:
 2260              		.section	.text.can_interrupt_flag_clear,"ax",%progbits
 2261              		.align	1
 2262              		.global	can_interrupt_flag_clear
 2263              		.syntax unified
 2264              		.thumb
 2265              		.thumb_func
 2266              		.fpu fpv4-sp-d16
 2268              	can_interrupt_flag_clear:
 2269              	.LVL168:
 2270              	.LFB141:
1019:Drivers/GD32F30x_standard_peripheral/Source/gd32f30x_can.c **** 
1020:Drivers/GD32F30x_standard_peripheral/Source/gd32f30x_can.c **** /*!
1021:Drivers/GD32F30x_standard_peripheral/Source/gd32f30x_can.c ****     \brief      clear CAN interrupt flag state
1022:Drivers/GD32F30x_standard_peripheral/Source/gd32f30x_can.c ****     \param[in]  can_periph
1023:Drivers/GD32F30x_standard_peripheral/Source/gd32f30x_can.c ****       \arg        CANx(x=0,1),the CAN1 only for GD32F30X_CL 
1024:Drivers/GD32F30x_standard_peripheral/Source/gd32f30x_can.c ****     \param[in]  flag: CAN interrupt flags, refer to can_interrupt_flag_enum
1025:Drivers/GD32F30x_standard_peripheral/Source/gd32f30x_can.c ****                 only one parameter can be selected which is shown as below:
1026:Drivers/GD32F30x_standard_peripheral/Source/gd32f30x_can.c ****       \arg        CAN_INT_FLAG_SLPIF: status change interrupt flag of sleep working mode entering
1027:Drivers/GD32F30x_standard_peripheral/Source/gd32f30x_can.c ****       \arg        CAN_INT_FLAG_WUIF: status change interrupt flag of wakeup from sleep working mode
1028:Drivers/GD32F30x_standard_peripheral/Source/gd32f30x_can.c ****       \arg        CAN_INT_FLAG_ERRIF: error interrupt flag
1029:Drivers/GD32F30x_standard_peripheral/Source/gd32f30x_can.c ****       \arg        CAN_INT_FLAG_MTF2: mailbox 2 transmit finished interrupt flag
1030:Drivers/GD32F30x_standard_peripheral/Source/gd32f30x_can.c ****       \arg        CAN_INT_FLAG_MTF1: mailbox 1 transmit finished interrupt flag
1031:Drivers/GD32F30x_standard_peripheral/Source/gd32f30x_can.c ****       \arg        CAN_INT_FLAG_MTF0: mailbox 0 transmit finished interrupt flag
1032:Drivers/GD32F30x_standard_peripheral/Source/gd32f30x_can.c ****       \arg        CAN_INT_FLAG_RFO0: receive FIFO0 overfull interrupt flag
1033:Drivers/GD32F30x_standard_peripheral/Source/gd32f30x_can.c ****       \arg        CAN_INT_FLAG_RFF0: receive FIFO0 full interrupt flag
1034:Drivers/GD32F30x_standard_peripheral/Source/gd32f30x_can.c ****       \arg        CAN_INT_FLAG_RFO1: receive FIFO1 overfull interrupt flag
1035:Drivers/GD32F30x_standard_peripheral/Source/gd32f30x_can.c ****       \arg        CAN_INT_FLAG_RFF1: receive FIFO1 full interrupt flag
1036:Drivers/GD32F30x_standard_peripheral/Source/gd32f30x_can.c ****     \param[out] none
1037:Drivers/GD32F30x_standard_peripheral/Source/gd32f30x_can.c ****     \retval     none
1038:Drivers/GD32F30x_standard_peripheral/Source/gd32f30x_can.c **** */
1039:Drivers/GD32F30x_standard_peripheral/Source/gd32f30x_can.c **** void can_interrupt_flag_clear(uint32_t can_periph, can_interrupt_flag_enum flag)
1040:Drivers/GD32F30x_standard_peripheral/Source/gd32f30x_can.c **** {
 2271              		.loc 1 1040 1 is_stmt 1 view -0
 2272              		.cfi_startproc
ARM GAS  C:\Users\Prog\AppData\Local\Temp\ccf7Rdsw.s 			page 62


 2273              		@ args = 0, pretend = 0, frame = 0
 2274              		@ frame_needed = 0, uses_anonymous_args = 0
 2275              		@ link register save eliminated.
1041:Drivers/GD32F30x_standard_peripheral/Source/gd32f30x_can.c ****     CAN_REG_VALS(can_periph, flag) = BIT(CAN_BIT_POS0(flag));
 2276              		.loc 1 1041 5 view .LVU716
 2277              		.loc 1 1041 38 is_stmt 0 view .LVU717
 2278 0000 C1F38412 		ubfx	r2, r1, #6, #5
 2279              		.loc 1 1041 5 view .LVU718
 2280 0004 090B     		lsrs	r1, r1, #12
 2281              	.LVL169:
 2282              		.loc 1 1041 38 view .LVU719
 2283 0006 0123     		movs	r3, #1
 2284 0008 9340     		lsls	r3, r3, r2
 2285              		.loc 1 1041 36 view .LVU720
 2286 000a 0B50     		str	r3, [r1, r0]
1042:Drivers/GD32F30x_standard_peripheral/Source/gd32f30x_can.c **** }
 2287              		.loc 1 1042 1 view .LVU721
 2288 000c 7047     		bx	lr
 2289              		.cfi_endproc
 2290              	.LFE141:
 2292              		.text
 2293              	.Letext0:
 2294              		.file 2 "d:\\embedded_gcc\\arm_gcc\\arm-none-eabi\\include\\machine\\_default_types.h"
 2295              		.file 3 "d:\\embedded_gcc\\arm_gcc\\arm-none-eabi\\include\\sys\\_stdint.h"
 2296              		.file 4 "Drivers/CMSIS/core_cm4.h"
 2297              		.file 5 "Drivers/CMSIS/GD/GD32F30x/Include/system_gd32f30x.h"
 2298              		.file 6 "Drivers/CMSIS/GD/GD32F30x/Include/gd32f30x.h"
 2299              		.file 7 "Drivers/GD32F30x_standard_peripheral/Include/gd32f30x_rcu.h"
 2300              		.file 8 "Drivers/GD32F30x_standard_peripheral/Include/gd32f30x_dbg.h"
 2301              		.file 9 "Drivers/GD32F30x_standard_peripheral/Include/gd32f30x_can.h"
 2302              		.file 10 "d:\\embedded_gcc\\arm_gcc\\arm-none-eabi\\include\\sys\\lock.h"
 2303              		.file 11 "d:\\embedded_gcc\\arm_gcc\\arm-none-eabi\\include\\sys\\_types.h"
 2304              		.file 12 "d:\\embedded_gcc\\arm_gcc\\lib\\gcc\\arm-none-eabi\\8.2.1\\include\\stddef.h"
 2305              		.file 13 "d:\\embedded_gcc\\arm_gcc\\arm-none-eabi\\include\\sys\\reent.h"
 2306              		.file 14 "d:\\embedded_gcc\\arm_gcc\\arm-none-eabi\\include\\stdlib.h"
ARM GAS  C:\Users\Prog\AppData\Local\Temp\ccf7Rdsw.s 			page 63


DEFINED SYMBOLS
                            *ABS*:0000000000000000 gd32f30x_can.c
C:\Users\Prog\AppData\Local\Temp\ccf7Rdsw.s:18     .text.can_deinit:0000000000000000 $t
C:\Users\Prog\AppData\Local\Temp\ccf7Rdsw.s:26     .text.can_deinit:0000000000000000 can_deinit
C:\Users\Prog\AppData\Local\Temp\ccf7Rdsw.s:66     .text.can_deinit:000000000000001c $d
C:\Users\Prog\AppData\Local\Temp\ccf7Rdsw.s:71     .text.can_struct_para_init:0000000000000000 $t
C:\Users\Prog\AppData\Local\Temp\ccf7Rdsw.s:78     .text.can_struct_para_init:0000000000000000 can_struct_para_init
C:\Users\Prog\AppData\Local\Temp\ccf7Rdsw.s:96     .text.can_struct_para_init:000000000000000c $d
C:\Users\Prog\AppData\Local\Temp\ccf7Rdsw.s:100    .text.can_struct_para_init:0000000000000010 $t
C:\Users\Prog\AppData\Local\Temp\ccf7Rdsw.s:275    .text.can_init:0000000000000000 $t
C:\Users\Prog\AppData\Local\Temp\ccf7Rdsw.s:282    .text.can_init:0000000000000000 can_init
C:\Users\Prog\AppData\Local\Temp\ccf7Rdsw.s:543    .text.can_filter_init:0000000000000000 $t
C:\Users\Prog\AppData\Local\Temp\ccf7Rdsw.s:550    .text.can_filter_init:0000000000000000 can_filter_init
C:\Users\Prog\AppData\Local\Temp\ccf7Rdsw.s:751    .text.can_filter_init:00000000000000e0 $d
C:\Users\Prog\AppData\Local\Temp\ccf7Rdsw.s:760    .text.can1_filter_start_bank:0000000000000000 $t
C:\Users\Prog\AppData\Local\Temp\ccf7Rdsw.s:767    .text.can1_filter_start_bank:0000000000000000 can1_filter_start_bank
C:\Users\Prog\AppData\Local\Temp\ccf7Rdsw.s:807    .text.can1_filter_start_bank:0000000000000028 $d
C:\Users\Prog\AppData\Local\Temp\ccf7Rdsw.s:812    .text.can_debug_freeze_enable:0000000000000000 $t
C:\Users\Prog\AppData\Local\Temp\ccf7Rdsw.s:819    .text.can_debug_freeze_enable:0000000000000000 can_debug_freeze_enable
C:\Users\Prog\AppData\Local\Temp\ccf7Rdsw.s:859    .text.can_debug_freeze_enable:000000000000001c $d
C:\Users\Prog\AppData\Local\Temp\ccf7Rdsw.s:864    .text.can_debug_freeze_disable:0000000000000000 $t
C:\Users\Prog\AppData\Local\Temp\ccf7Rdsw.s:871    .text.can_debug_freeze_disable:0000000000000000 can_debug_freeze_disable
C:\Users\Prog\AppData\Local\Temp\ccf7Rdsw.s:911    .text.can_debug_freeze_disable:000000000000001c $d
C:\Users\Prog\AppData\Local\Temp\ccf7Rdsw.s:916    .text.can_time_trigger_mode_enable:0000000000000000 $t
C:\Users\Prog\AppData\Local\Temp\ccf7Rdsw.s:923    .text.can_time_trigger_mode_enable:0000000000000000 can_time_trigger_mode_enable
C:\Users\Prog\AppData\Local\Temp\ccf7Rdsw.s:967    .text.can_time_trigger_mode_disable:0000000000000000 $t
C:\Users\Prog\AppData\Local\Temp\ccf7Rdsw.s:974    .text.can_time_trigger_mode_disable:0000000000000000 can_time_trigger_mode_disable
C:\Users\Prog\AppData\Local\Temp\ccf7Rdsw.s:1018   .text.can_message_transmit:0000000000000000 $t
C:\Users\Prog\AppData\Local\Temp\ccf7Rdsw.s:1025   .text.can_message_transmit:0000000000000000 can_message_transmit
C:\Users\Prog\AppData\Local\Temp\ccf7Rdsw.s:1191   .text.can_transmit_states:0000000000000000 $t
C:\Users\Prog\AppData\Local\Temp\ccf7Rdsw.s:1198   .text.can_transmit_states:0000000000000000 can_transmit_states
C:\Users\Prog\AppData\Local\Temp\ccf7Rdsw.s:1314   .text.can_transmit_states:0000000000000068 $d
C:\Users\Prog\AppData\Local\Temp\ccf7Rdsw.s:1321   .text.can_transmission_stop:0000000000000000 $t
C:\Users\Prog\AppData\Local\Temp\ccf7Rdsw.s:1328   .text.can_transmission_stop:0000000000000000 can_transmission_stop
C:\Users\Prog\AppData\Local\Temp\ccf7Rdsw.s:1402   .text.can_message_receive:0000000000000000 $t
C:\Users\Prog\AppData\Local\Temp\ccf7Rdsw.s:1409   .text.can_message_receive:0000000000000000 can_message_receive
C:\Users\Prog\AppData\Local\Temp\ccf7Rdsw.s:1554   .text.can_fifo_release:0000000000000000 $t
C:\Users\Prog\AppData\Local\Temp\ccf7Rdsw.s:1561   .text.can_fifo_release:0000000000000000 can_fifo_release
C:\Users\Prog\AppData\Local\Temp\ccf7Rdsw.s:1599   .text.can_receive_message_length_get:0000000000000000 $t
C:\Users\Prog\AppData\Local\Temp\ccf7Rdsw.s:1606   .text.can_receive_message_length_get:0000000000000000 can_receive_message_length_get
C:\Users\Prog\AppData\Local\Temp\ccf7Rdsw.s:1655   .text.can_working_mode_set:0000000000000000 $t
C:\Users\Prog\AppData\Local\Temp\ccf7Rdsw.s:1662   .text.can_working_mode_set:0000000000000000 can_working_mode_set
C:\Users\Prog\AppData\Local\Temp\ccf7Rdsw.s:1842   .text.can_wakeup:0000000000000000 $t
C:\Users\Prog\AppData\Local\Temp\ccf7Rdsw.s:1849   .text.can_wakeup:0000000000000000 can_wakeup
C:\Users\Prog\AppData\Local\Temp\ccf7Rdsw.s:1908   .text.can_error_get:0000000000000000 $t
C:\Users\Prog\AppData\Local\Temp\ccf7Rdsw.s:1915   .text.can_error_get:0000000000000000 can_error_get
C:\Users\Prog\AppData\Local\Temp\ccf7Rdsw.s:1939   .text.can_receive_error_number_get:0000000000000000 $t
C:\Users\Prog\AppData\Local\Temp\ccf7Rdsw.s:1946   .text.can_receive_error_number_get:0000000000000000 can_receive_error_number_get
C:\Users\Prog\AppData\Local\Temp\ccf7Rdsw.s:1969   .text.can_transmit_error_number_get:0000000000000000 $t
C:\Users\Prog\AppData\Local\Temp\ccf7Rdsw.s:1976   .text.can_transmit_error_number_get:0000000000000000 can_transmit_error_number_get
C:\Users\Prog\AppData\Local\Temp\ccf7Rdsw.s:1999   .text.can_interrupt_enable:0000000000000000 $t
C:\Users\Prog\AppData\Local\Temp\ccf7Rdsw.s:2006   .text.can_interrupt_enable:0000000000000000 can_interrupt_enable
C:\Users\Prog\AppData\Local\Temp\ccf7Rdsw.s:2027   .text.can_interrupt_disable:0000000000000000 $t
C:\Users\Prog\AppData\Local\Temp\ccf7Rdsw.s:2034   .text.can_interrupt_disable:0000000000000000 can_interrupt_disable
C:\Users\Prog\AppData\Local\Temp\ccf7Rdsw.s:2055   .text.can_flag_get:0000000000000000 $t
C:\Users\Prog\AppData\Local\Temp\ccf7Rdsw.s:2062   .text.can_flag_get:0000000000000000 can_flag_get
C:\Users\Prog\AppData\Local\Temp\ccf7Rdsw.s:2098   .text.can_flag_clear:0000000000000000 $t
ARM GAS  C:\Users\Prog\AppData\Local\Temp\ccf7Rdsw.s 			page 64


C:\Users\Prog\AppData\Local\Temp\ccf7Rdsw.s:2105   .text.can_flag_clear:0000000000000000 can_flag_clear
C:\Users\Prog\AppData\Local\Temp\ccf7Rdsw.s:2130   .text.can_interrupt_flag_get:0000000000000000 $t
C:\Users\Prog\AppData\Local\Temp\ccf7Rdsw.s:2137   .text.can_interrupt_flag_get:0000000000000000 can_interrupt_flag_get
C:\Users\Prog\AppData\Local\Temp\ccf7Rdsw.s:2255   .text.can_interrupt_flag_get:000000000000005c $d
C:\Users\Prog\AppData\Local\Temp\ccf7Rdsw.s:2261   .text.can_interrupt_flag_clear:0000000000000000 $t
C:\Users\Prog\AppData\Local\Temp\ccf7Rdsw.s:2268   .text.can_interrupt_flag_clear:0000000000000000 can_interrupt_flag_clear

UNDEFINED SYMBOLS
rcu_periph_reset_enable
rcu_periph_reset_disable
dbg_periph_enable
