ARM GAS  C:\Users\Prog\AppData\Local\Temp\ccu1v3Z3.s 			page 1


   1              		.cpu cortex-m4
   2              		.eabi_attribute 27, 1
   3              		.eabi_attribute 28, 1
   4              		.eabi_attribute 20, 1
   5              		.eabi_attribute 21, 1
   6              		.eabi_attribute 23, 3
   7              		.eabi_attribute 24, 1
   8              		.eabi_attribute 25, 1
   9              		.eabi_attribute 26, 1
  10              		.eabi_attribute 30, 1
  11              		.eabi_attribute 34, 1
  12              		.eabi_attribute 18, 4
  13              		.file	"gd32f30x_can.c"
  14              		.text
  15              	.Ltext0:
  16              		.cfi_sections	.debug_frame
  17              		.section	.text.can_deinit,"ax",%progbits
  18              		.align	1
  19              		.global	can_deinit
  20              		.arch armv7e-m
  21              		.syntax unified
  22              		.thumb
  23              		.thumb_func
  24              		.fpu fpv4-sp-d16
  26              	can_deinit:
  27              	.LVL0:
  28              	.LFB116:
  29              		.file 1 "Drivers/GD32F30x_standard_peripheral/Source/gd32f30x_can.c"
   1:Drivers/GD32F30x_standard_peripheral/Source/gd32f30x_can.c **** /*!
   2:Drivers/GD32F30x_standard_peripheral/Source/gd32f30x_can.c ****     \file    gd32f30x_can.c
   3:Drivers/GD32F30x_standard_peripheral/Source/gd32f30x_can.c ****     \brief   CAN driver
   4:Drivers/GD32F30x_standard_peripheral/Source/gd32f30x_can.c **** 
   5:Drivers/GD32F30x_standard_peripheral/Source/gd32f30x_can.c ****     \version 2017-02-10, V1.0.0, firmware for GD32F30x
   6:Drivers/GD32F30x_standard_peripheral/Source/gd32f30x_can.c ****     \version 2018-10-10, V1.1.0, firmware for GD32F30x
   7:Drivers/GD32F30x_standard_peripheral/Source/gd32f30x_can.c ****     \version 2018-12-25, V2.0.0, firmware for GD32F30x
   8:Drivers/GD32F30x_standard_peripheral/Source/gd32f30x_can.c ****     \version 2019-11-27, V2.0.1, firmware for GD32F30x
   9:Drivers/GD32F30x_standard_peripheral/Source/gd32f30x_can.c ****     \version 2020-03-02, V2.0.2, firmware for GD32F30x
  10:Drivers/GD32F30x_standard_peripheral/Source/gd32f30x_can.c ****     \version 2020-07-14, V2.0.3, firmware for GD32F30x
  11:Drivers/GD32F30x_standard_peripheral/Source/gd32f30x_can.c ****     \version 2020-09-30, V2.1.0, firmware for GD32F30x
  12:Drivers/GD32F30x_standard_peripheral/Source/gd32f30x_can.c **** */
  13:Drivers/GD32F30x_standard_peripheral/Source/gd32f30x_can.c **** 
  14:Drivers/GD32F30x_standard_peripheral/Source/gd32f30x_can.c **** /*
  15:Drivers/GD32F30x_standard_peripheral/Source/gd32f30x_can.c ****     Copyright (c) 2020, GigaDevice Semiconductor Inc.
  16:Drivers/GD32F30x_standard_peripheral/Source/gd32f30x_can.c **** 
  17:Drivers/GD32F30x_standard_peripheral/Source/gd32f30x_can.c ****     Redistribution and use in source and binary forms, with or without modification, 
  18:Drivers/GD32F30x_standard_peripheral/Source/gd32f30x_can.c **** are permitted provided that the following conditions are met:
  19:Drivers/GD32F30x_standard_peripheral/Source/gd32f30x_can.c **** 
  20:Drivers/GD32F30x_standard_peripheral/Source/gd32f30x_can.c ****     1. Redistributions of source code must retain the above copyright notice, this 
  21:Drivers/GD32F30x_standard_peripheral/Source/gd32f30x_can.c ****        list of conditions and the following disclaimer.
  22:Drivers/GD32F30x_standard_peripheral/Source/gd32f30x_can.c ****     2. Redistributions in binary form must reproduce the above copyright notice, 
  23:Drivers/GD32F30x_standard_peripheral/Source/gd32f30x_can.c ****        this list of conditions and the following disclaimer in the documentation 
  24:Drivers/GD32F30x_standard_peripheral/Source/gd32f30x_can.c ****        and/or other materials provided with the distribution.
  25:Drivers/GD32F30x_standard_peripheral/Source/gd32f30x_can.c ****     3. Neither the name of the copyright holder nor the names of its contributors 
  26:Drivers/GD32F30x_standard_peripheral/Source/gd32f30x_can.c ****        may be used to endorse or promote products derived from this software without 
  27:Drivers/GD32F30x_standard_peripheral/Source/gd32f30x_can.c ****        specific prior written permission.
  28:Drivers/GD32F30x_standard_peripheral/Source/gd32f30x_can.c **** 
  29:Drivers/GD32F30x_standard_peripheral/Source/gd32f30x_can.c ****     THIS SOFTWARE IS PROVIDED BY THE COPYRIGHT HOLDERS AND CONTRIBUTORS "AS IS" 
ARM GAS  C:\Users\Prog\AppData\Local\Temp\ccu1v3Z3.s 			page 2


  30:Drivers/GD32F30x_standard_peripheral/Source/gd32f30x_can.c **** AND ANY EXPRESS OR IMPLIED WARRANTIES, INCLUDING, BUT NOT LIMITED TO, THE IMPLIED 
  31:Drivers/GD32F30x_standard_peripheral/Source/gd32f30x_can.c **** WARRANTIES OF MERCHANTABILITY AND FITNESS FOR A PARTICULAR PURPOSE ARE DISCLAIMED. 
  32:Drivers/GD32F30x_standard_peripheral/Source/gd32f30x_can.c **** IN NO EVENT SHALL THE COPYRIGHT HOLDER OR CONTRIBUTORS BE LIABLE FOR ANY DIRECT, 
  33:Drivers/GD32F30x_standard_peripheral/Source/gd32f30x_can.c **** INDIRECT, INCIDENTAL, SPECIAL, EXEMPLARY, OR CONSEQUENTIAL DAMAGES (INCLUDING, BUT 
  34:Drivers/GD32F30x_standard_peripheral/Source/gd32f30x_can.c **** NOT LIMITED TO, PROCUREMENT OF SUBSTITUTE GOODS OR SERVICES; LOSS OF USE, DATA, OR 
  35:Drivers/GD32F30x_standard_peripheral/Source/gd32f30x_can.c **** PROFITS; OR BUSINESS INTERRUPTION) HOWEVER CAUSED AND ON ANY THEORY OF LIABILITY, 
  36:Drivers/GD32F30x_standard_peripheral/Source/gd32f30x_can.c **** WHETHER IN CONTRACT, STRICT LIABILITY, OR TORT (INCLUDING NEGLIGENCE OR OTHERWISE) 
  37:Drivers/GD32F30x_standard_peripheral/Source/gd32f30x_can.c **** ARISING IN ANY WAY OUT OF THE USE OF THIS SOFTWARE, EVEN IF ADVISED OF THE POSSIBILITY 
  38:Drivers/GD32F30x_standard_peripheral/Source/gd32f30x_can.c **** OF SUCH DAMAGE.
  39:Drivers/GD32F30x_standard_peripheral/Source/gd32f30x_can.c **** */
  40:Drivers/GD32F30x_standard_peripheral/Source/gd32f30x_can.c **** 
  41:Drivers/GD32F30x_standard_peripheral/Source/gd32f30x_can.c **** #include "gd32f30x_can.h"
  42:Drivers/GD32F30x_standard_peripheral/Source/gd32f30x_can.c **** #include <stdlib.h>
  43:Drivers/GD32F30x_standard_peripheral/Source/gd32f30x_can.c **** 
  44:Drivers/GD32F30x_standard_peripheral/Source/gd32f30x_can.c **** #define CAN_ERROR_HANDLE(s)     do{}while(1)
  45:Drivers/GD32F30x_standard_peripheral/Source/gd32f30x_can.c **** 
  46:Drivers/GD32F30x_standard_peripheral/Source/gd32f30x_can.c **** /*!
  47:Drivers/GD32F30x_standard_peripheral/Source/gd32f30x_can.c ****     \brief      deinitialize CAN 
  48:Drivers/GD32F30x_standard_peripheral/Source/gd32f30x_can.c ****     \param[in]  can_periph
  49:Drivers/GD32F30x_standard_peripheral/Source/gd32f30x_can.c ****     \arg        CANx(x=0,1),the CAN1 only for GD32F30X_CL 
  50:Drivers/GD32F30x_standard_peripheral/Source/gd32f30x_can.c ****     \param[out] none
  51:Drivers/GD32F30x_standard_peripheral/Source/gd32f30x_can.c ****     \retval     none
  52:Drivers/GD32F30x_standard_peripheral/Source/gd32f30x_can.c **** */
  53:Drivers/GD32F30x_standard_peripheral/Source/gd32f30x_can.c **** void can_deinit(uint32_t can_periph)
  54:Drivers/GD32F30x_standard_peripheral/Source/gd32f30x_can.c **** {
  30              		.loc 1 54 1 view -0
  31              		.cfi_startproc
  32              		@ args = 0, pretend = 0, frame = 0
  33              		@ frame_needed = 0, uses_anonymous_args = 0
  34              		.loc 1 54 1 is_stmt 0 view .LVU1
  35 0000 08B5     		push	{r3, lr}
  36              	.LCFI0:
  37              		.cfi_def_cfa_offset 8
  38              		.cfi_offset 3, -8
  39              		.cfi_offset 14, -4
  55:Drivers/GD32F30x_standard_peripheral/Source/gd32f30x_can.c **** #ifdef GD32F30X_CL
  56:Drivers/GD32F30x_standard_peripheral/Source/gd32f30x_can.c ****     if(CAN0 == can_periph){
  57:Drivers/GD32F30x_standard_peripheral/Source/gd32f30x_can.c ****         rcu_periph_reset_enable(RCU_CAN0RST);
  58:Drivers/GD32F30x_standard_peripheral/Source/gd32f30x_can.c ****         rcu_periph_reset_disable(RCU_CAN0RST);
  59:Drivers/GD32F30x_standard_peripheral/Source/gd32f30x_can.c ****     }else{
  60:Drivers/GD32F30x_standard_peripheral/Source/gd32f30x_can.c ****         rcu_periph_reset_enable(RCU_CAN1RST);
  61:Drivers/GD32F30x_standard_peripheral/Source/gd32f30x_can.c ****         rcu_periph_reset_disable(RCU_CAN1RST);
  62:Drivers/GD32F30x_standard_peripheral/Source/gd32f30x_can.c ****     }
  63:Drivers/GD32F30x_standard_peripheral/Source/gd32f30x_can.c **** #else
  64:Drivers/GD32F30x_standard_peripheral/Source/gd32f30x_can.c ****     if(CAN0 == can_periph){
  40              		.loc 1 64 5 is_stmt 1 view .LVU2
  41              		.loc 1 64 7 is_stmt 0 view .LVU3
  42 0002 064B     		ldr	r3, .L5
  43 0004 9842     		cmp	r0, r3
  44 0006 00D0     		beq	.L4
  45              	.LVL1:
  46              	.L1:
  65:Drivers/GD32F30x_standard_peripheral/Source/gd32f30x_can.c ****         rcu_periph_reset_enable(RCU_CAN0RST);
  66:Drivers/GD32F30x_standard_peripheral/Source/gd32f30x_can.c ****         rcu_periph_reset_disable(RCU_CAN0RST);
  67:Drivers/GD32F30x_standard_peripheral/Source/gd32f30x_can.c ****     }
  68:Drivers/GD32F30x_standard_peripheral/Source/gd32f30x_can.c **** #endif
  69:Drivers/GD32F30x_standard_peripheral/Source/gd32f30x_can.c **** }
ARM GAS  C:\Users\Prog\AppData\Local\Temp\ccu1v3Z3.s 			page 3


  47              		.loc 1 69 1 view .LVU4
  48 0008 08BD     		pop	{r3, pc}
  49              	.LVL2:
  50              	.L4:
  65:Drivers/GD32F30x_standard_peripheral/Source/gd32f30x_can.c ****         rcu_periph_reset_enable(RCU_CAN0RST);
  51              		.loc 1 65 9 is_stmt 1 view .LVU5
  52 000a 40F21940 		movw	r0, #1049
  53              	.LVL3:
  65:Drivers/GD32F30x_standard_peripheral/Source/gd32f30x_can.c ****         rcu_periph_reset_enable(RCU_CAN0RST);
  54              		.loc 1 65 9 is_stmt 0 view .LVU6
  55 000e FFF7FEFF 		bl	rcu_periph_reset_enable
  56              	.LVL4:
  66:Drivers/GD32F30x_standard_peripheral/Source/gd32f30x_can.c ****     }
  57              		.loc 1 66 9 is_stmt 1 view .LVU7
  58 0012 40F21940 		movw	r0, #1049
  59 0016 FFF7FEFF 		bl	rcu_periph_reset_disable
  60              	.LVL5:
  61              		.loc 1 69 1 is_stmt 0 view .LVU8
  62 001a F5E7     		b	.L1
  63              	.L6:
  64              		.align	2
  65              	.L5:
  66 001c 00640040 		.word	1073767424
  67              		.cfi_endproc
  68              	.LFE116:
  70              		.section	.text.can_struct_para_init,"ax",%progbits
  71              		.align	1
  72              		.global	can_struct_para_init
  73              		.syntax unified
  74              		.thumb
  75              		.thumb_func
  76              		.fpu fpv4-sp-d16
  78              	can_struct_para_init:
  79              	.LVL6:
  80              	.LFB117:
  70:Drivers/GD32F30x_standard_peripheral/Source/gd32f30x_can.c **** 
  71:Drivers/GD32F30x_standard_peripheral/Source/gd32f30x_can.c **** /*!
  72:Drivers/GD32F30x_standard_peripheral/Source/gd32f30x_can.c ****     \brief      initialize CAN parameter struct with a default value
  73:Drivers/GD32F30x_standard_peripheral/Source/gd32f30x_can.c ****     \param[in]  type: the type of CAN parameter struct  
  74:Drivers/GD32F30x_standard_peripheral/Source/gd32f30x_can.c ****                 only one parameter can be selected which is shown as below:
  75:Drivers/GD32F30x_standard_peripheral/Source/gd32f30x_can.c ****       \arg        CAN_INIT_STRUCT: the CAN initial struct
  76:Drivers/GD32F30x_standard_peripheral/Source/gd32f30x_can.c ****       \arg        CAN_FILTER_STRUCT: the CAN filter struct
  77:Drivers/GD32F30x_standard_peripheral/Source/gd32f30x_can.c ****       \arg        CAN_TX_MESSAGE_STRUCT: the CAN TX message struct
  78:Drivers/GD32F30x_standard_peripheral/Source/gd32f30x_can.c ****       \arg        CAN_RX_MESSAGE_STRUCT: the CAN RX message struct
  79:Drivers/GD32F30x_standard_peripheral/Source/gd32f30x_can.c ****     \param[in]  p_struct: the pointer of the specific struct 
  80:Drivers/GD32F30x_standard_peripheral/Source/gd32f30x_can.c ****     \param[out] none
  81:Drivers/GD32F30x_standard_peripheral/Source/gd32f30x_can.c ****     \retval     none
  82:Drivers/GD32F30x_standard_peripheral/Source/gd32f30x_can.c **** */
  83:Drivers/GD32F30x_standard_peripheral/Source/gd32f30x_can.c **** void can_struct_para_init(can_struct_type_enum type, void* p_struct)
  84:Drivers/GD32F30x_standard_peripheral/Source/gd32f30x_can.c **** {
  81              		.loc 1 84 1 is_stmt 1 view -0
  82              		.cfi_startproc
  83              		@ args = 0, pretend = 0, frame = 0
  84              		@ frame_needed = 0, uses_anonymous_args = 0
  85              		@ link register save eliminated.
  85:Drivers/GD32F30x_standard_peripheral/Source/gd32f30x_can.c ****     uint8_t i;
  86              		.loc 1 85 5 view .LVU10
ARM GAS  C:\Users\Prog\AppData\Local\Temp\ccu1v3Z3.s 			page 4


  86:Drivers/GD32F30x_standard_peripheral/Source/gd32f30x_can.c ****     
  87:Drivers/GD32F30x_standard_peripheral/Source/gd32f30x_can.c ****     if(NULL == p_struct){
  87              		.loc 1 87 5 view .LVU11
  88              		.loc 1 87 7 is_stmt 0 view .LVU12
  89 0000 0B46     		mov	r3, r1
  90 0002 29B1     		cbz	r1, .L9
  88:Drivers/GD32F30x_standard_peripheral/Source/gd32f30x_can.c ****         CAN_ERROR_HANDLE("struct parameter can not be NULL \r\n");
  89:Drivers/GD32F30x_standard_peripheral/Source/gd32f30x_can.c ****     }
  90:Drivers/GD32F30x_standard_peripheral/Source/gd32f30x_can.c ****     
  91:Drivers/GD32F30x_standard_peripheral/Source/gd32f30x_can.c ****     /* get type of the struct */
  92:Drivers/GD32F30x_standard_peripheral/Source/gd32f30x_can.c ****     switch(type){
  91              		.loc 1 92 5 is_stmt 1 view .LVU13
  92 0004 0328     		cmp	r0, #3
  93 0006 41D8     		bhi	.L10
  94 0008 DFE800F0 		tbb	[pc, r0]
  95              	.L12:
  96 000c 03       		.byte	(.L15-.L12)/2
  97 000d 13       		.byte	(.L14-.L12)/2
  98 000e 2D       		.byte	(.L19-.L12)/2
  99 000f 3E       		.byte	(.L20-.L12)/2
 100              		.p2align 1
 101              	.L9:
  88:Drivers/GD32F30x_standard_peripheral/Source/gd32f30x_can.c ****         CAN_ERROR_HANDLE("struct parameter can not be NULL \r\n");
 102              		.loc 1 88 9 discriminator 1 view .LVU14
  88:Drivers/GD32F30x_standard_peripheral/Source/gd32f30x_can.c ****         CAN_ERROR_HANDLE("struct parameter can not be NULL \r\n");
 103              		.loc 1 88 9 discriminator 1 view .LVU15
  88:Drivers/GD32F30x_standard_peripheral/Source/gd32f30x_can.c ****         CAN_ERROR_HANDLE("struct parameter can not be NULL \r\n");
 104              		.loc 1 88 9 discriminator 1 view .LVU16
 105 0010 FEE7     		b	.L9
 106              	.L15:
  93:Drivers/GD32F30x_standard_peripheral/Source/gd32f30x_can.c ****         /* used for can_init() */
  94:Drivers/GD32F30x_standard_peripheral/Source/gd32f30x_can.c ****         case CAN_INIT_STRUCT:
  95:Drivers/GD32F30x_standard_peripheral/Source/gd32f30x_can.c ****             ((can_parameter_struct*)p_struct)->auto_bus_off_recovery = DISABLE;
 107              		.loc 1 95 13 view .LVU17
 108              		.loc 1 95 70 is_stmt 0 view .LVU18
 109 0012 0022     		movs	r2, #0
 110 0014 4A71     		strb	r2, [r1, #5]
  96:Drivers/GD32F30x_standard_peripheral/Source/gd32f30x_can.c ****             ((can_parameter_struct*)p_struct)->no_auto_retrans = DISABLE;
 111              		.loc 1 96 13 is_stmt 1 view .LVU19
 112              		.loc 1 96 64 is_stmt 0 view .LVU20
 113 0016 CA71     		strb	r2, [r1, #7]
  97:Drivers/GD32F30x_standard_peripheral/Source/gd32f30x_can.c ****             ((can_parameter_struct*)p_struct)->auto_wake_up = DISABLE;
 114              		.loc 1 97 13 is_stmt 1 view .LVU21
 115              		.loc 1 97 61 is_stmt 0 view .LVU22
 116 0018 8A71     		strb	r2, [r1, #6]
  98:Drivers/GD32F30x_standard_peripheral/Source/gd32f30x_can.c ****             ((can_parameter_struct*)p_struct)->prescaler = 0x03FFU; 
 117              		.loc 1 98 13 is_stmt 1 view .LVU23
 118              		.loc 1 98 58 is_stmt 0 view .LVU24
 119 001a 40F2FF31 		movw	r1, #1023
 120              	.LVL7:
 121              		.loc 1 98 58 view .LVU25
 122 001e 5981     		strh	r1, [r3, #10]	@ movhi
  99:Drivers/GD32F30x_standard_peripheral/Source/gd32f30x_can.c ****             ((can_parameter_struct*)p_struct)->rec_fifo_overwrite = DISABLE; 
 123              		.loc 1 99 13 is_stmt 1 view .LVU26
 124              		.loc 1 99 67 is_stmt 0 view .LVU27
 125 0020 1A72     		strb	r2, [r3, #8]
 100:Drivers/GD32F30x_standard_peripheral/Source/gd32f30x_can.c ****             ((can_parameter_struct*)p_struct)->resync_jump_width = CAN_BT_SJW_1TQ;
ARM GAS  C:\Users\Prog\AppData\Local\Temp\ccu1v3Z3.s 			page 5


 126              		.loc 1 100 13 is_stmt 1 view .LVU28
 127              		.loc 1 100 66 is_stmt 0 view .LVU29
 128 0022 5A70     		strb	r2, [r3, #1]
 101:Drivers/GD32F30x_standard_peripheral/Source/gd32f30x_can.c ****             ((can_parameter_struct*)p_struct)->time_segment_1 = CAN_BT_BS1_3TQ;
 129              		.loc 1 101 13 is_stmt 1 view .LVU30
 130              		.loc 1 101 63 is_stmt 0 view .LVU31
 131 0024 0221     		movs	r1, #2
 132 0026 9970     		strb	r1, [r3, #2]
 102:Drivers/GD32F30x_standard_peripheral/Source/gd32f30x_can.c ****             ((can_parameter_struct*)p_struct)->time_segment_2 = CAN_BT_BS2_1TQ;
 133              		.loc 1 102 13 is_stmt 1 view .LVU32
 134              		.loc 1 102 63 is_stmt 0 view .LVU33
 135 0028 DA70     		strb	r2, [r3, #3]
 103:Drivers/GD32F30x_standard_peripheral/Source/gd32f30x_can.c ****             ((can_parameter_struct*)p_struct)->time_triggered = DISABLE;
 136              		.loc 1 103 13 is_stmt 1 view .LVU34
 137              		.loc 1 103 63 is_stmt 0 view .LVU35
 138 002a 1A71     		strb	r2, [r3, #4]
 104:Drivers/GD32F30x_standard_peripheral/Source/gd32f30x_can.c ****             ((can_parameter_struct*)p_struct)->trans_fifo_order = DISABLE;
 139              		.loc 1 104 13 is_stmt 1 view .LVU36
 140              		.loc 1 104 65 is_stmt 0 view .LVU37
 141 002c 5A72     		strb	r2, [r3, #9]
 105:Drivers/GD32F30x_standard_peripheral/Source/gd32f30x_can.c ****             ((can_parameter_struct*)p_struct)->working_mode = CAN_NORMAL_MODE;
 142              		.loc 1 105 13 is_stmt 1 view .LVU38
 143              		.loc 1 105 61 is_stmt 0 view .LVU39
 144 002e 1A70     		strb	r2, [r3]
 106:Drivers/GD32F30x_standard_peripheral/Source/gd32f30x_can.c ****             
 107:Drivers/GD32F30x_standard_peripheral/Source/gd32f30x_can.c ****             break;
 145              		.loc 1 107 13 is_stmt 1 view .LVU40
 146 0030 7047     		bx	lr
 147              	.LVL8:
 148              	.L14:
 108:Drivers/GD32F30x_standard_peripheral/Source/gd32f30x_can.c ****         /* used for can_filter_init() */
 109:Drivers/GD32F30x_standard_peripheral/Source/gd32f30x_can.c ****         case CAN_FILTER_STRUCT:
 110:Drivers/GD32F30x_standard_peripheral/Source/gd32f30x_can.c ****             ((can_filter_parameter_struct*)p_struct)->filter_bits = CAN_FILTERBITS_32BIT;
 149              		.loc 1 110 13 view .LVU41
 150              		.loc 1 110 67 is_stmt 0 view .LVU42
 151 0032 0122     		movs	r2, #1
 152 0034 CA81     		strh	r2, [r1, #14]	@ movhi
 111:Drivers/GD32F30x_standard_peripheral/Source/gd32f30x_can.c ****             ((can_filter_parameter_struct*)p_struct)->filter_enable = DISABLE;
 153              		.loc 1 111 13 is_stmt 1 view .LVU43
 154              		.loc 1 111 69 is_stmt 0 view .LVU44
 155 0036 0022     		movs	r2, #0
 156 0038 0A74     		strb	r2, [r1, #16]
 112:Drivers/GD32F30x_standard_peripheral/Source/gd32f30x_can.c ****             ((can_filter_parameter_struct*)p_struct)->filter_fifo_number = CAN_FIFO0;
 157              		.loc 1 112 13 is_stmt 1 view .LVU45
 158              		.loc 1 112 74 is_stmt 0 view .LVU46
 159 003a 0A81     		strh	r2, [r1, #8]	@ movhi
 113:Drivers/GD32F30x_standard_peripheral/Source/gd32f30x_can.c ****             ((can_filter_parameter_struct*)p_struct)->filter_list_high = 0x0000U;
 160              		.loc 1 113 13 is_stmt 1 view .LVU47
 161              		.loc 1 113 72 is_stmt 0 view .LVU48
 162 003c 0A80     		strh	r2, [r1]	@ movhi
 114:Drivers/GD32F30x_standard_peripheral/Source/gd32f30x_can.c ****             ((can_filter_parameter_struct*)p_struct)->filter_list_low = 0x0000U;
 163              		.loc 1 114 13 is_stmt 1 view .LVU49
 164              		.loc 1 114 71 is_stmt 0 view .LVU50
 165 003e 4A80     		strh	r2, [r1, #2]	@ movhi
 115:Drivers/GD32F30x_standard_peripheral/Source/gd32f30x_can.c ****             ((can_filter_parameter_struct*)p_struct)->filter_mask_high = 0x0000U;
 166              		.loc 1 115 13 is_stmt 1 view .LVU51
 167              		.loc 1 115 72 is_stmt 0 view .LVU52
ARM GAS  C:\Users\Prog\AppData\Local\Temp\ccu1v3Z3.s 			page 6


 168 0040 8A80     		strh	r2, [r1, #4]	@ movhi
 116:Drivers/GD32F30x_standard_peripheral/Source/gd32f30x_can.c ****             ((can_filter_parameter_struct*)p_struct)->filter_mask_low = 0x0000U;
 169              		.loc 1 116 13 is_stmt 1 view .LVU53
 170              		.loc 1 116 71 is_stmt 0 view .LVU54
 171 0042 CA80     		strh	r2, [r1, #6]	@ movhi
 117:Drivers/GD32F30x_standard_peripheral/Source/gd32f30x_can.c ****             ((can_filter_parameter_struct*)p_struct)->filter_mode = CAN_FILTERMODE_MASK;
 172              		.loc 1 117 13 is_stmt 1 view .LVU55
 173              		.loc 1 117 67 is_stmt 0 view .LVU56
 174 0044 8A81     		strh	r2, [r1, #12]	@ movhi
 118:Drivers/GD32F30x_standard_peripheral/Source/gd32f30x_can.c ****             ((can_filter_parameter_struct*)p_struct)->filter_number = 0U;
 175              		.loc 1 118 13 is_stmt 1 view .LVU57
 176              		.loc 1 118 69 is_stmt 0 view .LVU58
 177 0046 4A81     		strh	r2, [r1, #10]	@ movhi
 119:Drivers/GD32F30x_standard_peripheral/Source/gd32f30x_can.c **** 
 120:Drivers/GD32F30x_standard_peripheral/Source/gd32f30x_can.c ****             break;
 178              		.loc 1 120 13 is_stmt 1 view .LVU59
 179 0048 7047     		bx	lr
 180              	.LVL9:
 181              	.L17:
 121:Drivers/GD32F30x_standard_peripheral/Source/gd32f30x_can.c ****         /* used for can_message_transmit() */
 122:Drivers/GD32F30x_standard_peripheral/Source/gd32f30x_can.c ****         case CAN_TX_MESSAGE_STRUCT:
 123:Drivers/GD32F30x_standard_peripheral/Source/gd32f30x_can.c ****             for(i = 0U; i < 8U; i++){
 124:Drivers/GD32F30x_standard_peripheral/Source/gd32f30x_can.c ****                 ((can_trasnmit_message_struct*)p_struct)->tx_data[i] = 0U;
 182              		.loc 1 124 17 discriminator 3 view .LVU60
 183              		.loc 1 124 70 is_stmt 0 discriminator 3 view .LVU61
 184 004a 9918     		adds	r1, r3, r2
 185 004c 0020     		movs	r0, #0
 186 004e C872     		strb	r0, [r1, #11]
 123:Drivers/GD32F30x_standard_peripheral/Source/gd32f30x_can.c ****                 ((can_trasnmit_message_struct*)p_struct)->tx_data[i] = 0U;
 187              		.loc 1 123 33 is_stmt 1 discriminator 3 view .LVU62
 123:Drivers/GD32F30x_standard_peripheral/Source/gd32f30x_can.c ****                 ((can_trasnmit_message_struct*)p_struct)->tx_data[i] = 0U;
 188              		.loc 1 123 34 is_stmt 0 discriminator 3 view .LVU63
 189 0050 0132     		adds	r2, r2, #1
 190              	.LVL10:
 123:Drivers/GD32F30x_standard_peripheral/Source/gd32f30x_can.c ****                 ((can_trasnmit_message_struct*)p_struct)->tx_data[i] = 0U;
 191              		.loc 1 123 34 discriminator 3 view .LVU64
 192 0052 D2B2     		uxtb	r2, r2
 193              	.LVL11:
 194              	.L13:
 123:Drivers/GD32F30x_standard_peripheral/Source/gd32f30x_can.c ****                 ((can_trasnmit_message_struct*)p_struct)->tx_data[i] = 0U;
 195              		.loc 1 123 25 is_stmt 1 discriminator 1 view .LVU65
 123:Drivers/GD32F30x_standard_peripheral/Source/gd32f30x_can.c ****                 ((can_trasnmit_message_struct*)p_struct)->tx_data[i] = 0U;
 196              		.loc 1 123 13 is_stmt 0 discriminator 1 view .LVU66
 197 0054 072A     		cmp	r2, #7
 198 0056 F8D9     		bls	.L17
 125:Drivers/GD32F30x_standard_peripheral/Source/gd32f30x_can.c ****             }
 126:Drivers/GD32F30x_standard_peripheral/Source/gd32f30x_can.c ****             
 127:Drivers/GD32F30x_standard_peripheral/Source/gd32f30x_can.c ****             ((can_trasnmit_message_struct*)p_struct)->tx_dlen = 0u;
 199              		.loc 1 127 13 is_stmt 1 view .LVU67
 200              		.loc 1 127 63 is_stmt 0 view .LVU68
 201 0058 0022     		movs	r2, #0
 202              	.LVL12:
 203              		.loc 1 127 63 view .LVU69
 204 005a 9A72     		strb	r2, [r3, #10]
 128:Drivers/GD32F30x_standard_peripheral/Source/gd32f30x_can.c ****             ((can_trasnmit_message_struct*)p_struct)->tx_efid = 0U;
 205              		.loc 1 128 13 is_stmt 1 view .LVU70
 206              		.loc 1 128 63 is_stmt 0 view .LVU71
ARM GAS  C:\Users\Prog\AppData\Local\Temp\ccu1v3Z3.s 			page 7


 207 005c 5A60     		str	r2, [r3, #4]
 129:Drivers/GD32F30x_standard_peripheral/Source/gd32f30x_can.c ****             ((can_trasnmit_message_struct*)p_struct)->tx_ff = (uint8_t)CAN_FF_STANDARD;
 208              		.loc 1 129 13 is_stmt 1 view .LVU72
 209              		.loc 1 129 61 is_stmt 0 view .LVU73
 210 005e 1A72     		strb	r2, [r3, #8]
 130:Drivers/GD32F30x_standard_peripheral/Source/gd32f30x_can.c ****             ((can_trasnmit_message_struct*)p_struct)->tx_ft = (uint8_t)CAN_FT_DATA;
 211              		.loc 1 130 13 is_stmt 1 view .LVU74
 212              		.loc 1 130 61 is_stmt 0 view .LVU75
 213 0060 5A72     		strb	r2, [r3, #9]
 131:Drivers/GD32F30x_standard_peripheral/Source/gd32f30x_can.c ****             ((can_trasnmit_message_struct*)p_struct)->tx_sfid = 0U;
 214              		.loc 1 131 13 is_stmt 1 view .LVU76
 215              		.loc 1 131 63 is_stmt 0 view .LVU77
 216 0062 1A60     		str	r2, [r3]
 132:Drivers/GD32F30x_standard_peripheral/Source/gd32f30x_can.c ****             
 133:Drivers/GD32F30x_standard_peripheral/Source/gd32f30x_can.c ****             break;
 217              		.loc 1 133 13 is_stmt 1 view .LVU78
 218 0064 7047     		bx	lr
 219              	.LVL13:
 220              	.L19:
  87:Drivers/GD32F30x_standard_peripheral/Source/gd32f30x_can.c ****         CAN_ERROR_HANDLE("struct parameter can not be NULL \r\n");
 221              		.loc 1 87 7 is_stmt 0 view .LVU79
 222 0066 0022     		movs	r2, #0
 223 0068 F4E7     		b	.L13
 224              	.LVL14:
 225              	.L18:
 134:Drivers/GD32F30x_standard_peripheral/Source/gd32f30x_can.c ****         /* used for can_message_receive() */
 135:Drivers/GD32F30x_standard_peripheral/Source/gd32f30x_can.c ****         case CAN_RX_MESSAGE_STRUCT:
 136:Drivers/GD32F30x_standard_peripheral/Source/gd32f30x_can.c ****             for(i = 0U; i < 8U; i++){
 137:Drivers/GD32F30x_standard_peripheral/Source/gd32f30x_can.c ****                 ((can_receive_message_struct*)p_struct)->rx_data[i] = 0U;
 226              		.loc 1 137 17 is_stmt 1 discriminator 3 view .LVU80
 227              		.loc 1 137 69 is_stmt 0 discriminator 3 view .LVU81
 228 006a 9918     		adds	r1, r3, r2
 229 006c 0020     		movs	r0, #0
 230 006e C872     		strb	r0, [r1, #11]
 136:Drivers/GD32F30x_standard_peripheral/Source/gd32f30x_can.c ****                 ((can_receive_message_struct*)p_struct)->rx_data[i] = 0U;
 231              		.loc 1 136 33 is_stmt 1 discriminator 3 view .LVU82
 136:Drivers/GD32F30x_standard_peripheral/Source/gd32f30x_can.c ****                 ((can_receive_message_struct*)p_struct)->rx_data[i] = 0U;
 232              		.loc 1 136 34 is_stmt 0 discriminator 3 view .LVU83
 233 0070 0132     		adds	r2, r2, #1
 234              	.LVL15:
 136:Drivers/GD32F30x_standard_peripheral/Source/gd32f30x_can.c ****                 ((can_receive_message_struct*)p_struct)->rx_data[i] = 0U;
 235              		.loc 1 136 34 discriminator 3 view .LVU84
 236 0072 D2B2     		uxtb	r2, r2
 237              	.LVL16:
 238              	.L11:
 136:Drivers/GD32F30x_standard_peripheral/Source/gd32f30x_can.c ****                 ((can_receive_message_struct*)p_struct)->rx_data[i] = 0U;
 239              		.loc 1 136 25 is_stmt 1 discriminator 1 view .LVU85
 136:Drivers/GD32F30x_standard_peripheral/Source/gd32f30x_can.c ****                 ((can_receive_message_struct*)p_struct)->rx_data[i] = 0U;
 240              		.loc 1 136 13 is_stmt 0 discriminator 1 view .LVU86
 241 0074 072A     		cmp	r2, #7
 242 0076 F8D9     		bls	.L18
 138:Drivers/GD32F30x_standard_peripheral/Source/gd32f30x_can.c ****             }
 139:Drivers/GD32F30x_standard_peripheral/Source/gd32f30x_can.c ****             
 140:Drivers/GD32F30x_standard_peripheral/Source/gd32f30x_can.c ****             ((can_receive_message_struct*)p_struct)->rx_dlen = 0U;
 243              		.loc 1 140 13 is_stmt 1 view .LVU87
 244              		.loc 1 140 62 is_stmt 0 view .LVU88
 245 0078 0022     		movs	r2, #0
ARM GAS  C:\Users\Prog\AppData\Local\Temp\ccu1v3Z3.s 			page 8


 246              	.LVL17:
 247              		.loc 1 140 62 view .LVU89
 248 007a 9A72     		strb	r2, [r3, #10]
 141:Drivers/GD32F30x_standard_peripheral/Source/gd32f30x_can.c ****             ((can_receive_message_struct*)p_struct)->rx_efid = 0U;
 249              		.loc 1 141 13 is_stmt 1 view .LVU90
 250              		.loc 1 141 62 is_stmt 0 view .LVU91
 251 007c 5A60     		str	r2, [r3, #4]
 142:Drivers/GD32F30x_standard_peripheral/Source/gd32f30x_can.c ****             ((can_receive_message_struct*)p_struct)->rx_ff = (uint8_t)CAN_FF_STANDARD;
 252              		.loc 1 142 13 is_stmt 1 view .LVU92
 253              		.loc 1 142 60 is_stmt 0 view .LVU93
 254 007e 1A72     		strb	r2, [r3, #8]
 143:Drivers/GD32F30x_standard_peripheral/Source/gd32f30x_can.c ****             ((can_receive_message_struct*)p_struct)->rx_fi = 0U;
 255              		.loc 1 143 13 is_stmt 1 view .LVU94
 256              		.loc 1 143 60 is_stmt 0 view .LVU95
 257 0080 DA74     		strb	r2, [r3, #19]
 144:Drivers/GD32F30x_standard_peripheral/Source/gd32f30x_can.c ****             ((can_receive_message_struct*)p_struct)->rx_ft = (uint8_t)CAN_FT_DATA;
 258              		.loc 1 144 13 is_stmt 1 view .LVU96
 259              		.loc 1 144 60 is_stmt 0 view .LVU97
 260 0082 5A72     		strb	r2, [r3, #9]
 145:Drivers/GD32F30x_standard_peripheral/Source/gd32f30x_can.c ****             ((can_receive_message_struct*)p_struct)->rx_sfid = 0U;
 261              		.loc 1 145 13 is_stmt 1 view .LVU98
 262              		.loc 1 145 62 is_stmt 0 view .LVU99
 263 0084 1A60     		str	r2, [r3]
 146:Drivers/GD32F30x_standard_peripheral/Source/gd32f30x_can.c ****             
 147:Drivers/GD32F30x_standard_peripheral/Source/gd32f30x_can.c ****             break;
 264              		.loc 1 147 13 is_stmt 1 view .LVU100
 148:Drivers/GD32F30x_standard_peripheral/Source/gd32f30x_can.c **** 
 149:Drivers/GD32F30x_standard_peripheral/Source/gd32f30x_can.c ****         default:
 150:Drivers/GD32F30x_standard_peripheral/Source/gd32f30x_can.c ****             CAN_ERROR_HANDLE("parameter is invalid \r\n");
 151:Drivers/GD32F30x_standard_peripheral/Source/gd32f30x_can.c ****     }
 152:Drivers/GD32F30x_standard_peripheral/Source/gd32f30x_can.c **** }
 265              		.loc 1 152 1 is_stmt 0 view .LVU101
 266 0086 7047     		bx	lr
 267              	.LVL18:
 268              	.L20:
  87:Drivers/GD32F30x_standard_peripheral/Source/gd32f30x_can.c ****         CAN_ERROR_HANDLE("struct parameter can not be NULL \r\n");
 269              		.loc 1 87 7 view .LVU102
 270 0088 0022     		movs	r2, #0
 271 008a F3E7     		b	.L11
 272              	.L10:
 150:Drivers/GD32F30x_standard_peripheral/Source/gd32f30x_can.c ****     }
 273              		.loc 1 150 13 is_stmt 1 discriminator 1 view .LVU103
 150:Drivers/GD32F30x_standard_peripheral/Source/gd32f30x_can.c ****     }
 274              		.loc 1 150 13 discriminator 1 view .LVU104
 150:Drivers/GD32F30x_standard_peripheral/Source/gd32f30x_can.c ****     }
 275              		.loc 1 150 13 discriminator 1 view .LVU105
 276 008c FEE7     		b	.L10
 277              		.cfi_endproc
 278              	.LFE117:
 280              		.section	.text.can_init,"ax",%progbits
 281              		.align	1
 282              		.global	can_init
 283              		.syntax unified
 284              		.thumb
 285              		.thumb_func
 286              		.fpu fpv4-sp-d16
 288              	can_init:
ARM GAS  C:\Users\Prog\AppData\Local\Temp\ccu1v3Z3.s 			page 9


 289              	.LVL19:
 290              	.LFB118:
 153:Drivers/GD32F30x_standard_peripheral/Source/gd32f30x_can.c **** 
 154:Drivers/GD32F30x_standard_peripheral/Source/gd32f30x_can.c **** /*!
 155:Drivers/GD32F30x_standard_peripheral/Source/gd32f30x_can.c ****     \brief      initialize CAN
 156:Drivers/GD32F30x_standard_peripheral/Source/gd32f30x_can.c ****     \param[in]  can_periph
 157:Drivers/GD32F30x_standard_peripheral/Source/gd32f30x_can.c ****       \arg        CANx(x=0,1),the CAN1 only for GD32F30X_CL 
 158:Drivers/GD32F30x_standard_peripheral/Source/gd32f30x_can.c ****     \param[in]  can_parameter_init: parameters for CAN initializtion
 159:Drivers/GD32F30x_standard_peripheral/Source/gd32f30x_can.c ****       \arg        working_mode: CAN_NORMAL_MODE, CAN_LOOPBACK_MODE, CAN_SILENT_MODE, CAN_SILENT_LOO
 160:Drivers/GD32F30x_standard_peripheral/Source/gd32f30x_can.c ****       \arg        resync_jump_width: CAN_BT_SJW_xTQ(x=1, 2, 3, 4)
 161:Drivers/GD32F30x_standard_peripheral/Source/gd32f30x_can.c ****       \arg        time_segment_1: CAN_BT_BS1_xTQ(1..16)
 162:Drivers/GD32F30x_standard_peripheral/Source/gd32f30x_can.c ****       \arg        time_segment_2: CAN_BT_BS2_xTQ(1..8)
 163:Drivers/GD32F30x_standard_peripheral/Source/gd32f30x_can.c ****       \arg        time_triggered: ENABLE or DISABLE
 164:Drivers/GD32F30x_standard_peripheral/Source/gd32f30x_can.c ****       \arg        auto_bus_off_recovery: ENABLE or DISABLE
 165:Drivers/GD32F30x_standard_peripheral/Source/gd32f30x_can.c ****       \arg        auto_wake_up: ENABLE or DISABLE
 166:Drivers/GD32F30x_standard_peripheral/Source/gd32f30x_can.c ****       \arg        no_auto_retrans: ENABLE or DISABLE
 167:Drivers/GD32F30x_standard_peripheral/Source/gd32f30x_can.c ****       \arg        rec_fifo_overwrite: ENABLE or DISABLE
 168:Drivers/GD32F30x_standard_peripheral/Source/gd32f30x_can.c ****       \arg        trans_fifo_order: ENABLE or DISABLE
 169:Drivers/GD32F30x_standard_peripheral/Source/gd32f30x_can.c ****       \arg        prescaler: 0x0001 - 0x0400
 170:Drivers/GD32F30x_standard_peripheral/Source/gd32f30x_can.c ****     \param[out] none
 171:Drivers/GD32F30x_standard_peripheral/Source/gd32f30x_can.c ****     \retval     ErrStatus: SUCCESS or ERROR
 172:Drivers/GD32F30x_standard_peripheral/Source/gd32f30x_can.c **** */
 173:Drivers/GD32F30x_standard_peripheral/Source/gd32f30x_can.c **** ErrStatus can_init(uint32_t can_periph, can_parameter_struct* can_parameter_init)
 174:Drivers/GD32F30x_standard_peripheral/Source/gd32f30x_can.c **** {
 291              		.loc 1 174 1 view -0
 292              		.cfi_startproc
 293              		@ args = 0, pretend = 0, frame = 0
 294              		@ frame_needed = 0, uses_anonymous_args = 0
 295              		@ link register save eliminated.
 175:Drivers/GD32F30x_standard_peripheral/Source/gd32f30x_can.c ****     uint32_t timeout = CAN_TIMEOUT;
 296              		.loc 1 175 5 view .LVU107
 176:Drivers/GD32F30x_standard_peripheral/Source/gd32f30x_can.c ****     ErrStatus flag = ERROR;
 297              		.loc 1 176 5 view .LVU108
 177:Drivers/GD32F30x_standard_peripheral/Source/gd32f30x_can.c ****     
 178:Drivers/GD32F30x_standard_peripheral/Source/gd32f30x_can.c ****     /* disable sleep mode */
 179:Drivers/GD32F30x_standard_peripheral/Source/gd32f30x_can.c ****     CAN_CTL(can_periph) &= ~CAN_CTL_SLPWMOD;
 298              		.loc 1 179 5 view .LVU109
 299              		.loc 1 179 25 is_stmt 0 view .LVU110
 300 0000 0368     		ldr	r3, [r0]
 301 0002 23F00203 		bic	r3, r3, #2
 302 0006 0360     		str	r3, [r0]
 180:Drivers/GD32F30x_standard_peripheral/Source/gd32f30x_can.c ****     /* enable initialize mode */
 181:Drivers/GD32F30x_standard_peripheral/Source/gd32f30x_can.c ****     CAN_CTL(can_periph) |= CAN_CTL_IWMOD;
 303              		.loc 1 181 5 is_stmt 1 view .LVU111
 304              		.loc 1 181 25 is_stmt 0 view .LVU112
 305 0008 0368     		ldr	r3, [r0]
 306 000a 43F00103 		orr	r3, r3, #1
 307 000e 0360     		str	r3, [r0]
 182:Drivers/GD32F30x_standard_peripheral/Source/gd32f30x_can.c ****     /* wait ACK */
 183:Drivers/GD32F30x_standard_peripheral/Source/gd32f30x_can.c ****     while((CAN_STAT_IWS != (CAN_STAT(can_periph) & CAN_STAT_IWS)) && (0U != timeout)){
 308              		.loc 1 183 5 is_stmt 1 view .LVU113
 175:Drivers/GD32F30x_standard_peripheral/Source/gd32f30x_can.c ****     ErrStatus flag = ERROR;
 309              		.loc 1 175 14 is_stmt 0 view .LVU114
 310 0010 4FF6FF73 		movw	r3, #65535
 311              	.LVL20:
 312              	.L22:
 313              		.loc 1 183 10 is_stmt 1 view .LVU115
ARM GAS  C:\Users\Prog\AppData\Local\Temp\ccu1v3Z3.s 			page 10


 314              		.loc 1 183 29 is_stmt 0 view .LVU116
 315 0014 00F1040C 		add	ip, r0, #4
 316 0018 4268     		ldr	r2, [r0, #4]
 317              		.loc 1 183 10 view .LVU117
 318 001a 12F0010F 		tst	r2, #1
 319 001e 02D1     		bne	.L23
 320              		.loc 1 183 67 discriminator 1 view .LVU118
 321 0020 0BB1     		cbz	r3, .L23
 184:Drivers/GD32F30x_standard_peripheral/Source/gd32f30x_can.c ****         timeout--;
 322              		.loc 1 184 9 is_stmt 1 view .LVU119
 323              		.loc 1 184 16 is_stmt 0 view .LVU120
 324 0022 013B     		subs	r3, r3, #1
 325              	.LVL21:
 326              		.loc 1 184 16 view .LVU121
 327 0024 F6E7     		b	.L22
 328              	.L23:
 185:Drivers/GD32F30x_standard_peripheral/Source/gd32f30x_can.c ****     }
 186:Drivers/GD32F30x_standard_peripheral/Source/gd32f30x_can.c ****     /* check initialize working success */
 187:Drivers/GD32F30x_standard_peripheral/Source/gd32f30x_can.c ****     if(CAN_STAT_IWS != (CAN_STAT(can_periph) & CAN_STAT_IWS)){
 329              		.loc 1 187 5 is_stmt 1 view .LVU122
 330              		.loc 1 187 25 is_stmt 0 view .LVU123
 331 0026 DCF80030 		ldr	r3, [ip]
 332              	.LVL22:
 333              		.loc 1 187 7 view .LVU124
 334 002a 13F0010F 		tst	r3, #1
 335 002e 70D0     		beq	.L41
 188:Drivers/GD32F30x_standard_peripheral/Source/gd32f30x_can.c ****         flag = ERROR;
 189:Drivers/GD32F30x_standard_peripheral/Source/gd32f30x_can.c ****     }else{
 190:Drivers/GD32F30x_standard_peripheral/Source/gd32f30x_can.c ****         /* set the bit timing register */
 191:Drivers/GD32F30x_standard_peripheral/Source/gd32f30x_can.c ****         CAN_BT(can_periph) = (BT_MODE((uint32_t)can_parameter_init->working_mode) | \
 336              		.loc 1 191 9 is_stmt 1 view .LVU125
 337              		.loc 1 191 31 is_stmt 0 view .LVU126
 338 0030 0A78     		ldrb	r2, [r1]	@ zero_extendqisi2
 192:Drivers/GD32F30x_standard_peripheral/Source/gd32f30x_can.c ****                               BT_SJW((uint32_t)can_parameter_init->resync_jump_width) | \
 339              		.loc 1 192 31 view .LVU127
 340 0032 4B78     		ldrb	r3, [r1, #1]	@ zero_extendqisi2
 341 0034 1B06     		lsls	r3, r3, #24
 342 0036 03F04073 		and	r3, r3, #50331648
 191:Drivers/GD32F30x_standard_peripheral/Source/gd32f30x_can.c ****                               BT_SJW((uint32_t)can_parameter_init->resync_jump_width) | \
 343              		.loc 1 191 83 view .LVU128
 344 003a 43EA8273 		orr	r3, r3, r2, lsl #30
 193:Drivers/GD32F30x_standard_peripheral/Source/gd32f30x_can.c ****                               BT_BS1((uint32_t)can_parameter_init->time_segment_1) | \
 345              		.loc 1 193 31 view .LVU129
 346 003e 8A78     		ldrb	r2, [r1, #2]	@ zero_extendqisi2
 347 0040 1204     		lsls	r2, r2, #16
 348 0042 02F47022 		and	r2, r2, #983040
 192:Drivers/GD32F30x_standard_peripheral/Source/gd32f30x_can.c ****                               BT_SJW((uint32_t)can_parameter_init->resync_jump_width) | \
 349              		.loc 1 192 87 view .LVU130
 350 0046 1343     		orrs	r3, r3, r2
 194:Drivers/GD32F30x_standard_peripheral/Source/gd32f30x_can.c ****                               BT_BS2((uint32_t)can_parameter_init->time_segment_2) | \
 351              		.loc 1 194 31 view .LVU131
 352 0048 CA78     		ldrb	r2, [r1, #3]	@ zero_extendqisi2
 353 004a 1205     		lsls	r2, r2, #20
 354 004c 02F4E002 		and	r2, r2, #7340032
 193:Drivers/GD32F30x_standard_peripheral/Source/gd32f30x_can.c ****                               BT_BS1((uint32_t)can_parameter_init->time_segment_1) | \
 355              		.loc 1 193 84 view .LVU132
 356 0050 1343     		orrs	r3, r3, r2
ARM GAS  C:\Users\Prog\AppData\Local\Temp\ccu1v3Z3.s 			page 11


 195:Drivers/GD32F30x_standard_peripheral/Source/gd32f30x_can.c ****                               BT_BAUDPSC(((uint32_t)(can_parameter_init->prescaler) - 1U)));
 357              		.loc 1 195 31 view .LVU133
 358 0052 4A89     		ldrh	r2, [r1, #10]
 359 0054 013A     		subs	r2, r2, #1
 360 0056 C2F30902 		ubfx	r2, r2, #0, #10
 194:Drivers/GD32F30x_standard_peripheral/Source/gd32f30x_can.c ****                               BT_BS2((uint32_t)can_parameter_init->time_segment_2) | \
 361              		.loc 1 194 84 view .LVU134
 362 005a 1343     		orrs	r3, r3, r2
 191:Drivers/GD32F30x_standard_peripheral/Source/gd32f30x_can.c ****                               BT_SJW((uint32_t)can_parameter_init->resync_jump_width) | \
 363              		.loc 1 191 28 view .LVU135
 364 005c C361     		str	r3, [r0, #28]
 196:Drivers/GD32F30x_standard_peripheral/Source/gd32f30x_can.c **** 
 197:Drivers/GD32F30x_standard_peripheral/Source/gd32f30x_can.c ****         /* time trigger communication mode */
 198:Drivers/GD32F30x_standard_peripheral/Source/gd32f30x_can.c ****         if(ENABLE == can_parameter_init->time_triggered){
 365              		.loc 1 198 9 is_stmt 1 view .LVU136
 366              		.loc 1 198 40 is_stmt 0 view .LVU137
 367 005e 0B79     		ldrb	r3, [r1, #4]	@ zero_extendqisi2
 368              		.loc 1 198 11 view .LVU138
 369 0060 012B     		cmp	r3, #1
 370 0062 2DD0     		beq	.L43
 199:Drivers/GD32F30x_standard_peripheral/Source/gd32f30x_can.c ****             CAN_CTL(can_periph) |= CAN_CTL_TTC;
 200:Drivers/GD32F30x_standard_peripheral/Source/gd32f30x_can.c ****         }else{
 201:Drivers/GD32F30x_standard_peripheral/Source/gd32f30x_can.c ****             CAN_CTL(can_periph) &= ~CAN_CTL_TTC;
 371              		.loc 1 201 13 is_stmt 1 view .LVU139
 372              		.loc 1 201 33 is_stmt 0 view .LVU140
 373 0064 0368     		ldr	r3, [r0]
 374 0066 23F08003 		bic	r3, r3, #128
 375 006a 0360     		str	r3, [r0]
 376              	.L27:
 202:Drivers/GD32F30x_standard_peripheral/Source/gd32f30x_can.c ****         }
 203:Drivers/GD32F30x_standard_peripheral/Source/gd32f30x_can.c ****         /* automatic bus-off managment */
 204:Drivers/GD32F30x_standard_peripheral/Source/gd32f30x_can.c ****         if(ENABLE == can_parameter_init->auto_bus_off_recovery){
 377              		.loc 1 204 9 is_stmt 1 view .LVU141
 378              		.loc 1 204 40 is_stmt 0 view .LVU142
 379 006c 4B79     		ldrb	r3, [r1, #5]	@ zero_extendqisi2
 380              		.loc 1 204 11 view .LVU143
 381 006e 012B     		cmp	r3, #1
 382 0070 2BD0     		beq	.L44
 205:Drivers/GD32F30x_standard_peripheral/Source/gd32f30x_can.c ****             CAN_CTL(can_periph) |= CAN_CTL_ABOR;
 206:Drivers/GD32F30x_standard_peripheral/Source/gd32f30x_can.c ****         }else{
 207:Drivers/GD32F30x_standard_peripheral/Source/gd32f30x_can.c ****             CAN_CTL(can_periph) &= ~CAN_CTL_ABOR;
 383              		.loc 1 207 13 is_stmt 1 view .LVU144
 384              		.loc 1 207 33 is_stmt 0 view .LVU145
 385 0072 0368     		ldr	r3, [r0]
 386 0074 23F04003 		bic	r3, r3, #64
 387 0078 0360     		str	r3, [r0]
 388              	.L29:
 208:Drivers/GD32F30x_standard_peripheral/Source/gd32f30x_can.c ****         }
 209:Drivers/GD32F30x_standard_peripheral/Source/gd32f30x_can.c ****         /* automatic wakeup mode */
 210:Drivers/GD32F30x_standard_peripheral/Source/gd32f30x_can.c ****         if(ENABLE == can_parameter_init->auto_wake_up){
 389              		.loc 1 210 9 is_stmt 1 view .LVU146
 390              		.loc 1 210 40 is_stmt 0 view .LVU147
 391 007a 8B79     		ldrb	r3, [r1, #6]	@ zero_extendqisi2
 392              		.loc 1 210 11 view .LVU148
 393 007c 012B     		cmp	r3, #1
 394 007e 29D0     		beq	.L45
 211:Drivers/GD32F30x_standard_peripheral/Source/gd32f30x_can.c ****             CAN_CTL(can_periph) |= CAN_CTL_AWU;
ARM GAS  C:\Users\Prog\AppData\Local\Temp\ccu1v3Z3.s 			page 12


 212:Drivers/GD32F30x_standard_peripheral/Source/gd32f30x_can.c ****         }else{
 213:Drivers/GD32F30x_standard_peripheral/Source/gd32f30x_can.c ****             CAN_CTL(can_periph) &= ~CAN_CTL_AWU;
 395              		.loc 1 213 13 is_stmt 1 view .LVU149
 396              		.loc 1 213 33 is_stmt 0 view .LVU150
 397 0080 0368     		ldr	r3, [r0]
 398 0082 23F02003 		bic	r3, r3, #32
 399 0086 0360     		str	r3, [r0]
 400              	.L31:
 214:Drivers/GD32F30x_standard_peripheral/Source/gd32f30x_can.c ****         }
 215:Drivers/GD32F30x_standard_peripheral/Source/gd32f30x_can.c ****         /* automatic retransmission mode disable */
 216:Drivers/GD32F30x_standard_peripheral/Source/gd32f30x_can.c ****         if(ENABLE == can_parameter_init->no_auto_retrans){
 401              		.loc 1 216 9 is_stmt 1 view .LVU151
 402              		.loc 1 216 40 is_stmt 0 view .LVU152
 403 0088 CB79     		ldrb	r3, [r1, #7]	@ zero_extendqisi2
 404              		.loc 1 216 11 view .LVU153
 405 008a 012B     		cmp	r3, #1
 406 008c 27D0     		beq	.L46
 217:Drivers/GD32F30x_standard_peripheral/Source/gd32f30x_can.c ****             CAN_CTL(can_periph) |= CAN_CTL_ARD;
 218:Drivers/GD32F30x_standard_peripheral/Source/gd32f30x_can.c ****         }else{
 219:Drivers/GD32F30x_standard_peripheral/Source/gd32f30x_can.c ****             CAN_CTL(can_periph) &= ~CAN_CTL_ARD;
 407              		.loc 1 219 13 is_stmt 1 view .LVU154
 408              		.loc 1 219 33 is_stmt 0 view .LVU155
 409 008e 0368     		ldr	r3, [r0]
 410 0090 23F01003 		bic	r3, r3, #16
 411 0094 0360     		str	r3, [r0]
 412              	.L33:
 220:Drivers/GD32F30x_standard_peripheral/Source/gd32f30x_can.c ****         }
 221:Drivers/GD32F30x_standard_peripheral/Source/gd32f30x_can.c ****         /* receive fifo overwrite mode */        
 222:Drivers/GD32F30x_standard_peripheral/Source/gd32f30x_can.c ****         if(ENABLE == can_parameter_init->rec_fifo_overwrite){
 413              		.loc 1 222 9 is_stmt 1 view .LVU156
 414              		.loc 1 222 40 is_stmt 0 view .LVU157
 415 0096 0B7A     		ldrb	r3, [r1, #8]	@ zero_extendqisi2
 416              		.loc 1 222 11 view .LVU158
 417 0098 012B     		cmp	r3, #1
 418 009a 25D0     		beq	.L47
 223:Drivers/GD32F30x_standard_peripheral/Source/gd32f30x_can.c ****             CAN_CTL(can_periph) |= CAN_CTL_RFOD;
 224:Drivers/GD32F30x_standard_peripheral/Source/gd32f30x_can.c ****         }else{
 225:Drivers/GD32F30x_standard_peripheral/Source/gd32f30x_can.c ****             CAN_CTL(can_periph) &= ~CAN_CTL_RFOD;
 419              		.loc 1 225 13 is_stmt 1 view .LVU159
 420              		.loc 1 225 33 is_stmt 0 view .LVU160
 421 009c 0368     		ldr	r3, [r0]
 422 009e 23F00803 		bic	r3, r3, #8
 423 00a2 0360     		str	r3, [r0]
 424              	.L35:
 226:Drivers/GD32F30x_standard_peripheral/Source/gd32f30x_can.c ****         } 
 227:Drivers/GD32F30x_standard_peripheral/Source/gd32f30x_can.c ****         /* transmit fifo order */
 228:Drivers/GD32F30x_standard_peripheral/Source/gd32f30x_can.c ****         if(ENABLE == can_parameter_init->trans_fifo_order){
 425              		.loc 1 228 9 is_stmt 1 view .LVU161
 426              		.loc 1 228 40 is_stmt 0 view .LVU162
 427 00a4 4B7A     		ldrb	r3, [r1, #9]	@ zero_extendqisi2
 428              		.loc 1 228 11 view .LVU163
 429 00a6 012B     		cmp	r3, #1
 430 00a8 23D0     		beq	.L48
 229:Drivers/GD32F30x_standard_peripheral/Source/gd32f30x_can.c ****             CAN_CTL(can_periph) |= CAN_CTL_TFO;
 230:Drivers/GD32F30x_standard_peripheral/Source/gd32f30x_can.c ****         }else{
 231:Drivers/GD32F30x_standard_peripheral/Source/gd32f30x_can.c ****             CAN_CTL(can_periph) &= ~CAN_CTL_TFO;
 431              		.loc 1 231 13 is_stmt 1 view .LVU164
ARM GAS  C:\Users\Prog\AppData\Local\Temp\ccu1v3Z3.s 			page 13


 432              		.loc 1 231 33 is_stmt 0 view .LVU165
 433 00aa 0368     		ldr	r3, [r0]
 434 00ac 23F00403 		bic	r3, r3, #4
 435 00b0 0360     		str	r3, [r0]
 436              	.L37:
 232:Drivers/GD32F30x_standard_peripheral/Source/gd32f30x_can.c ****         }  
 233:Drivers/GD32F30x_standard_peripheral/Source/gd32f30x_can.c ****         /* disable initialize mode */
 234:Drivers/GD32F30x_standard_peripheral/Source/gd32f30x_can.c ****         CAN_CTL(can_periph) &= ~CAN_CTL_IWMOD;
 437              		.loc 1 234 9 is_stmt 1 view .LVU166
 438              		.loc 1 234 29 is_stmt 0 view .LVU167
 439 00b2 0368     		ldr	r3, [r0]
 440 00b4 23F00103 		bic	r3, r3, #1
 441 00b8 0360     		str	r3, [r0]
 235:Drivers/GD32F30x_standard_peripheral/Source/gd32f30x_can.c ****         timeout = CAN_TIMEOUT;
 442              		.loc 1 235 9 is_stmt 1 view .LVU168
 443              	.LVL23:
 236:Drivers/GD32F30x_standard_peripheral/Source/gd32f30x_can.c ****         /* wait the ACK */
 237:Drivers/GD32F30x_standard_peripheral/Source/gd32f30x_can.c ****         while((CAN_STAT_IWS == (CAN_STAT(can_periph) & CAN_STAT_IWS)) && (0U != timeout)){
 444              		.loc 1 237 9 view .LVU169
 235:Drivers/GD32F30x_standard_peripheral/Source/gd32f30x_can.c ****         timeout = CAN_TIMEOUT;
 445              		.loc 1 235 17 is_stmt 0 view .LVU170
 446 00ba 4FF6FF73 		movw	r3, #65535
 447              		.loc 1 237 14 view .LVU171
 448 00be 1EE0     		b	.L38
 449              	.LVL24:
 450              	.L43:
 199:Drivers/GD32F30x_standard_peripheral/Source/gd32f30x_can.c ****         }else{
 451              		.loc 1 199 13 is_stmt 1 view .LVU172
 199:Drivers/GD32F30x_standard_peripheral/Source/gd32f30x_can.c ****         }else{
 452              		.loc 1 199 33 is_stmt 0 view .LVU173
 453 00c0 0368     		ldr	r3, [r0]
 454 00c2 43F08003 		orr	r3, r3, #128
 455 00c6 0360     		str	r3, [r0]
 456 00c8 D0E7     		b	.L27
 457              	.L44:
 205:Drivers/GD32F30x_standard_peripheral/Source/gd32f30x_can.c ****         }else{
 458              		.loc 1 205 13 is_stmt 1 view .LVU174
 205:Drivers/GD32F30x_standard_peripheral/Source/gd32f30x_can.c ****         }else{
 459              		.loc 1 205 33 is_stmt 0 view .LVU175
 460 00ca 0368     		ldr	r3, [r0]
 461 00cc 43F04003 		orr	r3, r3, #64
 462 00d0 0360     		str	r3, [r0]
 463 00d2 D2E7     		b	.L29
 464              	.L45:
 211:Drivers/GD32F30x_standard_peripheral/Source/gd32f30x_can.c ****         }else{
 465              		.loc 1 211 13 is_stmt 1 view .LVU176
 211:Drivers/GD32F30x_standard_peripheral/Source/gd32f30x_can.c ****         }else{
 466              		.loc 1 211 33 is_stmt 0 view .LVU177
 467 00d4 0368     		ldr	r3, [r0]
 468 00d6 43F02003 		orr	r3, r3, #32
 469 00da 0360     		str	r3, [r0]
 470 00dc D4E7     		b	.L31
 471              	.L46:
 217:Drivers/GD32F30x_standard_peripheral/Source/gd32f30x_can.c ****         }else{
 472              		.loc 1 217 13 is_stmt 1 view .LVU178
 217:Drivers/GD32F30x_standard_peripheral/Source/gd32f30x_can.c ****         }else{
 473              		.loc 1 217 33 is_stmt 0 view .LVU179
ARM GAS  C:\Users\Prog\AppData\Local\Temp\ccu1v3Z3.s 			page 14


 474 00de 0368     		ldr	r3, [r0]
 475 00e0 43F01003 		orr	r3, r3, #16
 476 00e4 0360     		str	r3, [r0]
 477 00e6 D6E7     		b	.L33
 478              	.L47:
 223:Drivers/GD32F30x_standard_peripheral/Source/gd32f30x_can.c ****         }else{
 479              		.loc 1 223 13 is_stmt 1 view .LVU180
 223:Drivers/GD32F30x_standard_peripheral/Source/gd32f30x_can.c ****         }else{
 480              		.loc 1 223 33 is_stmt 0 view .LVU181
 481 00e8 0368     		ldr	r3, [r0]
 482 00ea 43F00803 		orr	r3, r3, #8
 483 00ee 0360     		str	r3, [r0]
 484 00f0 D8E7     		b	.L35
 485              	.L48:
 229:Drivers/GD32F30x_standard_peripheral/Source/gd32f30x_can.c ****         }else{
 486              		.loc 1 229 13 is_stmt 1 view .LVU182
 229:Drivers/GD32F30x_standard_peripheral/Source/gd32f30x_can.c ****         }else{
 487              		.loc 1 229 33 is_stmt 0 view .LVU183
 488 00f2 0368     		ldr	r3, [r0]
 489 00f4 43F00403 		orr	r3, r3, #4
 490 00f8 0360     		str	r3, [r0]
 491 00fa DAE7     		b	.L37
 492              	.LVL25:
 493              	.L40:
 238:Drivers/GD32F30x_standard_peripheral/Source/gd32f30x_can.c ****             timeout--;
 494              		.loc 1 238 13 is_stmt 1 view .LVU184
 495              		.loc 1 238 20 is_stmt 0 view .LVU185
 496 00fc 013B     		subs	r3, r3, #1
 497              	.LVL26:
 498              	.L38:
 237:Drivers/GD32F30x_standard_peripheral/Source/gd32f30x_can.c ****             timeout--;
 499              		.loc 1 237 14 is_stmt 1 view .LVU186
 237:Drivers/GD32F30x_standard_peripheral/Source/gd32f30x_can.c ****             timeout--;
 500              		.loc 1 237 33 is_stmt 0 view .LVU187
 501 00fe DCF80020 		ldr	r2, [ip]
 237:Drivers/GD32F30x_standard_peripheral/Source/gd32f30x_can.c ****             timeout--;
 502              		.loc 1 237 14 view .LVU188
 503 0102 12F0010F 		tst	r2, #1
 504 0106 01D0     		beq	.L39
 237:Drivers/GD32F30x_standard_peripheral/Source/gd32f30x_can.c ****             timeout--;
 505              		.loc 1 237 71 discriminator 1 view .LVU189
 506 0108 002B     		cmp	r3, #0
 507 010a F7D1     		bne	.L40
 508              	.L39:
 239:Drivers/GD32F30x_standard_peripheral/Source/gd32f30x_can.c ****         }
 240:Drivers/GD32F30x_standard_peripheral/Source/gd32f30x_can.c ****         /* check exit initialize mode */
 241:Drivers/GD32F30x_standard_peripheral/Source/gd32f30x_can.c ****         if(0U != timeout){
 509              		.loc 1 241 9 is_stmt 1 view .LVU190
 510              		.loc 1 241 11 is_stmt 0 view .LVU191
 511 010c 1BB9     		cbnz	r3, .L42
 176:Drivers/GD32F30x_standard_peripheral/Source/gd32f30x_can.c ****     
 512              		.loc 1 176 15 view .LVU192
 513 010e 0020     		movs	r0, #0
 514              	.LVL27:
 176:Drivers/GD32F30x_standard_peripheral/Source/gd32f30x_can.c ****     
 515              		.loc 1 176 15 view .LVU193
 516 0110 7047     		bx	lr
ARM GAS  C:\Users\Prog\AppData\Local\Temp\ccu1v3Z3.s 			page 15


 517              	.LVL28:
 518              	.L41:
 188:Drivers/GD32F30x_standard_peripheral/Source/gd32f30x_can.c ****     }else{
 519              		.loc 1 188 14 view .LVU194
 520 0112 0020     		movs	r0, #0
 521              	.LVL29:
 188:Drivers/GD32F30x_standard_peripheral/Source/gd32f30x_can.c ****     }else{
 522              		.loc 1 188 14 view .LVU195
 523 0114 7047     		bx	lr
 524              	.LVL30:
 525              	.L42:
 242:Drivers/GD32F30x_standard_peripheral/Source/gd32f30x_can.c ****             flag = SUCCESS;
 526              		.loc 1 242 18 view .LVU196
 527 0116 0120     		movs	r0, #1
 528              	.LVL31:
 243:Drivers/GD32F30x_standard_peripheral/Source/gd32f30x_can.c ****         }
 244:Drivers/GD32F30x_standard_peripheral/Source/gd32f30x_can.c ****     }  
 245:Drivers/GD32F30x_standard_peripheral/Source/gd32f30x_can.c ****     return flag;
 529              		.loc 1 245 5 is_stmt 1 view .LVU197
 246:Drivers/GD32F30x_standard_peripheral/Source/gd32f30x_can.c **** }
 530              		.loc 1 246 1 is_stmt 0 view .LVU198
 531 0118 7047     		bx	lr
 532              		.cfi_endproc
 533              	.LFE118:
 535              		.section	.text.can_filter_init,"ax",%progbits
 536              		.align	1
 537              		.global	can_filter_init
 538              		.syntax unified
 539              		.thumb
 540              		.thumb_func
 541              		.fpu fpv4-sp-d16
 543              	can_filter_init:
 544              	.LVL32:
 545              	.LFB119:
 247:Drivers/GD32F30x_standard_peripheral/Source/gd32f30x_can.c **** 
 248:Drivers/GD32F30x_standard_peripheral/Source/gd32f30x_can.c **** /*!
 249:Drivers/GD32F30x_standard_peripheral/Source/gd32f30x_can.c ****     \brief      initialize CAN filter 
 250:Drivers/GD32F30x_standard_peripheral/Source/gd32f30x_can.c ****     \param[in]  can_filter_parameter_init: struct for CAN filter initialization
 251:Drivers/GD32F30x_standard_peripheral/Source/gd32f30x_can.c ****       \arg        filter_list_high: 0x0000 - 0xFFFF
 252:Drivers/GD32F30x_standard_peripheral/Source/gd32f30x_can.c ****       \arg        filter_list_low: 0x0000 - 0xFFFF
 253:Drivers/GD32F30x_standard_peripheral/Source/gd32f30x_can.c ****       \arg        filter_mask_high: 0x0000 - 0xFFFF
 254:Drivers/GD32F30x_standard_peripheral/Source/gd32f30x_can.c ****       \arg        filter_mask_low: 0x0000 - 0xFFFF
 255:Drivers/GD32F30x_standard_peripheral/Source/gd32f30x_can.c ****       \arg        filter_fifo_number: CAN_FIFO0, CAN_FIFO1 
 256:Drivers/GD32F30x_standard_peripheral/Source/gd32f30x_can.c ****       \arg        filter_number: 0 - 27
 257:Drivers/GD32F30x_standard_peripheral/Source/gd32f30x_can.c ****       \arg        filter_mode: CAN_FILTERMODE_MASK, CAN_FILTERMODE_LIST
 258:Drivers/GD32F30x_standard_peripheral/Source/gd32f30x_can.c ****       \arg        filter_bits: CAN_FILTERBITS_32BIT, CAN_FILTERBITS_16BIT 
 259:Drivers/GD32F30x_standard_peripheral/Source/gd32f30x_can.c ****       \arg        filter_enable: ENABLE or DISABLE
 260:Drivers/GD32F30x_standard_peripheral/Source/gd32f30x_can.c ****     \param[out] none
 261:Drivers/GD32F30x_standard_peripheral/Source/gd32f30x_can.c ****     \retval     none
 262:Drivers/GD32F30x_standard_peripheral/Source/gd32f30x_can.c **** */
 263:Drivers/GD32F30x_standard_peripheral/Source/gd32f30x_can.c **** void can_filter_init(can_filter_parameter_struct* can_filter_parameter_init)
 264:Drivers/GD32F30x_standard_peripheral/Source/gd32f30x_can.c **** {
 546              		.loc 1 264 1 is_stmt 1 view -0
 547              		.cfi_startproc
 548              		@ args = 0, pretend = 0, frame = 0
 549              		@ frame_needed = 0, uses_anonymous_args = 0
 550              		.loc 1 264 1 is_stmt 0 view .LVU200
ARM GAS  C:\Users\Prog\AppData\Local\Temp\ccu1v3Z3.s 			page 16


 551 0000 00B5     		push	{lr}
 552              	.LCFI1:
 553              		.cfi_def_cfa_offset 4
 554              		.cfi_offset 14, -4
 265:Drivers/GD32F30x_standard_peripheral/Source/gd32f30x_can.c ****     uint32_t val = 0U;
 555              		.loc 1 265 5 is_stmt 1 view .LVU201
 556              	.LVL33:
 266:Drivers/GD32F30x_standard_peripheral/Source/gd32f30x_can.c ****     
 267:Drivers/GD32F30x_standard_peripheral/Source/gd32f30x_can.c ****     val = ((uint32_t)1) << (can_filter_parameter_init->filter_number);
 557              		.loc 1 267 5 view .LVU202
 558              		.loc 1 267 54 is_stmt 0 view .LVU203
 559 0002 4389     		ldrh	r3, [r0, #10]
 560              		.loc 1 267 9 view .LVU204
 561 0004 0122     		movs	r2, #1
 562 0006 02FA03F3 		lsl	r3, r2, r3
 563              	.LVL34:
 268:Drivers/GD32F30x_standard_peripheral/Source/gd32f30x_can.c ****     /* filter lock disable */
 269:Drivers/GD32F30x_standard_peripheral/Source/gd32f30x_can.c ****     CAN_FCTL(CAN0) |= CAN_FCTL_FLD;
 564              		.loc 1 269 5 is_stmt 1 view .LVU205
 565              		.loc 1 269 20 is_stmt 0 view .LVU206
 566 000a 434A     		ldr	r2, .L60
 567 000c D2F80016 		ldr	r1, [r2, #1536]
 568 0010 41F00101 		orr	r1, r1, #1
 569 0014 C2F80016 		str	r1, [r2, #1536]
 270:Drivers/GD32F30x_standard_peripheral/Source/gd32f30x_can.c ****     /* disable filter */
 271:Drivers/GD32F30x_standard_peripheral/Source/gd32f30x_can.c ****     CAN_FW(CAN0) &= ~(uint32_t)val;
 570              		.loc 1 271 5 is_stmt 1 view .LVU207
 571              		.loc 1 271 18 is_stmt 0 view .LVU208
 572 0018 D2F81C16 		ldr	r1, [r2, #1564]
 573              		.loc 1 271 21 view .LVU209
 574 001c 6FEA030C 		mvn	ip, r3
 575              		.loc 1 271 18 view .LVU210
 576 0020 21EA0301 		bic	r1, r1, r3
 577 0024 C2F81C16 		str	r1, [r2, #1564]
 272:Drivers/GD32F30x_standard_peripheral/Source/gd32f30x_can.c ****     
 273:Drivers/GD32F30x_standard_peripheral/Source/gd32f30x_can.c ****     /* filter 16 bits */
 274:Drivers/GD32F30x_standard_peripheral/Source/gd32f30x_can.c ****     if(CAN_FILTERBITS_16BIT == can_filter_parameter_init->filter_bits){
 578              		.loc 1 274 5 is_stmt 1 view .LVU211
 579              		.loc 1 274 57 is_stmt 0 view .LVU212
 580 0028 C289     		ldrh	r2, [r0, #14]
 581              		.loc 1 274 7 view .LVU213
 582 002a F2B9     		cbnz	r2, .L50
 275:Drivers/GD32F30x_standard_peripheral/Source/gd32f30x_can.c ****         /* set filter 16 bits */
 276:Drivers/GD32F30x_standard_peripheral/Source/gd32f30x_can.c ****         CAN_FSCFG(CAN0) &= ~(uint32_t)val;
 583              		.loc 1 276 9 is_stmt 1 view .LVU214
 584              		.loc 1 276 25 is_stmt 0 view .LVU215
 585 002c 3A49     		ldr	r1, .L60
 586 002e D1F80C26 		ldr	r2, [r1, #1548]
 587 0032 0CEA0202 		and	r2, ip, r2
 588 0036 C1F80C26 		str	r2, [r1, #1548]
 277:Drivers/GD32F30x_standard_peripheral/Source/gd32f30x_can.c ****         /* first 16 bits list and first 16 bits mask or first 16 bits list and second 16 bits list 
 278:Drivers/GD32F30x_standard_peripheral/Source/gd32f30x_can.c ****         CAN_FDATA0(CAN0, can_filter_parameter_init->filter_number) = \
 589              		.loc 1 278 9 is_stmt 1 view .LVU216
 279:Drivers/GD32F30x_standard_peripheral/Source/gd32f30x_can.c ****                                 FDATA_MASK_HIGH((can_filter_parameter_init->filter_mask_low) & CAN_
 590              		.loc 1 279 33 is_stmt 0 view .LVU217
 591 003a B0F806E0 		ldrh	lr, [r0, #6]
 280:Drivers/GD32F30x_standard_peripheral/Source/gd32f30x_can.c ****                                 FDATA_MASK_LOW((can_filter_parameter_init->filter_list_low) & CAN_F
ARM GAS  C:\Users\Prog\AppData\Local\Temp\ccu1v3Z3.s 			page 17


 592              		.loc 1 280 33 view .LVU218
 593 003e 4188     		ldrh	r1, [r0, #2]
 278:Drivers/GD32F30x_standard_peripheral/Source/gd32f30x_can.c ****                                 FDATA_MASK_HIGH((can_filter_parameter_init->filter_mask_low) & CAN_
 594              		.loc 1 278 9 view .LVU219
 595 0040 4289     		ldrh	r2, [r0, #10]
 596 0042 02F10062 		add	r2, r2, #134217728
 597 0046 02F6C842 		addw	r2, r2, #3272
 598 004a D200     		lsls	r2, r2, #3
 279:Drivers/GD32F30x_standard_peripheral/Source/gd32f30x_can.c ****                                 FDATA_MASK_HIGH((can_filter_parameter_init->filter_mask_low) & CAN_
 599              		.loc 1 279 120 view .LVU220
 600 004c 41EA0E41 		orr	r1, r1, lr, lsl #16
 278:Drivers/GD32F30x_standard_peripheral/Source/gd32f30x_can.c ****                                 FDATA_MASK_HIGH((can_filter_parameter_init->filter_mask_low) & CAN_
 601              		.loc 1 278 68 view .LVU221
 602 0050 1160     		str	r1, [r2]
 281:Drivers/GD32F30x_standard_peripheral/Source/gd32f30x_can.c ****         /* second 16 bits list and second 16 bits mask or third 16 bits list and fourth 16 bits lis
 282:Drivers/GD32F30x_standard_peripheral/Source/gd32f30x_can.c ****         CAN_FDATA1(CAN0, can_filter_parameter_init->filter_number) = \
 603              		.loc 1 282 9 is_stmt 1 view .LVU222
 283:Drivers/GD32F30x_standard_peripheral/Source/gd32f30x_can.c ****                                 FDATA_MASK_HIGH((can_filter_parameter_init->filter_mask_high) & CAN
 604              		.loc 1 283 33 is_stmt 0 view .LVU223
 605 0052 B0F804E0 		ldrh	lr, [r0, #4]
 284:Drivers/GD32F30x_standard_peripheral/Source/gd32f30x_can.c ****                                 FDATA_MASK_LOW((can_filter_parameter_init->filter_list_high) & CAN_
 606              		.loc 1 284 33 view .LVU224
 607 0056 0188     		ldrh	r1, [r0]
 282:Drivers/GD32F30x_standard_peripheral/Source/gd32f30x_can.c ****                                 FDATA_MASK_HIGH((can_filter_parameter_init->filter_mask_high) & CAN
 608              		.loc 1 282 9 view .LVU225
 609 0058 4289     		ldrh	r2, [r0, #10]
 610 005a 02F10062 		add	r2, r2, #134217728
 611 005e 02F6C842 		addw	r2, r2, #3272
 612 0062 D200     		lsls	r2, r2, #3
 283:Drivers/GD32F30x_standard_peripheral/Source/gd32f30x_can.c ****                                 FDATA_MASK_HIGH((can_filter_parameter_init->filter_mask_high) & CAN
 613              		.loc 1 283 121 view .LVU226
 614 0064 41EA0E41 		orr	r1, r1, lr, lsl #16
 282:Drivers/GD32F30x_standard_peripheral/Source/gd32f30x_can.c ****                                 FDATA_MASK_HIGH((can_filter_parameter_init->filter_mask_high) & CAN
 615              		.loc 1 282 68 view .LVU227
 616 0068 5160     		str	r1, [r2, #4]
 617              	.L50:
 285:Drivers/GD32F30x_standard_peripheral/Source/gd32f30x_can.c ****     }
 286:Drivers/GD32F30x_standard_peripheral/Source/gd32f30x_can.c ****     /* filter 32 bits */
 287:Drivers/GD32F30x_standard_peripheral/Source/gd32f30x_can.c ****     if(CAN_FILTERBITS_32BIT == can_filter_parameter_init->filter_bits){
 618              		.loc 1 287 5 is_stmt 1 view .LVU228
 619              		.loc 1 287 57 is_stmt 0 view .LVU229
 620 006a C289     		ldrh	r2, [r0, #14]
 621              		.loc 1 287 7 view .LVU230
 622 006c 012A     		cmp	r2, #1
 623 006e 1FD0     		beq	.L58
 624              	.L51:
 288:Drivers/GD32F30x_standard_peripheral/Source/gd32f30x_can.c ****         /* set filter 32 bits */
 289:Drivers/GD32F30x_standard_peripheral/Source/gd32f30x_can.c ****         CAN_FSCFG(CAN0) |= (uint32_t)val;
 290:Drivers/GD32F30x_standard_peripheral/Source/gd32f30x_can.c ****         /* 32 bits list or first 32 bits list */
 291:Drivers/GD32F30x_standard_peripheral/Source/gd32f30x_can.c ****         CAN_FDATA0(CAN0, can_filter_parameter_init->filter_number) = \
 292:Drivers/GD32F30x_standard_peripheral/Source/gd32f30x_can.c ****                                 FDATA_MASK_HIGH((can_filter_parameter_init->filter_list_high) & CAN
 293:Drivers/GD32F30x_standard_peripheral/Source/gd32f30x_can.c ****                                 FDATA_MASK_LOW((can_filter_parameter_init->filter_list_low) & CAN_F
 294:Drivers/GD32F30x_standard_peripheral/Source/gd32f30x_can.c ****         /* 32 bits mask or second 32 bits list */
 295:Drivers/GD32F30x_standard_peripheral/Source/gd32f30x_can.c ****         CAN_FDATA1(CAN0, can_filter_parameter_init->filter_number) = \
 296:Drivers/GD32F30x_standard_peripheral/Source/gd32f30x_can.c ****                                 FDATA_MASK_HIGH((can_filter_parameter_init->filter_mask_high) & CAN
 297:Drivers/GD32F30x_standard_peripheral/Source/gd32f30x_can.c ****                                 FDATA_MASK_LOW((can_filter_parameter_init->filter_mask_low) & CAN_F
 298:Drivers/GD32F30x_standard_peripheral/Source/gd32f30x_can.c ****     }
ARM GAS  C:\Users\Prog\AppData\Local\Temp\ccu1v3Z3.s 			page 18


 299:Drivers/GD32F30x_standard_peripheral/Source/gd32f30x_can.c ****     
 300:Drivers/GD32F30x_standard_peripheral/Source/gd32f30x_can.c ****     /* filter mode */
 301:Drivers/GD32F30x_standard_peripheral/Source/gd32f30x_can.c ****     if(CAN_FILTERMODE_MASK == can_filter_parameter_init->filter_mode){
 625              		.loc 1 301 5 is_stmt 1 view .LVU231
 626              		.loc 1 301 56 is_stmt 0 view .LVU232
 627 0070 8289     		ldrh	r2, [r0, #12]
 628              		.loc 1 301 7 view .LVU233
 629 0072 002A     		cmp	r2, #0
 630 0074 3BD1     		bne	.L52
 302:Drivers/GD32F30x_standard_peripheral/Source/gd32f30x_can.c ****         /* mask mode */
 303:Drivers/GD32F30x_standard_peripheral/Source/gd32f30x_can.c ****         CAN_FMCFG(CAN0) &= ~(uint32_t)val;
 631              		.loc 1 303 9 is_stmt 1 view .LVU234
 632              		.loc 1 303 25 is_stmt 0 view .LVU235
 633 0076 2849     		ldr	r1, .L60
 634 0078 D1F80426 		ldr	r2, [r1, #1540]
 635 007c 0CEA0202 		and	r2, ip, r2
 636 0080 C1F80426 		str	r2, [r1, #1540]
 637              	.L53:
 304:Drivers/GD32F30x_standard_peripheral/Source/gd32f30x_can.c ****     }else{
 305:Drivers/GD32F30x_standard_peripheral/Source/gd32f30x_can.c ****         /* list mode */
 306:Drivers/GD32F30x_standard_peripheral/Source/gd32f30x_can.c ****         CAN_FMCFG(CAN0) |= (uint32_t)val;
 307:Drivers/GD32F30x_standard_peripheral/Source/gd32f30x_can.c ****     }
 308:Drivers/GD32F30x_standard_peripheral/Source/gd32f30x_can.c ****     
 309:Drivers/GD32F30x_standard_peripheral/Source/gd32f30x_can.c ****     /* filter FIFO */
 310:Drivers/GD32F30x_standard_peripheral/Source/gd32f30x_can.c ****     if(CAN_FIFO0 == (can_filter_parameter_init->filter_fifo_number)){
 638              		.loc 1 310 5 is_stmt 1 view .LVU236
 639              		.loc 1 310 47 is_stmt 0 view .LVU237
 640 0084 0289     		ldrh	r2, [r0, #8]
 641              		.loc 1 310 7 view .LVU238
 642 0086 002A     		cmp	r2, #0
 643 0088 38D1     		bne	.L54
 311:Drivers/GD32F30x_standard_peripheral/Source/gd32f30x_can.c ****         /* FIFO0 */
 312:Drivers/GD32F30x_standard_peripheral/Source/gd32f30x_can.c ****         CAN_FAFIFO(CAN0) &= ~(uint32_t)val;
 644              		.loc 1 312 9 is_stmt 1 view .LVU239
 645              		.loc 1 312 26 is_stmt 0 view .LVU240
 646 008a 2349     		ldr	r1, .L60
 647 008c D1F81426 		ldr	r2, [r1, #1556]
 648 0090 0CEA0202 		and	r2, ip, r2
 649 0094 C1F81426 		str	r2, [r1, #1556]
 650              	.L55:
 313:Drivers/GD32F30x_standard_peripheral/Source/gd32f30x_can.c ****     }else{
 314:Drivers/GD32F30x_standard_peripheral/Source/gd32f30x_can.c ****         /* FIFO1 */
 315:Drivers/GD32F30x_standard_peripheral/Source/gd32f30x_can.c ****         CAN_FAFIFO(CAN0) |= (uint32_t)val;
 316:Drivers/GD32F30x_standard_peripheral/Source/gd32f30x_can.c ****     }
 317:Drivers/GD32F30x_standard_peripheral/Source/gd32f30x_can.c ****     
 318:Drivers/GD32F30x_standard_peripheral/Source/gd32f30x_can.c ****     /* filter working */
 319:Drivers/GD32F30x_standard_peripheral/Source/gd32f30x_can.c ****     if(ENABLE == can_filter_parameter_init->filter_enable){
 651              		.loc 1 319 5 is_stmt 1 view .LVU241
 652              		.loc 1 319 43 is_stmt 0 view .LVU242
 653 0098 027C     		ldrb	r2, [r0, #16]	@ zero_extendqisi2
 654              		.loc 1 319 7 view .LVU243
 655 009a 012A     		cmp	r2, #1
 656 009c 35D0     		beq	.L59
 657              	.LVL35:
 658              	.L56:
 320:Drivers/GD32F30x_standard_peripheral/Source/gd32f30x_can.c ****         
 321:Drivers/GD32F30x_standard_peripheral/Source/gd32f30x_can.c ****         CAN_FW(CAN0) |= (uint32_t)val;
ARM GAS  C:\Users\Prog\AppData\Local\Temp\ccu1v3Z3.s 			page 19


 322:Drivers/GD32F30x_standard_peripheral/Source/gd32f30x_can.c ****     }
 323:Drivers/GD32F30x_standard_peripheral/Source/gd32f30x_can.c ****     
 324:Drivers/GD32F30x_standard_peripheral/Source/gd32f30x_can.c ****     /* filter lock enable */
 325:Drivers/GD32F30x_standard_peripheral/Source/gd32f30x_can.c ****     CAN_FCTL(CAN0) &= ~CAN_FCTL_FLD;
 659              		.loc 1 325 5 is_stmt 1 view .LVU244
 660              		.loc 1 325 20 is_stmt 0 view .LVU245
 661 009e 1E4A     		ldr	r2, .L60
 662 00a0 D2F80036 		ldr	r3, [r2, #1536]
 663 00a4 23F00103 		bic	r3, r3, #1
 664 00a8 C2F80036 		str	r3, [r2, #1536]
 326:Drivers/GD32F30x_standard_peripheral/Source/gd32f30x_can.c **** }
 665              		.loc 1 326 1 view .LVU246
 666 00ac 5DF804FB 		ldr	pc, [sp], #4
 667              	.LVL36:
 668              	.L58:
 289:Drivers/GD32F30x_standard_peripheral/Source/gd32f30x_can.c ****         /* 32 bits list or first 32 bits list */
 669              		.loc 1 289 9 is_stmt 1 view .LVU247
 289:Drivers/GD32F30x_standard_peripheral/Source/gd32f30x_can.c ****         /* 32 bits list or first 32 bits list */
 670              		.loc 1 289 25 is_stmt 0 view .LVU248
 671 00b0 1949     		ldr	r1, .L60
 672 00b2 D1F80C26 		ldr	r2, [r1, #1548]
 673 00b6 1A43     		orrs	r2, r2, r3
 674 00b8 C1F80C26 		str	r2, [r1, #1548]
 291:Drivers/GD32F30x_standard_peripheral/Source/gd32f30x_can.c ****                                 FDATA_MASK_HIGH((can_filter_parameter_init->filter_list_high) & CAN
 675              		.loc 1 291 9 is_stmt 1 view .LVU249
 292:Drivers/GD32F30x_standard_peripheral/Source/gd32f30x_can.c ****                                 FDATA_MASK_LOW((can_filter_parameter_init->filter_list_low) & CAN_F
 676              		.loc 1 292 33 is_stmt 0 view .LVU250
 677 00bc B0F800E0 		ldrh	lr, [r0]
 293:Drivers/GD32F30x_standard_peripheral/Source/gd32f30x_can.c ****         /* 32 bits mask or second 32 bits list */
 678              		.loc 1 293 33 view .LVU251
 679 00c0 4188     		ldrh	r1, [r0, #2]
 291:Drivers/GD32F30x_standard_peripheral/Source/gd32f30x_can.c ****                                 FDATA_MASK_HIGH((can_filter_parameter_init->filter_list_high) & CAN
 680              		.loc 1 291 9 view .LVU252
 681 00c2 4289     		ldrh	r2, [r0, #10]
 682 00c4 02F10062 		add	r2, r2, #134217728
 683 00c8 02F6C842 		addw	r2, r2, #3272
 684 00cc D200     		lsls	r2, r2, #3
 292:Drivers/GD32F30x_standard_peripheral/Source/gd32f30x_can.c ****                                 FDATA_MASK_LOW((can_filter_parameter_init->filter_list_low) & CAN_F
 685              		.loc 1 292 121 view .LVU253
 686 00ce 41EA0E41 		orr	r1, r1, lr, lsl #16
 291:Drivers/GD32F30x_standard_peripheral/Source/gd32f30x_can.c ****                                 FDATA_MASK_HIGH((can_filter_parameter_init->filter_list_high) & CAN
 687              		.loc 1 291 68 view .LVU254
 688 00d2 1160     		str	r1, [r2]
 295:Drivers/GD32F30x_standard_peripheral/Source/gd32f30x_can.c ****                                 FDATA_MASK_HIGH((can_filter_parameter_init->filter_mask_high) & CAN
 689              		.loc 1 295 9 is_stmt 1 view .LVU255
 296:Drivers/GD32F30x_standard_peripheral/Source/gd32f30x_can.c ****                                 FDATA_MASK_LOW((can_filter_parameter_init->filter_mask_low) & CAN_F
 690              		.loc 1 296 33 is_stmt 0 view .LVU256
 691 00d4 B0F804E0 		ldrh	lr, [r0, #4]
 297:Drivers/GD32F30x_standard_peripheral/Source/gd32f30x_can.c ****     }
 692              		.loc 1 297 33 view .LVU257
 693 00d8 C188     		ldrh	r1, [r0, #6]
 295:Drivers/GD32F30x_standard_peripheral/Source/gd32f30x_can.c ****                                 FDATA_MASK_HIGH((can_filter_parameter_init->filter_mask_high) & CAN
 694              		.loc 1 295 9 view .LVU258
 695 00da 4289     		ldrh	r2, [r0, #10]
 696 00dc 02F10062 		add	r2, r2, #134217728
 697 00e0 02F6C842 		addw	r2, r2, #3272
 698 00e4 D200     		lsls	r2, r2, #3
ARM GAS  C:\Users\Prog\AppData\Local\Temp\ccu1v3Z3.s 			page 20


 296:Drivers/GD32F30x_standard_peripheral/Source/gd32f30x_can.c ****                                 FDATA_MASK_LOW((can_filter_parameter_init->filter_mask_low) & CAN_F
 699              		.loc 1 296 121 view .LVU259
 700 00e6 41EA0E41 		orr	r1, r1, lr, lsl #16
 295:Drivers/GD32F30x_standard_peripheral/Source/gd32f30x_can.c ****                                 FDATA_MASK_HIGH((can_filter_parameter_init->filter_mask_high) & CAN
 701              		.loc 1 295 68 view .LVU260
 702 00ea 5160     		str	r1, [r2, #4]
 703 00ec C0E7     		b	.L51
 704              	.L52:
 306:Drivers/GD32F30x_standard_peripheral/Source/gd32f30x_can.c ****     }
 705              		.loc 1 306 9 is_stmt 1 view .LVU261
 306:Drivers/GD32F30x_standard_peripheral/Source/gd32f30x_can.c ****     }
 706              		.loc 1 306 25 is_stmt 0 view .LVU262
 707 00ee 0A49     		ldr	r1, .L60
 708 00f0 D1F80426 		ldr	r2, [r1, #1540]
 709 00f4 1A43     		orrs	r2, r2, r3
 710 00f6 C1F80426 		str	r2, [r1, #1540]
 711 00fa C3E7     		b	.L53
 712              	.L54:
 315:Drivers/GD32F30x_standard_peripheral/Source/gd32f30x_can.c ****     }
 713              		.loc 1 315 9 is_stmt 1 view .LVU263
 315:Drivers/GD32F30x_standard_peripheral/Source/gd32f30x_can.c ****     }
 714              		.loc 1 315 26 is_stmt 0 view .LVU264
 715 00fc 0649     		ldr	r1, .L60
 716 00fe D1F81426 		ldr	r2, [r1, #1556]
 717 0102 1A43     		orrs	r2, r2, r3
 718 0104 C1F81426 		str	r2, [r1, #1556]
 719 0108 C6E7     		b	.L55
 720              	.L59:
 321:Drivers/GD32F30x_standard_peripheral/Source/gd32f30x_can.c ****     }
 721              		.loc 1 321 9 is_stmt 1 view .LVU265
 321:Drivers/GD32F30x_standard_peripheral/Source/gd32f30x_can.c ****     }
 722              		.loc 1 321 22 is_stmt 0 view .LVU266
 723 010a 0349     		ldr	r1, .L60
 724 010c D1F81C26 		ldr	r2, [r1, #1564]
 725 0110 1343     		orrs	r3, r3, r2
 726              	.LVL37:
 321:Drivers/GD32F30x_standard_peripheral/Source/gd32f30x_can.c ****     }
 727              		.loc 1 321 22 view .LVU267
 728 0112 C1F81C36 		str	r3, [r1, #1564]
 729 0116 C2E7     		b	.L56
 730              	.L61:
 731              		.align	2
 732              	.L60:
 733 0118 00600040 		.word	1073766400
 734              		.cfi_endproc
 735              	.LFE119:
 737              		.section	.text.can1_filter_start_bank,"ax",%progbits
 738              		.align	1
 739              		.global	can1_filter_start_bank
 740              		.syntax unified
 741              		.thumb
 742              		.thumb_func
 743              		.fpu fpv4-sp-d16
 745              	can1_filter_start_bank:
 746              	.LVL38:
 747              	.LFB120:
 327:Drivers/GD32F30x_standard_peripheral/Source/gd32f30x_can.c **** 
ARM GAS  C:\Users\Prog\AppData\Local\Temp\ccu1v3Z3.s 			page 21


 328:Drivers/GD32F30x_standard_peripheral/Source/gd32f30x_can.c **** /*!
 329:Drivers/GD32F30x_standard_peripheral/Source/gd32f30x_can.c ****     \brief      set CAN1 fliter start bank number
 330:Drivers/GD32F30x_standard_peripheral/Source/gd32f30x_can.c ****     \param[in]  start_bank: CAN1 start bank number
 331:Drivers/GD32F30x_standard_peripheral/Source/gd32f30x_can.c ****                 only one parameter can be selected which is shown as below:
 332:Drivers/GD32F30x_standard_peripheral/Source/gd32f30x_can.c ****       \arg        (1..27)
 333:Drivers/GD32F30x_standard_peripheral/Source/gd32f30x_can.c ****     \param[out] none
 334:Drivers/GD32F30x_standard_peripheral/Source/gd32f30x_can.c ****     \retval     none
 335:Drivers/GD32F30x_standard_peripheral/Source/gd32f30x_can.c **** */
 336:Drivers/GD32F30x_standard_peripheral/Source/gd32f30x_can.c **** void can1_filter_start_bank(uint8_t start_bank)
 337:Drivers/GD32F30x_standard_peripheral/Source/gd32f30x_can.c **** {
 748              		.loc 1 337 1 is_stmt 1 view -0
 749              		.cfi_startproc
 750              		@ args = 0, pretend = 0, frame = 0
 751              		@ frame_needed = 0, uses_anonymous_args = 0
 752              		@ link register save eliminated.
 338:Drivers/GD32F30x_standard_peripheral/Source/gd32f30x_can.c ****     /* filter lock disable */
 339:Drivers/GD32F30x_standard_peripheral/Source/gd32f30x_can.c ****     CAN_FCTL(CAN0) |= CAN_FCTL_FLD;
 753              		.loc 1 339 5 view .LVU269
 754              		.loc 1 339 20 is_stmt 0 view .LVU270
 755 0000 0D4B     		ldr	r3, .L63
 756 0002 D3F80026 		ldr	r2, [r3, #1536]
 757 0006 42F00102 		orr	r2, r2, #1
 758 000a C3F80026 		str	r2, [r3, #1536]
 340:Drivers/GD32F30x_standard_peripheral/Source/gd32f30x_can.c ****     /* set CAN1 filter start number */
 341:Drivers/GD32F30x_standard_peripheral/Source/gd32f30x_can.c ****     CAN_FCTL(CAN0) &= ~(uint32_t)CAN_FCTL_HBC1F;
 759              		.loc 1 341 5 is_stmt 1 view .LVU271
 760              		.loc 1 341 20 is_stmt 0 view .LVU272
 761 000e D3F80026 		ldr	r2, [r3, #1536]
 762 0012 22F47C52 		bic	r2, r2, #16128
 763 0016 C3F80026 		str	r2, [r3, #1536]
 342:Drivers/GD32F30x_standard_peripheral/Source/gd32f30x_can.c ****     CAN_FCTL(CAN0) |= FCTL_HBC1F(start_bank);
 764              		.loc 1 342 5 is_stmt 1 view .LVU273
 765              		.loc 1 342 20 is_stmt 0 view .LVU274
 766 001a D3F80026 		ldr	r2, [r3, #1536]
 767              		.loc 1 342 23 view .LVU275
 768 001e 0002     		lsls	r0, r0, #8
 769              	.LVL39:
 770              		.loc 1 342 23 view .LVU276
 771 0020 00F47C50 		and	r0, r0, #16128
 772              		.loc 1 342 20 view .LVU277
 773 0024 1043     		orrs	r0, r0, r2
 774 0026 C3F80006 		str	r0, [r3, #1536]
 343:Drivers/GD32F30x_standard_peripheral/Source/gd32f30x_can.c ****     /* filter lock enaable */
 344:Drivers/GD32F30x_standard_peripheral/Source/gd32f30x_can.c ****     CAN_FCTL(CAN0) &= ~CAN_FCTL_FLD;
 775              		.loc 1 344 5 is_stmt 1 view .LVU278
 776              		.loc 1 344 20 is_stmt 0 view .LVU279
 777 002a D3F80026 		ldr	r2, [r3, #1536]
 778 002e 22F00102 		bic	r2, r2, #1
 779 0032 C3F80026 		str	r2, [r3, #1536]
 345:Drivers/GD32F30x_standard_peripheral/Source/gd32f30x_can.c **** }
 780              		.loc 1 345 1 view .LVU280
 781 0036 7047     		bx	lr
 782              	.L64:
 783              		.align	2
 784              	.L63:
 785 0038 00600040 		.word	1073766400
 786              		.cfi_endproc
ARM GAS  C:\Users\Prog\AppData\Local\Temp\ccu1v3Z3.s 			page 22


 787              	.LFE120:
 789              		.section	.text.can_debug_freeze_enable,"ax",%progbits
 790              		.align	1
 791              		.global	can_debug_freeze_enable
 792              		.syntax unified
 793              		.thumb
 794              		.thumb_func
 795              		.fpu fpv4-sp-d16
 797              	can_debug_freeze_enable:
 798              	.LVL40:
 799              	.LFB121:
 346:Drivers/GD32F30x_standard_peripheral/Source/gd32f30x_can.c **** 
 347:Drivers/GD32F30x_standard_peripheral/Source/gd32f30x_can.c **** /*!
 348:Drivers/GD32F30x_standard_peripheral/Source/gd32f30x_can.c ****     \brief      enable CAN debug freeze
 349:Drivers/GD32F30x_standard_peripheral/Source/gd32f30x_can.c ****     \param[in]  can_periph
 350:Drivers/GD32F30x_standard_peripheral/Source/gd32f30x_can.c ****       \arg        CANx(x=0,1),the CAN1 only for GD32F30X_CL 
 351:Drivers/GD32F30x_standard_peripheral/Source/gd32f30x_can.c ****     \param[out] none
 352:Drivers/GD32F30x_standard_peripheral/Source/gd32f30x_can.c ****     \retval     none
 353:Drivers/GD32F30x_standard_peripheral/Source/gd32f30x_can.c **** */
 354:Drivers/GD32F30x_standard_peripheral/Source/gd32f30x_can.c **** void can_debug_freeze_enable(uint32_t can_periph)
 355:Drivers/GD32F30x_standard_peripheral/Source/gd32f30x_can.c **** {
 800              		.loc 1 355 1 is_stmt 1 view -0
 801              		.cfi_startproc
 802              		@ args = 0, pretend = 0, frame = 0
 803              		@ frame_needed = 0, uses_anonymous_args = 0
 804              		.loc 1 355 1 is_stmt 0 view .LVU282
 805 0000 08B5     		push	{r3, lr}
 806              	.LCFI2:
 807              		.cfi_def_cfa_offset 8
 808              		.cfi_offset 3, -8
 809              		.cfi_offset 14, -4
 356:Drivers/GD32F30x_standard_peripheral/Source/gd32f30x_can.c ****     CAN_CTL(can_periph) |= CAN_CTL_DFZ;
 810              		.loc 1 356 5 is_stmt 1 view .LVU283
 811              		.loc 1 356 25 is_stmt 0 view .LVU284
 812 0002 0368     		ldr	r3, [r0]
 813 0004 43F48033 		orr	r3, r3, #65536
 814 0008 0360     		str	r3, [r0]
 357:Drivers/GD32F30x_standard_peripheral/Source/gd32f30x_can.c **** #ifdef GD32F30X_CL
 358:Drivers/GD32F30x_standard_peripheral/Source/gd32f30x_can.c ****     if(CAN0 == can_periph){
 359:Drivers/GD32F30x_standard_peripheral/Source/gd32f30x_can.c ****         dbg_periph_enable(DBG_CAN0_HOLD);
 360:Drivers/GD32F30x_standard_peripheral/Source/gd32f30x_can.c ****     }else{
 361:Drivers/GD32F30x_standard_peripheral/Source/gd32f30x_can.c ****         dbg_periph_enable(DBG_CAN1_HOLD);
 362:Drivers/GD32F30x_standard_peripheral/Source/gd32f30x_can.c ****     }
 363:Drivers/GD32F30x_standard_peripheral/Source/gd32f30x_can.c **** #else
 364:Drivers/GD32F30x_standard_peripheral/Source/gd32f30x_can.c ****     if(CAN0 == can_periph){
 815              		.loc 1 364 5 is_stmt 1 view .LVU285
 816              		.loc 1 364 7 is_stmt 0 view .LVU286
 817 000a 044B     		ldr	r3, .L69
 818 000c 9842     		cmp	r0, r3
 819 000e 00D0     		beq	.L68
 820              	.LVL41:
 821              	.L65:
 365:Drivers/GD32F30x_standard_peripheral/Source/gd32f30x_can.c ****         dbg_periph_enable(DBG_CAN0_HOLD);
 366:Drivers/GD32F30x_standard_peripheral/Source/gd32f30x_can.c ****     }
 367:Drivers/GD32F30x_standard_peripheral/Source/gd32f30x_can.c **** #endif
 368:Drivers/GD32F30x_standard_peripheral/Source/gd32f30x_can.c **** }
 822              		.loc 1 368 1 view .LVU287
ARM GAS  C:\Users\Prog\AppData\Local\Temp\ccu1v3Z3.s 			page 23


 823 0010 08BD     		pop	{r3, pc}
 824              	.LVL42:
 825              	.L68:
 365:Drivers/GD32F30x_standard_peripheral/Source/gd32f30x_can.c ****         dbg_periph_enable(DBG_CAN0_HOLD);
 826              		.loc 1 365 9 is_stmt 1 view .LVU288
 827 0012 4FF48770 		mov	r0, #270
 828              	.LVL43:
 365:Drivers/GD32F30x_standard_peripheral/Source/gd32f30x_can.c ****         dbg_periph_enable(DBG_CAN0_HOLD);
 829              		.loc 1 365 9 is_stmt 0 view .LVU289
 830 0016 FFF7FEFF 		bl	dbg_periph_enable
 831              	.LVL44:
 832              		.loc 1 368 1 view .LVU290
 833 001a F9E7     		b	.L65
 834              	.L70:
 835              		.align	2
 836              	.L69:
 837 001c 00640040 		.word	1073767424
 838              		.cfi_endproc
 839              	.LFE121:
 841              		.section	.text.can_debug_freeze_disable,"ax",%progbits
 842              		.align	1
 843              		.global	can_debug_freeze_disable
 844              		.syntax unified
 845              		.thumb
 846              		.thumb_func
 847              		.fpu fpv4-sp-d16
 849              	can_debug_freeze_disable:
 850              	.LVL45:
 851              	.LFB122:
 369:Drivers/GD32F30x_standard_peripheral/Source/gd32f30x_can.c **** 
 370:Drivers/GD32F30x_standard_peripheral/Source/gd32f30x_can.c **** /*!
 371:Drivers/GD32F30x_standard_peripheral/Source/gd32f30x_can.c ****     \brief      disable CAN debug freeze
 372:Drivers/GD32F30x_standard_peripheral/Source/gd32f30x_can.c ****     \param[in]  can_periph
 373:Drivers/GD32F30x_standard_peripheral/Source/gd32f30x_can.c ****       \arg        CANx(x=0,1),the CAN1 only for GD32F30X_CL 
 374:Drivers/GD32F30x_standard_peripheral/Source/gd32f30x_can.c ****     \param[out] none
 375:Drivers/GD32F30x_standard_peripheral/Source/gd32f30x_can.c ****     \retval     none
 376:Drivers/GD32F30x_standard_peripheral/Source/gd32f30x_can.c **** */
 377:Drivers/GD32F30x_standard_peripheral/Source/gd32f30x_can.c **** void can_debug_freeze_disable(uint32_t can_periph)
 378:Drivers/GD32F30x_standard_peripheral/Source/gd32f30x_can.c **** {
 852              		.loc 1 378 1 is_stmt 1 view -0
 853              		.cfi_startproc
 854              		@ args = 0, pretend = 0, frame = 0
 855              		@ frame_needed = 0, uses_anonymous_args = 0
 856              		.loc 1 378 1 is_stmt 0 view .LVU292
 857 0000 08B5     		push	{r3, lr}
 858              	.LCFI3:
 859              		.cfi_def_cfa_offset 8
 860              		.cfi_offset 3, -8
 861              		.cfi_offset 14, -4
 379:Drivers/GD32F30x_standard_peripheral/Source/gd32f30x_can.c ****     CAN_CTL(can_periph) &= ~CAN_CTL_DFZ;
 862              		.loc 1 379 5 is_stmt 1 view .LVU293
 863              		.loc 1 379 25 is_stmt 0 view .LVU294
 864 0002 0368     		ldr	r3, [r0]
 865 0004 23F48033 		bic	r3, r3, #65536
 866 0008 0360     		str	r3, [r0]
 380:Drivers/GD32F30x_standard_peripheral/Source/gd32f30x_can.c **** #ifdef GD32F30X_CL
 381:Drivers/GD32F30x_standard_peripheral/Source/gd32f30x_can.c ****     if(CAN0 == can_periph){
ARM GAS  C:\Users\Prog\AppData\Local\Temp\ccu1v3Z3.s 			page 24


 382:Drivers/GD32F30x_standard_peripheral/Source/gd32f30x_can.c ****         dbg_periph_disable(DBG_CAN0_HOLD);
 383:Drivers/GD32F30x_standard_peripheral/Source/gd32f30x_can.c ****     }else{
 384:Drivers/GD32F30x_standard_peripheral/Source/gd32f30x_can.c ****         dbg_periph_disable(DBG_CAN1_HOLD);
 385:Drivers/GD32F30x_standard_peripheral/Source/gd32f30x_can.c ****     }
 386:Drivers/GD32F30x_standard_peripheral/Source/gd32f30x_can.c **** #else
 387:Drivers/GD32F30x_standard_peripheral/Source/gd32f30x_can.c ****     if(CAN0 == can_periph){
 867              		.loc 1 387 5 is_stmt 1 view .LVU295
 868              		.loc 1 387 7 is_stmt 0 view .LVU296
 869 000a 044B     		ldr	r3, .L75
 870 000c 9842     		cmp	r0, r3
 871 000e 00D0     		beq	.L74
 872              	.LVL46:
 873              	.L71:
 388:Drivers/GD32F30x_standard_peripheral/Source/gd32f30x_can.c ****         dbg_periph_enable(DBG_CAN0_HOLD);
 389:Drivers/GD32F30x_standard_peripheral/Source/gd32f30x_can.c ****     }
 390:Drivers/GD32F30x_standard_peripheral/Source/gd32f30x_can.c **** #endif
 391:Drivers/GD32F30x_standard_peripheral/Source/gd32f30x_can.c **** }
 874              		.loc 1 391 1 view .LVU297
 875 0010 08BD     		pop	{r3, pc}
 876              	.LVL47:
 877              	.L74:
 388:Drivers/GD32F30x_standard_peripheral/Source/gd32f30x_can.c ****         dbg_periph_enable(DBG_CAN0_HOLD);
 878              		.loc 1 388 9 is_stmt 1 view .LVU298
 879 0012 4FF48770 		mov	r0, #270
 880              	.LVL48:
 388:Drivers/GD32F30x_standard_peripheral/Source/gd32f30x_can.c ****         dbg_periph_enable(DBG_CAN0_HOLD);
 881              		.loc 1 388 9 is_stmt 0 view .LVU299
 882 0016 FFF7FEFF 		bl	dbg_periph_enable
 883              	.LVL49:
 884              		.loc 1 391 1 view .LVU300
 885 001a F9E7     		b	.L71
 886              	.L76:
 887              		.align	2
 888              	.L75:
 889 001c 00640040 		.word	1073767424
 890              		.cfi_endproc
 891              	.LFE122:
 893              		.section	.text.can_time_trigger_mode_enable,"ax",%progbits
 894              		.align	1
 895              		.global	can_time_trigger_mode_enable
 896              		.syntax unified
 897              		.thumb
 898              		.thumb_func
 899              		.fpu fpv4-sp-d16
 901              	can_time_trigger_mode_enable:
 902              	.LVL50:
 903              	.LFB123:
 392:Drivers/GD32F30x_standard_peripheral/Source/gd32f30x_can.c **** 
 393:Drivers/GD32F30x_standard_peripheral/Source/gd32f30x_can.c **** /*!
 394:Drivers/GD32F30x_standard_peripheral/Source/gd32f30x_can.c ****     \brief      enable CAN time trigger mode
 395:Drivers/GD32F30x_standard_peripheral/Source/gd32f30x_can.c ****     \param[in]  can_periph
 396:Drivers/GD32F30x_standard_peripheral/Source/gd32f30x_can.c ****       \arg        CANx(x=0,1),the CAN1 only for GD32F30X_CL 
 397:Drivers/GD32F30x_standard_peripheral/Source/gd32f30x_can.c ****     \param[out] none
 398:Drivers/GD32F30x_standard_peripheral/Source/gd32f30x_can.c ****     \retval     none
 399:Drivers/GD32F30x_standard_peripheral/Source/gd32f30x_can.c **** */
 400:Drivers/GD32F30x_standard_peripheral/Source/gd32f30x_can.c **** void can_time_trigger_mode_enable(uint32_t can_periph)
 401:Drivers/GD32F30x_standard_peripheral/Source/gd32f30x_can.c **** {
ARM GAS  C:\Users\Prog\AppData\Local\Temp\ccu1v3Z3.s 			page 25


 904              		.loc 1 401 1 is_stmt 1 view -0
 905              		.cfi_startproc
 906              		@ args = 0, pretend = 0, frame = 0
 907              		@ frame_needed = 0, uses_anonymous_args = 0
 908              		@ link register save eliminated.
 402:Drivers/GD32F30x_standard_peripheral/Source/gd32f30x_can.c ****     uint8_t mailbox_number;
 909              		.loc 1 402 5 view .LVU302
 403:Drivers/GD32F30x_standard_peripheral/Source/gd32f30x_can.c ****     
 404:Drivers/GD32F30x_standard_peripheral/Source/gd32f30x_can.c ****     /* enable the tcc mode */
 405:Drivers/GD32F30x_standard_peripheral/Source/gd32f30x_can.c ****     CAN_CTL(can_periph) |= CAN_CTL_TTC;
 910              		.loc 1 405 5 view .LVU303
 911              		.loc 1 405 25 is_stmt 0 view .LVU304
 912 0000 0368     		ldr	r3, [r0]
 913 0002 43F08003 		orr	r3, r3, #128
 914 0006 0360     		str	r3, [r0]
 406:Drivers/GD32F30x_standard_peripheral/Source/gd32f30x_can.c ****     /* enable time stamp */
 407:Drivers/GD32F30x_standard_peripheral/Source/gd32f30x_can.c ****     for(mailbox_number = 0U; mailbox_number < 3U; mailbox_number++){
 915              		.loc 1 407 5 is_stmt 1 view .LVU305
 916              	.LVL51:
 917              		.loc 1 407 24 is_stmt 0 view .LVU306
 918 0008 0023     		movs	r3, #0
 919              		.loc 1 407 5 view .LVU307
 920 000a 09E0     		b	.L78
 921              	.LVL52:
 922              	.L79:
 408:Drivers/GD32F30x_standard_peripheral/Source/gd32f30x_can.c ****         CAN_TMP(can_periph, mailbox_number) |= CAN_TMP_TSEN;
 923              		.loc 1 408 9 is_stmt 1 discriminator 3 view .LVU308
 924              		.loc 1 408 45 is_stmt 0 discriminator 3 view .LVU309
 925 000c 00EB0311 		add	r1, r0, r3, lsl #4
 926 0010 D1F88421 		ldr	r2, [r1, #388]
 927 0014 42F48072 		orr	r2, r2, #256
 928 0018 C1F88421 		str	r2, [r1, #388]
 407:Drivers/GD32F30x_standard_peripheral/Source/gd32f30x_can.c ****         CAN_TMP(can_periph, mailbox_number) |= CAN_TMP_TSEN;
 929              		.loc 1 407 51 is_stmt 1 discriminator 3 view .LVU310
 407:Drivers/GD32F30x_standard_peripheral/Source/gd32f30x_can.c ****         CAN_TMP(can_periph, mailbox_number) |= CAN_TMP_TSEN;
 930              		.loc 1 407 65 is_stmt 0 discriminator 3 view .LVU311
 931 001c 0133     		adds	r3, r3, #1
 932              	.LVL53:
 407:Drivers/GD32F30x_standard_peripheral/Source/gd32f30x_can.c ****         CAN_TMP(can_periph, mailbox_number) |= CAN_TMP_TSEN;
 933              		.loc 1 407 65 discriminator 3 view .LVU312
 934 001e DBB2     		uxtb	r3, r3
 935              	.LVL54:
 936              	.L78:
 407:Drivers/GD32F30x_standard_peripheral/Source/gd32f30x_can.c ****         CAN_TMP(can_periph, mailbox_number) |= CAN_TMP_TSEN;
 937              		.loc 1 407 30 is_stmt 1 discriminator 1 view .LVU313
 407:Drivers/GD32F30x_standard_peripheral/Source/gd32f30x_can.c ****         CAN_TMP(can_periph, mailbox_number) |= CAN_TMP_TSEN;
 938              		.loc 1 407 5 is_stmt 0 discriminator 1 view .LVU314
 939 0020 022B     		cmp	r3, #2
 940 0022 F3D9     		bls	.L79
 409:Drivers/GD32F30x_standard_peripheral/Source/gd32f30x_can.c ****     }
 410:Drivers/GD32F30x_standard_peripheral/Source/gd32f30x_can.c **** }
 941              		.loc 1 410 1 view .LVU315
 942 0024 7047     		bx	lr
 943              		.cfi_endproc
 944              	.LFE123:
 946              		.section	.text.can_time_trigger_mode_disable,"ax",%progbits
 947              		.align	1
ARM GAS  C:\Users\Prog\AppData\Local\Temp\ccu1v3Z3.s 			page 26


 948              		.global	can_time_trigger_mode_disable
 949              		.syntax unified
 950              		.thumb
 951              		.thumb_func
 952              		.fpu fpv4-sp-d16
 954              	can_time_trigger_mode_disable:
 955              	.LVL55:
 956              	.LFB124:
 411:Drivers/GD32F30x_standard_peripheral/Source/gd32f30x_can.c **** 
 412:Drivers/GD32F30x_standard_peripheral/Source/gd32f30x_can.c **** /*!
 413:Drivers/GD32F30x_standard_peripheral/Source/gd32f30x_can.c ****     \brief      disable CAN time trigger mode
 414:Drivers/GD32F30x_standard_peripheral/Source/gd32f30x_can.c ****     \param[in]  can_periph
 415:Drivers/GD32F30x_standard_peripheral/Source/gd32f30x_can.c ****       \arg        CANx(x=0,1),the CAN1 only for GD32F30X_CL 
 416:Drivers/GD32F30x_standard_peripheral/Source/gd32f30x_can.c ****     \param[out] none
 417:Drivers/GD32F30x_standard_peripheral/Source/gd32f30x_can.c ****     \retval     none
 418:Drivers/GD32F30x_standard_peripheral/Source/gd32f30x_can.c **** */
 419:Drivers/GD32F30x_standard_peripheral/Source/gd32f30x_can.c **** void can_time_trigger_mode_disable(uint32_t can_periph)
 420:Drivers/GD32F30x_standard_peripheral/Source/gd32f30x_can.c **** {
 957              		.loc 1 420 1 is_stmt 1 view -0
 958              		.cfi_startproc
 959              		@ args = 0, pretend = 0, frame = 0
 960              		@ frame_needed = 0, uses_anonymous_args = 0
 961              		@ link register save eliminated.
 421:Drivers/GD32F30x_standard_peripheral/Source/gd32f30x_can.c ****     uint8_t mailbox_number; 
 962              		.loc 1 421 5 view .LVU317
 422:Drivers/GD32F30x_standard_peripheral/Source/gd32f30x_can.c ****     
 423:Drivers/GD32F30x_standard_peripheral/Source/gd32f30x_can.c ****     /* disable the TCC mode */
 424:Drivers/GD32F30x_standard_peripheral/Source/gd32f30x_can.c ****     CAN_CTL(can_periph) &= ~CAN_CTL_TTC;
 963              		.loc 1 424 5 view .LVU318
 964              		.loc 1 424 25 is_stmt 0 view .LVU319
 965 0000 0368     		ldr	r3, [r0]
 966 0002 23F08003 		bic	r3, r3, #128
 967 0006 0360     		str	r3, [r0]
 425:Drivers/GD32F30x_standard_peripheral/Source/gd32f30x_can.c ****     /* reset TSEN bits */
 426:Drivers/GD32F30x_standard_peripheral/Source/gd32f30x_can.c ****     for(mailbox_number = 0U; mailbox_number < 3U; mailbox_number++){
 968              		.loc 1 426 5 is_stmt 1 view .LVU320
 969              	.LVL56:
 970              		.loc 1 426 24 is_stmt 0 view .LVU321
 971 0008 0023     		movs	r3, #0
 972              		.loc 1 426 5 view .LVU322
 973 000a 09E0     		b	.L81
 974              	.LVL57:
 975              	.L82:
 427:Drivers/GD32F30x_standard_peripheral/Source/gd32f30x_can.c ****         CAN_TMP(can_periph, mailbox_number) &= ~CAN_TMP_TSEN;
 976              		.loc 1 427 9 is_stmt 1 discriminator 3 view .LVU323
 977              		.loc 1 427 45 is_stmt 0 discriminator 3 view .LVU324
 978 000c 00EB0311 		add	r1, r0, r3, lsl #4
 979 0010 D1F88421 		ldr	r2, [r1, #388]
 980 0014 22F48072 		bic	r2, r2, #256
 981 0018 C1F88421 		str	r2, [r1, #388]
 426:Drivers/GD32F30x_standard_peripheral/Source/gd32f30x_can.c ****         CAN_TMP(can_periph, mailbox_number) &= ~CAN_TMP_TSEN;
 982              		.loc 1 426 51 is_stmt 1 discriminator 3 view .LVU325
 426:Drivers/GD32F30x_standard_peripheral/Source/gd32f30x_can.c ****         CAN_TMP(can_periph, mailbox_number) &= ~CAN_TMP_TSEN;
 983              		.loc 1 426 65 is_stmt 0 discriminator 3 view .LVU326
 984 001c 0133     		adds	r3, r3, #1
 985              	.LVL58:
 426:Drivers/GD32F30x_standard_peripheral/Source/gd32f30x_can.c ****         CAN_TMP(can_periph, mailbox_number) &= ~CAN_TMP_TSEN;
ARM GAS  C:\Users\Prog\AppData\Local\Temp\ccu1v3Z3.s 			page 27


 986              		.loc 1 426 65 discriminator 3 view .LVU327
 987 001e DBB2     		uxtb	r3, r3
 988              	.LVL59:
 989              	.L81:
 426:Drivers/GD32F30x_standard_peripheral/Source/gd32f30x_can.c ****         CAN_TMP(can_periph, mailbox_number) &= ~CAN_TMP_TSEN;
 990              		.loc 1 426 30 is_stmt 1 discriminator 1 view .LVU328
 426:Drivers/GD32F30x_standard_peripheral/Source/gd32f30x_can.c ****         CAN_TMP(can_periph, mailbox_number) &= ~CAN_TMP_TSEN;
 991              		.loc 1 426 5 is_stmt 0 discriminator 1 view .LVU329
 992 0020 022B     		cmp	r3, #2
 993 0022 F3D9     		bls	.L82
 428:Drivers/GD32F30x_standard_peripheral/Source/gd32f30x_can.c ****     }
 429:Drivers/GD32F30x_standard_peripheral/Source/gd32f30x_can.c **** }
 994              		.loc 1 429 1 view .LVU330
 995 0024 7047     		bx	lr
 996              		.cfi_endproc
 997              	.LFE124:
 999              		.section	.text.can_message_transmit,"ax",%progbits
 1000              		.align	1
 1001              		.global	can_message_transmit
 1002              		.syntax unified
 1003              		.thumb
 1004              		.thumb_func
 1005              		.fpu fpv4-sp-d16
 1007              	can_message_transmit:
 1008              	.LVL60:
 1009              	.LFB125:
 430:Drivers/GD32F30x_standard_peripheral/Source/gd32f30x_can.c **** 
 431:Drivers/GD32F30x_standard_peripheral/Source/gd32f30x_can.c **** /*!
 432:Drivers/GD32F30x_standard_peripheral/Source/gd32f30x_can.c ****     \brief       transmit CAN message
 433:Drivers/GD32F30x_standard_peripheral/Source/gd32f30x_can.c ****     \param[in]  can_periph
 434:Drivers/GD32F30x_standard_peripheral/Source/gd32f30x_can.c ****       \arg        CANx(x=0,1),the CAN1 only for GD32F30X_CL 
 435:Drivers/GD32F30x_standard_peripheral/Source/gd32f30x_can.c ****     \param[in]  transmit_message: struct for CAN transmit message
 436:Drivers/GD32F30x_standard_peripheral/Source/gd32f30x_can.c ****       \arg        tx_sfid: 0x00000000 - 0x000007FF
 437:Drivers/GD32F30x_standard_peripheral/Source/gd32f30x_can.c ****       \arg        tx_efid: 0x00000000 - 0x1FFFFFFF
 438:Drivers/GD32F30x_standard_peripheral/Source/gd32f30x_can.c ****       \arg        tx_ff: CAN_FF_STANDARD, CAN_FF_EXTENDED
 439:Drivers/GD32F30x_standard_peripheral/Source/gd32f30x_can.c ****       \arg        tx_ft: CAN_FT_DATA, CAN_FT_REMOTE
 440:Drivers/GD32F30x_standard_peripheral/Source/gd32f30x_can.c ****       \arg        tx_dlen: 0 - 8
 441:Drivers/GD32F30x_standard_peripheral/Source/gd32f30x_can.c ****       \arg        tx_data[]: 0x00 - 0xFF
 442:Drivers/GD32F30x_standard_peripheral/Source/gd32f30x_can.c ****     \param[out] none
 443:Drivers/GD32F30x_standard_peripheral/Source/gd32f30x_can.c ****     \retval     mailbox_number
 444:Drivers/GD32F30x_standard_peripheral/Source/gd32f30x_can.c **** */
 445:Drivers/GD32F30x_standard_peripheral/Source/gd32f30x_can.c **** uint8_t can_message_transmit(uint32_t can_periph, can_trasnmit_message_struct* transmit_message)
 446:Drivers/GD32F30x_standard_peripheral/Source/gd32f30x_can.c **** {
 1010              		.loc 1 446 1 is_stmt 1 view -0
 1011              		.cfi_startproc
 1012              		@ args = 0, pretend = 0, frame = 0
 1013              		@ frame_needed = 0, uses_anonymous_args = 0
 1014              		@ link register save eliminated.
 1015              		.loc 1 446 1 is_stmt 0 view .LVU332
 1016 0000 0346     		mov	r3, r0
 447:Drivers/GD32F30x_standard_peripheral/Source/gd32f30x_can.c ****     uint8_t mailbox_number = CAN_MAILBOX0;
 1017              		.loc 1 447 5 is_stmt 1 view .LVU333
 1018              	.LVL61:
 448:Drivers/GD32F30x_standard_peripheral/Source/gd32f30x_can.c **** 
 449:Drivers/GD32F30x_standard_peripheral/Source/gd32f30x_can.c ****     /* select one empty mailbox */
 450:Drivers/GD32F30x_standard_peripheral/Source/gd32f30x_can.c ****     if(CAN_TSTAT_TME0 == (CAN_TSTAT(can_periph)&CAN_TSTAT_TME0)){
 1019              		.loc 1 450 5 view .LVU334
ARM GAS  C:\Users\Prog\AppData\Local\Temp\ccu1v3Z3.s 			page 28


 1020              		.loc 1 450 27 is_stmt 0 view .LVU335
 1021 0002 8268     		ldr	r2, [r0, #8]
 1022              		.loc 1 450 7 view .LVU336
 1023 0004 12F0806F 		tst	r2, #67108864
 1024 0008 09D1     		bne	.L88
 451:Drivers/GD32F30x_standard_peripheral/Source/gd32f30x_can.c ****         mailbox_number = CAN_MAILBOX0;
 452:Drivers/GD32F30x_standard_peripheral/Source/gd32f30x_can.c ****     }else if(CAN_TSTAT_TME1 == (CAN_TSTAT(can_periph)&CAN_TSTAT_TME1)){
 1025              		.loc 1 452 11 is_stmt 1 view .LVU337
 1026              		.loc 1 452 33 is_stmt 0 view .LVU338
 1027 000a 8268     		ldr	r2, [r0, #8]
 1028              		.loc 1 452 13 view .LVU339
 1029 000c 12F0006F 		tst	r2, #134217728
 1030 0010 4FD1     		bne	.L89
 453:Drivers/GD32F30x_standard_peripheral/Source/gd32f30x_can.c ****         mailbox_number = CAN_MAILBOX1;
 454:Drivers/GD32F30x_standard_peripheral/Source/gd32f30x_can.c ****     }else if(CAN_TSTAT_TME2 == (CAN_TSTAT(can_periph)&CAN_TSTAT_TME2)){
 1031              		.loc 1 454 11 is_stmt 1 view .LVU340
 1032              		.loc 1 454 33 is_stmt 0 view .LVU341
 1033 0012 8268     		ldr	r2, [r0, #8]
 1034              		.loc 1 454 13 view .LVU342
 1035 0014 12F0805F 		tst	r2, #268435456
 1036 0018 5AD0     		beq	.L90
 455:Drivers/GD32F30x_standard_peripheral/Source/gd32f30x_can.c ****         mailbox_number = CAN_MAILBOX2;
 1037              		.loc 1 455 24 view .LVU343
 1038 001a 0220     		movs	r0, #2
 1039              	.LVL62:
 1040              		.loc 1 455 24 view .LVU344
 1041 001c 00E0     		b	.L84
 1042              	.LVL63:
 1043              	.L88:
 451:Drivers/GD32F30x_standard_peripheral/Source/gd32f30x_can.c ****         mailbox_number = CAN_MAILBOX0;
 1044              		.loc 1 451 24 view .LVU345
 1045 001e 0020     		movs	r0, #0
 1046              	.LVL64:
 1047              	.L84:
 446:Drivers/GD32F30x_standard_peripheral/Source/gd32f30x_can.c ****     uint8_t mailbox_number = CAN_MAILBOX0;
 1048              		.loc 1 446 1 view .LVU346
 1049 0020 30B4     		push	{r4, r5}
 1050              	.LCFI4:
 1051              		.cfi_def_cfa_offset 8
 1052              		.cfi_offset 4, -8
 1053              		.cfi_offset 5, -4
 1054              	.LVL65:
 456:Drivers/GD32F30x_standard_peripheral/Source/gd32f30x_can.c ****     }else{
 457:Drivers/GD32F30x_standard_peripheral/Source/gd32f30x_can.c ****         mailbox_number = CAN_NOMAILBOX;
 458:Drivers/GD32F30x_standard_peripheral/Source/gd32f30x_can.c ****     }
 459:Drivers/GD32F30x_standard_peripheral/Source/gd32f30x_can.c ****     /* return no mailbox empty */
 460:Drivers/GD32F30x_standard_peripheral/Source/gd32f30x_can.c ****     if(CAN_NOMAILBOX == mailbox_number){
 461:Drivers/GD32F30x_standard_peripheral/Source/gd32f30x_can.c ****         return CAN_NOMAILBOX;
 462:Drivers/GD32F30x_standard_peripheral/Source/gd32f30x_can.c ****     }
 463:Drivers/GD32F30x_standard_peripheral/Source/gd32f30x_can.c ****     
 464:Drivers/GD32F30x_standard_peripheral/Source/gd32f30x_can.c ****     CAN_TMI(can_periph, mailbox_number) &= CAN_TMI_TEN;
 1055              		.loc 1 464 5 is_stmt 1 view .LVU347
 1056              		.loc 1 464 41 is_stmt 0 view .LVU348
 1057 0022 03EB0013 		add	r3, r3, r0, lsl #4
 1058              	.LVL66:
 1059              		.loc 1 464 41 view .LVU349
 1060 0026 D3F88021 		ldr	r2, [r3, #384]
ARM GAS  C:\Users\Prog\AppData\Local\Temp\ccu1v3Z3.s 			page 29


 1061 002a 02F00102 		and	r2, r2, #1
 1062 002e C3F88021 		str	r2, [r3, #384]
 465:Drivers/GD32F30x_standard_peripheral/Source/gd32f30x_can.c ****     if(CAN_FF_STANDARD == transmit_message->tx_ff){
 1063              		.loc 1 465 5 is_stmt 1 view .LVU350
 1064              		.loc 1 465 43 is_stmt 0 view .LVU351
 1065 0032 0A7A     		ldrb	r2, [r1, #8]	@ zero_extendqisi2
 1066              		.loc 1 465 7 view .LVU352
 1067 0034 002A     		cmp	r2, #0
 1068 0036 3ED1     		bne	.L86
 466:Drivers/GD32F30x_standard_peripheral/Source/gd32f30x_can.c ****         /* set transmit mailbox standard identifier */
 467:Drivers/GD32F30x_standard_peripheral/Source/gd32f30x_can.c ****         CAN_TMI(can_periph, mailbox_number) |= (uint32_t)(TMI_SFID(transmit_message->tx_sfid) | \
 1069              		.loc 1 467 9 is_stmt 1 view .LVU353
 1070              		.loc 1 467 45 is_stmt 0 view .LVU354
 1071 0038 D3F88021 		ldr	r2, [r3, #384]
 468:Drivers/GD32F30x_standard_peripheral/Source/gd32f30x_can.c ****                                                 transmit_message->tx_ft);
 1072              		.loc 1 468 65 view .LVU355
 1073 003c 4C7A     		ldrb	r4, [r1, #9]	@ zero_extendqisi2
 467:Drivers/GD32F30x_standard_peripheral/Source/gd32f30x_can.c ****                                                 transmit_message->tx_ft);
 1074              		.loc 1 467 48 view .LVU356
 1075 003e 0D68     		ldr	r5, [r1]
 1076 0040 44EA4554 		orr	r4, r4, r5, lsl #21
 467:Drivers/GD32F30x_standard_peripheral/Source/gd32f30x_can.c ****                                                 transmit_message->tx_ft);
 1077              		.loc 1 467 45 view .LVU357
 1078 0044 2243     		orrs	r2, r2, r4
 1079 0046 C3F88021 		str	r2, [r3, #384]
 1080              	.L87:
 469:Drivers/GD32F30x_standard_peripheral/Source/gd32f30x_can.c ****     }else{
 470:Drivers/GD32F30x_standard_peripheral/Source/gd32f30x_can.c ****         /* set transmit mailbox extended identifier */
 471:Drivers/GD32F30x_standard_peripheral/Source/gd32f30x_can.c ****         CAN_TMI(can_periph, mailbox_number) |= (uint32_t)(TMI_EFID(transmit_message->tx_efid) | \
 472:Drivers/GD32F30x_standard_peripheral/Source/gd32f30x_can.c ****                                                 transmit_message->tx_ff | \
 473:Drivers/GD32F30x_standard_peripheral/Source/gd32f30x_can.c ****                                                 transmit_message->tx_ft);
 474:Drivers/GD32F30x_standard_peripheral/Source/gd32f30x_can.c ****     }
 475:Drivers/GD32F30x_standard_peripheral/Source/gd32f30x_can.c ****     /* set the data length */
 476:Drivers/GD32F30x_standard_peripheral/Source/gd32f30x_can.c ****     CAN_TMP(can_periph, mailbox_number) &= ~CAN_TMP_DLENC;
 1081              		.loc 1 476 5 is_stmt 1 view .LVU358
 1082              		.loc 1 476 41 is_stmt 0 view .LVU359
 1083 004a D3F88421 		ldr	r2, [r3, #388]
 1084 004e 22F00F02 		bic	r2, r2, #15
 1085 0052 C3F88421 		str	r2, [r3, #388]
 477:Drivers/GD32F30x_standard_peripheral/Source/gd32f30x_can.c ****     CAN_TMP(can_periph, mailbox_number) |= transmit_message->tx_dlen;
 1086              		.loc 1 477 5 is_stmt 1 view .LVU360
 1087              		.loc 1 477 41 is_stmt 0 view .LVU361
 1088 0056 D3F88421 		ldr	r2, [r3, #388]
 1089              		.loc 1 477 60 view .LVU362
 1090 005a 91F80AC0 		ldrb	ip, [r1, #10]	@ zero_extendqisi2
 1091              		.loc 1 477 41 view .LVU363
 1092 005e 42EA0C02 		orr	r2, r2, ip
 1093 0062 C3F88421 		str	r2, [r3, #388]
 478:Drivers/GD32F30x_standard_peripheral/Source/gd32f30x_can.c ****     /* set the data */
 479:Drivers/GD32F30x_standard_peripheral/Source/gd32f30x_can.c ****     CAN_TMDATA0(can_periph, mailbox_number) = TMDATA0_DB3(transmit_message->tx_data[3]) | \
 1094              		.loc 1 479 5 is_stmt 1 view .LVU364
 1095              		.loc 1 479 47 is_stmt 0 view .LVU365
 1096 0066 91F80EC0 		ldrb	ip, [r1, #14]	@ zero_extendqisi2
 480:Drivers/GD32F30x_standard_peripheral/Source/gd32f30x_can.c ****                                               TMDATA0_DB2(transmit_message->tx_data[2]) | \
 1097              		.loc 1 480 47 view .LVU366
 1098 006a 4A7B     		ldrb	r2, [r1, #13]	@ zero_extendqisi2
 1099 006c 1204     		lsls	r2, r2, #16
ARM GAS  C:\Users\Prog\AppData\Local\Temp\ccu1v3Z3.s 			page 30


 479:Drivers/GD32F30x_standard_peripheral/Source/gd32f30x_can.c ****                                               TMDATA0_DB2(transmit_message->tx_data[2]) | \
 1100              		.loc 1 479 89 view .LVU367
 1101 006e 42EA0C62 		orr	r2, r2, ip, lsl #24
 481:Drivers/GD32F30x_standard_peripheral/Source/gd32f30x_can.c ****                                               TMDATA0_DB1(transmit_message->tx_data[1]) | \
 1102              		.loc 1 481 47 view .LVU368
 1103 0072 91F80CC0 		ldrb	ip, [r1, #12]	@ zero_extendqisi2
 480:Drivers/GD32F30x_standard_peripheral/Source/gd32f30x_can.c ****                                               TMDATA0_DB2(transmit_message->tx_data[2]) | \
 1104              		.loc 1 480 89 view .LVU369
 1105 0076 42EA0C22 		orr	r2, r2, ip, lsl #8
 482:Drivers/GD32F30x_standard_peripheral/Source/gd32f30x_can.c ****                                               TMDATA0_DB0(transmit_message->tx_data[0]);
 1106              		.loc 1 482 47 view .LVU370
 1107 007a 91F80BC0 		ldrb	ip, [r1, #11]	@ zero_extendqisi2
 481:Drivers/GD32F30x_standard_peripheral/Source/gd32f30x_can.c ****                                               TMDATA0_DB1(transmit_message->tx_data[1]) | \
 1108              		.loc 1 481 89 view .LVU371
 1109 007e 42EA0C02 		orr	r2, r2, ip
 479:Drivers/GD32F30x_standard_peripheral/Source/gd32f30x_can.c ****                                               TMDATA0_DB2(transmit_message->tx_data[2]) | \
 1110              		.loc 1 479 45 view .LVU372
 1111 0082 C3F88821 		str	r2, [r3, #392]
 483:Drivers/GD32F30x_standard_peripheral/Source/gd32f30x_can.c ****     CAN_TMDATA1(can_periph, mailbox_number) = TMDATA1_DB7(transmit_message->tx_data[7]) | \
 1112              		.loc 1 483 5 is_stmt 1 view .LVU373
 1113              		.loc 1 483 47 is_stmt 0 view .LVU374
 1114 0086 91F812C0 		ldrb	ip, [r1, #18]	@ zero_extendqisi2
 484:Drivers/GD32F30x_standard_peripheral/Source/gd32f30x_can.c ****                                               TMDATA1_DB6(transmit_message->tx_data[6]) | \
 1115              		.loc 1 484 47 view .LVU375
 1116 008a 4A7C     		ldrb	r2, [r1, #17]	@ zero_extendqisi2
 1117 008c 1204     		lsls	r2, r2, #16
 483:Drivers/GD32F30x_standard_peripheral/Source/gd32f30x_can.c ****     CAN_TMDATA1(can_periph, mailbox_number) = TMDATA1_DB7(transmit_message->tx_data[7]) | \
 1118              		.loc 1 483 89 view .LVU376
 1119 008e 42EA0C62 		orr	r2, r2, ip, lsl #24
 485:Drivers/GD32F30x_standard_peripheral/Source/gd32f30x_can.c ****                                               TMDATA1_DB5(transmit_message->tx_data[5]) | \
 1120              		.loc 1 485 47 view .LVU377
 1121 0092 91F810C0 		ldrb	ip, [r1, #16]	@ zero_extendqisi2
 484:Drivers/GD32F30x_standard_peripheral/Source/gd32f30x_can.c ****                                               TMDATA1_DB6(transmit_message->tx_data[6]) | \
 1122              		.loc 1 484 89 view .LVU378
 1123 0096 42EA0C22 		orr	r2, r2, ip, lsl #8
 486:Drivers/GD32F30x_standard_peripheral/Source/gd32f30x_can.c ****                                               TMDATA1_DB4(transmit_message->tx_data[4]);
 1124              		.loc 1 486 47 view .LVU379
 1125 009a C97B     		ldrb	r1, [r1, #15]	@ zero_extendqisi2
 1126              	.LVL67:
 485:Drivers/GD32F30x_standard_peripheral/Source/gd32f30x_can.c ****                                               TMDATA1_DB5(transmit_message->tx_data[5]) | \
 1127              		.loc 1 485 89 view .LVU380
 1128 009c 0A43     		orrs	r2, r2, r1
 483:Drivers/GD32F30x_standard_peripheral/Source/gd32f30x_can.c ****                                               TMDATA1_DB6(transmit_message->tx_data[6]) | \
 1129              		.loc 1 483 45 view .LVU381
 1130 009e C3F88C21 		str	r2, [r3, #396]
 487:Drivers/GD32F30x_standard_peripheral/Source/gd32f30x_can.c ****     /* enable transmission */
 488:Drivers/GD32F30x_standard_peripheral/Source/gd32f30x_can.c ****     CAN_TMI(can_periph, mailbox_number) |= CAN_TMI_TEN;
 1131              		.loc 1 488 5 is_stmt 1 view .LVU382
 1132              		.loc 1 488 41 is_stmt 0 view .LVU383
 1133 00a2 D3F88021 		ldr	r2, [r3, #384]
 1134 00a6 42F00102 		orr	r2, r2, #1
 1135 00aa C3F88021 		str	r2, [r3, #384]
 489:Drivers/GD32F30x_standard_peripheral/Source/gd32f30x_can.c **** 
 490:Drivers/GD32F30x_standard_peripheral/Source/gd32f30x_can.c ****     return mailbox_number;
 1136              		.loc 1 490 5 is_stmt 1 view .LVU384
 491:Drivers/GD32F30x_standard_peripheral/Source/gd32f30x_can.c **** }
 1137              		.loc 1 491 1 is_stmt 0 view .LVU385
ARM GAS  C:\Users\Prog\AppData\Local\Temp\ccu1v3Z3.s 			page 31


 1138 00ae 30BC     		pop	{r4, r5}
 1139              	.LCFI5:
 1140              		.cfi_restore 5
 1141              		.cfi_restore 4
 1142              		.cfi_def_cfa_offset 0
 1143 00b0 7047     		bx	lr
 1144              	.LVL68:
 1145              	.L89:
 453:Drivers/GD32F30x_standard_peripheral/Source/gd32f30x_can.c ****     }else if(CAN_TSTAT_TME2 == (CAN_TSTAT(can_periph)&CAN_TSTAT_TME2)){
 1146              		.loc 1 453 24 view .LVU386
 1147 00b2 0120     		movs	r0, #1
 1148              	.LVL69:
 453:Drivers/GD32F30x_standard_peripheral/Source/gd32f30x_can.c ****     }else if(CAN_TSTAT_TME2 == (CAN_TSTAT(can_periph)&CAN_TSTAT_TME2)){
 1149              		.loc 1 453 24 view .LVU387
 1150 00b4 B4E7     		b	.L84
 1151              	.LVL70:
 1152              	.L86:
 1153              	.LCFI6:
 1154              		.cfi_def_cfa_offset 8
 1155              		.cfi_offset 4, -8
 1156              		.cfi_offset 5, -4
 471:Drivers/GD32F30x_standard_peripheral/Source/gd32f30x_can.c ****                                                 transmit_message->tx_ff | \
 1157              		.loc 1 471 9 is_stmt 1 view .LVU388
 471:Drivers/GD32F30x_standard_peripheral/Source/gd32f30x_can.c ****                                                 transmit_message->tx_ff | \
 1158              		.loc 1 471 45 is_stmt 0 view .LVU389
 1159 00b6 D3F88041 		ldr	r4, [r3, #384]
 471:Drivers/GD32F30x_standard_peripheral/Source/gd32f30x_can.c ****                                                 transmit_message->tx_ff | \
 1160              		.loc 1 471 95 view .LVU390
 1161 00ba 4D68     		ldr	r5, [r1, #4]
 1162 00bc 42EAC502 		orr	r2, r2, r5, lsl #3
 473:Drivers/GD32F30x_standard_peripheral/Source/gd32f30x_can.c ****     }
 1163              		.loc 1 473 65 view .LVU391
 1164 00c0 91F809C0 		ldrb	ip, [r1, #9]	@ zero_extendqisi2
 471:Drivers/GD32F30x_standard_peripheral/Source/gd32f30x_can.c ****                                                 transmit_message->tx_ff | \
 1165              		.loc 1 471 48 view .LVU392
 1166 00c4 42EA0C02 		orr	r2, r2, ip
 471:Drivers/GD32F30x_standard_peripheral/Source/gd32f30x_can.c ****                                                 transmit_message->tx_ff | \
 1167              		.loc 1 471 45 view .LVU393
 1168 00c8 2243     		orrs	r2, r2, r4
 1169 00ca C3F88021 		str	r2, [r3, #384]
 1170 00ce BCE7     		b	.L87
 1171              	.LVL71:
 1172              	.L90:
 1173              	.LCFI7:
 1174              		.cfi_def_cfa_offset 0
 1175              		.cfi_restore 4
 1176              		.cfi_restore 5
 461:Drivers/GD32F30x_standard_peripheral/Source/gd32f30x_can.c ****     }
 1177              		.loc 1 461 16 view .LVU394
 1178 00d0 0320     		movs	r0, #3
 1179              	.LVL72:
 1180              		.loc 1 491 1 view .LVU395
 1181 00d2 7047     		bx	lr
 1182              		.cfi_endproc
 1183              	.LFE125:
 1185              		.section	.text.can_transmit_states,"ax",%progbits
 1186              		.align	1
ARM GAS  C:\Users\Prog\AppData\Local\Temp\ccu1v3Z3.s 			page 32


 1187              		.global	can_transmit_states
 1188              		.syntax unified
 1189              		.thumb
 1190              		.thumb_func
 1191              		.fpu fpv4-sp-d16
 1193              	can_transmit_states:
 1194              	.LVL73:
 1195              	.LFB126:
 492:Drivers/GD32F30x_standard_peripheral/Source/gd32f30x_can.c **** 
 493:Drivers/GD32F30x_standard_peripheral/Source/gd32f30x_can.c **** /*!
 494:Drivers/GD32F30x_standard_peripheral/Source/gd32f30x_can.c ****     \brief      get CAN transmit state 
 495:Drivers/GD32F30x_standard_peripheral/Source/gd32f30x_can.c ****     \param[in]  can_periph
 496:Drivers/GD32F30x_standard_peripheral/Source/gd32f30x_can.c ****       \arg        CANx(x=0,1),the CAN1 only for GD32F30X_CL 
 497:Drivers/GD32F30x_standard_peripheral/Source/gd32f30x_can.c ****     \param[in]  mailbox_number
 498:Drivers/GD32F30x_standard_peripheral/Source/gd32f30x_can.c ****                 only one parameter can be selected which is shown as below:
 499:Drivers/GD32F30x_standard_peripheral/Source/gd32f30x_can.c ****       \arg        CAN_MAILBOX(x=0,1,2)
 500:Drivers/GD32F30x_standard_peripheral/Source/gd32f30x_can.c ****     \param[out] none
 501:Drivers/GD32F30x_standard_peripheral/Source/gd32f30x_can.c ****     \retval     can_transmit_state_enum
 502:Drivers/GD32F30x_standard_peripheral/Source/gd32f30x_can.c **** */
 503:Drivers/GD32F30x_standard_peripheral/Source/gd32f30x_can.c **** can_transmit_state_enum can_transmit_states(uint32_t can_periph, uint8_t mailbox_number)
 504:Drivers/GD32F30x_standard_peripheral/Source/gd32f30x_can.c **** {
 1196              		.loc 1 504 1 is_stmt 1 view -0
 1197              		.cfi_startproc
 1198              		@ args = 0, pretend = 0, frame = 0
 1199              		@ frame_needed = 0, uses_anonymous_args = 0
 1200              		@ link register save eliminated.
 505:Drivers/GD32F30x_standard_peripheral/Source/gd32f30x_can.c ****     can_transmit_state_enum state = CAN_TRANSMIT_FAILED;
 1201              		.loc 1 505 5 view .LVU397
 506:Drivers/GD32F30x_standard_peripheral/Source/gd32f30x_can.c ****     uint32_t val = 0U;
 1202              		.loc 1 506 5 view .LVU398
 507:Drivers/GD32F30x_standard_peripheral/Source/gd32f30x_can.c ****     
 508:Drivers/GD32F30x_standard_peripheral/Source/gd32f30x_can.c ****     /* check selected mailbox state */    
 509:Drivers/GD32F30x_standard_peripheral/Source/gd32f30x_can.c ****     switch(mailbox_number){
 1203              		.loc 1 509 5 view .LVU399
 1204 0000 0129     		cmp	r1, #1
 1205 0002 17D0     		beq	.L95
 1206 0004 0229     		cmp	r1, #2
 1207 0006 19D0     		beq	.L96
 1208 0008 09B1     		cbz	r1, .L105
 1209 000a 0220     		movs	r0, #2
 1210              	.LVL74:
 1211              		.loc 1 509 5 is_stmt 0 view .LVU400
 1212 000c 7047     		bx	lr
 1213              	.LVL75:
 1214              	.L105:
 510:Drivers/GD32F30x_standard_peripheral/Source/gd32f30x_can.c ****     /* mailbox0 */
 511:Drivers/GD32F30x_standard_peripheral/Source/gd32f30x_can.c ****     case CAN_MAILBOX0:
 512:Drivers/GD32F30x_standard_peripheral/Source/gd32f30x_can.c ****         val = CAN_TSTAT(can_periph) & (CAN_TSTAT_MTF0 | CAN_TSTAT_MTFNERR0 | CAN_TSTAT_TME0);
 1215              		.loc 1 512 9 is_stmt 1 view .LVU401
 1216              		.loc 1 512 15 is_stmt 0 view .LVU402
 1217 000e 8368     		ldr	r3, [r0, #8]
 1218              		.loc 1 512 13 view .LVU403
 1219 0010 23F07B43 		bic	r3, r3, #-83886080
 1220 0014 23F47F03 		bic	r3, r3, #16711680
 1221 0018 23F47F43 		bic	r3, r3, #65280
 1222 001c 23F0FC03 		bic	r3, r3, #252
 1223              	.LVL76:
ARM GAS  C:\Users\Prog\AppData\Local\Temp\ccu1v3Z3.s 			page 33


 513:Drivers/GD32F30x_standard_peripheral/Source/gd32f30x_can.c ****         break;
 1224              		.loc 1 513 9 is_stmt 1 view .LVU404
 1225              	.L98:
 514:Drivers/GD32F30x_standard_peripheral/Source/gd32f30x_can.c ****     /* mailbox1 */
 515:Drivers/GD32F30x_standard_peripheral/Source/gd32f30x_can.c ****     case CAN_MAILBOX1:
 516:Drivers/GD32F30x_standard_peripheral/Source/gd32f30x_can.c ****         val = CAN_TSTAT(can_periph) & (CAN_TSTAT_MTF1 | CAN_TSTAT_MTFNERR1 | CAN_TSTAT_TME1);
 517:Drivers/GD32F30x_standard_peripheral/Source/gd32f30x_can.c ****         break;
 518:Drivers/GD32F30x_standard_peripheral/Source/gd32f30x_can.c ****     /* mailbox2 */
 519:Drivers/GD32F30x_standard_peripheral/Source/gd32f30x_can.c ****     case CAN_MAILBOX2:
 520:Drivers/GD32F30x_standard_peripheral/Source/gd32f30x_can.c ****         val = CAN_TSTAT(can_periph) & (CAN_TSTAT_MTF2 | CAN_TSTAT_MTFNERR2 | CAN_TSTAT_TME2);
 521:Drivers/GD32F30x_standard_peripheral/Source/gd32f30x_can.c ****         break;
 522:Drivers/GD32F30x_standard_peripheral/Source/gd32f30x_can.c ****     default:
 523:Drivers/GD32F30x_standard_peripheral/Source/gd32f30x_can.c ****         val = CAN_TRANSMIT_FAILED;
 524:Drivers/GD32F30x_standard_peripheral/Source/gd32f30x_can.c ****         break;
 525:Drivers/GD32F30x_standard_peripheral/Source/gd32f30x_can.c ****     }
 526:Drivers/GD32F30x_standard_peripheral/Source/gd32f30x_can.c ****     
 527:Drivers/GD32F30x_standard_peripheral/Source/gd32f30x_can.c ****     switch(val){
 1226              		.loc 1 527 5 view .LVU405
 1227 0020 114A     		ldr	r2, .L106
 1228 0022 9342     		cmp	r3, r2
 1229 0024 17D0     		beq	.L101
 1230              		.loc 1 527 5 is_stmt 0 view .LVU406
 1231 0026 11D8     		bhi	.L99
 1232 0028 BBB1     		cbz	r3, .L102
 1233 002a 104A     		ldr	r2, .L106+4
 1234 002c 9342     		cmp	r3, r2
 1235 002e 16D1     		bne	.L103
 528:Drivers/GD32F30x_standard_peripheral/Source/gd32f30x_can.c ****         /* transmit pending */
 529:Drivers/GD32F30x_standard_peripheral/Source/gd32f30x_can.c ****     case (CAN_STATE_PENDING): 
 530:Drivers/GD32F30x_standard_peripheral/Source/gd32f30x_can.c ****         state = CAN_TRANSMIT_PENDING;
 531:Drivers/GD32F30x_standard_peripheral/Source/gd32f30x_can.c ****         break;
 532:Drivers/GD32F30x_standard_peripheral/Source/gd32f30x_can.c ****         /* mailbox0 transmit succeeded */
 533:Drivers/GD32F30x_standard_peripheral/Source/gd32f30x_can.c ****     case (CAN_TSTAT_MTF0 | CAN_TSTAT_MTFNERR0 | CAN_TSTAT_TME0):
 534:Drivers/GD32F30x_standard_peripheral/Source/gd32f30x_can.c ****         state = CAN_TRANSMIT_OK;
 1236              		.loc 1 534 15 view .LVU407
 1237 0030 0120     		movs	r0, #1
 1238              	.LVL77:
 1239              		.loc 1 534 15 view .LVU408
 1240 0032 7047     		bx	lr
 1241              	.LVL78:
 1242              	.L95:
 516:Drivers/GD32F30x_standard_peripheral/Source/gd32f30x_can.c ****         break;
 1243              		.loc 1 516 9 is_stmt 1 view .LVU409
 516:Drivers/GD32F30x_standard_peripheral/Source/gd32f30x_can.c ****         break;
 1244              		.loc 1 516 15 is_stmt 0 view .LVU410
 1245 0034 8268     		ldr	r2, [r0, #8]
 516:Drivers/GD32F30x_standard_peripheral/Source/gd32f30x_can.c ****         break;
 1246              		.loc 1 516 13 view .LVU411
 1247 0036 0C4B     		ldr	r3, .L106
 1248 0038 1340     		ands	r3, r3, r2
 1249              	.LVL79:
 517:Drivers/GD32F30x_standard_peripheral/Source/gd32f30x_can.c ****     /* mailbox2 */
 1250              		.loc 1 517 9 is_stmt 1 view .LVU412
 1251 003a F1E7     		b	.L98
 1252              	.LVL80:
 1253              	.L96:
 520:Drivers/GD32F30x_standard_peripheral/Source/gd32f30x_can.c ****         break;
ARM GAS  C:\Users\Prog\AppData\Local\Temp\ccu1v3Z3.s 			page 34


 1254              		.loc 1 520 9 view .LVU413
 520:Drivers/GD32F30x_standard_peripheral/Source/gd32f30x_can.c ****         break;
 1255              		.loc 1 520 15 is_stmt 0 view .LVU414
 1256 003c 8368     		ldr	r3, [r0, #8]
 520:Drivers/GD32F30x_standard_peripheral/Source/gd32f30x_can.c ****         break;
 1257              		.loc 1 520 13 view .LVU415
 1258 003e 23F06F43 		bic	r3, r3, #-285212672
 1259 0042 23F47C03 		bic	r3, r3, #16515072
 1260 0046 1B0C     		lsrs	r3, r3, #16
 1261 0048 1B04     		lsls	r3, r3, #16
 1262              	.LVL81:
 521:Drivers/GD32F30x_standard_peripheral/Source/gd32f30x_can.c ****     default:
 1263              		.loc 1 521 9 is_stmt 1 view .LVU416
 1264 004a E9E7     		b	.L98
 1265              	.L99:
 527:Drivers/GD32F30x_standard_peripheral/Source/gd32f30x_can.c ****         /* transmit pending */
 1266              		.loc 1 527 5 is_stmt 0 view .LVU417
 1267 004c 084A     		ldr	r2, .L106+8
 1268 004e 9342     		cmp	r3, r2
 1269 0050 07D1     		bne	.L104
 535:Drivers/GD32F30x_standard_peripheral/Source/gd32f30x_can.c ****         break;
 536:Drivers/GD32F30x_standard_peripheral/Source/gd32f30x_can.c ****         /* mailbox1 transmit succeeded */
 537:Drivers/GD32F30x_standard_peripheral/Source/gd32f30x_can.c ****     case (CAN_TSTAT_MTF1 | CAN_TSTAT_MTFNERR1 | CAN_TSTAT_TME1):
 538:Drivers/GD32F30x_standard_peripheral/Source/gd32f30x_can.c ****         state = CAN_TRANSMIT_OK;
 539:Drivers/GD32F30x_standard_peripheral/Source/gd32f30x_can.c ****         break;
 540:Drivers/GD32F30x_standard_peripheral/Source/gd32f30x_can.c ****         /* mailbox2 transmit succeeded */
 541:Drivers/GD32F30x_standard_peripheral/Source/gd32f30x_can.c ****     case (CAN_TSTAT_MTF2 | CAN_TSTAT_MTFNERR2 | CAN_TSTAT_TME2):
 542:Drivers/GD32F30x_standard_peripheral/Source/gd32f30x_can.c ****         state = CAN_TRANSMIT_OK;
 1270              		.loc 1 542 15 view .LVU418
 1271 0052 0120     		movs	r0, #1
 1272              	.LVL82:
 1273              		.loc 1 542 15 view .LVU419
 1274 0054 7047     		bx	lr
 1275              	.LVL83:
 1276              	.L101:
 538:Drivers/GD32F30x_standard_peripheral/Source/gd32f30x_can.c ****         break;
 1277              		.loc 1 538 15 view .LVU420
 1278 0056 0120     		movs	r0, #1
 1279              	.LVL84:
 538:Drivers/GD32F30x_standard_peripheral/Source/gd32f30x_can.c ****         break;
 1280              		.loc 1 538 15 view .LVU421
 1281 0058 7047     		bx	lr
 1282              	.LVL85:
 1283              	.L102:
 527:Drivers/GD32F30x_standard_peripheral/Source/gd32f30x_can.c ****         /* transmit pending */
 1284              		.loc 1 527 5 view .LVU422
 1285 005a 0220     		movs	r0, #2
 1286              	.LVL86:
 527:Drivers/GD32F30x_standard_peripheral/Source/gd32f30x_can.c ****         /* transmit pending */
 1287              		.loc 1 527 5 view .LVU423
 1288 005c 7047     		bx	lr
 1289              	.LVL87:
 1290              	.L103:
 543:Drivers/GD32F30x_standard_peripheral/Source/gd32f30x_can.c ****         break;
 544:Drivers/GD32F30x_standard_peripheral/Source/gd32f30x_can.c ****         /* transmit failed */
 545:Drivers/GD32F30x_standard_peripheral/Source/gd32f30x_can.c ****     default: 
 546:Drivers/GD32F30x_standard_peripheral/Source/gd32f30x_can.c ****         state = CAN_TRANSMIT_FAILED;
ARM GAS  C:\Users\Prog\AppData\Local\Temp\ccu1v3Z3.s 			page 35


 1291              		.loc 1 546 15 view .LVU424
 1292 005e 0020     		movs	r0, #0
 1293              	.LVL88:
 1294              		.loc 1 546 15 view .LVU425
 1295 0060 7047     		bx	lr
 1296              	.LVL89:
 1297              	.L104:
 1298              		.loc 1 546 15 view .LVU426
 1299 0062 0020     		movs	r0, #0
 1300              	.LVL90:
 547:Drivers/GD32F30x_standard_peripheral/Source/gd32f30x_can.c ****         break;
 548:Drivers/GD32F30x_standard_peripheral/Source/gd32f30x_can.c ****     }
 549:Drivers/GD32F30x_standard_peripheral/Source/gd32f30x_can.c ****     return state;
 1301              		.loc 1 549 5 is_stmt 1 view .LVU427
 550:Drivers/GD32F30x_standard_peripheral/Source/gd32f30x_can.c **** }
 1302              		.loc 1 550 1 is_stmt 0 view .LVU428
 1303 0064 7047     		bx	lr
 1304              	.L107:
 1305 0066 00BF     		.align	2
 1306              	.L106:
 1307 0068 00030008 		.word	134218496
 1308 006c 03000004 		.word	67108867
 1309 0070 00000310 		.word	268632064
 1310              		.cfi_endproc
 1311              	.LFE126:
 1313              		.section	.text.can_transmission_stop,"ax",%progbits
 1314              		.align	1
 1315              		.global	can_transmission_stop
 1316              		.syntax unified
 1317              		.thumb
 1318              		.thumb_func
 1319              		.fpu fpv4-sp-d16
 1321              	can_transmission_stop:
 1322              	.LVL91:
 1323              	.LFB127:
 551:Drivers/GD32F30x_standard_peripheral/Source/gd32f30x_can.c **** 
 552:Drivers/GD32F30x_standard_peripheral/Source/gd32f30x_can.c **** /*!
 553:Drivers/GD32F30x_standard_peripheral/Source/gd32f30x_can.c ****     \brief      stop CAN transmission
 554:Drivers/GD32F30x_standard_peripheral/Source/gd32f30x_can.c ****     \param[in]  can_periph
 555:Drivers/GD32F30x_standard_peripheral/Source/gd32f30x_can.c ****       \arg        CANx(x=0,1),the CAN1 only for GD32F30X_CL 
 556:Drivers/GD32F30x_standard_peripheral/Source/gd32f30x_can.c ****     \param[in]  mailbox_number
 557:Drivers/GD32F30x_standard_peripheral/Source/gd32f30x_can.c ****                 only one parameter can be selected which is shown as below:
 558:Drivers/GD32F30x_standard_peripheral/Source/gd32f30x_can.c ****       \arg        CAN_MAILBOXx(x=0,1,2)
 559:Drivers/GD32F30x_standard_peripheral/Source/gd32f30x_can.c ****     \param[out] none
 560:Drivers/GD32F30x_standard_peripheral/Source/gd32f30x_can.c ****     \retval     none
 561:Drivers/GD32F30x_standard_peripheral/Source/gd32f30x_can.c **** */
 562:Drivers/GD32F30x_standard_peripheral/Source/gd32f30x_can.c **** void can_transmission_stop(uint32_t can_periph, uint8_t mailbox_number)
 563:Drivers/GD32F30x_standard_peripheral/Source/gd32f30x_can.c **** {
 1324              		.loc 1 563 1 is_stmt 1 view -0
 1325              		.cfi_startproc
 1326              		@ args = 0, pretend = 0, frame = 0
 1327              		@ frame_needed = 0, uses_anonymous_args = 0
 1328              		@ link register save eliminated.
 564:Drivers/GD32F30x_standard_peripheral/Source/gd32f30x_can.c ****     if(CAN_MAILBOX0 == mailbox_number){
 1329              		.loc 1 564 5 view .LVU430
 1330              		.loc 1 564 7 is_stmt 0 view .LVU431
 1331 0000 51B9     		cbnz	r1, .L109
ARM GAS  C:\Users\Prog\AppData\Local\Temp\ccu1v3Z3.s 			page 36


 565:Drivers/GD32F30x_standard_peripheral/Source/gd32f30x_can.c ****         CAN_TSTAT(can_periph) |= CAN_TSTAT_MST0;
 1332              		.loc 1 565 9 is_stmt 1 view .LVU432
 1333              		.loc 1 565 31 is_stmt 0 view .LVU433
 1334 0002 00F10802 		add	r2, r0, #8
 1335 0006 8368     		ldr	r3, [r0, #8]
 1336 0008 43F08003 		orr	r3, r3, #128
 1337 000c 8360     		str	r3, [r0, #8]
 566:Drivers/GD32F30x_standard_peripheral/Source/gd32f30x_can.c ****         while(CAN_TSTAT_MST0 == (CAN_TSTAT(can_periph) & CAN_TSTAT_MST0)){
 1338              		.loc 1 566 9 is_stmt 1 view .LVU434
 1339              	.L110:
 567:Drivers/GD32F30x_standard_peripheral/Source/gd32f30x_can.c ****         }
 1340              		.loc 1 567 9 discriminator 1 view .LVU435
 566:Drivers/GD32F30x_standard_peripheral/Source/gd32f30x_can.c ****         while(CAN_TSTAT_MST0 == (CAN_TSTAT(can_periph) & CAN_TSTAT_MST0)){
 1341              		.loc 1 566 14 discriminator 1 view .LVU436
 566:Drivers/GD32F30x_standard_peripheral/Source/gd32f30x_can.c ****         while(CAN_TSTAT_MST0 == (CAN_TSTAT(can_periph) & CAN_TSTAT_MST0)){
 1342              		.loc 1 566 34 is_stmt 0 discriminator 1 view .LVU437
 1343 000e 1368     		ldr	r3, [r2]
 566:Drivers/GD32F30x_standard_peripheral/Source/gd32f30x_can.c ****         while(CAN_TSTAT_MST0 == (CAN_TSTAT(can_periph) & CAN_TSTAT_MST0)){
 1344              		.loc 1 566 14 discriminator 1 view .LVU438
 1345 0010 13F0800F 		tst	r3, #128
 1346 0014 FBD1     		bne	.L110
 1347 0016 7047     		bx	lr
 1348              	.L109:
 568:Drivers/GD32F30x_standard_peripheral/Source/gd32f30x_can.c ****     }else if(CAN_MAILBOX1 == mailbox_number){
 1349              		.loc 1 568 11 is_stmt 1 view .LVU439
 1350              		.loc 1 568 13 is_stmt 0 view .LVU440
 1351 0018 0129     		cmp	r1, #1
 1352 001a 02D0     		beq	.L115
 569:Drivers/GD32F30x_standard_peripheral/Source/gd32f30x_can.c ****         CAN_TSTAT(can_periph) |= CAN_TSTAT_MST1;
 570:Drivers/GD32F30x_standard_peripheral/Source/gd32f30x_can.c ****         while(CAN_TSTAT_MST1 == (CAN_TSTAT(can_periph) & CAN_TSTAT_MST1)){
 571:Drivers/GD32F30x_standard_peripheral/Source/gd32f30x_can.c ****         }
 572:Drivers/GD32F30x_standard_peripheral/Source/gd32f30x_can.c ****     }else if(CAN_MAILBOX2 == mailbox_number){
 1353              		.loc 1 572 11 is_stmt 1 view .LVU441
 1354              		.loc 1 572 13 is_stmt 0 view .LVU442
 1355 001c 0229     		cmp	r1, #2
 1356 001e 0BD0     		beq	.L116
 1357              	.L108:
 573:Drivers/GD32F30x_standard_peripheral/Source/gd32f30x_can.c ****         CAN_TSTAT(can_periph) |= CAN_TSTAT_MST2;
 574:Drivers/GD32F30x_standard_peripheral/Source/gd32f30x_can.c ****         while(CAN_TSTAT_MST2 == (CAN_TSTAT(can_periph) & CAN_TSTAT_MST2)){
 575:Drivers/GD32F30x_standard_peripheral/Source/gd32f30x_can.c ****         }
 576:Drivers/GD32F30x_standard_peripheral/Source/gd32f30x_can.c ****     }else{
 577:Drivers/GD32F30x_standard_peripheral/Source/gd32f30x_can.c ****         /* illegal parameters */
 578:Drivers/GD32F30x_standard_peripheral/Source/gd32f30x_can.c ****     }
 579:Drivers/GD32F30x_standard_peripheral/Source/gd32f30x_can.c **** }
 1358              		.loc 1 579 1 view .LVU443
 1359 0020 7047     		bx	lr
 1360              	.L115:
 569:Drivers/GD32F30x_standard_peripheral/Source/gd32f30x_can.c ****         CAN_TSTAT(can_periph) |= CAN_TSTAT_MST1;
 1361              		.loc 1 569 9 is_stmt 1 view .LVU444
 569:Drivers/GD32F30x_standard_peripheral/Source/gd32f30x_can.c ****         CAN_TSTAT(can_periph) |= CAN_TSTAT_MST1;
 1362              		.loc 1 569 31 is_stmt 0 view .LVU445
 1363 0022 00F10802 		add	r2, r0, #8
 1364 0026 8368     		ldr	r3, [r0, #8]
 1365 0028 43F40043 		orr	r3, r3, #32768
 1366 002c 8360     		str	r3, [r0, #8]
 570:Drivers/GD32F30x_standard_peripheral/Source/gd32f30x_can.c ****         }
 1367              		.loc 1 570 9 is_stmt 1 view .LVU446
ARM GAS  C:\Users\Prog\AppData\Local\Temp\ccu1v3Z3.s 			page 37


 1368              	.L113:
 571:Drivers/GD32F30x_standard_peripheral/Source/gd32f30x_can.c ****     }else if(CAN_MAILBOX2 == mailbox_number){
 1369              		.loc 1 571 9 discriminator 1 view .LVU447
 570:Drivers/GD32F30x_standard_peripheral/Source/gd32f30x_can.c ****         }
 1370              		.loc 1 570 14 discriminator 1 view .LVU448
 570:Drivers/GD32F30x_standard_peripheral/Source/gd32f30x_can.c ****         }
 1371              		.loc 1 570 34 is_stmt 0 discriminator 1 view .LVU449
 1372 002e 1368     		ldr	r3, [r2]
 570:Drivers/GD32F30x_standard_peripheral/Source/gd32f30x_can.c ****         }
 1373              		.loc 1 570 14 discriminator 1 view .LVU450
 1374 0030 13F4004F 		tst	r3, #32768
 1375 0034 FBD1     		bne	.L113
 1376 0036 7047     		bx	lr
 1377              	.L116:
 573:Drivers/GD32F30x_standard_peripheral/Source/gd32f30x_can.c ****         CAN_TSTAT(can_periph) |= CAN_TSTAT_MST2;
 1378              		.loc 1 573 9 is_stmt 1 view .LVU451
 573:Drivers/GD32F30x_standard_peripheral/Source/gd32f30x_can.c ****         CAN_TSTAT(can_periph) |= CAN_TSTAT_MST2;
 1379              		.loc 1 573 31 is_stmt 0 view .LVU452
 1380 0038 00F10802 		add	r2, r0, #8
 1381 003c 8368     		ldr	r3, [r0, #8]
 1382 003e 43F40003 		orr	r3, r3, #8388608
 1383 0042 8360     		str	r3, [r0, #8]
 574:Drivers/GD32F30x_standard_peripheral/Source/gd32f30x_can.c ****         }
 1384              		.loc 1 574 9 is_stmt 1 view .LVU453
 1385              	.L114:
 575:Drivers/GD32F30x_standard_peripheral/Source/gd32f30x_can.c ****     }else{
 1386              		.loc 1 575 9 discriminator 1 view .LVU454
 574:Drivers/GD32F30x_standard_peripheral/Source/gd32f30x_can.c ****         }
 1387              		.loc 1 574 14 discriminator 1 view .LVU455
 574:Drivers/GD32F30x_standard_peripheral/Source/gd32f30x_can.c ****         }
 1388              		.loc 1 574 34 is_stmt 0 discriminator 1 view .LVU456
 1389 0044 1368     		ldr	r3, [r2]
 574:Drivers/GD32F30x_standard_peripheral/Source/gd32f30x_can.c ****         }
 1390              		.loc 1 574 14 discriminator 1 view .LVU457
 1391 0046 13F4000F 		tst	r3, #8388608
 1392 004a FBD1     		bne	.L114
 1393 004c E8E7     		b	.L108
 1394              		.cfi_endproc
 1395              	.LFE127:
 1397              		.section	.text.can_message_receive,"ax",%progbits
 1398              		.align	1
 1399              		.global	can_message_receive
 1400              		.syntax unified
 1401              		.thumb
 1402              		.thumb_func
 1403              		.fpu fpv4-sp-d16
 1405              	can_message_receive:
 1406              	.LVL92:
 1407              	.LFB128:
 580:Drivers/GD32F30x_standard_peripheral/Source/gd32f30x_can.c **** 
 581:Drivers/GD32F30x_standard_peripheral/Source/gd32f30x_can.c **** /*!
 582:Drivers/GD32F30x_standard_peripheral/Source/gd32f30x_can.c ****     \brief      CAN receive message
 583:Drivers/GD32F30x_standard_peripheral/Source/gd32f30x_can.c ****     \param[in]  can_periph
 584:Drivers/GD32F30x_standard_peripheral/Source/gd32f30x_can.c ****       \arg        CANx(x=0,1),the CAN1 only for GD32F30X_CL 
 585:Drivers/GD32F30x_standard_peripheral/Source/gd32f30x_can.c ****     \param[in]  fifo_number
 586:Drivers/GD32F30x_standard_peripheral/Source/gd32f30x_can.c ****       \arg        CAN_FIFOx(x=0,1)
 587:Drivers/GD32F30x_standard_peripheral/Source/gd32f30x_can.c ****     \param[out] receive_message: struct for CAN receive message
ARM GAS  C:\Users\Prog\AppData\Local\Temp\ccu1v3Z3.s 			page 38


 588:Drivers/GD32F30x_standard_peripheral/Source/gd32f30x_can.c ****       \arg        rx_sfid: 0x00000000 - 0x000007FF
 589:Drivers/GD32F30x_standard_peripheral/Source/gd32f30x_can.c ****       \arg        rx_efid: 0x00000000 - 0x1FFFFFFF
 590:Drivers/GD32F30x_standard_peripheral/Source/gd32f30x_can.c ****       \arg        rx_ff: CAN_FF_STANDARD, CAN_FF_EXTENDED
 591:Drivers/GD32F30x_standard_peripheral/Source/gd32f30x_can.c ****       \arg        rx_ft: CAN_FT_DATA, CAN_FT_REMOTE
 592:Drivers/GD32F30x_standard_peripheral/Source/gd32f30x_can.c ****       \arg        rx_dlen: 0 - 8
 593:Drivers/GD32F30x_standard_peripheral/Source/gd32f30x_can.c ****       \arg        rx_data[]: 0x00 - 0xFF
 594:Drivers/GD32F30x_standard_peripheral/Source/gd32f30x_can.c ****       \arg        rx_fi: 0 - 27
 595:Drivers/GD32F30x_standard_peripheral/Source/gd32f30x_can.c ****     \retval     none
 596:Drivers/GD32F30x_standard_peripheral/Source/gd32f30x_can.c **** */
 597:Drivers/GD32F30x_standard_peripheral/Source/gd32f30x_can.c **** void can_message_receive(uint32_t can_periph, uint8_t fifo_number, can_receive_message_struct* rece
 598:Drivers/GD32F30x_standard_peripheral/Source/gd32f30x_can.c **** {
 1408              		.loc 1 598 1 is_stmt 1 view -0
 1409              		.cfi_startproc
 1410              		@ args = 0, pretend = 0, frame = 0
 1411              		@ frame_needed = 0, uses_anonymous_args = 0
 1412              		@ link register save eliminated.
 1413              		.loc 1 598 1 is_stmt 0 view .LVU459
 1414 0000 10B4     		push	{r4}
 1415              	.LCFI8:
 1416              		.cfi_def_cfa_offset 4
 1417              		.cfi_offset 4, -4
 599:Drivers/GD32F30x_standard_peripheral/Source/gd32f30x_can.c ****     /* get the frame format */
 600:Drivers/GD32F30x_standard_peripheral/Source/gd32f30x_can.c ****     receive_message->rx_ff = (uint8_t)(CAN_RFIFOMI_FF & CAN_RFIFOMI(can_periph, fifo_number));
 1418              		.loc 1 600 5 is_stmt 1 view .LVU460
 1419              		.loc 1 600 57 is_stmt 0 view .LVU461
 1420 0002 00EB0113 		add	r3, r0, r1, lsl #4
 1421 0006 D3F8B041 		ldr	r4, [r3, #432]
 1422              		.loc 1 600 30 view .LVU462
 1423 000a 04F00404 		and	r4, r4, #4
 1424              		.loc 1 600 28 view .LVU463
 1425 000e 1472     		strb	r4, [r2, #8]
 601:Drivers/GD32F30x_standard_peripheral/Source/gd32f30x_can.c ****     if(CAN_FF_STANDARD == receive_message->rx_ff){
 1426              		.loc 1 601 5 is_stmt 1 view .LVU464
 1427              		.loc 1 601 7 is_stmt 0 view .LVU465
 1428 0010 002C     		cmp	r4, #0
 1429 0012 3CD1     		bne	.L118
 602:Drivers/GD32F30x_standard_peripheral/Source/gd32f30x_can.c ****         /* get standard identifier */
 603:Drivers/GD32F30x_standard_peripheral/Source/gd32f30x_can.c ****         receive_message->rx_sfid = (uint32_t)(GET_RFIFOMI_SFID(CAN_RFIFOMI(can_periph, fifo_number)
 1430              		.loc 1 603 9 is_stmt 1 view .LVU466
 1431              		.loc 1 603 47 is_stmt 0 view .LVU467
 1432 0014 D3F8B041 		ldr	r4, [r3, #432]
 1433              		.loc 1 603 36 view .LVU468
 1434 0018 640D     		lsrs	r4, r4, #21
 1435              		.loc 1 603 34 view .LVU469
 1436 001a 1460     		str	r4, [r2]
 1437              	.L119:
 604:Drivers/GD32F30x_standard_peripheral/Source/gd32f30x_can.c ****     }else{
 605:Drivers/GD32F30x_standard_peripheral/Source/gd32f30x_can.c ****         /* get extended identifier */
 606:Drivers/GD32F30x_standard_peripheral/Source/gd32f30x_can.c ****         receive_message->rx_efid = (uint32_t)(GET_RFIFOMI_EFID(CAN_RFIFOMI(can_periph, fifo_number)
 607:Drivers/GD32F30x_standard_peripheral/Source/gd32f30x_can.c ****     }
 608:Drivers/GD32F30x_standard_peripheral/Source/gd32f30x_can.c ****     
 609:Drivers/GD32F30x_standard_peripheral/Source/gd32f30x_can.c ****     /* get frame type */
 610:Drivers/GD32F30x_standard_peripheral/Source/gd32f30x_can.c ****     receive_message->rx_ft = (uint8_t)(CAN_RFIFOMI_FT & CAN_RFIFOMI(can_periph, fifo_number));     
 1438              		.loc 1 610 5 is_stmt 1 view .LVU470
 1439              		.loc 1 610 57 is_stmt 0 view .LVU471
 1440 001c D3F8B041 		ldr	r4, [r3, #432]
 1441              		.loc 1 610 30 view .LVU472
ARM GAS  C:\Users\Prog\AppData\Local\Temp\ccu1v3Z3.s 			page 39


 1442 0020 04F00204 		and	r4, r4, #2
 1443              		.loc 1 610 28 view .LVU473
 1444 0024 5472     		strb	r4, [r2, #9]
 611:Drivers/GD32F30x_standard_peripheral/Source/gd32f30x_can.c ****     /* filtering index */
 612:Drivers/GD32F30x_standard_peripheral/Source/gd32f30x_can.c ****     receive_message->rx_fi = (uint8_t)(GET_RFIFOMP_FI(CAN_RFIFOMP(can_periph, fifo_number)));
 1445              		.loc 1 612 5 is_stmt 1 view .LVU474
 1446              		.loc 1 612 40 is_stmt 0 view .LVU475
 1447 0026 D3F8B441 		ldr	r4, [r3, #436]
 1448              		.loc 1 612 30 view .LVU476
 1449 002a C4F30724 		ubfx	r4, r4, #8, #8
 1450              		.loc 1 612 28 view .LVU477
 1451 002e D474     		strb	r4, [r2, #19]
 613:Drivers/GD32F30x_standard_peripheral/Source/gd32f30x_can.c ****     /* get recevie data length */
 614:Drivers/GD32F30x_standard_peripheral/Source/gd32f30x_can.c ****     receive_message->rx_dlen = (uint8_t)(GET_RFIFOMP_DLENC(CAN_RFIFOMP(can_periph, fifo_number)));
 1452              		.loc 1 614 5 is_stmt 1 view .LVU478
 1453              		.loc 1 614 42 is_stmt 0 view .LVU479
 1454 0030 D3F8B441 		ldr	r4, [r3, #436]
 1455              		.loc 1 614 32 view .LVU480
 1456 0034 04F00F04 		and	r4, r4, #15
 1457              		.loc 1 614 30 view .LVU481
 1458 0038 9472     		strb	r4, [r2, #10]
 615:Drivers/GD32F30x_standard_peripheral/Source/gd32f30x_can.c ****     
 616:Drivers/GD32F30x_standard_peripheral/Source/gd32f30x_can.c ****     /* receive data */
 617:Drivers/GD32F30x_standard_peripheral/Source/gd32f30x_can.c ****     receive_message -> rx_data[0] = (uint8_t)(GET_RFIFOMDATA0_DB0(CAN_RFIFOMDATA0(can_periph, fifo_
 1459              		.loc 1 617 5 is_stmt 1 view .LVU482
 1460              		.loc 1 617 47 is_stmt 0 view .LVU483
 1461 003a D3F8B841 		ldr	r4, [r3, #440]
 1462              		.loc 1 617 35 view .LVU484
 1463 003e D472     		strb	r4, [r2, #11]
 618:Drivers/GD32F30x_standard_peripheral/Source/gd32f30x_can.c ****     receive_message -> rx_data[1] = (uint8_t)(GET_RFIFOMDATA0_DB1(CAN_RFIFOMDATA0(can_periph, fifo_
 1464              		.loc 1 618 5 is_stmt 1 view .LVU485
 1465              		.loc 1 618 47 is_stmt 0 view .LVU486
 1466 0040 D3F8B841 		ldr	r4, [r3, #440]
 1467              		.loc 1 618 37 view .LVU487
 1468 0044 C4F30724 		ubfx	r4, r4, #8, #8
 1469              		.loc 1 618 35 view .LVU488
 1470 0048 1473     		strb	r4, [r2, #12]
 619:Drivers/GD32F30x_standard_peripheral/Source/gd32f30x_can.c ****     receive_message -> rx_data[2] = (uint8_t)(GET_RFIFOMDATA0_DB2(CAN_RFIFOMDATA0(can_periph, fifo_
 1471              		.loc 1 619 5 is_stmt 1 view .LVU489
 1472              		.loc 1 619 47 is_stmt 0 view .LVU490
 1473 004a D3F8B841 		ldr	r4, [r3, #440]
 1474              		.loc 1 619 37 view .LVU491
 1475 004e C4F30744 		ubfx	r4, r4, #16, #8
 1476              		.loc 1 619 35 view .LVU492
 1477 0052 5473     		strb	r4, [r2, #13]
 620:Drivers/GD32F30x_standard_peripheral/Source/gd32f30x_can.c ****     receive_message -> rx_data[3] = (uint8_t)(GET_RFIFOMDATA0_DB3(CAN_RFIFOMDATA0(can_periph, fifo_
 1478              		.loc 1 620 5 is_stmt 1 view .LVU493
 1479              		.loc 1 620 47 is_stmt 0 view .LVU494
 1480 0054 D3F8B841 		ldr	r4, [r3, #440]
 1481              		.loc 1 620 37 view .LVU495
 1482 0058 240E     		lsrs	r4, r4, #24
 1483              		.loc 1 620 35 view .LVU496
 1484 005a 9473     		strb	r4, [r2, #14]
 621:Drivers/GD32F30x_standard_peripheral/Source/gd32f30x_can.c ****     receive_message -> rx_data[4] = (uint8_t)(GET_RFIFOMDATA1_DB4(CAN_RFIFOMDATA1(can_periph, fifo_
 1485              		.loc 1 621 5 is_stmt 1 view .LVU497
 1486              		.loc 1 621 47 is_stmt 0 view .LVU498
 1487 005c D3F8BC41 		ldr	r4, [r3, #444]
ARM GAS  C:\Users\Prog\AppData\Local\Temp\ccu1v3Z3.s 			page 40


 1488              		.loc 1 621 35 view .LVU499
 1489 0060 D473     		strb	r4, [r2, #15]
 622:Drivers/GD32F30x_standard_peripheral/Source/gd32f30x_can.c ****     receive_message -> rx_data[5] = (uint8_t)(GET_RFIFOMDATA1_DB5(CAN_RFIFOMDATA1(can_periph, fifo_
 1490              		.loc 1 622 5 is_stmt 1 view .LVU500
 1491              		.loc 1 622 47 is_stmt 0 view .LVU501
 1492 0062 D3F8BC41 		ldr	r4, [r3, #444]
 1493              		.loc 1 622 37 view .LVU502
 1494 0066 C4F30724 		ubfx	r4, r4, #8, #8
 1495              		.loc 1 622 35 view .LVU503
 1496 006a 1474     		strb	r4, [r2, #16]
 623:Drivers/GD32F30x_standard_peripheral/Source/gd32f30x_can.c ****     receive_message -> rx_data[6] = (uint8_t)(GET_RFIFOMDATA1_DB6(CAN_RFIFOMDATA1(can_periph, fifo_
 1497              		.loc 1 623 5 is_stmt 1 view .LVU504
 1498              		.loc 1 623 47 is_stmt 0 view .LVU505
 1499 006c D3F8BC41 		ldr	r4, [r3, #444]
 1500              		.loc 1 623 37 view .LVU506
 1501 0070 C4F30744 		ubfx	r4, r4, #16, #8
 1502              		.loc 1 623 35 view .LVU507
 1503 0074 5474     		strb	r4, [r2, #17]
 624:Drivers/GD32F30x_standard_peripheral/Source/gd32f30x_can.c ****     receive_message -> rx_data[7] = (uint8_t)(GET_RFIFOMDATA1_DB7(CAN_RFIFOMDATA1(can_periph, fifo_
 1504              		.loc 1 624 5 is_stmt 1 view .LVU508
 1505              		.loc 1 624 47 is_stmt 0 view .LVU509
 1506 0076 D3F8BC31 		ldr	r3, [r3, #444]
 1507              		.loc 1 624 37 view .LVU510
 1508 007a 1B0E     		lsrs	r3, r3, #24
 1509              		.loc 1 624 35 view .LVU511
 1510 007c 9374     		strb	r3, [r2, #18]
 625:Drivers/GD32F30x_standard_peripheral/Source/gd32f30x_can.c ****     
 626:Drivers/GD32F30x_standard_peripheral/Source/gd32f30x_can.c ****     /* release FIFO */
 627:Drivers/GD32F30x_standard_peripheral/Source/gd32f30x_can.c ****     if(CAN_FIFO0 == fifo_number){
 1511              		.loc 1 627 5 is_stmt 1 view .LVU512
 1512              		.loc 1 627 7 is_stmt 0 view .LVU513
 1513 007e 59B9     		cbnz	r1, .L120
 628:Drivers/GD32F30x_standard_peripheral/Source/gd32f30x_can.c ****         CAN_RFIFO0(can_periph) |= CAN_RFIFO0_RFD0;
 1514              		.loc 1 628 9 is_stmt 1 view .LVU514
 1515              		.loc 1 628 32 is_stmt 0 view .LVU515
 1516 0080 C368     		ldr	r3, [r0, #12]
 1517 0082 43F02003 		orr	r3, r3, #32
 1518 0086 C360     		str	r3, [r0, #12]
 1519              	.L117:
 629:Drivers/GD32F30x_standard_peripheral/Source/gd32f30x_can.c ****     }else{
 630:Drivers/GD32F30x_standard_peripheral/Source/gd32f30x_can.c ****         CAN_RFIFO1(can_periph) |= CAN_RFIFO1_RFD1;
 631:Drivers/GD32F30x_standard_peripheral/Source/gd32f30x_can.c ****     }
 632:Drivers/GD32F30x_standard_peripheral/Source/gd32f30x_can.c **** }
 1520              		.loc 1 632 1 view .LVU516
 1521 0088 5DF8044B 		ldr	r4, [sp], #4
 1522              	.LCFI9:
 1523              		.cfi_remember_state
 1524              		.cfi_restore 4
 1525              		.cfi_def_cfa_offset 0
 1526 008c 7047     		bx	lr
 1527              	.L118:
 1528              	.LCFI10:
 1529              		.cfi_restore_state
 606:Drivers/GD32F30x_standard_peripheral/Source/gd32f30x_can.c ****     }
 1530              		.loc 1 606 9 is_stmt 1 view .LVU517
 606:Drivers/GD32F30x_standard_peripheral/Source/gd32f30x_can.c ****     }
 1531              		.loc 1 606 47 is_stmt 0 view .LVU518
ARM GAS  C:\Users\Prog\AppData\Local\Temp\ccu1v3Z3.s 			page 41


 1532 008e D3F8B041 		ldr	r4, [r3, #432]
 606:Drivers/GD32F30x_standard_peripheral/Source/gd32f30x_can.c ****     }
 1533              		.loc 1 606 36 view .LVU519
 1534 0092 E408     		lsrs	r4, r4, #3
 606:Drivers/GD32F30x_standard_peripheral/Source/gd32f30x_can.c ****     }
 1535              		.loc 1 606 34 view .LVU520
 1536 0094 5460     		str	r4, [r2, #4]
 1537 0096 C1E7     		b	.L119
 1538              	.L120:
 630:Drivers/GD32F30x_standard_peripheral/Source/gd32f30x_can.c ****     }
 1539              		.loc 1 630 9 is_stmt 1 view .LVU521
 630:Drivers/GD32F30x_standard_peripheral/Source/gd32f30x_can.c ****     }
 1540              		.loc 1 630 32 is_stmt 0 view .LVU522
 1541 0098 0369     		ldr	r3, [r0, #16]
 1542 009a 43F02003 		orr	r3, r3, #32
 1543 009e 0361     		str	r3, [r0, #16]
 1544              		.loc 1 632 1 view .LVU523
 1545 00a0 F2E7     		b	.L117
 1546              		.cfi_endproc
 1547              	.LFE128:
 1549              		.section	.text.can_fifo_release,"ax",%progbits
 1550              		.align	1
 1551              		.global	can_fifo_release
 1552              		.syntax unified
 1553              		.thumb
 1554              		.thumb_func
 1555              		.fpu fpv4-sp-d16
 1557              	can_fifo_release:
 1558              	.LVL93:
 1559              	.LFB129:
 633:Drivers/GD32F30x_standard_peripheral/Source/gd32f30x_can.c **** 
 634:Drivers/GD32F30x_standard_peripheral/Source/gd32f30x_can.c **** /*!
 635:Drivers/GD32F30x_standard_peripheral/Source/gd32f30x_can.c ****     \brief      release FIFO0
 636:Drivers/GD32F30x_standard_peripheral/Source/gd32f30x_can.c ****     \param[in]  can_periph
 637:Drivers/GD32F30x_standard_peripheral/Source/gd32f30x_can.c ****       \arg        CANx(x=0,1),the CAN1 only for GD32F30X_CL 
 638:Drivers/GD32F30x_standard_peripheral/Source/gd32f30x_can.c ****     \param[in]  fifo_number
 639:Drivers/GD32F30x_standard_peripheral/Source/gd32f30x_can.c ****                 only one parameter can be selected which is shown as below:
 640:Drivers/GD32F30x_standard_peripheral/Source/gd32f30x_can.c ****       \arg        CAN_FIFOx(x=0,1)
 641:Drivers/GD32F30x_standard_peripheral/Source/gd32f30x_can.c ****     \param[out] none
 642:Drivers/GD32F30x_standard_peripheral/Source/gd32f30x_can.c ****     \retval     none
 643:Drivers/GD32F30x_standard_peripheral/Source/gd32f30x_can.c **** */
 644:Drivers/GD32F30x_standard_peripheral/Source/gd32f30x_can.c **** void can_fifo_release(uint32_t can_periph, uint8_t fifo_number)
 645:Drivers/GD32F30x_standard_peripheral/Source/gd32f30x_can.c **** {
 1560              		.loc 1 645 1 is_stmt 1 view -0
 1561              		.cfi_startproc
 1562              		@ args = 0, pretend = 0, frame = 0
 1563              		@ frame_needed = 0, uses_anonymous_args = 0
 1564              		@ link register save eliminated.
 646:Drivers/GD32F30x_standard_peripheral/Source/gd32f30x_can.c ****     if(CAN_FIFO0 == fifo_number){
 1565              		.loc 1 646 5 view .LVU525
 1566              		.loc 1 646 7 is_stmt 0 view .LVU526
 1567 0000 21B9     		cbnz	r1, .L124
 647:Drivers/GD32F30x_standard_peripheral/Source/gd32f30x_can.c ****         CAN_RFIFO0(can_periph) |= CAN_RFIFO0_RFD0;
 1568              		.loc 1 647 9 is_stmt 1 view .LVU527
 1569              		.loc 1 647 32 is_stmt 0 view .LVU528
 1570 0002 C368     		ldr	r3, [r0, #12]
 1571 0004 43F02003 		orr	r3, r3, #32
ARM GAS  C:\Users\Prog\AppData\Local\Temp\ccu1v3Z3.s 			page 42


 1572 0008 C360     		str	r3, [r0, #12]
 1573 000a 7047     		bx	lr
 1574              	.L124:
 648:Drivers/GD32F30x_standard_peripheral/Source/gd32f30x_can.c ****     }else if(CAN_FIFO1 == fifo_number){
 1575              		.loc 1 648 11 is_stmt 1 view .LVU529
 1576              		.loc 1 648 13 is_stmt 0 view .LVU530
 1577 000c 0129     		cmp	r1, #1
 1578 000e 00D0     		beq	.L127
 1579              	.L126:
 649:Drivers/GD32F30x_standard_peripheral/Source/gd32f30x_can.c ****         CAN_RFIFO1(can_periph) |= CAN_RFIFO1_RFD1;
 650:Drivers/GD32F30x_standard_peripheral/Source/gd32f30x_can.c ****     }else{
 651:Drivers/GD32F30x_standard_peripheral/Source/gd32f30x_can.c ****         /* illegal parameters */
 652:Drivers/GD32F30x_standard_peripheral/Source/gd32f30x_can.c ****         CAN_ERROR_HANDLE("CAN FIFO NUM is invalid \r\n");
 1580              		.loc 1 652 9 is_stmt 1 discriminator 1 view .LVU531
 1581              		.loc 1 652 9 discriminator 1 view .LVU532
 1582              		.loc 1 652 9 discriminator 1 view .LVU533
 1583 0010 FEE7     		b	.L126
 1584              	.L127:
 649:Drivers/GD32F30x_standard_peripheral/Source/gd32f30x_can.c ****         CAN_RFIFO1(can_periph) |= CAN_RFIFO1_RFD1;
 1585              		.loc 1 649 9 view .LVU534
 649:Drivers/GD32F30x_standard_peripheral/Source/gd32f30x_can.c ****         CAN_RFIFO1(can_periph) |= CAN_RFIFO1_RFD1;
 1586              		.loc 1 649 32 is_stmt 0 view .LVU535
 1587 0012 0369     		ldr	r3, [r0, #16]
 1588 0014 43F02003 		orr	r3, r3, #32
 1589 0018 0361     		str	r3, [r0, #16]
 653:Drivers/GD32F30x_standard_peripheral/Source/gd32f30x_can.c ****     }
 654:Drivers/GD32F30x_standard_peripheral/Source/gd32f30x_can.c **** }
 1590              		.loc 1 654 1 view .LVU536
 1591 001a 7047     		bx	lr
 1592              		.cfi_endproc
 1593              	.LFE129:
 1595              		.section	.text.can_receive_message_length_get,"ax",%progbits
 1596              		.align	1
 1597              		.global	can_receive_message_length_get
 1598              		.syntax unified
 1599              		.thumb
 1600              		.thumb_func
 1601              		.fpu fpv4-sp-d16
 1603              	can_receive_message_length_get:
 1604              	.LVL94:
 1605              	.LFB130:
 655:Drivers/GD32F30x_standard_peripheral/Source/gd32f30x_can.c **** 
 656:Drivers/GD32F30x_standard_peripheral/Source/gd32f30x_can.c **** /*!
 657:Drivers/GD32F30x_standard_peripheral/Source/gd32f30x_can.c ****     \brief      CAN receive message length
 658:Drivers/GD32F30x_standard_peripheral/Source/gd32f30x_can.c ****     \param[in]  can_periph
 659:Drivers/GD32F30x_standard_peripheral/Source/gd32f30x_can.c ****       \arg        CANx(x=0,1),the CAN1 only for GD32F30X_CL 
 660:Drivers/GD32F30x_standard_peripheral/Source/gd32f30x_can.c ****     \param[in]  fifo_number
 661:Drivers/GD32F30x_standard_peripheral/Source/gd32f30x_can.c ****                 only one parameter can be selected which is shown as below:
 662:Drivers/GD32F30x_standard_peripheral/Source/gd32f30x_can.c ****       \arg        CAN_FIFOx(x=0,1) 
 663:Drivers/GD32F30x_standard_peripheral/Source/gd32f30x_can.c ****     \param[out] none
 664:Drivers/GD32F30x_standard_peripheral/Source/gd32f30x_can.c ****     \retval     message length
 665:Drivers/GD32F30x_standard_peripheral/Source/gd32f30x_can.c **** */
 666:Drivers/GD32F30x_standard_peripheral/Source/gd32f30x_can.c **** uint8_t can_receive_message_length_get(uint32_t can_periph, uint8_t fifo_number)
 667:Drivers/GD32F30x_standard_peripheral/Source/gd32f30x_can.c **** {
 1606              		.loc 1 667 1 is_stmt 1 view -0
 1607              		.cfi_startproc
 1608              		@ args = 0, pretend = 0, frame = 0
ARM GAS  C:\Users\Prog\AppData\Local\Temp\ccu1v3Z3.s 			page 43


 1609              		@ frame_needed = 0, uses_anonymous_args = 0
 1610              		@ link register save eliminated.
 668:Drivers/GD32F30x_standard_peripheral/Source/gd32f30x_can.c ****     uint8_t val = 0U;
 1611              		.loc 1 668 5 view .LVU538
 669:Drivers/GD32F30x_standard_peripheral/Source/gd32f30x_can.c ****     
 670:Drivers/GD32F30x_standard_peripheral/Source/gd32f30x_can.c ****     if(CAN_FIFO0 == fifo_number){
 1612              		.loc 1 670 5 view .LVU539
 1613              		.loc 1 670 7 is_stmt 0 view .LVU540
 1614 0000 19B9     		cbnz	r1, .L129
 671:Drivers/GD32F30x_standard_peripheral/Source/gd32f30x_can.c ****         /* FIFO0 */
 672:Drivers/GD32F30x_standard_peripheral/Source/gd32f30x_can.c ****         val = (uint8_t)(CAN_RFIFO0(can_periph) & CAN_RFIF_RFL_MASK);
 1615              		.loc 1 672 9 is_stmt 1 view .LVU541
 1616              		.loc 1 672 25 is_stmt 0 view .LVU542
 1617 0002 C068     		ldr	r0, [r0, #12]
 1618              	.LVL95:
 1619              		.loc 1 672 13 view .LVU543
 1620 0004 00F00300 		and	r0, r0, #3
 1621              	.LVL96:
 1622              		.loc 1 672 13 view .LVU544
 1623 0008 7047     		bx	lr
 1624              	.LVL97:
 1625              	.L129:
 673:Drivers/GD32F30x_standard_peripheral/Source/gd32f30x_can.c ****     }else if(CAN_FIFO1 == fifo_number){
 1626              		.loc 1 673 11 is_stmt 1 view .LVU545
 1627              		.loc 1 673 13 is_stmt 0 view .LVU546
 1628 000a 0129     		cmp	r1, #1
 1629 000c 01D0     		beq	.L132
 668:Drivers/GD32F30x_standard_peripheral/Source/gd32f30x_can.c ****     
 1630              		.loc 1 668 13 view .LVU547
 1631 000e 0020     		movs	r0, #0
 1632              	.LVL98:
 674:Drivers/GD32F30x_standard_peripheral/Source/gd32f30x_can.c ****         /* FIFO1 */
 675:Drivers/GD32F30x_standard_peripheral/Source/gd32f30x_can.c ****         val = (uint8_t)(CAN_RFIFO1(can_periph) & CAN_RFIF_RFL_MASK);
 676:Drivers/GD32F30x_standard_peripheral/Source/gd32f30x_can.c ****     }else{
 677:Drivers/GD32F30x_standard_peripheral/Source/gd32f30x_can.c ****         /* illegal parameters */
 678:Drivers/GD32F30x_standard_peripheral/Source/gd32f30x_can.c ****     }
 1633              		.loc 1 678 5 is_stmt 1 view .LVU548
 679:Drivers/GD32F30x_standard_peripheral/Source/gd32f30x_can.c ****     return val;
 1634              		.loc 1 679 5 view .LVU549
 680:Drivers/GD32F30x_standard_peripheral/Source/gd32f30x_can.c **** }
 1635              		.loc 1 680 1 is_stmt 0 view .LVU550
 1636 0010 7047     		bx	lr
 1637              	.LVL99:
 1638              	.L132:
 675:Drivers/GD32F30x_standard_peripheral/Source/gd32f30x_can.c ****     }else{
 1639              		.loc 1 675 9 is_stmt 1 view .LVU551
 675:Drivers/GD32F30x_standard_peripheral/Source/gd32f30x_can.c ****     }else{
 1640              		.loc 1 675 25 is_stmt 0 view .LVU552
 1641 0012 0069     		ldr	r0, [r0, #16]
 1642              	.LVL100:
 675:Drivers/GD32F30x_standard_peripheral/Source/gd32f30x_can.c ****     }else{
 1643              		.loc 1 675 13 view .LVU553
 1644 0014 00F00300 		and	r0, r0, #3
 1645              	.LVL101:
 675:Drivers/GD32F30x_standard_peripheral/Source/gd32f30x_can.c ****     }else{
 1646              		.loc 1 675 13 view .LVU554
 1647 0018 7047     		bx	lr
ARM GAS  C:\Users\Prog\AppData\Local\Temp\ccu1v3Z3.s 			page 44


 1648              		.cfi_endproc
 1649              	.LFE130:
 1651              		.section	.text.can_working_mode_set,"ax",%progbits
 1652              		.align	1
 1653              		.global	can_working_mode_set
 1654              		.syntax unified
 1655              		.thumb
 1656              		.thumb_func
 1657              		.fpu fpv4-sp-d16
 1659              	can_working_mode_set:
 1660              	.LVL102:
 1661              	.LFB131:
 681:Drivers/GD32F30x_standard_peripheral/Source/gd32f30x_can.c **** 
 682:Drivers/GD32F30x_standard_peripheral/Source/gd32f30x_can.c **** /*!
 683:Drivers/GD32F30x_standard_peripheral/Source/gd32f30x_can.c ****     \brief      set CAN working mode
 684:Drivers/GD32F30x_standard_peripheral/Source/gd32f30x_can.c ****     \param[in]  can_periph
 685:Drivers/GD32F30x_standard_peripheral/Source/gd32f30x_can.c ****       \arg        CANx(x=0,1),the CAN1 only for GD32F30X_CL 
 686:Drivers/GD32F30x_standard_peripheral/Source/gd32f30x_can.c ****     \param[in]  can_working_mode
 687:Drivers/GD32F30x_standard_peripheral/Source/gd32f30x_can.c ****                 only one parameter can be selected which is shown as below:
 688:Drivers/GD32F30x_standard_peripheral/Source/gd32f30x_can.c ****       \arg        CAN_MODE_INITIALIZE
 689:Drivers/GD32F30x_standard_peripheral/Source/gd32f30x_can.c ****       \arg        CAN_MODE_NORMAL
 690:Drivers/GD32F30x_standard_peripheral/Source/gd32f30x_can.c ****       \arg        CAN_MODE_SLEEP
 691:Drivers/GD32F30x_standard_peripheral/Source/gd32f30x_can.c ****     \param[out] none
 692:Drivers/GD32F30x_standard_peripheral/Source/gd32f30x_can.c ****     \retval     ErrStatus: SUCCESS or ERROR
 693:Drivers/GD32F30x_standard_peripheral/Source/gd32f30x_can.c **** */
 694:Drivers/GD32F30x_standard_peripheral/Source/gd32f30x_can.c **** ErrStatus can_working_mode_set(uint32_t can_periph, uint8_t working_mode)
 695:Drivers/GD32F30x_standard_peripheral/Source/gd32f30x_can.c **** {
 1662              		.loc 1 695 1 is_stmt 1 view -0
 1663              		.cfi_startproc
 1664              		@ args = 0, pretend = 0, frame = 0
 1665              		@ frame_needed = 0, uses_anonymous_args = 0
 1666              		@ link register save eliminated.
 696:Drivers/GD32F30x_standard_peripheral/Source/gd32f30x_can.c ****     ErrStatus flag = ERROR;
 1667              		.loc 1 696 5 view .LVU556
 697:Drivers/GD32F30x_standard_peripheral/Source/gd32f30x_can.c ****     /* timeout for IWS or also for SLPWS bits */
 698:Drivers/GD32F30x_standard_peripheral/Source/gd32f30x_can.c ****     uint32_t timeout = CAN_TIMEOUT; 
 1668              		.loc 1 698 5 view .LVU557
 699:Drivers/GD32F30x_standard_peripheral/Source/gd32f30x_can.c ****     
 700:Drivers/GD32F30x_standard_peripheral/Source/gd32f30x_can.c ****     if(CAN_MODE_INITIALIZE == working_mode){
 1669              		.loc 1 700 5 view .LVU558
 1670              		.loc 1 700 7 is_stmt 0 view .LVU559
 1671 0000 0129     		cmp	r1, #1
 1672 0002 05D0     		beq	.L150
 701:Drivers/GD32F30x_standard_peripheral/Source/gd32f30x_can.c ****         /* disable sleep mode */
 702:Drivers/GD32F30x_standard_peripheral/Source/gd32f30x_can.c ****         CAN_CTL(can_periph) &= (~(uint32_t)CAN_CTL_SLPWMOD);
 703:Drivers/GD32F30x_standard_peripheral/Source/gd32f30x_can.c ****         /* set initialize mode */
 704:Drivers/GD32F30x_standard_peripheral/Source/gd32f30x_can.c ****         CAN_CTL(can_periph) |= (uint8_t)CAN_CTL_IWMOD;
 705:Drivers/GD32F30x_standard_peripheral/Source/gd32f30x_can.c ****         /* wait the acknowledge */
 706:Drivers/GD32F30x_standard_peripheral/Source/gd32f30x_can.c ****         while((CAN_STAT_IWS != (CAN_STAT(can_periph) & CAN_STAT_IWS)) && (0U != timeout)){
 707:Drivers/GD32F30x_standard_peripheral/Source/gd32f30x_can.c ****             timeout--;
 708:Drivers/GD32F30x_standard_peripheral/Source/gd32f30x_can.c ****         }
 709:Drivers/GD32F30x_standard_peripheral/Source/gd32f30x_can.c ****         if(CAN_STAT_IWS != (CAN_STAT(can_periph) & CAN_STAT_IWS)){
 710:Drivers/GD32F30x_standard_peripheral/Source/gd32f30x_can.c ****             flag = ERROR;
 711:Drivers/GD32F30x_standard_peripheral/Source/gd32f30x_can.c ****         }else{
 712:Drivers/GD32F30x_standard_peripheral/Source/gd32f30x_can.c ****             flag = SUCCESS;
 713:Drivers/GD32F30x_standard_peripheral/Source/gd32f30x_can.c ****         }
 714:Drivers/GD32F30x_standard_peripheral/Source/gd32f30x_can.c ****     }else if(CAN_MODE_NORMAL == working_mode){
ARM GAS  C:\Users\Prog\AppData\Local\Temp\ccu1v3Z3.s 			page 45


 1673              		.loc 1 714 11 is_stmt 1 view .LVU560
 1674              		.loc 1 714 13 is_stmt 0 view .LVU561
 1675 0004 0229     		cmp	r1, #2
 1676 0006 1ED0     		beq	.L151
 715:Drivers/GD32F30x_standard_peripheral/Source/gd32f30x_can.c ****         /* enter normal mode */
 716:Drivers/GD32F30x_standard_peripheral/Source/gd32f30x_can.c ****         CAN_CTL(can_periph) &= ~(uint32_t)(CAN_CTL_SLPWMOD | CAN_CTL_IWMOD);
 717:Drivers/GD32F30x_standard_peripheral/Source/gd32f30x_can.c ****         /* wait the acknowledge */
 718:Drivers/GD32F30x_standard_peripheral/Source/gd32f30x_can.c ****         while((0U != (CAN_STAT(can_periph) & (CAN_STAT_IWS | CAN_STAT_SLPWS))) && (0U != timeout)){
 719:Drivers/GD32F30x_standard_peripheral/Source/gd32f30x_can.c ****             timeout--;
 720:Drivers/GD32F30x_standard_peripheral/Source/gd32f30x_can.c ****         }
 721:Drivers/GD32F30x_standard_peripheral/Source/gd32f30x_can.c ****         if(0U != (CAN_STAT(can_periph) & (CAN_STAT_IWS | CAN_STAT_SLPWS))){
 722:Drivers/GD32F30x_standard_peripheral/Source/gd32f30x_can.c ****             flag = ERROR;
 723:Drivers/GD32F30x_standard_peripheral/Source/gd32f30x_can.c ****         }else{
 724:Drivers/GD32F30x_standard_peripheral/Source/gd32f30x_can.c ****             flag = SUCCESS;
 725:Drivers/GD32F30x_standard_peripheral/Source/gd32f30x_can.c ****         }
 726:Drivers/GD32F30x_standard_peripheral/Source/gd32f30x_can.c ****     }else if(CAN_MODE_SLEEP == working_mode){
 1677              		.loc 1 726 11 is_stmt 1 view .LVU562
 1678              		.loc 1 726 13 is_stmt 0 view .LVU563
 1679 0008 0429     		cmp	r1, #4
 1680 000a 30D0     		beq	.L152
 727:Drivers/GD32F30x_standard_peripheral/Source/gd32f30x_can.c ****         /* disable initialize mode */
 728:Drivers/GD32F30x_standard_peripheral/Source/gd32f30x_can.c ****         CAN_CTL(can_periph) &= (~(uint32_t)CAN_CTL_IWMOD);
 729:Drivers/GD32F30x_standard_peripheral/Source/gd32f30x_can.c ****         /* set sleep mode */
 730:Drivers/GD32F30x_standard_peripheral/Source/gd32f30x_can.c ****         CAN_CTL(can_periph) |= (uint8_t)CAN_CTL_SLPWMOD;
 731:Drivers/GD32F30x_standard_peripheral/Source/gd32f30x_can.c ****         /* wait the acknowledge */
 732:Drivers/GD32F30x_standard_peripheral/Source/gd32f30x_can.c ****         while((CAN_STAT_SLPWS != (CAN_STAT(can_periph) & CAN_STAT_SLPWS)) && (0U != timeout)){
 733:Drivers/GD32F30x_standard_peripheral/Source/gd32f30x_can.c ****             timeout--;
 734:Drivers/GD32F30x_standard_peripheral/Source/gd32f30x_can.c ****         }
 735:Drivers/GD32F30x_standard_peripheral/Source/gd32f30x_can.c ****         if(CAN_STAT_SLPWS != (CAN_STAT(can_periph) & CAN_STAT_SLPWS)){
 736:Drivers/GD32F30x_standard_peripheral/Source/gd32f30x_can.c ****             flag = ERROR;
 737:Drivers/GD32F30x_standard_peripheral/Source/gd32f30x_can.c ****         }else{
 738:Drivers/GD32F30x_standard_peripheral/Source/gd32f30x_can.c ****             flag = SUCCESS;
 739:Drivers/GD32F30x_standard_peripheral/Source/gd32f30x_can.c ****         }
 740:Drivers/GD32F30x_standard_peripheral/Source/gd32f30x_can.c ****     }else{
 741:Drivers/GD32F30x_standard_peripheral/Source/gd32f30x_can.c ****         flag = ERROR;
 1681              		.loc 1 741 14 view .LVU564
 1682 000c 0020     		movs	r0, #0
 1683              	.LVL103:
 1684              		.loc 1 741 14 view .LVU565
 1685 000e 7047     		bx	lr
 1686              	.LVL104:
 1687              	.L150:
 702:Drivers/GD32F30x_standard_peripheral/Source/gd32f30x_can.c ****         /* set initialize mode */
 1688              		.loc 1 702 9 is_stmt 1 view .LVU566
 702:Drivers/GD32F30x_standard_peripheral/Source/gd32f30x_can.c ****         /* set initialize mode */
 1689              		.loc 1 702 29 is_stmt 0 view .LVU567
 1690 0010 0368     		ldr	r3, [r0]
 1691 0012 23F00203 		bic	r3, r3, #2
 1692 0016 0360     		str	r3, [r0]
 704:Drivers/GD32F30x_standard_peripheral/Source/gd32f30x_can.c ****         /* wait the acknowledge */
 1693              		.loc 1 704 9 is_stmt 1 view .LVU568
 704:Drivers/GD32F30x_standard_peripheral/Source/gd32f30x_can.c ****         /* wait the acknowledge */
 1694              		.loc 1 704 29 is_stmt 0 view .LVU569
 1695 0018 0368     		ldr	r3, [r0]
 1696 001a 43F00103 		orr	r3, r3, #1
 1697 001e 0360     		str	r3, [r0]
 706:Drivers/GD32F30x_standard_peripheral/Source/gd32f30x_can.c ****             timeout--;
ARM GAS  C:\Users\Prog\AppData\Local\Temp\ccu1v3Z3.s 			page 46


 1698              		.loc 1 706 9 is_stmt 1 view .LVU570
 698:Drivers/GD32F30x_standard_peripheral/Source/gd32f30x_can.c ****     
 1699              		.loc 1 698 14 is_stmt 0 view .LVU571
 1700 0020 4FF6FF73 		movw	r3, #65535
 706:Drivers/GD32F30x_standard_peripheral/Source/gd32f30x_can.c ****             timeout--;
 1701              		.loc 1 706 14 view .LVU572
 1702 0024 00E0     		b	.L135
 1703              	.LVL105:
 1704              	.L137:
 707:Drivers/GD32F30x_standard_peripheral/Source/gd32f30x_can.c ****         }
 1705              		.loc 1 707 13 is_stmt 1 view .LVU573
 707:Drivers/GD32F30x_standard_peripheral/Source/gd32f30x_can.c ****         }
 1706              		.loc 1 707 20 is_stmt 0 view .LVU574
 1707 0026 013B     		subs	r3, r3, #1
 1708              	.LVL106:
 1709              	.L135:
 706:Drivers/GD32F30x_standard_peripheral/Source/gd32f30x_can.c ****             timeout--;
 1710              		.loc 1 706 14 is_stmt 1 view .LVU575
 706:Drivers/GD32F30x_standard_peripheral/Source/gd32f30x_can.c ****             timeout--;
 1711              		.loc 1 706 33 is_stmt 0 view .LVU576
 1712 0028 00F1040C 		add	ip, r0, #4
 1713 002c 4268     		ldr	r2, [r0, #4]
 706:Drivers/GD32F30x_standard_peripheral/Source/gd32f30x_can.c ****             timeout--;
 1714              		.loc 1 706 14 view .LVU577
 1715 002e 12F0010F 		tst	r2, #1
 1716 0032 01D1     		bne	.L136
 706:Drivers/GD32F30x_standard_peripheral/Source/gd32f30x_can.c ****             timeout--;
 1717              		.loc 1 706 71 discriminator 1 view .LVU578
 1718 0034 002B     		cmp	r3, #0
 1719 0036 F6D1     		bne	.L137
 1720              	.L136:
 709:Drivers/GD32F30x_standard_peripheral/Source/gd32f30x_can.c ****             flag = ERROR;
 1721              		.loc 1 709 9 is_stmt 1 view .LVU579
 709:Drivers/GD32F30x_standard_peripheral/Source/gd32f30x_can.c ****             flag = ERROR;
 1722              		.loc 1 709 29 is_stmt 0 view .LVU580
 1723 0038 DCF80030 		ldr	r3, [ip]
 1724              	.LVL107:
 709:Drivers/GD32F30x_standard_peripheral/Source/gd32f30x_can.c ****             flag = ERROR;
 1725              		.loc 1 709 11 view .LVU581
 1726 003c 13F0010F 		tst	r3, #1
 1727 0040 2DD1     		bne	.L146
 710:Drivers/GD32F30x_standard_peripheral/Source/gd32f30x_can.c ****         }else{
 1728              		.loc 1 710 18 view .LVU582
 1729 0042 0020     		movs	r0, #0
 1730              	.LVL108:
 710:Drivers/GD32F30x_standard_peripheral/Source/gd32f30x_can.c ****         }else{
 1731              		.loc 1 710 18 view .LVU583
 1732 0044 7047     		bx	lr
 1733              	.LVL109:
 1734              	.L151:
 716:Drivers/GD32F30x_standard_peripheral/Source/gd32f30x_can.c ****         /* wait the acknowledge */
 1735              		.loc 1 716 9 is_stmt 1 view .LVU584
 716:Drivers/GD32F30x_standard_peripheral/Source/gd32f30x_can.c ****         /* wait the acknowledge */
 1736              		.loc 1 716 29 is_stmt 0 view .LVU585
 1737 0046 0368     		ldr	r3, [r0]
 1738 0048 23F00303 		bic	r3, r3, #3
 1739 004c 0360     		str	r3, [r0]
ARM GAS  C:\Users\Prog\AppData\Local\Temp\ccu1v3Z3.s 			page 47


 718:Drivers/GD32F30x_standard_peripheral/Source/gd32f30x_can.c ****             timeout--;
 1740              		.loc 1 718 9 is_stmt 1 view .LVU586
 698:Drivers/GD32F30x_standard_peripheral/Source/gd32f30x_can.c ****     
 1741              		.loc 1 698 14 is_stmt 0 view .LVU587
 1742 004e 4FF6FF73 		movw	r3, #65535
 1743              	.LVL110:
 1744              	.L140:
 718:Drivers/GD32F30x_standard_peripheral/Source/gd32f30x_can.c ****             timeout--;
 1745              		.loc 1 718 14 is_stmt 1 view .LVU588
 718:Drivers/GD32F30x_standard_peripheral/Source/gd32f30x_can.c ****             timeout--;
 1746              		.loc 1 718 23 is_stmt 0 view .LVU589
 1747 0052 011D     		adds	r1, r0, #4
 1748 0054 4268     		ldr	r2, [r0, #4]
 718:Drivers/GD32F30x_standard_peripheral/Source/gd32f30x_can.c ****             timeout--;
 1749              		.loc 1 718 14 view .LVU590
 1750 0056 12F0030F 		tst	r2, #3
 1751 005a 02D0     		beq	.L141
 718:Drivers/GD32F30x_standard_peripheral/Source/gd32f30x_can.c ****             timeout--;
 1752              		.loc 1 718 80 discriminator 1 view .LVU591
 1753 005c 0BB1     		cbz	r3, .L141
 719:Drivers/GD32F30x_standard_peripheral/Source/gd32f30x_can.c ****         }
 1754              		.loc 1 719 13 is_stmt 1 view .LVU592
 719:Drivers/GD32F30x_standard_peripheral/Source/gd32f30x_can.c ****         }
 1755              		.loc 1 719 20 is_stmt 0 view .LVU593
 1756 005e 013B     		subs	r3, r3, #1
 1757              	.LVL111:
 719:Drivers/GD32F30x_standard_peripheral/Source/gd32f30x_can.c ****         }
 1758              		.loc 1 719 20 view .LVU594
 1759 0060 F7E7     		b	.L140
 1760              	.L141:
 721:Drivers/GD32F30x_standard_peripheral/Source/gd32f30x_can.c ****             flag = ERROR;
 1761              		.loc 1 721 9 is_stmt 1 view .LVU595
 721:Drivers/GD32F30x_standard_peripheral/Source/gd32f30x_can.c ****             flag = ERROR;
 1762              		.loc 1 721 19 is_stmt 0 view .LVU596
 1763 0062 0B68     		ldr	r3, [r1]
 1764              	.LVL112:
 721:Drivers/GD32F30x_standard_peripheral/Source/gd32f30x_can.c ****             flag = ERROR;
 1765              		.loc 1 721 11 view .LVU597
 1766 0064 13F0030F 		tst	r3, #3
 1767 0068 1BD0     		beq	.L147
 722:Drivers/GD32F30x_standard_peripheral/Source/gd32f30x_can.c ****         }else{
 1768              		.loc 1 722 18 view .LVU598
 1769 006a 0020     		movs	r0, #0
 1770              	.LVL113:
 722:Drivers/GD32F30x_standard_peripheral/Source/gd32f30x_can.c ****         }else{
 1771              		.loc 1 722 18 view .LVU599
 1772 006c 7047     		bx	lr
 1773              	.LVL114:
 1774              	.L152:
 728:Drivers/GD32F30x_standard_peripheral/Source/gd32f30x_can.c ****         /* set sleep mode */
 1775              		.loc 1 728 9 is_stmt 1 view .LVU600
 728:Drivers/GD32F30x_standard_peripheral/Source/gd32f30x_can.c ****         /* set sleep mode */
 1776              		.loc 1 728 29 is_stmt 0 view .LVU601
 1777 006e 0368     		ldr	r3, [r0]
 1778 0070 23F00103 		bic	r3, r3, #1
 1779 0074 0360     		str	r3, [r0]
 730:Drivers/GD32F30x_standard_peripheral/Source/gd32f30x_can.c ****         /* wait the acknowledge */
ARM GAS  C:\Users\Prog\AppData\Local\Temp\ccu1v3Z3.s 			page 48


 1780              		.loc 1 730 9 is_stmt 1 view .LVU602
 730:Drivers/GD32F30x_standard_peripheral/Source/gd32f30x_can.c ****         /* wait the acknowledge */
 1781              		.loc 1 730 29 is_stmt 0 view .LVU603
 1782 0076 0368     		ldr	r3, [r0]
 1783 0078 43F00203 		orr	r3, r3, #2
 1784 007c 0360     		str	r3, [r0]
 732:Drivers/GD32F30x_standard_peripheral/Source/gd32f30x_can.c ****             timeout--;
 1785              		.loc 1 732 9 is_stmt 1 view .LVU604
 698:Drivers/GD32F30x_standard_peripheral/Source/gd32f30x_can.c ****     
 1786              		.loc 1 698 14 is_stmt 0 view .LVU605
 1787 007e 4FF6FF73 		movw	r3, #65535
 1788              	.LVL115:
 1789              	.L143:
 732:Drivers/GD32F30x_standard_peripheral/Source/gd32f30x_can.c ****             timeout--;
 1790              		.loc 1 732 14 is_stmt 1 view .LVU606
 732:Drivers/GD32F30x_standard_peripheral/Source/gd32f30x_can.c ****             timeout--;
 1791              		.loc 1 732 35 is_stmt 0 view .LVU607
 1792 0082 011D     		adds	r1, r0, #4
 1793 0084 4268     		ldr	r2, [r0, #4]
 732:Drivers/GD32F30x_standard_peripheral/Source/gd32f30x_can.c ****             timeout--;
 1794              		.loc 1 732 14 view .LVU608
 1795 0086 12F0020F 		tst	r2, #2
 1796 008a 02D1     		bne	.L144
 732:Drivers/GD32F30x_standard_peripheral/Source/gd32f30x_can.c ****             timeout--;
 1797              		.loc 1 732 75 discriminator 1 view .LVU609
 1798 008c 0BB1     		cbz	r3, .L144
 733:Drivers/GD32F30x_standard_peripheral/Source/gd32f30x_can.c ****         }
 1799              		.loc 1 733 13 is_stmt 1 view .LVU610
 733:Drivers/GD32F30x_standard_peripheral/Source/gd32f30x_can.c ****         }
 1800              		.loc 1 733 20 is_stmt 0 view .LVU611
 1801 008e 013B     		subs	r3, r3, #1
 1802              	.LVL116:
 733:Drivers/GD32F30x_standard_peripheral/Source/gd32f30x_can.c ****         }
 1803              		.loc 1 733 20 view .LVU612
 1804 0090 F7E7     		b	.L143
 1805              	.L144:
 735:Drivers/GD32F30x_standard_peripheral/Source/gd32f30x_can.c ****             flag = ERROR;
 1806              		.loc 1 735 9 is_stmt 1 view .LVU613
 735:Drivers/GD32F30x_standard_peripheral/Source/gd32f30x_can.c ****             flag = ERROR;
 1807              		.loc 1 735 31 is_stmt 0 view .LVU614
 1808 0092 0B68     		ldr	r3, [r1]
 1809              	.LVL117:
 735:Drivers/GD32F30x_standard_peripheral/Source/gd32f30x_can.c ****             flag = ERROR;
 1810              		.loc 1 735 11 view .LVU615
 1811 0094 13F0020F 		tst	r3, #2
 1812 0098 05D1     		bne	.L149
 736:Drivers/GD32F30x_standard_peripheral/Source/gd32f30x_can.c ****         }else{
 1813              		.loc 1 736 18 view .LVU616
 1814 009a 0020     		movs	r0, #0
 1815              	.LVL118:
 736:Drivers/GD32F30x_standard_peripheral/Source/gd32f30x_can.c ****         }else{
 1816              		.loc 1 736 18 view .LVU617
 1817 009c 7047     		bx	lr
 1818              	.LVL119:
 1819              	.L146:
 712:Drivers/GD32F30x_standard_peripheral/Source/gd32f30x_can.c ****         }
 1820              		.loc 1 712 18 view .LVU618
ARM GAS  C:\Users\Prog\AppData\Local\Temp\ccu1v3Z3.s 			page 49


 1821 009e 0846     		mov	r0, r1
 1822              	.LVL120:
 712:Drivers/GD32F30x_standard_peripheral/Source/gd32f30x_can.c ****         }
 1823              		.loc 1 712 18 view .LVU619
 1824 00a0 7047     		bx	lr
 1825              	.LVL121:
 1826              	.L147:
 724:Drivers/GD32F30x_standard_peripheral/Source/gd32f30x_can.c ****         }
 1827              		.loc 1 724 18 view .LVU620
 1828 00a2 0120     		movs	r0, #1
 1829              	.LVL122:
 724:Drivers/GD32F30x_standard_peripheral/Source/gd32f30x_can.c ****         }
 1830              		.loc 1 724 18 view .LVU621
 1831 00a4 7047     		bx	lr
 1832              	.LVL123:
 1833              	.L149:
 738:Drivers/GD32F30x_standard_peripheral/Source/gd32f30x_can.c ****         }
 1834              		.loc 1 738 18 view .LVU622
 1835 00a6 0120     		movs	r0, #1
 1836              	.LVL124:
 742:Drivers/GD32F30x_standard_peripheral/Source/gd32f30x_can.c ****     }
 743:Drivers/GD32F30x_standard_peripheral/Source/gd32f30x_can.c ****     return flag;
 1837              		.loc 1 743 5 is_stmt 1 view .LVU623
 744:Drivers/GD32F30x_standard_peripheral/Source/gd32f30x_can.c **** }
 1838              		.loc 1 744 1 is_stmt 0 view .LVU624
 1839 00a8 7047     		bx	lr
 1840              		.cfi_endproc
 1841              	.LFE131:
 1843              		.section	.text.can_wakeup,"ax",%progbits
 1844              		.align	1
 1845              		.global	can_wakeup
 1846              		.syntax unified
 1847              		.thumb
 1848              		.thumb_func
 1849              		.fpu fpv4-sp-d16
 1851              	can_wakeup:
 1852              	.LVL125:
 1853              	.LFB132:
 745:Drivers/GD32F30x_standard_peripheral/Source/gd32f30x_can.c **** 
 746:Drivers/GD32F30x_standard_peripheral/Source/gd32f30x_can.c **** /*!
 747:Drivers/GD32F30x_standard_peripheral/Source/gd32f30x_can.c ****     \brief      wake up CAN
 748:Drivers/GD32F30x_standard_peripheral/Source/gd32f30x_can.c ****     \param[in]  can_periph
 749:Drivers/GD32F30x_standard_peripheral/Source/gd32f30x_can.c ****       \arg        CANx(x=0,1),the CAN1 only for GD32F30X_CL 
 750:Drivers/GD32F30x_standard_peripheral/Source/gd32f30x_can.c ****     \param[out] none
 751:Drivers/GD32F30x_standard_peripheral/Source/gd32f30x_can.c ****     \retval     ErrStatus: SUCCESS or ERROR
 752:Drivers/GD32F30x_standard_peripheral/Source/gd32f30x_can.c **** */
 753:Drivers/GD32F30x_standard_peripheral/Source/gd32f30x_can.c **** ErrStatus can_wakeup(uint32_t can_periph)
 754:Drivers/GD32F30x_standard_peripheral/Source/gd32f30x_can.c **** {
 1854              		.loc 1 754 1 is_stmt 1 view -0
 1855              		.cfi_startproc
 1856              		@ args = 0, pretend = 0, frame = 0
 1857              		@ frame_needed = 0, uses_anonymous_args = 0
 1858              		@ link register save eliminated.
 755:Drivers/GD32F30x_standard_peripheral/Source/gd32f30x_can.c ****     ErrStatus flag = ERROR;
 1859              		.loc 1 755 5 view .LVU626
 756:Drivers/GD32F30x_standard_peripheral/Source/gd32f30x_can.c ****     uint32_t timeout = CAN_TIMEOUT;
 1860              		.loc 1 756 5 view .LVU627
ARM GAS  C:\Users\Prog\AppData\Local\Temp\ccu1v3Z3.s 			page 50


 757:Drivers/GD32F30x_standard_peripheral/Source/gd32f30x_can.c ****     
 758:Drivers/GD32F30x_standard_peripheral/Source/gd32f30x_can.c ****     /* wakeup */
 759:Drivers/GD32F30x_standard_peripheral/Source/gd32f30x_can.c ****     CAN_CTL(can_periph) &= ~CAN_CTL_SLPWMOD;
 1861              		.loc 1 759 5 view .LVU628
 1862              		.loc 1 759 25 is_stmt 0 view .LVU629
 1863 0000 0368     		ldr	r3, [r0]
 1864 0002 23F00203 		bic	r3, r3, #2
 1865 0006 0360     		str	r3, [r0]
 760:Drivers/GD32F30x_standard_peripheral/Source/gd32f30x_can.c ****     
 761:Drivers/GD32F30x_standard_peripheral/Source/gd32f30x_can.c ****     while((0U != (CAN_STAT(can_periph) & CAN_STAT_SLPWS)) && (0x00U != timeout)){
 1866              		.loc 1 761 5 is_stmt 1 view .LVU630
 756:Drivers/GD32F30x_standard_peripheral/Source/gd32f30x_can.c ****     
 1867              		.loc 1 756 14 is_stmt 0 view .LVU631
 1868 0008 4FF6FF73 		movw	r3, #65535
 1869              	.LVL126:
 1870              	.L154:
 1871              		.loc 1 761 10 is_stmt 1 view .LVU632
 1872              		.loc 1 761 19 is_stmt 0 view .LVU633
 1873 000c 011D     		adds	r1, r0, #4
 1874 000e 4268     		ldr	r2, [r0, #4]
 1875              		.loc 1 761 10 view .LVU634
 1876 0010 12F0020F 		tst	r2, #2
 1877 0014 02D0     		beq	.L155
 1878              		.loc 1 761 59 discriminator 1 view .LVU635
 1879 0016 0BB1     		cbz	r3, .L155
 762:Drivers/GD32F30x_standard_peripheral/Source/gd32f30x_can.c ****         timeout--;
 1880              		.loc 1 762 9 is_stmt 1 view .LVU636
 1881              		.loc 1 762 16 is_stmt 0 view .LVU637
 1882 0018 013B     		subs	r3, r3, #1
 1883              	.LVL127:
 1884              		.loc 1 762 16 view .LVU638
 1885 001a F7E7     		b	.L154
 1886              	.L155:
 763:Drivers/GD32F30x_standard_peripheral/Source/gd32f30x_can.c ****     }
 764:Drivers/GD32F30x_standard_peripheral/Source/gd32f30x_can.c ****     /* check state */
 765:Drivers/GD32F30x_standard_peripheral/Source/gd32f30x_can.c ****     if(0U != (CAN_STAT(can_periph) & CAN_STAT_SLPWS)){
 1887              		.loc 1 765 5 is_stmt 1 view .LVU639
 1888              		.loc 1 765 15 is_stmt 0 view .LVU640
 1889 001c 0B68     		ldr	r3, [r1]
 1890              	.LVL128:
 1891              		.loc 1 765 7 view .LVU641
 1892 001e 13F0020F 		tst	r3, #2
 1893 0022 01D0     		beq	.L158
 766:Drivers/GD32F30x_standard_peripheral/Source/gd32f30x_can.c ****         flag = ERROR;
 1894              		.loc 1 766 14 view .LVU642
 1895 0024 0020     		movs	r0, #0
 1896              	.LVL129:
 1897              		.loc 1 766 14 view .LVU643
 1898 0026 7047     		bx	lr
 1899              	.LVL130:
 1900              	.L158:
 767:Drivers/GD32F30x_standard_peripheral/Source/gd32f30x_can.c ****     }else{
 768:Drivers/GD32F30x_standard_peripheral/Source/gd32f30x_can.c ****         flag = SUCCESS;
 1901              		.loc 1 768 14 view .LVU644
 1902 0028 0120     		movs	r0, #1
 1903              	.LVL131:
 769:Drivers/GD32F30x_standard_peripheral/Source/gd32f30x_can.c ****     }
ARM GAS  C:\Users\Prog\AppData\Local\Temp\ccu1v3Z3.s 			page 51


 770:Drivers/GD32F30x_standard_peripheral/Source/gd32f30x_can.c ****     return flag;
 1904              		.loc 1 770 5 is_stmt 1 view .LVU645
 771:Drivers/GD32F30x_standard_peripheral/Source/gd32f30x_can.c **** }
 1905              		.loc 1 771 1 is_stmt 0 view .LVU646
 1906 002a 7047     		bx	lr
 1907              		.cfi_endproc
 1908              	.LFE132:
 1910              		.section	.text.can_error_get,"ax",%progbits
 1911              		.align	1
 1912              		.global	can_error_get
 1913              		.syntax unified
 1914              		.thumb
 1915              		.thumb_func
 1916              		.fpu fpv4-sp-d16
 1918              	can_error_get:
 1919              	.LVL132:
 1920              	.LFB133:
 772:Drivers/GD32F30x_standard_peripheral/Source/gd32f30x_can.c **** 
 773:Drivers/GD32F30x_standard_peripheral/Source/gd32f30x_can.c **** /*!
 774:Drivers/GD32F30x_standard_peripheral/Source/gd32f30x_can.c ****     \brief      get CAN error type
 775:Drivers/GD32F30x_standard_peripheral/Source/gd32f30x_can.c ****     \param[in]  can_periph
 776:Drivers/GD32F30x_standard_peripheral/Source/gd32f30x_can.c ****       \arg        CANx(x=0,1),the CAN1 only for GD32F30X_CL 
 777:Drivers/GD32F30x_standard_peripheral/Source/gd32f30x_can.c ****     \param[out] none
 778:Drivers/GD32F30x_standard_peripheral/Source/gd32f30x_can.c ****     \retval     can_error_enum
 779:Drivers/GD32F30x_standard_peripheral/Source/gd32f30x_can.c ****       \arg        CAN_ERROR_NONE: no error
 780:Drivers/GD32F30x_standard_peripheral/Source/gd32f30x_can.c ****       \arg        CAN_ERROR_FILL: fill error
 781:Drivers/GD32F30x_standard_peripheral/Source/gd32f30x_can.c ****       \arg        CAN_ERROR_FORMATE: format error
 782:Drivers/GD32F30x_standard_peripheral/Source/gd32f30x_can.c ****       \arg        CAN_ERROR_ACK: ACK error
 783:Drivers/GD32F30x_standard_peripheral/Source/gd32f30x_can.c ****       \arg        CAN_ERROR_BITRECESSIVE: bit recessive
 784:Drivers/GD32F30x_standard_peripheral/Source/gd32f30x_can.c ****       \arg        CAN_ERROR_BITDOMINANTER: bit dominant error
 785:Drivers/GD32F30x_standard_peripheral/Source/gd32f30x_can.c ****       \arg        CAN_ERROR_CRC: CRC error
 786:Drivers/GD32F30x_standard_peripheral/Source/gd32f30x_can.c ****       \arg        CAN_ERROR_SOFTWARECFG: software configure
 787:Drivers/GD32F30x_standard_peripheral/Source/gd32f30x_can.c **** */
 788:Drivers/GD32F30x_standard_peripheral/Source/gd32f30x_can.c **** can_error_enum can_error_get(uint32_t can_periph)
 789:Drivers/GD32F30x_standard_peripheral/Source/gd32f30x_can.c **** {
 1921              		.loc 1 789 1 is_stmt 1 view -0
 1922              		.cfi_startproc
 1923              		@ args = 0, pretend = 0, frame = 0
 1924              		@ frame_needed = 0, uses_anonymous_args = 0
 1925              		@ link register save eliminated.
 790:Drivers/GD32F30x_standard_peripheral/Source/gd32f30x_can.c ****     can_error_enum error;
 1926              		.loc 1 790 5 view .LVU648
 791:Drivers/GD32F30x_standard_peripheral/Source/gd32f30x_can.c ****     error = CAN_ERROR_NONE;
 1927              		.loc 1 791 5 view .LVU649
 792:Drivers/GD32F30x_standard_peripheral/Source/gd32f30x_can.c ****     
 793:Drivers/GD32F30x_standard_peripheral/Source/gd32f30x_can.c ****     /* get error type */
 794:Drivers/GD32F30x_standard_peripheral/Source/gd32f30x_can.c ****     error = (can_error_enum)(GET_ERR_ERRN(CAN_ERR(can_periph)));
 1928              		.loc 1 794 5 view .LVU650
 1929              		.loc 1 794 30 is_stmt 0 view .LVU651
 1930 0000 8069     		ldr	r0, [r0, #24]
 1931              	.LVL133:
 795:Drivers/GD32F30x_standard_peripheral/Source/gd32f30x_can.c ****     return error;
 1932              		.loc 1 795 5 is_stmt 1 view .LVU652
 796:Drivers/GD32F30x_standard_peripheral/Source/gd32f30x_can.c **** }
 1933              		.loc 1 796 1 is_stmt 0 view .LVU653
 1934 0002 C0F30210 		ubfx	r0, r0, #4, #3
 1935              	.LVL134:
ARM GAS  C:\Users\Prog\AppData\Local\Temp\ccu1v3Z3.s 			page 52


 1936              		.loc 1 796 1 view .LVU654
 1937 0006 7047     		bx	lr
 1938              		.cfi_endproc
 1939              	.LFE133:
 1941              		.section	.text.can_receive_error_number_get,"ax",%progbits
 1942              		.align	1
 1943              		.global	can_receive_error_number_get
 1944              		.syntax unified
 1945              		.thumb
 1946              		.thumb_func
 1947              		.fpu fpv4-sp-d16
 1949              	can_receive_error_number_get:
 1950              	.LVL135:
 1951              	.LFB134:
 797:Drivers/GD32F30x_standard_peripheral/Source/gd32f30x_can.c **** 
 798:Drivers/GD32F30x_standard_peripheral/Source/gd32f30x_can.c **** /*!
 799:Drivers/GD32F30x_standard_peripheral/Source/gd32f30x_can.c ****     \brief      get CAN receive error number
 800:Drivers/GD32F30x_standard_peripheral/Source/gd32f30x_can.c ****     \param[in]  can_periph
 801:Drivers/GD32F30x_standard_peripheral/Source/gd32f30x_can.c ****       \arg        CANx(x=0,1),the CAN1 only for GD32F30X_CL 
 802:Drivers/GD32F30x_standard_peripheral/Source/gd32f30x_can.c ****     \param[out] none
 803:Drivers/GD32F30x_standard_peripheral/Source/gd32f30x_can.c ****     \retval     error number
 804:Drivers/GD32F30x_standard_peripheral/Source/gd32f30x_can.c **** */
 805:Drivers/GD32F30x_standard_peripheral/Source/gd32f30x_can.c **** uint8_t can_receive_error_number_get(uint32_t can_periph)
 806:Drivers/GD32F30x_standard_peripheral/Source/gd32f30x_can.c **** {
 1952              		.loc 1 806 1 is_stmt 1 view -0
 1953              		.cfi_startproc
 1954              		@ args = 0, pretend = 0, frame = 0
 1955              		@ frame_needed = 0, uses_anonymous_args = 0
 1956              		@ link register save eliminated.
 807:Drivers/GD32F30x_standard_peripheral/Source/gd32f30x_can.c ****     uint8_t val;
 1957              		.loc 1 807 5 view .LVU656
 808:Drivers/GD32F30x_standard_peripheral/Source/gd32f30x_can.c ****     
 809:Drivers/GD32F30x_standard_peripheral/Source/gd32f30x_can.c ****     /* get error count */
 810:Drivers/GD32F30x_standard_peripheral/Source/gd32f30x_can.c ****     val = (uint8_t)(GET_ERR_RECNT(CAN_ERR(can_periph)));
 1958              		.loc 1 810 5 view .LVU657
 1959              		.loc 1 810 21 is_stmt 0 view .LVU658
 1960 0000 8069     		ldr	r0, [r0, #24]
 1961              	.LVL136:
 811:Drivers/GD32F30x_standard_peripheral/Source/gd32f30x_can.c ****     return val;
 1962              		.loc 1 811 5 is_stmt 1 view .LVU659
 812:Drivers/GD32F30x_standard_peripheral/Source/gd32f30x_can.c **** }
 1963              		.loc 1 812 1 is_stmt 0 view .LVU660
 1964 0002 000E     		lsrs	r0, r0, #24
 1965              	.LVL137:
 1966              		.loc 1 812 1 view .LVU661
 1967 0004 7047     		bx	lr
 1968              		.cfi_endproc
 1969              	.LFE134:
 1971              		.section	.text.can_transmit_error_number_get,"ax",%progbits
 1972              		.align	1
 1973              		.global	can_transmit_error_number_get
 1974              		.syntax unified
 1975              		.thumb
 1976              		.thumb_func
 1977              		.fpu fpv4-sp-d16
 1979              	can_transmit_error_number_get:
 1980              	.LVL138:
ARM GAS  C:\Users\Prog\AppData\Local\Temp\ccu1v3Z3.s 			page 53


 1981              	.LFB135:
 813:Drivers/GD32F30x_standard_peripheral/Source/gd32f30x_can.c **** 
 814:Drivers/GD32F30x_standard_peripheral/Source/gd32f30x_can.c **** /*!
 815:Drivers/GD32F30x_standard_peripheral/Source/gd32f30x_can.c ****     \brief      get CAN transmit error number
 816:Drivers/GD32F30x_standard_peripheral/Source/gd32f30x_can.c ****     \param[in]  can_periph
 817:Drivers/GD32F30x_standard_peripheral/Source/gd32f30x_can.c ****       \arg        CANx(x=0,1),the CAN1 only for GD32F30X_CL 
 818:Drivers/GD32F30x_standard_peripheral/Source/gd32f30x_can.c ****     \param[out] none
 819:Drivers/GD32F30x_standard_peripheral/Source/gd32f30x_can.c ****     \retval     error number
 820:Drivers/GD32F30x_standard_peripheral/Source/gd32f30x_can.c **** */
 821:Drivers/GD32F30x_standard_peripheral/Source/gd32f30x_can.c **** uint8_t can_transmit_error_number_get(uint32_t can_periph)
 822:Drivers/GD32F30x_standard_peripheral/Source/gd32f30x_can.c **** {
 1982              		.loc 1 822 1 is_stmt 1 view -0
 1983              		.cfi_startproc
 1984              		@ args = 0, pretend = 0, frame = 0
 1985              		@ frame_needed = 0, uses_anonymous_args = 0
 1986              		@ link register save eliminated.
 823:Drivers/GD32F30x_standard_peripheral/Source/gd32f30x_can.c ****     uint8_t val;
 1987              		.loc 1 823 5 view .LVU663
 824:Drivers/GD32F30x_standard_peripheral/Source/gd32f30x_can.c ****     
 825:Drivers/GD32F30x_standard_peripheral/Source/gd32f30x_can.c ****     val = (uint8_t)(GET_ERR_TECNT(CAN_ERR(can_periph)));
 1988              		.loc 1 825 5 view .LVU664
 1989              		.loc 1 825 21 is_stmt 0 view .LVU665
 1990 0000 8069     		ldr	r0, [r0, #24]
 1991              	.LVL139:
 826:Drivers/GD32F30x_standard_peripheral/Source/gd32f30x_can.c ****     return val;
 1992              		.loc 1 826 5 is_stmt 1 view .LVU666
 827:Drivers/GD32F30x_standard_peripheral/Source/gd32f30x_can.c **** }
 1993              		.loc 1 827 1 is_stmt 0 view .LVU667
 1994 0002 C0F30740 		ubfx	r0, r0, #16, #8
 1995              	.LVL140:
 1996              		.loc 1 827 1 view .LVU668
 1997 0006 7047     		bx	lr
 1998              		.cfi_endproc
 1999              	.LFE135:
 2001              		.section	.text.can_interrupt_enable,"ax",%progbits
 2002              		.align	1
 2003              		.global	can_interrupt_enable
 2004              		.syntax unified
 2005              		.thumb
 2006              		.thumb_func
 2007              		.fpu fpv4-sp-d16
 2009              	can_interrupt_enable:
 2010              	.LVL141:
 2011              	.LFB136:
 828:Drivers/GD32F30x_standard_peripheral/Source/gd32f30x_can.c **** 
 829:Drivers/GD32F30x_standard_peripheral/Source/gd32f30x_can.c **** /*!
 830:Drivers/GD32F30x_standard_peripheral/Source/gd32f30x_can.c ****     \brief      enable CAN interrupt 
 831:Drivers/GD32F30x_standard_peripheral/Source/gd32f30x_can.c ****     \param[in]  can_periph
 832:Drivers/GD32F30x_standard_peripheral/Source/gd32f30x_can.c ****       \arg        CANx(x=0,1),the CAN1 only for GD32F30X_CL 
 833:Drivers/GD32F30x_standard_peripheral/Source/gd32f30x_can.c ****     \param[in]  interrupt 
 834:Drivers/GD32F30x_standard_peripheral/Source/gd32f30x_can.c ****                 one or more parameters can be selected which are shown as below:
 835:Drivers/GD32F30x_standard_peripheral/Source/gd32f30x_can.c ****       \arg        CAN_INT_TME: transmit mailbox empty interrupt enable
 836:Drivers/GD32F30x_standard_peripheral/Source/gd32f30x_can.c ****       \arg        CAN_INT_RFNE0: receive FIFO0 not empty interrupt enable
 837:Drivers/GD32F30x_standard_peripheral/Source/gd32f30x_can.c ****       \arg        CAN_INT_RFF0: receive FIFO0 full interrupt enable
 838:Drivers/GD32F30x_standard_peripheral/Source/gd32f30x_can.c ****       \arg        CAN_INT_RFO0: receive FIFO0 overfull interrupt enable
 839:Drivers/GD32F30x_standard_peripheral/Source/gd32f30x_can.c ****       \arg        CAN_INT_RFNE1: receive FIFO1 not empty interrupt enable
 840:Drivers/GD32F30x_standard_peripheral/Source/gd32f30x_can.c ****       \arg        CAN_INT_RFF1: receive FIFO1 full interrupt enable
ARM GAS  C:\Users\Prog\AppData\Local\Temp\ccu1v3Z3.s 			page 54


 841:Drivers/GD32F30x_standard_peripheral/Source/gd32f30x_can.c ****       \arg        CAN_INT_RFO1: receive FIFO1 overfull interrupt enable
 842:Drivers/GD32F30x_standard_peripheral/Source/gd32f30x_can.c ****       \arg        CAN_INT_WERR: warning error interrupt enable
 843:Drivers/GD32F30x_standard_peripheral/Source/gd32f30x_can.c ****       \arg        CAN_INT_PERR: passive error interrupt enable
 844:Drivers/GD32F30x_standard_peripheral/Source/gd32f30x_can.c ****       \arg        CAN_INT_BO: bus-off interrupt enable
 845:Drivers/GD32F30x_standard_peripheral/Source/gd32f30x_can.c ****       \arg        CAN_INT_ERRN: error number interrupt enable
 846:Drivers/GD32F30x_standard_peripheral/Source/gd32f30x_can.c ****       \arg        CAN_INT_ERR: error interrupt enable
 847:Drivers/GD32F30x_standard_peripheral/Source/gd32f30x_can.c ****       \arg        CAN_INT_WU: wakeup interrupt enable
 848:Drivers/GD32F30x_standard_peripheral/Source/gd32f30x_can.c ****       \arg        CAN_INT_SLPW: sleep working interrupt enable
 849:Drivers/GD32F30x_standard_peripheral/Source/gd32f30x_can.c ****     \param[out] none
 850:Drivers/GD32F30x_standard_peripheral/Source/gd32f30x_can.c ****     \retval     none
 851:Drivers/GD32F30x_standard_peripheral/Source/gd32f30x_can.c **** */
 852:Drivers/GD32F30x_standard_peripheral/Source/gd32f30x_can.c **** void can_interrupt_enable(uint32_t can_periph, uint32_t interrupt)
 853:Drivers/GD32F30x_standard_peripheral/Source/gd32f30x_can.c **** {
 2012              		.loc 1 853 1 is_stmt 1 view -0
 2013              		.cfi_startproc
 2014              		@ args = 0, pretend = 0, frame = 0
 2015              		@ frame_needed = 0, uses_anonymous_args = 0
 2016              		@ link register save eliminated.
 854:Drivers/GD32F30x_standard_peripheral/Source/gd32f30x_can.c ****     CAN_INTEN(can_periph) |= interrupt;
 2017              		.loc 1 854 5 view .LVU670
 2018              		.loc 1 854 27 is_stmt 0 view .LVU671
 2019 0000 4369     		ldr	r3, [r0, #20]
 2020 0002 0B43     		orrs	r3, r3, r1
 2021 0004 4361     		str	r3, [r0, #20]
 855:Drivers/GD32F30x_standard_peripheral/Source/gd32f30x_can.c **** }
 2022              		.loc 1 855 1 view .LVU672
 2023 0006 7047     		bx	lr
 2024              		.cfi_endproc
 2025              	.LFE136:
 2027              		.section	.text.can_interrupt_disable,"ax",%progbits
 2028              		.align	1
 2029              		.global	can_interrupt_disable
 2030              		.syntax unified
 2031              		.thumb
 2032              		.thumb_func
 2033              		.fpu fpv4-sp-d16
 2035              	can_interrupt_disable:
 2036              	.LVL142:
 2037              	.LFB137:
 856:Drivers/GD32F30x_standard_peripheral/Source/gd32f30x_can.c **** 
 857:Drivers/GD32F30x_standard_peripheral/Source/gd32f30x_can.c **** /*!
 858:Drivers/GD32F30x_standard_peripheral/Source/gd32f30x_can.c ****     \brief      disable CAN interrupt 
 859:Drivers/GD32F30x_standard_peripheral/Source/gd32f30x_can.c ****     \param[in]  can_periph
 860:Drivers/GD32F30x_standard_peripheral/Source/gd32f30x_can.c ****       \arg        CANx(x=0,1),the CAN1 only for GD32F30X_CL 
 861:Drivers/GD32F30x_standard_peripheral/Source/gd32f30x_can.c ****     \param[in]  interrupt
 862:Drivers/GD32F30x_standard_peripheral/Source/gd32f30x_can.c ****                 one or more parameters can be selected which are shown as below:
 863:Drivers/GD32F30x_standard_peripheral/Source/gd32f30x_can.c ****       \arg        CAN_INT_TME: transmit mailbox empty interrupt enable
 864:Drivers/GD32F30x_standard_peripheral/Source/gd32f30x_can.c ****       \arg        CAN_INT_RFNE0: receive FIFO0 not empty interrupt enable
 865:Drivers/GD32F30x_standard_peripheral/Source/gd32f30x_can.c ****       \arg        CAN_INT_RFF0: receive FIFO0 full interrupt enable
 866:Drivers/GD32F30x_standard_peripheral/Source/gd32f30x_can.c ****       \arg        CAN_INT_RFO0: receive FIFO0 overfull interrupt enable
 867:Drivers/GD32F30x_standard_peripheral/Source/gd32f30x_can.c ****       \arg        CAN_INT_RFNE1: receive FIFO1 not empty interrupt enable
 868:Drivers/GD32F30x_standard_peripheral/Source/gd32f30x_can.c ****       \arg        CAN_INT_RFF1: receive FIFO1 full interrupt enable
 869:Drivers/GD32F30x_standard_peripheral/Source/gd32f30x_can.c ****       \arg        CAN_INT_RFO1: receive FIFO1 overfull interrupt enable
 870:Drivers/GD32F30x_standard_peripheral/Source/gd32f30x_can.c ****       \arg        CAN_INT_WERR: warning error interrupt enable
 871:Drivers/GD32F30x_standard_peripheral/Source/gd32f30x_can.c ****       \arg        CAN_INT_PERR: passive error interrupt enable
 872:Drivers/GD32F30x_standard_peripheral/Source/gd32f30x_can.c ****       \arg        CAN_INT_BO: bus-off interrupt enable
 873:Drivers/GD32F30x_standard_peripheral/Source/gd32f30x_can.c ****       \arg        CAN_INT_ERRN: error number interrupt enable
ARM GAS  C:\Users\Prog\AppData\Local\Temp\ccu1v3Z3.s 			page 55


 874:Drivers/GD32F30x_standard_peripheral/Source/gd32f30x_can.c ****       \arg        CAN_INT_ERR: error interrupt enable
 875:Drivers/GD32F30x_standard_peripheral/Source/gd32f30x_can.c ****       \arg        CAN_INT_WU: wakeup interrupt enable
 876:Drivers/GD32F30x_standard_peripheral/Source/gd32f30x_can.c ****       \arg        CAN_INT_SLPW: sleep working interrupt enable
 877:Drivers/GD32F30x_standard_peripheral/Source/gd32f30x_can.c ****     \param[out] none
 878:Drivers/GD32F30x_standard_peripheral/Source/gd32f30x_can.c ****     \retval     none
 879:Drivers/GD32F30x_standard_peripheral/Source/gd32f30x_can.c **** */
 880:Drivers/GD32F30x_standard_peripheral/Source/gd32f30x_can.c **** void can_interrupt_disable(uint32_t can_periph, uint32_t interrupt)
 881:Drivers/GD32F30x_standard_peripheral/Source/gd32f30x_can.c **** {
 2038              		.loc 1 881 1 is_stmt 1 view -0
 2039              		.cfi_startproc
 2040              		@ args = 0, pretend = 0, frame = 0
 2041              		@ frame_needed = 0, uses_anonymous_args = 0
 2042              		@ link register save eliminated.
 882:Drivers/GD32F30x_standard_peripheral/Source/gd32f30x_can.c ****     CAN_INTEN(can_periph) &= ~interrupt;
 2043              		.loc 1 882 5 view .LVU674
 2044              		.loc 1 882 27 is_stmt 0 view .LVU675
 2045 0000 4369     		ldr	r3, [r0, #20]
 2046 0002 23EA0103 		bic	r3, r3, r1
 2047 0006 4361     		str	r3, [r0, #20]
 883:Drivers/GD32F30x_standard_peripheral/Source/gd32f30x_can.c **** }
 2048              		.loc 1 883 1 view .LVU676
 2049 0008 7047     		bx	lr
 2050              		.cfi_endproc
 2051              	.LFE137:
 2053              		.section	.text.can_flag_get,"ax",%progbits
 2054              		.align	1
 2055              		.global	can_flag_get
 2056              		.syntax unified
 2057              		.thumb
 2058              		.thumb_func
 2059              		.fpu fpv4-sp-d16
 2061              	can_flag_get:
 2062              	.LVL143:
 2063              	.LFB138:
 884:Drivers/GD32F30x_standard_peripheral/Source/gd32f30x_can.c **** 
 885:Drivers/GD32F30x_standard_peripheral/Source/gd32f30x_can.c **** /*!
 886:Drivers/GD32F30x_standard_peripheral/Source/gd32f30x_can.c ****     \brief      get CAN flag state
 887:Drivers/GD32F30x_standard_peripheral/Source/gd32f30x_can.c ****     \param[in]  can_periph
 888:Drivers/GD32F30x_standard_peripheral/Source/gd32f30x_can.c ****       \arg        CANx(x=0,1),the CAN1 only for GD32F30X_CL 
 889:Drivers/GD32F30x_standard_peripheral/Source/gd32f30x_can.c ****     \param[in]  flag: CAN flags, refer to can_flag_enum
 890:Drivers/GD32F30x_standard_peripheral/Source/gd32f30x_can.c ****                 only one parameter can be selected which is shown as below:
 891:Drivers/GD32F30x_standard_peripheral/Source/gd32f30x_can.c ****       \arg        CAN_FLAG_RXL: RX level
 892:Drivers/GD32F30x_standard_peripheral/Source/gd32f30x_can.c ****       \arg        CAN_FLAG_LASTRX: last sample value of RX pin
 893:Drivers/GD32F30x_standard_peripheral/Source/gd32f30x_can.c ****       \arg        CAN_FLAG_RS: receiving state
 894:Drivers/GD32F30x_standard_peripheral/Source/gd32f30x_can.c ****       \arg        CAN_FLAG_TS: transmitting state
 895:Drivers/GD32F30x_standard_peripheral/Source/gd32f30x_can.c ****       \arg        CAN_FLAG_SLPIF: status change flag of entering sleep working mode
 896:Drivers/GD32F30x_standard_peripheral/Source/gd32f30x_can.c ****       \arg        CAN_FLAG_WUIF: status change flag of wakeup from sleep working mode
 897:Drivers/GD32F30x_standard_peripheral/Source/gd32f30x_can.c ****       \arg        CAN_FLAG_ERRIF: error flag
 898:Drivers/GD32F30x_standard_peripheral/Source/gd32f30x_can.c ****       \arg        CAN_FLAG_SLPWS: sleep working state
 899:Drivers/GD32F30x_standard_peripheral/Source/gd32f30x_can.c ****       \arg        CAN_FLAG_IWS: initial working state
 900:Drivers/GD32F30x_standard_peripheral/Source/gd32f30x_can.c ****       \arg        CAN_FLAG_TMLS2: transmit mailbox 2 last sending in Tx FIFO
 901:Drivers/GD32F30x_standard_peripheral/Source/gd32f30x_can.c ****       \arg        CAN_FLAG_TMLS1: transmit mailbox 1 last sending in Tx FIFO
 902:Drivers/GD32F30x_standard_peripheral/Source/gd32f30x_can.c ****       \arg        CAN_FLAG_TMLS0: transmit mailbox 0 last sending in Tx FIFO
 903:Drivers/GD32F30x_standard_peripheral/Source/gd32f30x_can.c ****       \arg        CAN_FLAG_TME2: transmit mailbox 2 empty
 904:Drivers/GD32F30x_standard_peripheral/Source/gd32f30x_can.c ****       \arg        CAN_FLAG_TME1: transmit mailbox 1 empty
 905:Drivers/GD32F30x_standard_peripheral/Source/gd32f30x_can.c ****       \arg        CAN_FLAG_TME0: transmit mailbox 0 empty
 906:Drivers/GD32F30x_standard_peripheral/Source/gd32f30x_can.c ****       \arg        CAN_FLAG_MTE2: mailbox 2 transmit error
ARM GAS  C:\Users\Prog\AppData\Local\Temp\ccu1v3Z3.s 			page 56


 907:Drivers/GD32F30x_standard_peripheral/Source/gd32f30x_can.c ****       \arg        CAN_FLAG_MTE1: mailbox 1 transmit error
 908:Drivers/GD32F30x_standard_peripheral/Source/gd32f30x_can.c ****       \arg        CAN_FLAG_MTE0: mailbox 0 transmit error
 909:Drivers/GD32F30x_standard_peripheral/Source/gd32f30x_can.c ****       \arg        CAN_FLAG_MAL2: mailbox 2 arbitration lost
 910:Drivers/GD32F30x_standard_peripheral/Source/gd32f30x_can.c ****       \arg        CAN_FLAG_MAL1: mailbox 1 arbitration lost
 911:Drivers/GD32F30x_standard_peripheral/Source/gd32f30x_can.c ****       \arg        CAN_FLAG_MAL0: mailbox 0 arbitration lost
 912:Drivers/GD32F30x_standard_peripheral/Source/gd32f30x_can.c ****       \arg        CAN_FLAG_MTFNERR2: mailbox 2 transmit finished with no error
 913:Drivers/GD32F30x_standard_peripheral/Source/gd32f30x_can.c ****       \arg        CAN_FLAG_MTFNERR1: mailbox 1 transmit finished with no error
 914:Drivers/GD32F30x_standard_peripheral/Source/gd32f30x_can.c ****       \arg        CAN_FLAG_MTFNERR0: mailbox 0 transmit finished with no error
 915:Drivers/GD32F30x_standard_peripheral/Source/gd32f30x_can.c ****       \arg        CAN_FLAG_MTF2: mailbox 2 transmit finished
 916:Drivers/GD32F30x_standard_peripheral/Source/gd32f30x_can.c ****       \arg        CAN_FLAG_MTF1: mailbox 1 transmit finished
 917:Drivers/GD32F30x_standard_peripheral/Source/gd32f30x_can.c ****       \arg        CAN_FLAG_MTF0: mailbox 0 transmit finished
 918:Drivers/GD32F30x_standard_peripheral/Source/gd32f30x_can.c ****       \arg        CAN_FLAG_RFO0: receive FIFO0 overfull
 919:Drivers/GD32F30x_standard_peripheral/Source/gd32f30x_can.c ****       \arg        CAN_FLAG_RFF0: receive FIFO0 full
 920:Drivers/GD32F30x_standard_peripheral/Source/gd32f30x_can.c ****       \arg        CAN_FLAG_RFO1: receive FIFO1 overfull
 921:Drivers/GD32F30x_standard_peripheral/Source/gd32f30x_can.c ****       \arg        CAN_FLAG_RFF1: receive FIFO1 full
 922:Drivers/GD32F30x_standard_peripheral/Source/gd32f30x_can.c ****       \arg        CAN_FLAG_BOERR: bus-off error
 923:Drivers/GD32F30x_standard_peripheral/Source/gd32f30x_can.c ****       \arg        CAN_FLAG_PERR: passive error
 924:Drivers/GD32F30x_standard_peripheral/Source/gd32f30x_can.c ****       \arg        CAN_FLAG_WERR: warning error
 925:Drivers/GD32F30x_standard_peripheral/Source/gd32f30x_can.c ****     \param[out] none
 926:Drivers/GD32F30x_standard_peripheral/Source/gd32f30x_can.c ****     \retval     FlagStatus: SET or RESET
 927:Drivers/GD32F30x_standard_peripheral/Source/gd32f30x_can.c **** */
 928:Drivers/GD32F30x_standard_peripheral/Source/gd32f30x_can.c **** FlagStatus can_flag_get(uint32_t can_periph, can_flag_enum flag)
 929:Drivers/GD32F30x_standard_peripheral/Source/gd32f30x_can.c **** {  
 2064              		.loc 1 929 1 is_stmt 1 view -0
 2065              		.cfi_startproc
 2066              		@ args = 0, pretend = 0, frame = 0
 2067              		@ frame_needed = 0, uses_anonymous_args = 0
 2068              		@ link register save eliminated.
 930:Drivers/GD32F30x_standard_peripheral/Source/gd32f30x_can.c ****     /* get flag and interrupt enable state */
 931:Drivers/GD32F30x_standard_peripheral/Source/gd32f30x_can.c ****     if(RESET != (CAN_REG_VAL(can_periph, flag) & BIT(CAN_BIT_POS(flag)))){
 2069              		.loc 1 931 5 view .LVU678
 2070              		.loc 1 931 18 is_stmt 0 view .LVU679
 2071 0000 8B09     		lsrs	r3, r1, #6
 2072 0002 1B58     		ldr	r3, [r3, r0]
 2073              		.loc 1 931 50 view .LVU680
 2074 0004 01F01F01 		and	r1, r1, #31
 2075              	.LVL144:
 2076              		.loc 1 931 14 view .LVU681
 2077 0008 23FA01F1 		lsr	r1, r3, r1
 2078              		.loc 1 931 7 view .LVU682
 2079 000c 11F0010F 		tst	r1, #1
 2080 0010 01D0     		beq	.L166
 932:Drivers/GD32F30x_standard_peripheral/Source/gd32f30x_can.c ****         return SET;
 2081              		.loc 1 932 16 view .LVU683
 2082 0012 0120     		movs	r0, #1
 2083              	.LVL145:
 2084              		.loc 1 932 16 view .LVU684
 2085 0014 7047     		bx	lr
 2086              	.LVL146:
 2087              	.L166:
 933:Drivers/GD32F30x_standard_peripheral/Source/gd32f30x_can.c ****     }else{
 934:Drivers/GD32F30x_standard_peripheral/Source/gd32f30x_can.c ****         return RESET;
 2088              		.loc 1 934 16 view .LVU685
 2089 0016 0020     		movs	r0, #0
 2090              	.LVL147:
 935:Drivers/GD32F30x_standard_peripheral/Source/gd32f30x_can.c ****     }
 936:Drivers/GD32F30x_standard_peripheral/Source/gd32f30x_can.c **** }
ARM GAS  C:\Users\Prog\AppData\Local\Temp\ccu1v3Z3.s 			page 57


 2091              		.loc 1 936 1 view .LVU686
 2092 0018 7047     		bx	lr
 2093              		.cfi_endproc
 2094              	.LFE138:
 2096              		.section	.text.can_flag_clear,"ax",%progbits
 2097              		.align	1
 2098              		.global	can_flag_clear
 2099              		.syntax unified
 2100              		.thumb
 2101              		.thumb_func
 2102              		.fpu fpv4-sp-d16
 2104              	can_flag_clear:
 2105              	.LVL148:
 2106              	.LFB139:
 937:Drivers/GD32F30x_standard_peripheral/Source/gd32f30x_can.c **** 
 938:Drivers/GD32F30x_standard_peripheral/Source/gd32f30x_can.c **** /*!
 939:Drivers/GD32F30x_standard_peripheral/Source/gd32f30x_can.c ****     \brief      clear CAN flag state
 940:Drivers/GD32F30x_standard_peripheral/Source/gd32f30x_can.c ****     \param[in]  can_periph
 941:Drivers/GD32F30x_standard_peripheral/Source/gd32f30x_can.c ****       \arg        CANx(x=0,1),the CAN1 only for GD32F30X_CL 
 942:Drivers/GD32F30x_standard_peripheral/Source/gd32f30x_can.c ****     \param[in]  flag: CAN flags, refer to can_flag_enum
 943:Drivers/GD32F30x_standard_peripheral/Source/gd32f30x_can.c ****                 only one parameter can be selected which is shown as below:
 944:Drivers/GD32F30x_standard_peripheral/Source/gd32f30x_can.c ****       \arg        CAN_FLAG_SLPIF: status change flag of entering sleep working mode
 945:Drivers/GD32F30x_standard_peripheral/Source/gd32f30x_can.c ****       \arg        CAN_FLAG_WUIF: status change flag of wakeup from sleep working mode
 946:Drivers/GD32F30x_standard_peripheral/Source/gd32f30x_can.c ****       \arg        CAN_FLAG_ERRIF: error flag
 947:Drivers/GD32F30x_standard_peripheral/Source/gd32f30x_can.c ****       \arg        CAN_FLAG_MTE2: mailbox 2 transmit error
 948:Drivers/GD32F30x_standard_peripheral/Source/gd32f30x_can.c ****       \arg        CAN_FLAG_MTE1: mailbox 1 transmit error
 949:Drivers/GD32F30x_standard_peripheral/Source/gd32f30x_can.c ****       \arg        CAN_FLAG_MTE0: mailbox 0 transmit error
 950:Drivers/GD32F30x_standard_peripheral/Source/gd32f30x_can.c ****       \arg        CAN_FLAG_MAL2: mailbox 2 arbitration lost
 951:Drivers/GD32F30x_standard_peripheral/Source/gd32f30x_can.c ****       \arg        CAN_FLAG_MAL1: mailbox 1 arbitration lost
 952:Drivers/GD32F30x_standard_peripheral/Source/gd32f30x_can.c ****       \arg        CAN_FLAG_MAL0: mailbox 0 arbitration lost
 953:Drivers/GD32F30x_standard_peripheral/Source/gd32f30x_can.c ****       \arg        CAN_FLAG_MTFNERR2: mailbox 2 transmit finished with no error
 954:Drivers/GD32F30x_standard_peripheral/Source/gd32f30x_can.c ****       \arg        CAN_FLAG_MTFNERR1: mailbox 1 transmit finished with no error
 955:Drivers/GD32F30x_standard_peripheral/Source/gd32f30x_can.c ****       \arg        CAN_FLAG_MTFNERR0: mailbox 0 transmit finished with no error
 956:Drivers/GD32F30x_standard_peripheral/Source/gd32f30x_can.c ****       \arg        CAN_FLAG_MTF2: mailbox 2 transmit finished
 957:Drivers/GD32F30x_standard_peripheral/Source/gd32f30x_can.c ****       \arg        CAN_FLAG_MTF1: mailbox 1 transmit finished
 958:Drivers/GD32F30x_standard_peripheral/Source/gd32f30x_can.c ****       \arg        CAN_FLAG_MTF0: mailbox 0 transmit finished
 959:Drivers/GD32F30x_standard_peripheral/Source/gd32f30x_can.c ****       \arg        CAN_FLAG_RFO0: receive FIFO0 overfull
 960:Drivers/GD32F30x_standard_peripheral/Source/gd32f30x_can.c ****       \arg        CAN_FLAG_RFF0: receive FIFO0 full
 961:Drivers/GD32F30x_standard_peripheral/Source/gd32f30x_can.c ****       \arg        CAN_FLAG_RFO1: receive FIFO1 overfull
 962:Drivers/GD32F30x_standard_peripheral/Source/gd32f30x_can.c ****       \arg        CAN_FLAG_RFF1: receive FIFO1 full
 963:Drivers/GD32F30x_standard_peripheral/Source/gd32f30x_can.c ****     \param[out] none
 964:Drivers/GD32F30x_standard_peripheral/Source/gd32f30x_can.c ****     \retval     none
 965:Drivers/GD32F30x_standard_peripheral/Source/gd32f30x_can.c **** */
 966:Drivers/GD32F30x_standard_peripheral/Source/gd32f30x_can.c **** void can_flag_clear(uint32_t can_periph, can_flag_enum flag)
 967:Drivers/GD32F30x_standard_peripheral/Source/gd32f30x_can.c **** {
 2107              		.loc 1 967 1 is_stmt 1 view -0
 2108              		.cfi_startproc
 2109              		@ args = 0, pretend = 0, frame = 0
 2110              		@ frame_needed = 0, uses_anonymous_args = 0
 2111              		@ link register save eliminated.
 968:Drivers/GD32F30x_standard_peripheral/Source/gd32f30x_can.c ****     CAN_REG_VAL(can_periph, flag) = BIT(CAN_BIT_POS(flag));
 2112              		.loc 1 968 5 view .LVU688
 2113              		.loc 1 968 37 is_stmt 0 view .LVU689
 2114 0000 01F01F02 		and	r2, r1, #31
 2115              		.loc 1 968 5 view .LVU690
 2116 0004 8909     		lsrs	r1, r1, #6
 2117              	.LVL149:
ARM GAS  C:\Users\Prog\AppData\Local\Temp\ccu1v3Z3.s 			page 58


 2118              		.loc 1 968 37 view .LVU691
 2119 0006 0123     		movs	r3, #1
 2120 0008 9340     		lsls	r3, r3, r2
 2121              		.loc 1 968 35 view .LVU692
 2122 000a 0B50     		str	r3, [r1, r0]
 969:Drivers/GD32F30x_standard_peripheral/Source/gd32f30x_can.c **** }
 2123              		.loc 1 969 1 view .LVU693
 2124 000c 7047     		bx	lr
 2125              		.cfi_endproc
 2126              	.LFE139:
 2128              		.section	.text.can_interrupt_flag_get,"ax",%progbits
 2129              		.align	1
 2130              		.global	can_interrupt_flag_get
 2131              		.syntax unified
 2132              		.thumb
 2133              		.thumb_func
 2134              		.fpu fpv4-sp-d16
 2136              	can_interrupt_flag_get:
 2137              	.LVL150:
 2138              	.LFB140:
 970:Drivers/GD32F30x_standard_peripheral/Source/gd32f30x_can.c **** 
 971:Drivers/GD32F30x_standard_peripheral/Source/gd32f30x_can.c **** /*!
 972:Drivers/GD32F30x_standard_peripheral/Source/gd32f30x_can.c ****     \brief      get CAN interrupt flag state
 973:Drivers/GD32F30x_standard_peripheral/Source/gd32f30x_can.c ****     \param[in]  can_periph
 974:Drivers/GD32F30x_standard_peripheral/Source/gd32f30x_can.c ****       \arg        CANx(x=0,1),the CAN1 only for GD32F30X_CL 
 975:Drivers/GD32F30x_standard_peripheral/Source/gd32f30x_can.c ****     \param[in]  flag: CAN interrupt flags, refer to can_interrupt_flag_enum
 976:Drivers/GD32F30x_standard_peripheral/Source/gd32f30x_can.c ****                 only one parameter can be selected which is shown as below:
 977:Drivers/GD32F30x_standard_peripheral/Source/gd32f30x_can.c ****       \arg        CAN_INT_FLAG_SLPIF: status change interrupt flag of sleep working mode entering
 978:Drivers/GD32F30x_standard_peripheral/Source/gd32f30x_can.c ****       \arg        CAN_INT_FLAG_WUIF: status change interrupt flag of wakeup from sleep working mode
 979:Drivers/GD32F30x_standard_peripheral/Source/gd32f30x_can.c ****       \arg        CAN_INT_FLAG_ERRIF: error interrupt flag
 980:Drivers/GD32F30x_standard_peripheral/Source/gd32f30x_can.c ****       \arg        CAN_INT_FLAG_MTF2: mailbox 2 transmit finished interrupt flag
 981:Drivers/GD32F30x_standard_peripheral/Source/gd32f30x_can.c ****       \arg        CAN_INT_FLAG_MTF1: mailbox 1 transmit finished interrupt flag
 982:Drivers/GD32F30x_standard_peripheral/Source/gd32f30x_can.c ****       \arg        CAN_INT_FLAG_MTF0: mailbox 0 transmit finished interrupt flag
 983:Drivers/GD32F30x_standard_peripheral/Source/gd32f30x_can.c ****       \arg        CAN_INT_FLAG_RFO0: receive FIFO0 overfull interrupt flag
 984:Drivers/GD32F30x_standard_peripheral/Source/gd32f30x_can.c ****       \arg        CAN_INT_FLAG_RFF0: receive FIFO0 full interrupt flag
 985:Drivers/GD32F30x_standard_peripheral/Source/gd32f30x_can.c ****       \arg        CAN_INT_FLAG_RFL0: receive FIFO0 not empty interrupt flag
 986:Drivers/GD32F30x_standard_peripheral/Source/gd32f30x_can.c ****       \arg        CAN_INT_FLAG_RFO1: receive FIFO1 overfull interrupt flag
 987:Drivers/GD32F30x_standard_peripheral/Source/gd32f30x_can.c ****       \arg        CAN_INT_FLAG_RFF1: receive FIFO1 full interrupt flag
 988:Drivers/GD32F30x_standard_peripheral/Source/gd32f30x_can.c ****       \arg        CAN_INT_FLAG_RFL1: receive FIFO1 not empty interrupt flag
 989:Drivers/GD32F30x_standard_peripheral/Source/gd32f30x_can.c ****       \arg        CAN_INT_FLAG_ERRN: error number interrupt flag
 990:Drivers/GD32F30x_standard_peripheral/Source/gd32f30x_can.c ****       \arg        CAN_INT_FLAG_BOERR: bus-off error interrupt flag
 991:Drivers/GD32F30x_standard_peripheral/Source/gd32f30x_can.c ****       \arg        CAN_INT_FLAG_PERR: passive error interrupt flag
 992:Drivers/GD32F30x_standard_peripheral/Source/gd32f30x_can.c ****       \arg        CAN_INT_FLAG_WERR: warning error interrupt flag
 993:Drivers/GD32F30x_standard_peripheral/Source/gd32f30x_can.c ****     \param[out] none
 994:Drivers/GD32F30x_standard_peripheral/Source/gd32f30x_can.c ****     \retval     FlagStatus: SET or RESET
 995:Drivers/GD32F30x_standard_peripheral/Source/gd32f30x_can.c **** */
 996:Drivers/GD32F30x_standard_peripheral/Source/gd32f30x_can.c **** FlagStatus can_interrupt_flag_get(uint32_t can_periph, can_interrupt_flag_enum flag)
 997:Drivers/GD32F30x_standard_peripheral/Source/gd32f30x_can.c **** {
 2139              		.loc 1 997 1 is_stmt 1 view -0
 2140              		.cfi_startproc
 2141              		@ args = 0, pretend = 0, frame = 0
 2142              		@ frame_needed = 0, uses_anonymous_args = 0
 2143              		.loc 1 997 1 is_stmt 0 view .LVU695
 2144 0000 38B5     		push	{r3, r4, r5, lr}
 2145              	.LCFI11:
 2146              		.cfi_def_cfa_offset 16
 2147              		.cfi_offset 3, -16
ARM GAS  C:\Users\Prog\AppData\Local\Temp\ccu1v3Z3.s 			page 59


 2148              		.cfi_offset 4, -12
 2149              		.cfi_offset 5, -8
 2150              		.cfi_offset 14, -4
 2151 0002 0546     		mov	r5, r0
 2152 0004 0C46     		mov	r4, r1
 998:Drivers/GD32F30x_standard_peripheral/Source/gd32f30x_can.c ****     uint32_t ret1 = RESET;
 2153              		.loc 1 998 5 is_stmt 1 view .LVU696
 2154              	.LVL151:
 999:Drivers/GD32F30x_standard_peripheral/Source/gd32f30x_can.c ****     uint32_t ret2 = RESET;
 2155              		.loc 1 999 5 view .LVU697
1000:Drivers/GD32F30x_standard_peripheral/Source/gd32f30x_can.c ****     
1001:Drivers/GD32F30x_standard_peripheral/Source/gd32f30x_can.c ****     /* get the staus of interrupt flag */
1002:Drivers/GD32F30x_standard_peripheral/Source/gd32f30x_can.c ****     if (flag == CAN_INT_FLAG_RFL0) {
 2156              		.loc 1 1002 5 view .LVU698
 2157              		.loc 1 1002 8 is_stmt 0 view .LVU699
 2158 0006 4CF28103 		movw	r3, #49281
 2159 000a 9942     		cmp	r1, r3
 2160 000c 17D0     		beq	.L177
1003:Drivers/GD32F30x_standard_peripheral/Source/gd32f30x_can.c ****         ret1 = can_receive_message_length_get(can_periph, CAN_FIFO0);
1004:Drivers/GD32F30x_standard_peripheral/Source/gd32f30x_can.c ****     } else if (flag == CAN_INT_FLAG_RFL1) {
 2161              		.loc 1 1004 12 is_stmt 1 view .LVU700
 2162              		.loc 1 1004 15 is_stmt 0 view .LVU701
 2163 000e 134B     		ldr	r3, .L180
 2164 0010 9942     		cmp	r1, r3
 2165 0012 18D0     		beq	.L178
1005:Drivers/GD32F30x_standard_peripheral/Source/gd32f30x_can.c ****         ret1 = can_receive_message_length_get(can_periph, CAN_FIFO1);
1006:Drivers/GD32F30x_standard_peripheral/Source/gd32f30x_can.c ****     } else if (flag == CAN_INT_FLAG_ERRN) {
 2166              		.loc 1 1006 12 is_stmt 1 view .LVU702
 2167              		.loc 1 1006 15 is_stmt 0 view .LVU703
 2168 0014 124B     		ldr	r3, .L180+4
 2169 0016 9942     		cmp	r1, r3
 2170 0018 19D0     		beq	.L179
1007:Drivers/GD32F30x_standard_peripheral/Source/gd32f30x_can.c ****         ret1 = can_error_get(can_periph);
1008:Drivers/GD32F30x_standard_peripheral/Source/gd32f30x_can.c ****     } else {
1009:Drivers/GD32F30x_standard_peripheral/Source/gd32f30x_can.c ****         ret1 = CAN_REG_VALS(can_periph, flag) & BIT(CAN_BIT_POS0(flag));
 2171              		.loc 1 1009 9 is_stmt 1 view .LVU704
 2172              		.loc 1 1009 16 is_stmt 0 view .LVU705
 2173 001a 0B0B     		lsrs	r3, r1, #12
 2174 001c 1858     		ldr	r0, [r3, r0]
 2175              	.LVL152:
 2176              		.loc 1 1009 49 view .LVU706
 2177 001e C1F38412 		ubfx	r2, r1, #6, #5
 2178 0022 0123     		movs	r3, #1
 2179 0024 9340     		lsls	r3, r3, r2
 2180              		.loc 1 1009 14 view .LVU707
 2181 0026 1840     		ands	r0, r0, r3
 2182              	.LVL153:
 2183              	.L170:
1010:Drivers/GD32F30x_standard_peripheral/Source/gd32f30x_can.c ****     }
1011:Drivers/GD32F30x_standard_peripheral/Source/gd32f30x_can.c ****     /* get the staus of interrupt enale bit */
1012:Drivers/GD32F30x_standard_peripheral/Source/gd32f30x_can.c ****     ret2 = CAN_INTEN(can_periph) & BIT(CAN_BIT_POS1(flag));
 2184              		.loc 1 1012 5 is_stmt 1 view .LVU708
 2185              		.loc 1 1012 12 is_stmt 0 view .LVU709
 2186 0028 6B69     		ldr	r3, [r5, #20]
 2187              		.loc 1 1012 36 view .LVU710
 2188 002a 04F01F04 		and	r4, r4, #31
 2189              	.LVL154:
ARM GAS  C:\Users\Prog\AppData\Local\Temp\ccu1v3Z3.s 			page 60


 2190              		.loc 1 1012 36 view .LVU711
 2191 002e 0121     		movs	r1, #1
 2192 0030 01FA04F4 		lsl	r4, r1, r4
 2193              		.loc 1 1012 10 view .LVU712
 2194 0034 1C40     		ands	r4, r4, r3
 2195              	.LVL155:
1013:Drivers/GD32F30x_standard_peripheral/Source/gd32f30x_can.c ****     if(ret1 && ret2){
 2196              		.loc 1 1013 5 is_stmt 1 view .LVU713
 2197              		.loc 1 1013 7 is_stmt 0 view .LVU714
 2198 0036 68B1     		cbz	r0, .L174
 2199              		.loc 1 1013 13 discriminator 1 view .LVU715
 2200 0038 74B9     		cbnz	r4, .L175
1014:Drivers/GD32F30x_standard_peripheral/Source/gd32f30x_can.c ****         return SET;
1015:Drivers/GD32F30x_standard_peripheral/Source/gd32f30x_can.c ****     }else{
1016:Drivers/GD32F30x_standard_peripheral/Source/gd32f30x_can.c ****         return RESET;
 2201              		.loc 1 1016 16 view .LVU716
 2202 003a 0020     		movs	r0, #0
 2203              	.LVL156:
 2204              		.loc 1 1016 16 view .LVU717
 2205 003c 0BE0     		b	.L173
 2206              	.LVL157:
 2207              	.L177:
1003:Drivers/GD32F30x_standard_peripheral/Source/gd32f30x_can.c ****     } else if (flag == CAN_INT_FLAG_RFL1) {
 2208              		.loc 1 1003 9 is_stmt 1 view .LVU718
1003:Drivers/GD32F30x_standard_peripheral/Source/gd32f30x_can.c ****     } else if (flag == CAN_INT_FLAG_RFL1) {
 2209              		.loc 1 1003 16 is_stmt 0 view .LVU719
 2210 003e 0021     		movs	r1, #0
 2211              	.LVL158:
1003:Drivers/GD32F30x_standard_peripheral/Source/gd32f30x_can.c ****     } else if (flag == CAN_INT_FLAG_RFL1) {
 2212              		.loc 1 1003 16 view .LVU720
 2213 0040 FFF7FEFF 		bl	can_receive_message_length_get
 2214              	.LVL159:
1003:Drivers/GD32F30x_standard_peripheral/Source/gd32f30x_can.c ****     } else if (flag == CAN_INT_FLAG_RFL1) {
 2215              		.loc 1 1003 16 view .LVU721
 2216 0044 F0E7     		b	.L170
 2217              	.LVL160:
 2218              	.L178:
1005:Drivers/GD32F30x_standard_peripheral/Source/gd32f30x_can.c ****     } else if (flag == CAN_INT_FLAG_ERRN) {
 2219              		.loc 1 1005 9 is_stmt 1 view .LVU722
1005:Drivers/GD32F30x_standard_peripheral/Source/gd32f30x_can.c ****     } else if (flag == CAN_INT_FLAG_ERRN) {
 2220              		.loc 1 1005 16 is_stmt 0 view .LVU723
 2221 0046 0121     		movs	r1, #1
 2222              	.LVL161:
1005:Drivers/GD32F30x_standard_peripheral/Source/gd32f30x_can.c ****     } else if (flag == CAN_INT_FLAG_ERRN) {
 2223              		.loc 1 1005 16 view .LVU724
 2224 0048 FFF7FEFF 		bl	can_receive_message_length_get
 2225              	.LVL162:
1005:Drivers/GD32F30x_standard_peripheral/Source/gd32f30x_can.c ****     } else if (flag == CAN_INT_FLAG_ERRN) {
 2226              		.loc 1 1005 16 view .LVU725
 2227 004c ECE7     		b	.L170
 2228              	.LVL163:
 2229              	.L179:
1007:Drivers/GD32F30x_standard_peripheral/Source/gd32f30x_can.c ****     } else {
 2230              		.loc 1 1007 9 is_stmt 1 view .LVU726
1007:Drivers/GD32F30x_standard_peripheral/Source/gd32f30x_can.c ****     } else {
 2231              		.loc 1 1007 16 is_stmt 0 view .LVU727
 2232 004e FFF7FEFF 		bl	can_error_get
ARM GAS  C:\Users\Prog\AppData\Local\Temp\ccu1v3Z3.s 			page 61


 2233              	.LVL164:
1007:Drivers/GD32F30x_standard_peripheral/Source/gd32f30x_can.c ****     } else {
 2234              		.loc 1 1007 16 view .LVU728
 2235 0052 E9E7     		b	.L170
 2236              	.LVL165:
 2237              	.L174:
 2238              		.loc 1 1016 16 view .LVU729
 2239 0054 0020     		movs	r0, #0
 2240              	.LVL166:
 2241              	.L173:
1017:Drivers/GD32F30x_standard_peripheral/Source/gd32f30x_can.c ****     }
1018:Drivers/GD32F30x_standard_peripheral/Source/gd32f30x_can.c **** }
 2242              		.loc 1 1018 1 view .LVU730
 2243 0056 38BD     		pop	{r3, r4, r5, pc}
 2244              	.LVL167:
 2245              	.L175:
1014:Drivers/GD32F30x_standard_peripheral/Source/gd32f30x_can.c ****     }else{
 2246              		.loc 1 1014 16 view .LVU731
 2247 0058 0120     		movs	r0, #1
 2248              	.LVL168:
1014:Drivers/GD32F30x_standard_peripheral/Source/gd32f30x_can.c ****     }else{
 2249              		.loc 1 1014 16 view .LVU732
 2250 005a FCE7     		b	.L173
 2251              	.L181:
 2252              		.align	2
 2253              	.L180:
 2254 005c 84000100 		.word	65668
 2255 0060 CB800100 		.word	98507
 2256              		.cfi_endproc
 2257              	.LFE140:
 2259              		.section	.text.can_interrupt_flag_clear,"ax",%progbits
 2260              		.align	1
 2261              		.global	can_interrupt_flag_clear
 2262              		.syntax unified
 2263              		.thumb
 2264              		.thumb_func
 2265              		.fpu fpv4-sp-d16
 2267              	can_interrupt_flag_clear:
 2268              	.LVL169:
 2269              	.LFB141:
1019:Drivers/GD32F30x_standard_peripheral/Source/gd32f30x_can.c **** 
1020:Drivers/GD32F30x_standard_peripheral/Source/gd32f30x_can.c **** /*!
1021:Drivers/GD32F30x_standard_peripheral/Source/gd32f30x_can.c ****     \brief      clear CAN interrupt flag state
1022:Drivers/GD32F30x_standard_peripheral/Source/gd32f30x_can.c ****     \param[in]  can_periph
1023:Drivers/GD32F30x_standard_peripheral/Source/gd32f30x_can.c ****       \arg        CANx(x=0,1),the CAN1 only for GD32F30X_CL 
1024:Drivers/GD32F30x_standard_peripheral/Source/gd32f30x_can.c ****     \param[in]  flag: CAN interrupt flags, refer to can_interrupt_flag_enum
1025:Drivers/GD32F30x_standard_peripheral/Source/gd32f30x_can.c ****                 only one parameter can be selected which is shown as below:
1026:Drivers/GD32F30x_standard_peripheral/Source/gd32f30x_can.c ****       \arg        CAN_INT_FLAG_SLPIF: status change interrupt flag of sleep working mode entering
1027:Drivers/GD32F30x_standard_peripheral/Source/gd32f30x_can.c ****       \arg        CAN_INT_FLAG_WUIF: status change interrupt flag of wakeup from sleep working mode
1028:Drivers/GD32F30x_standard_peripheral/Source/gd32f30x_can.c ****       \arg        CAN_INT_FLAG_ERRIF: error interrupt flag
1029:Drivers/GD32F30x_standard_peripheral/Source/gd32f30x_can.c ****       \arg        CAN_INT_FLAG_MTF2: mailbox 2 transmit finished interrupt flag
1030:Drivers/GD32F30x_standard_peripheral/Source/gd32f30x_can.c ****       \arg        CAN_INT_FLAG_MTF1: mailbox 1 transmit finished interrupt flag
1031:Drivers/GD32F30x_standard_peripheral/Source/gd32f30x_can.c ****       \arg        CAN_INT_FLAG_MTF0: mailbox 0 transmit finished interrupt flag
1032:Drivers/GD32F30x_standard_peripheral/Source/gd32f30x_can.c ****       \arg        CAN_INT_FLAG_RFO0: receive FIFO0 overfull interrupt flag
1033:Drivers/GD32F30x_standard_peripheral/Source/gd32f30x_can.c ****       \arg        CAN_INT_FLAG_RFF0: receive FIFO0 full interrupt flag
1034:Drivers/GD32F30x_standard_peripheral/Source/gd32f30x_can.c ****       \arg        CAN_INT_FLAG_RFO1: receive FIFO1 overfull interrupt flag
1035:Drivers/GD32F30x_standard_peripheral/Source/gd32f30x_can.c ****       \arg        CAN_INT_FLAG_RFF1: receive FIFO1 full interrupt flag
ARM GAS  C:\Users\Prog\AppData\Local\Temp\ccu1v3Z3.s 			page 62


1036:Drivers/GD32F30x_standard_peripheral/Source/gd32f30x_can.c ****     \param[out] none
1037:Drivers/GD32F30x_standard_peripheral/Source/gd32f30x_can.c ****     \retval     none
1038:Drivers/GD32F30x_standard_peripheral/Source/gd32f30x_can.c **** */
1039:Drivers/GD32F30x_standard_peripheral/Source/gd32f30x_can.c **** void can_interrupt_flag_clear(uint32_t can_periph, can_interrupt_flag_enum flag)
1040:Drivers/GD32F30x_standard_peripheral/Source/gd32f30x_can.c **** {
 2270              		.loc 1 1040 1 is_stmt 1 view -0
 2271              		.cfi_startproc
 2272              		@ args = 0, pretend = 0, frame = 0
 2273              		@ frame_needed = 0, uses_anonymous_args = 0
 2274              		@ link register save eliminated.
1041:Drivers/GD32F30x_standard_peripheral/Source/gd32f30x_can.c ****     CAN_REG_VALS(can_periph, flag) = BIT(CAN_BIT_POS0(flag));
 2275              		.loc 1 1041 5 view .LVU734
 2276              		.loc 1 1041 38 is_stmt 0 view .LVU735
 2277 0000 C1F38412 		ubfx	r2, r1, #6, #5
 2278              		.loc 1 1041 5 view .LVU736
 2279 0004 090B     		lsrs	r1, r1, #12
 2280              	.LVL170:
 2281              		.loc 1 1041 38 view .LVU737
 2282 0006 0123     		movs	r3, #1
 2283 0008 9340     		lsls	r3, r3, r2
 2284              		.loc 1 1041 36 view .LVU738
 2285 000a 0B50     		str	r3, [r1, r0]
1042:Drivers/GD32F30x_standard_peripheral/Source/gd32f30x_can.c **** }
 2286              		.loc 1 1042 1 view .LVU739
 2287 000c 7047     		bx	lr
 2288              		.cfi_endproc
 2289              	.LFE141:
 2291              		.text
 2292              	.Letext0:
 2293              		.file 2 "c:\\programdata\\chocolatey\\lib\\gcc-arm-embedded\\tools\\gcc-arm-none-eabi-10-2020-q4-m
 2294              		.file 3 "c:\\programdata\\chocolatey\\lib\\gcc-arm-embedded\\tools\\gcc-arm-none-eabi-10-2020-q4-m
 2295              		.file 4 "Drivers/CMSIS/GD/GD32F30x/Include/gd32f30x.h"
 2296              		.file 5 "Drivers/GD32F30x_standard_peripheral/Include/gd32f30x_rcu.h"
 2297              		.file 6 "Drivers/GD32F30x_standard_peripheral/Include/gd32f30x_dbg.h"
 2298              		.file 7 "Drivers/GD32F30x_standard_peripheral/Include/gd32f30x_can.h"
ARM GAS  C:\Users\Prog\AppData\Local\Temp\ccu1v3Z3.s 			page 63

