ARM GAS  C:\Users\Prog\AppData\Local\Temp\ccuLzmrR.s 			page 1


   1              		.cpu cortex-m4
   2              		.eabi_attribute 27, 1
   3              		.eabi_attribute 28, 1
   4              		.eabi_attribute 20, 1
   5              		.eabi_attribute 21, 1
   6              		.eabi_attribute 23, 3
   7              		.eabi_attribute 24, 1
   8              		.eabi_attribute 25, 1
   9              		.eabi_attribute 26, 1
  10              		.eabi_attribute 30, 1
  11              		.eabi_attribute 34, 1
  12              		.eabi_attribute 18, 4
  13              		.file	"gd32f30x_it.c"
  14              		.text
  15              	.Ltext0:
  16              		.cfi_sections	.debug_frame
  17              		.section	.text.NMI_Handler,"ax",%progbits
  18              		.align	1
  19              		.global	NMI_Handler
  20              		.arch armv7e-m
  21              		.syntax unified
  22              		.thumb
  23              		.thumb_func
  24              		.fpu fpv4-sp-d16
  26              	NMI_Handler:
  27              	.LFB116:
  28              		.file 1 "Src/gd32f30x_it.c"
   1:Src/gd32f30x_it.c **** /*!
   2:Src/gd32f30x_it.c ****     \file    gd32f30x_it.c
   3:Src/gd32f30x_it.c ****     \brief   interrupt service routines
   4:Src/gd32f30x_it.c **** 
   5:Src/gd32f30x_it.c ****     \version 2017-02-10, V1.0.0, firmware for GD32F30x
   6:Src/gd32f30x_it.c ****     \version 2018-10-10, V1.1.0, firmware for GD32F30x
   7:Src/gd32f30x_it.c ****     \version 2018-12-25, V2.0.0, firmware for GD32F30x
   8:Src/gd32f30x_it.c ****     \version 2020-09-30, V2.1.0, firmware for GD32F30x
   9:Src/gd32f30x_it.c **** */
  10:Src/gd32f30x_it.c **** 
  11:Src/gd32f30x_it.c **** /*
  12:Src/gd32f30x_it.c ****     Copyright (c) 2020, GigaDevice Semiconductor Inc.
  13:Src/gd32f30x_it.c **** 
  14:Src/gd32f30x_it.c ****     Redistribution and use in source and binary forms, with or without modification, 
  15:Src/gd32f30x_it.c **** are permitted provided that the following conditions are met:
  16:Src/gd32f30x_it.c **** 
  17:Src/gd32f30x_it.c ****     1. Redistributions of source code must retain the above copyright notice, this 
  18:Src/gd32f30x_it.c ****        list of conditions and the following disclaimer.
  19:Src/gd32f30x_it.c ****     2. Redistributions in binary form must reproduce the above copyright notice, 
  20:Src/gd32f30x_it.c ****        this list of conditions and the following disclaimer in the documentation 
  21:Src/gd32f30x_it.c ****        and/or other materials provided with the distribution.
  22:Src/gd32f30x_it.c ****     3. Neither the name of the copyright holder nor the names of its contributors 
  23:Src/gd32f30x_it.c ****        may be used to endorse or promote products derived from this software without 
  24:Src/gd32f30x_it.c ****        specific prior written permission.
  25:Src/gd32f30x_it.c **** 
  26:Src/gd32f30x_it.c ****     THIS SOFTWARE IS PROVIDED BY THE COPYRIGHT HOLDERS AND CONTRIBUTORS "AS IS" 
  27:Src/gd32f30x_it.c **** AND ANY EXPRESS OR IMPLIED WARRANTIES, INCLUDING, BUT NOT LIMITED TO, THE IMPLIED 
  28:Src/gd32f30x_it.c **** WARRANTIES OF MERCHANTABILITY AND FITNESS FOR A PARTICULAR PURPOSE ARE DISCLAIMED. 
  29:Src/gd32f30x_it.c **** IN NO EVENT SHALL THE COPYRIGHT HOLDER OR CONTRIBUTORS BE LIABLE FOR ANY DIRECT, 
  30:Src/gd32f30x_it.c **** INDIRECT, INCIDENTAL, SPECIAL, EXEMPLARY, OR CONSEQUENTIAL DAMAGES (INCLUDING, BUT 
ARM GAS  C:\Users\Prog\AppData\Local\Temp\ccuLzmrR.s 			page 2


  31:Src/gd32f30x_it.c **** NOT LIMITED TO, PROCUREMENT OF SUBSTITUTE GOODS OR SERVICES; LOSS OF USE, DATA, OR 
  32:Src/gd32f30x_it.c **** PROFITS; OR BUSINESS INTERRUPTION) HOWEVER CAUSED AND ON ANY THEORY OF LIABILITY, 
  33:Src/gd32f30x_it.c **** WHETHER IN CONTRACT, STRICT LIABILITY, OR TORT (INCLUDING NEGLIGENCE OR OTHERWISE) 
  34:Src/gd32f30x_it.c **** ARISING IN ANY WAY OUT OF THE USE OF THIS SOFTWARE, EVEN IF ADVISED OF THE POSSIBILITY 
  35:Src/gd32f30x_it.c **** OF SUCH DAMAGE.
  36:Src/gd32f30x_it.c **** */
  37:Src/gd32f30x_it.c **** 
  38:Src/gd32f30x_it.c **** #include "gd32f30x_it.h"
  39:Src/gd32f30x_it.c **** #include "main.h"
  40:Src/gd32f30x_it.c **** #include "systick.h"
  41:Src/gd32f30x_it.c **** 
  42:Src/gd32f30x_it.c **** /*!
  43:Src/gd32f30x_it.c ****     \brief      this function handles NMI exception
  44:Src/gd32f30x_it.c ****     \param[in]  none
  45:Src/gd32f30x_it.c ****     \param[out] none
  46:Src/gd32f30x_it.c ****     \retval     none
  47:Src/gd32f30x_it.c **** */
  48:Src/gd32f30x_it.c **** void NMI_Handler(void)
  49:Src/gd32f30x_it.c **** {
  29              		.loc 1 49 1 view -0
  30              		.cfi_startproc
  31              		@ args = 0, pretend = 0, frame = 0
  32              		@ frame_needed = 0, uses_anonymous_args = 0
  33              		@ link register save eliminated.
  50:Src/gd32f30x_it.c **** }
  34              		.loc 1 50 1 view .LVU1
  35 0000 7047     		bx	lr
  36              		.cfi_endproc
  37              	.LFE116:
  39              		.section	.text.HardFault_Handler,"ax",%progbits
  40              		.align	1
  41              		.global	HardFault_Handler
  42              		.syntax unified
  43              		.thumb
  44              		.thumb_func
  45              		.fpu fpv4-sp-d16
  47              	HardFault_Handler:
  48              	.LFB117:
  51:Src/gd32f30x_it.c **** 
  52:Src/gd32f30x_it.c **** /*!
  53:Src/gd32f30x_it.c ****     \brief      this function handles HardFault exception
  54:Src/gd32f30x_it.c ****     \param[in]  none
  55:Src/gd32f30x_it.c ****     \param[out] none
  56:Src/gd32f30x_it.c ****     \retval     none
  57:Src/gd32f30x_it.c **** */
  58:Src/gd32f30x_it.c **** void HardFault_Handler(void)
  59:Src/gd32f30x_it.c **** {
  49              		.loc 1 59 1 view -0
  50              		.cfi_startproc
  51              		@ Volatile: function does not return.
  52              		@ args = 0, pretend = 0, frame = 0
  53              		@ frame_needed = 0, uses_anonymous_args = 0
  54              		@ link register save eliminated.
  55              	.L3:
  60:Src/gd32f30x_it.c ****     /* if Hard Fault exception occurs, go to infinite loop */
  61:Src/gd32f30x_it.c ****     while (1){
  56              		.loc 1 61 5 discriminator 1 view .LVU3
ARM GAS  C:\Users\Prog\AppData\Local\Temp\ccuLzmrR.s 			page 3


  62:Src/gd32f30x_it.c ****     }
  57              		.loc 1 62 5 discriminator 1 view .LVU4
  61:Src/gd32f30x_it.c ****     }
  58              		.loc 1 61 11 discriminator 1 view .LVU5
  59 0000 FEE7     		b	.L3
  60              		.cfi_endproc
  61              	.LFE117:
  63              		.section	.text.MemManage_Handler,"ax",%progbits
  64              		.align	1
  65              		.global	MemManage_Handler
  66              		.syntax unified
  67              		.thumb
  68              		.thumb_func
  69              		.fpu fpv4-sp-d16
  71              	MemManage_Handler:
  72              	.LFB118:
  63:Src/gd32f30x_it.c **** }
  64:Src/gd32f30x_it.c **** 
  65:Src/gd32f30x_it.c **** /*!
  66:Src/gd32f30x_it.c ****     \brief      this function handles MemManage exception
  67:Src/gd32f30x_it.c ****     \param[in]  none
  68:Src/gd32f30x_it.c ****     \param[out] none
  69:Src/gd32f30x_it.c ****     \retval     none
  70:Src/gd32f30x_it.c **** */
  71:Src/gd32f30x_it.c **** void MemManage_Handler(void)
  72:Src/gd32f30x_it.c **** {
  73              		.loc 1 72 1 view -0
  74              		.cfi_startproc
  75              		@ Volatile: function does not return.
  76              		@ args = 0, pretend = 0, frame = 0
  77              		@ frame_needed = 0, uses_anonymous_args = 0
  78              		@ link register save eliminated.
  79              	.L5:
  73:Src/gd32f30x_it.c ****     /* if Memory Manage exception occurs, go to infinite loop */
  74:Src/gd32f30x_it.c ****     while (1){
  80              		.loc 1 74 5 discriminator 1 view .LVU7
  75:Src/gd32f30x_it.c ****     }
  81              		.loc 1 75 5 discriminator 1 view .LVU8
  74:Src/gd32f30x_it.c ****     }
  82              		.loc 1 74 11 discriminator 1 view .LVU9
  83 0000 FEE7     		b	.L5
  84              		.cfi_endproc
  85              	.LFE118:
  87              		.section	.text.BusFault_Handler,"ax",%progbits
  88              		.align	1
  89              		.global	BusFault_Handler
  90              		.syntax unified
  91              		.thumb
  92              		.thumb_func
  93              		.fpu fpv4-sp-d16
  95              	BusFault_Handler:
  96              	.LFB119:
  76:Src/gd32f30x_it.c **** }
  77:Src/gd32f30x_it.c **** 
  78:Src/gd32f30x_it.c **** /*!
  79:Src/gd32f30x_it.c ****     \brief      this function handles BusFault exception
  80:Src/gd32f30x_it.c ****     \param[in]  none
ARM GAS  C:\Users\Prog\AppData\Local\Temp\ccuLzmrR.s 			page 4


  81:Src/gd32f30x_it.c ****     \param[out] none
  82:Src/gd32f30x_it.c ****     \retval     none
  83:Src/gd32f30x_it.c **** */
  84:Src/gd32f30x_it.c **** void BusFault_Handler(void)
  85:Src/gd32f30x_it.c **** {
  97              		.loc 1 85 1 view -0
  98              		.cfi_startproc
  99              		@ Volatile: function does not return.
 100              		@ args = 0, pretend = 0, frame = 0
 101              		@ frame_needed = 0, uses_anonymous_args = 0
 102              		@ link register save eliminated.
 103              	.L7:
  86:Src/gd32f30x_it.c ****     /* if Bus Fault exception occurs, go to infinite loop */
  87:Src/gd32f30x_it.c ****     while (1){
 104              		.loc 1 87 5 discriminator 1 view .LVU11
  88:Src/gd32f30x_it.c ****     }
 105              		.loc 1 88 5 discriminator 1 view .LVU12
  87:Src/gd32f30x_it.c ****     }
 106              		.loc 1 87 11 discriminator 1 view .LVU13
 107 0000 FEE7     		b	.L7
 108              		.cfi_endproc
 109              	.LFE119:
 111              		.section	.text.UsageFault_Handler,"ax",%progbits
 112              		.align	1
 113              		.global	UsageFault_Handler
 114              		.syntax unified
 115              		.thumb
 116              		.thumb_func
 117              		.fpu fpv4-sp-d16
 119              	UsageFault_Handler:
 120              	.LFB120:
  89:Src/gd32f30x_it.c **** }
  90:Src/gd32f30x_it.c **** 
  91:Src/gd32f30x_it.c **** /*!
  92:Src/gd32f30x_it.c ****     \brief      this function handles UsageFault exception
  93:Src/gd32f30x_it.c ****     \param[in]  none
  94:Src/gd32f30x_it.c ****     \param[out] none
  95:Src/gd32f30x_it.c ****     \retval     none
  96:Src/gd32f30x_it.c **** */
  97:Src/gd32f30x_it.c **** void UsageFault_Handler(void)
  98:Src/gd32f30x_it.c **** {
 121              		.loc 1 98 1 view -0
 122              		.cfi_startproc
 123              		@ Volatile: function does not return.
 124              		@ args = 0, pretend = 0, frame = 0
 125              		@ frame_needed = 0, uses_anonymous_args = 0
 126              		@ link register save eliminated.
 127              	.L9:
  99:Src/gd32f30x_it.c ****     /* if Usage Fault exception occurs, go to infinite loop */
 100:Src/gd32f30x_it.c ****     while (1){
 128              		.loc 1 100 5 discriminator 1 view .LVU15
 101:Src/gd32f30x_it.c ****     }
 129              		.loc 1 101 5 discriminator 1 view .LVU16
 100:Src/gd32f30x_it.c ****     }
 130              		.loc 1 100 11 discriminator 1 view .LVU17
 131 0000 FEE7     		b	.L9
 132              		.cfi_endproc
ARM GAS  C:\Users\Prog\AppData\Local\Temp\ccuLzmrR.s 			page 5


 133              	.LFE120:
 135              		.section	.text.SVC_Handler,"ax",%progbits
 136              		.align	1
 137              		.global	SVC_Handler
 138              		.syntax unified
 139              		.thumb
 140              		.thumb_func
 141              		.fpu fpv4-sp-d16
 143              	SVC_Handler:
 144              	.LFB121:
 102:Src/gd32f30x_it.c **** }
 103:Src/gd32f30x_it.c **** 
 104:Src/gd32f30x_it.c **** /*!
 105:Src/gd32f30x_it.c ****     \brief      this function handles SVC exception
 106:Src/gd32f30x_it.c ****     \param[in]  none
 107:Src/gd32f30x_it.c ****     \param[out] none
 108:Src/gd32f30x_it.c ****     \retval     none
 109:Src/gd32f30x_it.c **** */
 110:Src/gd32f30x_it.c **** void SVC_Handler(void)
 111:Src/gd32f30x_it.c **** {
 145              		.loc 1 111 1 view -0
 146              		.cfi_startproc
 147              		@ args = 0, pretend = 0, frame = 0
 148              		@ frame_needed = 0, uses_anonymous_args = 0
 149              		@ link register save eliminated.
 112:Src/gd32f30x_it.c **** }
 150              		.loc 1 112 1 view .LVU19
 151 0000 7047     		bx	lr
 152              		.cfi_endproc
 153              	.LFE121:
 155              		.section	.text.DebugMon_Handler,"ax",%progbits
 156              		.align	1
 157              		.global	DebugMon_Handler
 158              		.syntax unified
 159              		.thumb
 160              		.thumb_func
 161              		.fpu fpv4-sp-d16
 163              	DebugMon_Handler:
 164              	.LFB122:
 113:Src/gd32f30x_it.c **** 
 114:Src/gd32f30x_it.c **** /*!
 115:Src/gd32f30x_it.c ****     \brief      this function handles DebugMon exception
 116:Src/gd32f30x_it.c ****     \param[in]  none
 117:Src/gd32f30x_it.c ****     \param[out] none
 118:Src/gd32f30x_it.c ****     \retval     none
 119:Src/gd32f30x_it.c **** */
 120:Src/gd32f30x_it.c **** void DebugMon_Handler(void)
 121:Src/gd32f30x_it.c **** {
 165              		.loc 1 121 1 view -0
 166              		.cfi_startproc
 167              		@ args = 0, pretend = 0, frame = 0
 168              		@ frame_needed = 0, uses_anonymous_args = 0
 169              		@ link register save eliminated.
 122:Src/gd32f30x_it.c **** }
 170              		.loc 1 122 1 view .LVU21
 171 0000 7047     		bx	lr
 172              		.cfi_endproc
ARM GAS  C:\Users\Prog\AppData\Local\Temp\ccuLzmrR.s 			page 6


 173              	.LFE122:
 175              		.section	.text.PendSV_Handler,"ax",%progbits
 176              		.align	1
 177              		.global	PendSV_Handler
 178              		.syntax unified
 179              		.thumb
 180              		.thumb_func
 181              		.fpu fpv4-sp-d16
 183              	PendSV_Handler:
 184              	.LFB123:
 123:Src/gd32f30x_it.c **** 
 124:Src/gd32f30x_it.c **** /*!
 125:Src/gd32f30x_it.c ****     \brief      this function handles PendSV exception
 126:Src/gd32f30x_it.c ****     \param[in]  none
 127:Src/gd32f30x_it.c ****     \param[out] none
 128:Src/gd32f30x_it.c ****     \retval     none
 129:Src/gd32f30x_it.c **** */
 130:Src/gd32f30x_it.c **** void PendSV_Handler(void)
 131:Src/gd32f30x_it.c **** {
 185              		.loc 1 131 1 view -0
 186              		.cfi_startproc
 187              		@ args = 0, pretend = 0, frame = 0
 188              		@ frame_needed = 0, uses_anonymous_args = 0
 189              		@ link register save eliminated.
 132:Src/gd32f30x_it.c **** }
 190              		.loc 1 132 1 view .LVU23
 191 0000 7047     		bx	lr
 192              		.cfi_endproc
 193              	.LFE123:
 195              		.section	.text.SysTick_Handler,"ax",%progbits
 196              		.align	1
 197              		.global	SysTick_Handler
 198              		.syntax unified
 199              		.thumb
 200              		.thumb_func
 201              		.fpu fpv4-sp-d16
 203              	SysTick_Handler:
 204              	.LFB124:
 133:Src/gd32f30x_it.c **** 
 134:Src/gd32f30x_it.c **** /*!
 135:Src/gd32f30x_it.c ****     \brief      this function handles SysTick exception
 136:Src/gd32f30x_it.c ****     \param[in]  none
 137:Src/gd32f30x_it.c ****     \param[out] none
 138:Src/gd32f30x_it.c ****     \retval     none
 139:Src/gd32f30x_it.c **** */
 140:Src/gd32f30x_it.c **** void SysTick_Handler(void)
 141:Src/gd32f30x_it.c **** {
 205              		.loc 1 141 1 view -0
 206              		.cfi_startproc
 207              		@ args = 0, pretend = 0, frame = 0
 208              		@ frame_needed = 0, uses_anonymous_args = 0
 209 0000 08B5     		push	{r3, lr}
 210              	.LCFI0:
 211              		.cfi_def_cfa_offset 8
 212              		.cfi_offset 3, -8
 213              		.cfi_offset 14, -4
 142:Src/gd32f30x_it.c ****     delay_decrement();
ARM GAS  C:\Users\Prog\AppData\Local\Temp\ccuLzmrR.s 			page 7


 214              		.loc 1 142 5 view .LVU25
 215 0002 FFF7FEFF 		bl	delay_decrement
 216              	.LVL0:
 143:Src/gd32f30x_it.c **** }
 217              		.loc 1 143 1 is_stmt 0 view .LVU26
 218 0006 08BD     		pop	{r3, pc}
 219              		.cfi_endproc
 220              	.LFE124:
 222              		.text
 223              	.Letext0:
 224              		.file 2 "Inc/systick.h"
ARM GAS  C:\Users\Prog\AppData\Local\Temp\ccuLzmrR.s 			page 8

