ARM GAS  C:\Users\Prog\AppData\Local\Temp\cclIyEjW.s 			page 1


   1              		.cpu cortex-m4
   2              		.eabi_attribute 27, 1
   3              		.eabi_attribute 28, 1
   4              		.eabi_attribute 20, 1
   5              		.eabi_attribute 21, 1
   6              		.eabi_attribute 23, 3
   7              		.eabi_attribute 24, 1
   8              		.eabi_attribute 25, 1
   9              		.eabi_attribute 26, 1
  10              		.eabi_attribute 30, 1
  11              		.eabi_attribute 34, 1
  12              		.eabi_attribute 18, 4
  13              		.file	"gd32f30x_fmc.c"
  14              		.text
  15              	.Ltext0:
  16              		.cfi_sections	.debug_frame
  17              		.section	.text.fmc_wscnt_set,"ax",%progbits
  18              		.align	1
  19              		.global	fmc_wscnt_set
  20              		.arch armv7e-m
  21              		.syntax unified
  22              		.thumb
  23              		.thumb_func
  24              		.fpu fpv4-sp-d16
  26              	fmc_wscnt_set:
  27              	.LVL0:
  28              	.LFB116:
  29              		.file 1 "Drivers/GD32F30x_standard_peripheral/Source/gd32f30x_fmc.c"
   1:Drivers/GD32F30x_standard_peripheral/Source/gd32f30x_fmc.c **** /*!
   2:Drivers/GD32F30x_standard_peripheral/Source/gd32f30x_fmc.c ****     \file    gd32f30x_fmc.c
   3:Drivers/GD32F30x_standard_peripheral/Source/gd32f30x_fmc.c ****     \brief   FMC driver
   4:Drivers/GD32F30x_standard_peripheral/Source/gd32f30x_fmc.c **** 
   5:Drivers/GD32F30x_standard_peripheral/Source/gd32f30x_fmc.c ****     \version 2017-02-10, V1.0.0, firmware for GD32F30x
   6:Drivers/GD32F30x_standard_peripheral/Source/gd32f30x_fmc.c ****     \version 2018-10-10, V1.1.0, firmware for GD32F30x
   7:Drivers/GD32F30x_standard_peripheral/Source/gd32f30x_fmc.c ****     \version 2018-12-25, V2.0.0, firmware for GD32F30x
   8:Drivers/GD32F30x_standard_peripheral/Source/gd32f30x_fmc.c ****     \version 2020-09-30, V2.1.0, firmware for GD32F30x
   9:Drivers/GD32F30x_standard_peripheral/Source/gd32f30x_fmc.c **** */
  10:Drivers/GD32F30x_standard_peripheral/Source/gd32f30x_fmc.c **** 
  11:Drivers/GD32F30x_standard_peripheral/Source/gd32f30x_fmc.c **** /*
  12:Drivers/GD32F30x_standard_peripheral/Source/gd32f30x_fmc.c ****     Copyright (c) 2020, GigaDevice Semiconductor Inc.
  13:Drivers/GD32F30x_standard_peripheral/Source/gd32f30x_fmc.c **** 
  14:Drivers/GD32F30x_standard_peripheral/Source/gd32f30x_fmc.c ****     Redistribution and use in source and binary forms, with or without modification, 
  15:Drivers/GD32F30x_standard_peripheral/Source/gd32f30x_fmc.c **** are permitted provided that the following conditions are met:
  16:Drivers/GD32F30x_standard_peripheral/Source/gd32f30x_fmc.c **** 
  17:Drivers/GD32F30x_standard_peripheral/Source/gd32f30x_fmc.c ****     1. Redistributions of source code must retain the above copyright notice, this 
  18:Drivers/GD32F30x_standard_peripheral/Source/gd32f30x_fmc.c ****        list of conditions and the following disclaimer.
  19:Drivers/GD32F30x_standard_peripheral/Source/gd32f30x_fmc.c ****     2. Redistributions in binary form must reproduce the above copyright notice, 
  20:Drivers/GD32F30x_standard_peripheral/Source/gd32f30x_fmc.c ****        this list of conditions and the following disclaimer in the documentation 
  21:Drivers/GD32F30x_standard_peripheral/Source/gd32f30x_fmc.c ****        and/or other materials provided with the distribution.
  22:Drivers/GD32F30x_standard_peripheral/Source/gd32f30x_fmc.c ****     3. Neither the name of the copyright holder nor the names of its contributors 
  23:Drivers/GD32F30x_standard_peripheral/Source/gd32f30x_fmc.c ****        may be used to endorse or promote products derived from this software without 
  24:Drivers/GD32F30x_standard_peripheral/Source/gd32f30x_fmc.c ****        specific prior written permission.
  25:Drivers/GD32F30x_standard_peripheral/Source/gd32f30x_fmc.c **** 
  26:Drivers/GD32F30x_standard_peripheral/Source/gd32f30x_fmc.c ****     THIS SOFTWARE IS PROVIDED BY THE COPYRIGHT HOLDERS AND CONTRIBUTORS "AS IS" 
  27:Drivers/GD32F30x_standard_peripheral/Source/gd32f30x_fmc.c **** AND ANY EXPRESS OR IMPLIED WARRANTIES, INCLUDING, BUT NOT LIMITED TO, THE IMPLIED 
  28:Drivers/GD32F30x_standard_peripheral/Source/gd32f30x_fmc.c **** WARRANTIES OF MERCHANTABILITY AND FITNESS FOR A PARTICULAR PURPOSE ARE DISCLAIMED. 
  29:Drivers/GD32F30x_standard_peripheral/Source/gd32f30x_fmc.c **** IN NO EVENT SHALL THE COPYRIGHT HOLDER OR CONTRIBUTORS BE LIABLE FOR ANY DIRECT, 
ARM GAS  C:\Users\Prog\AppData\Local\Temp\cclIyEjW.s 			page 2


  30:Drivers/GD32F30x_standard_peripheral/Source/gd32f30x_fmc.c **** INDIRECT, INCIDENTAL, SPECIAL, EXEMPLARY, OR CONSEQUENTIAL DAMAGES (INCLUDING, BUT 
  31:Drivers/GD32F30x_standard_peripheral/Source/gd32f30x_fmc.c **** NOT LIMITED TO, PROCUREMENT OF SUBSTITUTE GOODS OR SERVICES; LOSS OF USE, DATA, OR 
  32:Drivers/GD32F30x_standard_peripheral/Source/gd32f30x_fmc.c **** PROFITS; OR BUSINESS INTERRUPTION) HOWEVER CAUSED AND ON ANY THEORY OF LIABILITY, 
  33:Drivers/GD32F30x_standard_peripheral/Source/gd32f30x_fmc.c **** WHETHER IN CONTRACT, STRICT LIABILITY, OR TORT (INCLUDING NEGLIGENCE OR OTHERWISE) 
  34:Drivers/GD32F30x_standard_peripheral/Source/gd32f30x_fmc.c **** ARISING IN ANY WAY OUT OF THE USE OF THIS SOFTWARE, EVEN IF ADVISED OF THE POSSIBILITY 
  35:Drivers/GD32F30x_standard_peripheral/Source/gd32f30x_fmc.c **** OF SUCH DAMAGE.
  36:Drivers/GD32F30x_standard_peripheral/Source/gd32f30x_fmc.c **** */
  37:Drivers/GD32F30x_standard_peripheral/Source/gd32f30x_fmc.c **** 
  38:Drivers/GD32F30x_standard_peripheral/Source/gd32f30x_fmc.c **** 
  39:Drivers/GD32F30x_standard_peripheral/Source/gd32f30x_fmc.c **** #include "gd32f30x_fmc.h"
  40:Drivers/GD32F30x_standard_peripheral/Source/gd32f30x_fmc.c **** 
  41:Drivers/GD32F30x_standard_peripheral/Source/gd32f30x_fmc.c **** /*!
  42:Drivers/GD32F30x_standard_peripheral/Source/gd32f30x_fmc.c ****     \brief      set the wait state counter value
  43:Drivers/GD32F30x_standard_peripheral/Source/gd32f30x_fmc.c ****     \param[in]  wscnt:wait state counter value
  44:Drivers/GD32F30x_standard_peripheral/Source/gd32f30x_fmc.c ****       \arg        WS_WSCNT_0: FMC 0 wait
  45:Drivers/GD32F30x_standard_peripheral/Source/gd32f30x_fmc.c ****       \arg        WS_WSCNT_1: FMC 1 wait
  46:Drivers/GD32F30x_standard_peripheral/Source/gd32f30x_fmc.c ****       \arg        WS_WSCNT_2: FMC 2 wait
  47:Drivers/GD32F30x_standard_peripheral/Source/gd32f30x_fmc.c ****     \param[out] none
  48:Drivers/GD32F30x_standard_peripheral/Source/gd32f30x_fmc.c ****     \retval     none
  49:Drivers/GD32F30x_standard_peripheral/Source/gd32f30x_fmc.c **** */
  50:Drivers/GD32F30x_standard_peripheral/Source/gd32f30x_fmc.c **** void fmc_wscnt_set(uint32_t wscnt)
  51:Drivers/GD32F30x_standard_peripheral/Source/gd32f30x_fmc.c **** {
  30              		.loc 1 51 1 view -0
  31              		.cfi_startproc
  32              		@ args = 0, pretend = 0, frame = 0
  33              		@ frame_needed = 0, uses_anonymous_args = 0
  34              		@ link register save eliminated.
  52:Drivers/GD32F30x_standard_peripheral/Source/gd32f30x_fmc.c ****     uint32_t reg;
  35              		.loc 1 52 5 view .LVU1
  53:Drivers/GD32F30x_standard_peripheral/Source/gd32f30x_fmc.c ****     
  54:Drivers/GD32F30x_standard_peripheral/Source/gd32f30x_fmc.c ****     reg = FMC_WS;
  36              		.loc 1 54 5 view .LVU2
  37              		.loc 1 54 9 is_stmt 0 view .LVU3
  38 0000 034A     		ldr	r2, .L2
  39 0002 1368     		ldr	r3, [r2]
  40              	.LVL1:
  55:Drivers/GD32F30x_standard_peripheral/Source/gd32f30x_fmc.c ****     /* set the wait state counter value */
  56:Drivers/GD32F30x_standard_peripheral/Source/gd32f30x_fmc.c ****     reg &= ~FMC_WS_WSCNT;
  41              		.loc 1 56 5 is_stmt 1 view .LVU4
  42              		.loc 1 56 9 is_stmt 0 view .LVU5
  43 0004 23F00703 		bic	r3, r3, #7
  44              	.LVL2:
  57:Drivers/GD32F30x_standard_peripheral/Source/gd32f30x_fmc.c ****     FMC_WS = (reg | wscnt);
  45              		.loc 1 57 5 is_stmt 1 view .LVU6
  46              		.loc 1 57 19 is_stmt 0 view .LVU7
  47 0008 0343     		orrs	r3, r3, r0
  48              	.LVL3:
  49              		.loc 1 57 12 view .LVU8
  50 000a 1360     		str	r3, [r2]
  58:Drivers/GD32F30x_standard_peripheral/Source/gd32f30x_fmc.c **** }
  51              		.loc 1 58 1 view .LVU9
  52 000c 7047     		bx	lr
  53              	.L3:
  54 000e 00BF     		.align	2
  55              	.L2:
  56 0010 00200240 		.word	1073881088
  57              		.cfi_endproc
ARM GAS  C:\Users\Prog\AppData\Local\Temp\cclIyEjW.s 			page 3


  58              	.LFE116:
  60              		.section	.text.fmc_unlock,"ax",%progbits
  61              		.align	1
  62              		.global	fmc_unlock
  63              		.syntax unified
  64              		.thumb
  65              		.thumb_func
  66              		.fpu fpv4-sp-d16
  68              	fmc_unlock:
  69              	.LFB117:
  59:Drivers/GD32F30x_standard_peripheral/Source/gd32f30x_fmc.c **** 
  60:Drivers/GD32F30x_standard_peripheral/Source/gd32f30x_fmc.c **** /*!
  61:Drivers/GD32F30x_standard_peripheral/Source/gd32f30x_fmc.c ****     \brief      unlock the main FMC operation
  62:Drivers/GD32F30x_standard_peripheral/Source/gd32f30x_fmc.c ****     \param[in]  none
  63:Drivers/GD32F30x_standard_peripheral/Source/gd32f30x_fmc.c ****     \param[out] none
  64:Drivers/GD32F30x_standard_peripheral/Source/gd32f30x_fmc.c ****     \retval     none
  65:Drivers/GD32F30x_standard_peripheral/Source/gd32f30x_fmc.c **** */
  66:Drivers/GD32F30x_standard_peripheral/Source/gd32f30x_fmc.c **** void fmc_unlock(void)
  67:Drivers/GD32F30x_standard_peripheral/Source/gd32f30x_fmc.c **** {
  70              		.loc 1 67 1 is_stmt 1 view -0
  71              		.cfi_startproc
  72              		@ args = 0, pretend = 0, frame = 0
  73              		@ frame_needed = 0, uses_anonymous_args = 0
  74              		@ link register save eliminated.
  68:Drivers/GD32F30x_standard_peripheral/Source/gd32f30x_fmc.c ****     if((RESET != (FMC_CTL0 & FMC_CTL0_LK))){
  75              		.loc 1 68 5 view .LVU11
  76              		.loc 1 68 19 is_stmt 0 view .LVU12
  77 0000 0E4B     		ldr	r3, .L7
  78 0002 1B69     		ldr	r3, [r3, #16]
  79              		.loc 1 68 7 view .LVU13
  80 0004 13F0800F 		tst	r3, #128
  81 0008 05D0     		beq	.L5
  69:Drivers/GD32F30x_standard_peripheral/Source/gd32f30x_fmc.c ****         /* write the FMC unlock key */
  70:Drivers/GD32F30x_standard_peripheral/Source/gd32f30x_fmc.c ****         FMC_KEY0 = UNLOCK_KEY0;
  82              		.loc 1 70 9 is_stmt 1 view .LVU14
  83              		.loc 1 70 18 is_stmt 0 view .LVU15
  84 000a 0C4B     		ldr	r3, .L7
  85 000c 0C4A     		ldr	r2, .L7+4
  86 000e 5A60     		str	r2, [r3, #4]
  71:Drivers/GD32F30x_standard_peripheral/Source/gd32f30x_fmc.c ****         FMC_KEY0 = UNLOCK_KEY1;
  87              		.loc 1 71 9 is_stmt 1 view .LVU16
  88              		.loc 1 71 18 is_stmt 0 view .LVU17
  89 0010 02F18832 		add	r2, r2, #-2004318072
  90 0014 5A60     		str	r2, [r3, #4]
  91              	.L5:
  72:Drivers/GD32F30x_standard_peripheral/Source/gd32f30x_fmc.c ****     }
  73:Drivers/GD32F30x_standard_peripheral/Source/gd32f30x_fmc.c ****     if(FMC_BANK0_SIZE < FMC_SIZE){
  92              		.loc 1 73 5 is_stmt 1 view .LVU18
  93              		.loc 1 73 25 is_stmt 0 view .LVU19
  94 0016 0B4B     		ldr	r3, .L7+8
  95 0018 B3F8E030 		ldrh	r3, [r3, #224]
  96              		.loc 1 73 7 view .LVU20
  97 001c B3F5007F 		cmp	r3, #512
  98 0020 0AD9     		bls	.L4
  74:Drivers/GD32F30x_standard_peripheral/Source/gd32f30x_fmc.c ****         /* write the FMC unlock key */
  75:Drivers/GD32F30x_standard_peripheral/Source/gd32f30x_fmc.c ****         if(RESET != (FMC_CTL1 & FMC_CTL1_LK)){
  99              		.loc 1 75 9 is_stmt 1 view .LVU21
ARM GAS  C:\Users\Prog\AppData\Local\Temp\cclIyEjW.s 			page 4


 100              		.loc 1 75 22 is_stmt 0 view .LVU22
 101 0022 064B     		ldr	r3, .L7
 102 0024 1B6D     		ldr	r3, [r3, #80]
 103              		.loc 1 75 11 view .LVU23
 104 0026 13F0800F 		tst	r3, #128
 105 002a 05D0     		beq	.L4
  76:Drivers/GD32F30x_standard_peripheral/Source/gd32f30x_fmc.c ****             FMC_KEY1 = UNLOCK_KEY0;
 106              		.loc 1 76 13 is_stmt 1 view .LVU24
 107              		.loc 1 76 22 is_stmt 0 view .LVU25
 108 002c 034B     		ldr	r3, .L7
 109 002e 044A     		ldr	r2, .L7+4
 110 0030 5A64     		str	r2, [r3, #68]
  77:Drivers/GD32F30x_standard_peripheral/Source/gd32f30x_fmc.c ****             FMC_KEY1 = UNLOCK_KEY1;
 111              		.loc 1 77 13 is_stmt 1 view .LVU26
 112              		.loc 1 77 22 is_stmt 0 view .LVU27
 113 0032 02F18832 		add	r2, r2, #-2004318072
 114 0036 5A64     		str	r2, [r3, #68]
 115              	.L4:
  78:Drivers/GD32F30x_standard_peripheral/Source/gd32f30x_fmc.c ****         }
  79:Drivers/GD32F30x_standard_peripheral/Source/gd32f30x_fmc.c ****     }
  80:Drivers/GD32F30x_standard_peripheral/Source/gd32f30x_fmc.c **** }
 116              		.loc 1 80 1 view .LVU28
 117 0038 7047     		bx	lr
 118              	.L8:
 119 003a 00BF     		.align	2
 120              	.L7:
 121 003c 00200240 		.word	1073881088
 122 0040 23016745 		.word	1164378403
 123 0044 00F7FF1F 		.word	536868608
 124              		.cfi_endproc
 125              	.LFE117:
 127              		.section	.text.fmc_bank0_unlock,"ax",%progbits
 128              		.align	1
 129              		.global	fmc_bank0_unlock
 130              		.syntax unified
 131              		.thumb
 132              		.thumb_func
 133              		.fpu fpv4-sp-d16
 135              	fmc_bank0_unlock:
 136              	.LFB118:
  81:Drivers/GD32F30x_standard_peripheral/Source/gd32f30x_fmc.c **** 
  82:Drivers/GD32F30x_standard_peripheral/Source/gd32f30x_fmc.c **** /*!
  83:Drivers/GD32F30x_standard_peripheral/Source/gd32f30x_fmc.c ****     \brief      unlock the FMC bank0 operation 
  84:Drivers/GD32F30x_standard_peripheral/Source/gd32f30x_fmc.c ****                 this function can be used for all GD32F30x devices.
  85:Drivers/GD32F30x_standard_peripheral/Source/gd32f30x_fmc.c ****                 for GD32F30x with flash more than 512KB, this function unlocks bank0.
  86:Drivers/GD32F30x_standard_peripheral/Source/gd32f30x_fmc.c ****                 for GD32F30x with flash no more than 512KB and it is equivalent to fmc_unlock funct
  87:Drivers/GD32F30x_standard_peripheral/Source/gd32f30x_fmc.c ****     \param[in]  none
  88:Drivers/GD32F30x_standard_peripheral/Source/gd32f30x_fmc.c ****     \param[out] none
  89:Drivers/GD32F30x_standard_peripheral/Source/gd32f30x_fmc.c ****     \retval     none
  90:Drivers/GD32F30x_standard_peripheral/Source/gd32f30x_fmc.c **** */
  91:Drivers/GD32F30x_standard_peripheral/Source/gd32f30x_fmc.c **** void fmc_bank0_unlock(void)
  92:Drivers/GD32F30x_standard_peripheral/Source/gd32f30x_fmc.c **** {
 137              		.loc 1 92 1 is_stmt 1 view -0
 138              		.cfi_startproc
 139              		@ args = 0, pretend = 0, frame = 0
 140              		@ frame_needed = 0, uses_anonymous_args = 0
 141              		@ link register save eliminated.
ARM GAS  C:\Users\Prog\AppData\Local\Temp\cclIyEjW.s 			page 5


  93:Drivers/GD32F30x_standard_peripheral/Source/gd32f30x_fmc.c ****     if((RESET != (FMC_CTL0 & FMC_CTL0_LK))){
 142              		.loc 1 93 5 view .LVU30
 143              		.loc 1 93 19 is_stmt 0 view .LVU31
 144 0000 054B     		ldr	r3, .L11
 145 0002 1B69     		ldr	r3, [r3, #16]
 146              		.loc 1 93 7 view .LVU32
 147 0004 13F0800F 		tst	r3, #128
 148 0008 05D0     		beq	.L9
  94:Drivers/GD32F30x_standard_peripheral/Source/gd32f30x_fmc.c ****         /* write the FMC unlock key */
  95:Drivers/GD32F30x_standard_peripheral/Source/gd32f30x_fmc.c ****         FMC_KEY0 = UNLOCK_KEY0;
 149              		.loc 1 95 9 is_stmt 1 view .LVU33
 150              		.loc 1 95 18 is_stmt 0 view .LVU34
 151 000a 034B     		ldr	r3, .L11
 152 000c 034A     		ldr	r2, .L11+4
 153 000e 5A60     		str	r2, [r3, #4]
  96:Drivers/GD32F30x_standard_peripheral/Source/gd32f30x_fmc.c ****         FMC_KEY0 = UNLOCK_KEY1;
 154              		.loc 1 96 9 is_stmt 1 view .LVU35
 155              		.loc 1 96 18 is_stmt 0 view .LVU36
 156 0010 02F18832 		add	r2, r2, #-2004318072
 157 0014 5A60     		str	r2, [r3, #4]
 158              	.L9:
  97:Drivers/GD32F30x_standard_peripheral/Source/gd32f30x_fmc.c ****     }
  98:Drivers/GD32F30x_standard_peripheral/Source/gd32f30x_fmc.c **** }
 159              		.loc 1 98 1 view .LVU37
 160 0016 7047     		bx	lr
 161              	.L12:
 162              		.align	2
 163              	.L11:
 164 0018 00200240 		.word	1073881088
 165 001c 23016745 		.word	1164378403
 166              		.cfi_endproc
 167              	.LFE118:
 169              		.section	.text.fmc_bank1_unlock,"ax",%progbits
 170              		.align	1
 171              		.global	fmc_bank1_unlock
 172              		.syntax unified
 173              		.thumb
 174              		.thumb_func
 175              		.fpu fpv4-sp-d16
 177              	fmc_bank1_unlock:
 178              	.LFB119:
  99:Drivers/GD32F30x_standard_peripheral/Source/gd32f30x_fmc.c **** 
 100:Drivers/GD32F30x_standard_peripheral/Source/gd32f30x_fmc.c **** /*!
 101:Drivers/GD32F30x_standard_peripheral/Source/gd32f30x_fmc.c ****     \brief      unlock the FMC bank1 operation 
 102:Drivers/GD32F30x_standard_peripheral/Source/gd32f30x_fmc.c ****                 this function can be used for GD32F30x with flash more than 512KB.
 103:Drivers/GD32F30x_standard_peripheral/Source/gd32f30x_fmc.c ****     \param[in]  none
 104:Drivers/GD32F30x_standard_peripheral/Source/gd32f30x_fmc.c ****     \param[out] none
 105:Drivers/GD32F30x_standard_peripheral/Source/gd32f30x_fmc.c ****     \retval     none
 106:Drivers/GD32F30x_standard_peripheral/Source/gd32f30x_fmc.c **** */
 107:Drivers/GD32F30x_standard_peripheral/Source/gd32f30x_fmc.c **** void fmc_bank1_unlock(void)
 108:Drivers/GD32F30x_standard_peripheral/Source/gd32f30x_fmc.c **** {
 179              		.loc 1 108 1 is_stmt 1 view -0
 180              		.cfi_startproc
 181              		@ args = 0, pretend = 0, frame = 0
 182              		@ frame_needed = 0, uses_anonymous_args = 0
 183              		@ link register save eliminated.
 109:Drivers/GD32F30x_standard_peripheral/Source/gd32f30x_fmc.c ****     if((RESET != (FMC_CTL1 & FMC_CTL1_LK))){
ARM GAS  C:\Users\Prog\AppData\Local\Temp\cclIyEjW.s 			page 6


 184              		.loc 1 109 5 view .LVU39
 185              		.loc 1 109 19 is_stmt 0 view .LVU40
 186 0000 054B     		ldr	r3, .L15
 187 0002 1B6D     		ldr	r3, [r3, #80]
 188              		.loc 1 109 7 view .LVU41
 189 0004 13F0800F 		tst	r3, #128
 190 0008 05D0     		beq	.L13
 110:Drivers/GD32F30x_standard_peripheral/Source/gd32f30x_fmc.c ****         /* write the FMC unlock key */
 111:Drivers/GD32F30x_standard_peripheral/Source/gd32f30x_fmc.c ****         FMC_KEY1 = UNLOCK_KEY0;
 191              		.loc 1 111 9 is_stmt 1 view .LVU42
 192              		.loc 1 111 18 is_stmt 0 view .LVU43
 193 000a 034B     		ldr	r3, .L15
 194 000c 034A     		ldr	r2, .L15+4
 195 000e 5A64     		str	r2, [r3, #68]
 112:Drivers/GD32F30x_standard_peripheral/Source/gd32f30x_fmc.c ****         FMC_KEY1 = UNLOCK_KEY1;
 196              		.loc 1 112 9 is_stmt 1 view .LVU44
 197              		.loc 1 112 18 is_stmt 0 view .LVU45
 198 0010 02F18832 		add	r2, r2, #-2004318072
 199 0014 5A64     		str	r2, [r3, #68]
 200              	.L13:
 113:Drivers/GD32F30x_standard_peripheral/Source/gd32f30x_fmc.c ****     }
 114:Drivers/GD32F30x_standard_peripheral/Source/gd32f30x_fmc.c **** }
 201              		.loc 1 114 1 view .LVU46
 202 0016 7047     		bx	lr
 203              	.L16:
 204              		.align	2
 205              	.L15:
 206 0018 00200240 		.word	1073881088
 207 001c 23016745 		.word	1164378403
 208              		.cfi_endproc
 209              	.LFE119:
 211              		.section	.text.fmc_lock,"ax",%progbits
 212              		.align	1
 213              		.global	fmc_lock
 214              		.syntax unified
 215              		.thumb
 216              		.thumb_func
 217              		.fpu fpv4-sp-d16
 219              	fmc_lock:
 220              	.LFB120:
 115:Drivers/GD32F30x_standard_peripheral/Source/gd32f30x_fmc.c **** 
 116:Drivers/GD32F30x_standard_peripheral/Source/gd32f30x_fmc.c **** /*!
 117:Drivers/GD32F30x_standard_peripheral/Source/gd32f30x_fmc.c ****     \brief      lock the main FMC operation
 118:Drivers/GD32F30x_standard_peripheral/Source/gd32f30x_fmc.c ****     \param[in]  none
 119:Drivers/GD32F30x_standard_peripheral/Source/gd32f30x_fmc.c ****     \param[out] none
 120:Drivers/GD32F30x_standard_peripheral/Source/gd32f30x_fmc.c ****     \retval     none
 121:Drivers/GD32F30x_standard_peripheral/Source/gd32f30x_fmc.c **** */
 122:Drivers/GD32F30x_standard_peripheral/Source/gd32f30x_fmc.c **** void fmc_lock(void)
 123:Drivers/GD32F30x_standard_peripheral/Source/gd32f30x_fmc.c **** {
 221              		.loc 1 123 1 is_stmt 1 view -0
 222              		.cfi_startproc
 223              		@ args = 0, pretend = 0, frame = 0
 224              		@ frame_needed = 0, uses_anonymous_args = 0
 225              		@ link register save eliminated.
 124:Drivers/GD32F30x_standard_peripheral/Source/gd32f30x_fmc.c ****     /* set the LK bit */
 125:Drivers/GD32F30x_standard_peripheral/Source/gd32f30x_fmc.c ****     FMC_CTL0 |= FMC_CTL0_LK;
 226              		.loc 1 125 5 view .LVU48
ARM GAS  C:\Users\Prog\AppData\Local\Temp\cclIyEjW.s 			page 7


 227              		.loc 1 125 14 is_stmt 0 view .LVU49
 228 0000 074A     		ldr	r2, .L19
 229 0002 1369     		ldr	r3, [r2, #16]
 230 0004 43F08003 		orr	r3, r3, #128
 231 0008 1361     		str	r3, [r2, #16]
 126:Drivers/GD32F30x_standard_peripheral/Source/gd32f30x_fmc.c ****     
 127:Drivers/GD32F30x_standard_peripheral/Source/gd32f30x_fmc.c ****     if(FMC_BANK0_SIZE < FMC_SIZE){
 232              		.loc 1 127 5 is_stmt 1 view .LVU50
 233              		.loc 1 127 25 is_stmt 0 view .LVU51
 234 000a 064B     		ldr	r3, .L19+4
 235 000c B3F8E030 		ldrh	r3, [r3, #224]
 236              		.loc 1 127 7 view .LVU52
 237 0010 B3F5007F 		cmp	r3, #512
 238 0014 03D9     		bls	.L17
 128:Drivers/GD32F30x_standard_peripheral/Source/gd32f30x_fmc.c ****         /* set the LK bit */
 129:Drivers/GD32F30x_standard_peripheral/Source/gd32f30x_fmc.c ****         FMC_CTL1 |= FMC_CTL1_LK;
 239              		.loc 1 129 9 is_stmt 1 view .LVU53
 240              		.loc 1 129 18 is_stmt 0 view .LVU54
 241 0016 136D     		ldr	r3, [r2, #80]
 242 0018 43F08003 		orr	r3, r3, #128
 243 001c 1365     		str	r3, [r2, #80]
 244              	.L17:
 130:Drivers/GD32F30x_standard_peripheral/Source/gd32f30x_fmc.c ****     }
 131:Drivers/GD32F30x_standard_peripheral/Source/gd32f30x_fmc.c **** }
 245              		.loc 1 131 1 view .LVU55
 246 001e 7047     		bx	lr
 247              	.L20:
 248              		.align	2
 249              	.L19:
 250 0020 00200240 		.word	1073881088
 251 0024 00F7FF1F 		.word	536868608
 252              		.cfi_endproc
 253              	.LFE120:
 255              		.section	.text.fmc_bank0_lock,"ax",%progbits
 256              		.align	1
 257              		.global	fmc_bank0_lock
 258              		.syntax unified
 259              		.thumb
 260              		.thumb_func
 261              		.fpu fpv4-sp-d16
 263              	fmc_bank0_lock:
 264              	.LFB121:
 132:Drivers/GD32F30x_standard_peripheral/Source/gd32f30x_fmc.c **** 
 133:Drivers/GD32F30x_standard_peripheral/Source/gd32f30x_fmc.c **** /*!
 134:Drivers/GD32F30x_standard_peripheral/Source/gd32f30x_fmc.c ****     \brief      lock the FMC bank0 operation
 135:Drivers/GD32F30x_standard_peripheral/Source/gd32f30x_fmc.c ****                 this function can be used for all GD32F30X devices.
 136:Drivers/GD32F30x_standard_peripheral/Source/gd32f30x_fmc.c ****                 for GD32F30x with flash more than 512KB, this function locks bank0.
 137:Drivers/GD32F30x_standard_peripheral/Source/gd32f30x_fmc.c ****                 for GD32F30x with flash no more than 512KB and it is equivalent to fmc_lock functio
 138:Drivers/GD32F30x_standard_peripheral/Source/gd32f30x_fmc.c ****     \param[in]  none
 139:Drivers/GD32F30x_standard_peripheral/Source/gd32f30x_fmc.c ****     \param[out] none
 140:Drivers/GD32F30x_standard_peripheral/Source/gd32f30x_fmc.c ****     \retval     none
 141:Drivers/GD32F30x_standard_peripheral/Source/gd32f30x_fmc.c **** */
 142:Drivers/GD32F30x_standard_peripheral/Source/gd32f30x_fmc.c **** void fmc_bank0_lock(void)
 143:Drivers/GD32F30x_standard_peripheral/Source/gd32f30x_fmc.c **** {
 265              		.loc 1 143 1 is_stmt 1 view -0
 266              		.cfi_startproc
 267              		@ args = 0, pretend = 0, frame = 0
ARM GAS  C:\Users\Prog\AppData\Local\Temp\cclIyEjW.s 			page 8


 268              		@ frame_needed = 0, uses_anonymous_args = 0
 269              		@ link register save eliminated.
 144:Drivers/GD32F30x_standard_peripheral/Source/gd32f30x_fmc.c ****     /* set the LK bit*/
 145:Drivers/GD32F30x_standard_peripheral/Source/gd32f30x_fmc.c ****     FMC_CTL0 |= FMC_CTL0_LK;
 270              		.loc 1 145 5 view .LVU57
 271              		.loc 1 145 14 is_stmt 0 view .LVU58
 272 0000 024A     		ldr	r2, .L22
 273 0002 1369     		ldr	r3, [r2, #16]
 274 0004 43F08003 		orr	r3, r3, #128
 275 0008 1361     		str	r3, [r2, #16]
 146:Drivers/GD32F30x_standard_peripheral/Source/gd32f30x_fmc.c **** }
 276              		.loc 1 146 1 view .LVU59
 277 000a 7047     		bx	lr
 278              	.L23:
 279              		.align	2
 280              	.L22:
 281 000c 00200240 		.word	1073881088
 282              		.cfi_endproc
 283              	.LFE121:
 285              		.section	.text.fmc_bank1_lock,"ax",%progbits
 286              		.align	1
 287              		.global	fmc_bank1_lock
 288              		.syntax unified
 289              		.thumb
 290              		.thumb_func
 291              		.fpu fpv4-sp-d16
 293              	fmc_bank1_lock:
 294              	.LFB122:
 147:Drivers/GD32F30x_standard_peripheral/Source/gd32f30x_fmc.c **** 
 148:Drivers/GD32F30x_standard_peripheral/Source/gd32f30x_fmc.c **** /*!
 149:Drivers/GD32F30x_standard_peripheral/Source/gd32f30x_fmc.c ****     \brief      lock the FMC bank1 operation
 150:Drivers/GD32F30x_standard_peripheral/Source/gd32f30x_fmc.c ****                 this function can be used for GD32F30x with flash more than 512KB.
 151:Drivers/GD32F30x_standard_peripheral/Source/gd32f30x_fmc.c ****     \param[in]  none
 152:Drivers/GD32F30x_standard_peripheral/Source/gd32f30x_fmc.c ****     \param[out] none
 153:Drivers/GD32F30x_standard_peripheral/Source/gd32f30x_fmc.c ****     \retval     none
 154:Drivers/GD32F30x_standard_peripheral/Source/gd32f30x_fmc.c **** */
 155:Drivers/GD32F30x_standard_peripheral/Source/gd32f30x_fmc.c **** void fmc_bank1_lock(void)
 156:Drivers/GD32F30x_standard_peripheral/Source/gd32f30x_fmc.c **** {
 295              		.loc 1 156 1 is_stmt 1 view -0
 296              		.cfi_startproc
 297              		@ args = 0, pretend = 0, frame = 0
 298              		@ frame_needed = 0, uses_anonymous_args = 0
 299              		@ link register save eliminated.
 157:Drivers/GD32F30x_standard_peripheral/Source/gd32f30x_fmc.c ****     /* set the LK bit*/
 158:Drivers/GD32F30x_standard_peripheral/Source/gd32f30x_fmc.c ****     FMC_CTL1 |= FMC_CTL1_LK;
 300              		.loc 1 158 5 view .LVU61
 301              		.loc 1 158 14 is_stmt 0 view .LVU62
 302 0000 024A     		ldr	r2, .L25
 303 0002 136D     		ldr	r3, [r2, #80]
 304 0004 43F08003 		orr	r3, r3, #128
 305 0008 1365     		str	r3, [r2, #80]
 159:Drivers/GD32F30x_standard_peripheral/Source/gd32f30x_fmc.c **** }
 306              		.loc 1 159 1 view .LVU63
 307 000a 7047     		bx	lr
 308              	.L26:
 309              		.align	2
 310              	.L25:
ARM GAS  C:\Users\Prog\AppData\Local\Temp\cclIyEjW.s 			page 9


 311 000c 00200240 		.word	1073881088
 312              		.cfi_endproc
 313              	.LFE122:
 315              		.section	.text.ob_unlock,"ax",%progbits
 316              		.align	1
 317              		.global	ob_unlock
 318              		.syntax unified
 319              		.thumb
 320              		.thumb_func
 321              		.fpu fpv4-sp-d16
 323              	ob_unlock:
 324              	.LFB130:
 160:Drivers/GD32F30x_standard_peripheral/Source/gd32f30x_fmc.c **** 
 161:Drivers/GD32F30x_standard_peripheral/Source/gd32f30x_fmc.c **** /*!
 162:Drivers/GD32F30x_standard_peripheral/Source/gd32f30x_fmc.c ****     \brief      erase page
 163:Drivers/GD32F30x_standard_peripheral/Source/gd32f30x_fmc.c ****     \param[in]  page_address: the page address to be erased.
 164:Drivers/GD32F30x_standard_peripheral/Source/gd32f30x_fmc.c ****     \param[out] none
 165:Drivers/GD32F30x_standard_peripheral/Source/gd32f30x_fmc.c ****     \retval     state of FMC, refer to fmc_state_enum
 166:Drivers/GD32F30x_standard_peripheral/Source/gd32f30x_fmc.c **** */
 167:Drivers/GD32F30x_standard_peripheral/Source/gd32f30x_fmc.c **** fmc_state_enum fmc_page_erase(uint32_t page_address)
 168:Drivers/GD32F30x_standard_peripheral/Source/gd32f30x_fmc.c **** {
 169:Drivers/GD32F30x_standard_peripheral/Source/gd32f30x_fmc.c ****     fmc_state_enum fmc_state;
 170:Drivers/GD32F30x_standard_peripheral/Source/gd32f30x_fmc.c ****     
 171:Drivers/GD32F30x_standard_peripheral/Source/gd32f30x_fmc.c ****     if(FMC_BANK0_SIZE < FMC_SIZE){
 172:Drivers/GD32F30x_standard_peripheral/Source/gd32f30x_fmc.c ****         if(FMC_BANK0_END_ADDRESS > page_address){
 173:Drivers/GD32F30x_standard_peripheral/Source/gd32f30x_fmc.c ****             fmc_state = fmc_bank0_ready_wait(FMC_TIMEOUT_COUNT);
 174:Drivers/GD32F30x_standard_peripheral/Source/gd32f30x_fmc.c ****             /* if the last operation is completed, start page erase */
 175:Drivers/GD32F30x_standard_peripheral/Source/gd32f30x_fmc.c ****             if(FMC_READY == fmc_state){
 176:Drivers/GD32F30x_standard_peripheral/Source/gd32f30x_fmc.c ****                 FMC_CTL0 |= FMC_CTL0_PER;
 177:Drivers/GD32F30x_standard_peripheral/Source/gd32f30x_fmc.c ****                 FMC_ADDR0 = page_address;
 178:Drivers/GD32F30x_standard_peripheral/Source/gd32f30x_fmc.c ****                 FMC_CTL0 |= FMC_CTL0_START;
 179:Drivers/GD32F30x_standard_peripheral/Source/gd32f30x_fmc.c ****                 /* wait for the FMC ready */
 180:Drivers/GD32F30x_standard_peripheral/Source/gd32f30x_fmc.c ****                 fmc_state = fmc_bank0_ready_wait(FMC_TIMEOUT_COUNT);
 181:Drivers/GD32F30x_standard_peripheral/Source/gd32f30x_fmc.c ****                 /* reset the PER bit */
 182:Drivers/GD32F30x_standard_peripheral/Source/gd32f30x_fmc.c ****                 FMC_CTL0 &= ~FMC_CTL0_PER;
 183:Drivers/GD32F30x_standard_peripheral/Source/gd32f30x_fmc.c ****             }
 184:Drivers/GD32F30x_standard_peripheral/Source/gd32f30x_fmc.c ****         }else{
 185:Drivers/GD32F30x_standard_peripheral/Source/gd32f30x_fmc.c ****             /* wait for the FMC ready */
 186:Drivers/GD32F30x_standard_peripheral/Source/gd32f30x_fmc.c ****             fmc_state = fmc_bank1_ready_wait(FMC_TIMEOUT_COUNT);
 187:Drivers/GD32F30x_standard_peripheral/Source/gd32f30x_fmc.c ****             /* if the last operation is completed, start page erase */
 188:Drivers/GD32F30x_standard_peripheral/Source/gd32f30x_fmc.c ****             if(FMC_READY == fmc_state){
 189:Drivers/GD32F30x_standard_peripheral/Source/gd32f30x_fmc.c ****                 FMC_CTL1 |= FMC_CTL1_PER;
 190:Drivers/GD32F30x_standard_peripheral/Source/gd32f30x_fmc.c ****                 FMC_ADDR1 = page_address;
 191:Drivers/GD32F30x_standard_peripheral/Source/gd32f30x_fmc.c ****                 if(FMC_OBSTAT & FMC_OBSTAT_SPC){
 192:Drivers/GD32F30x_standard_peripheral/Source/gd32f30x_fmc.c ****                     FMC_ADDR0 = page_address;
 193:Drivers/GD32F30x_standard_peripheral/Source/gd32f30x_fmc.c ****                 }
 194:Drivers/GD32F30x_standard_peripheral/Source/gd32f30x_fmc.c ****                 FMC_CTL1 |= FMC_CTL1_START;
 195:Drivers/GD32F30x_standard_peripheral/Source/gd32f30x_fmc.c ****                 /* wait for the FMC ready */
 196:Drivers/GD32F30x_standard_peripheral/Source/gd32f30x_fmc.c ****                 fmc_state = fmc_bank1_ready_wait(FMC_TIMEOUT_COUNT);
 197:Drivers/GD32F30x_standard_peripheral/Source/gd32f30x_fmc.c ****                 /* reset the PER bit */
 198:Drivers/GD32F30x_standard_peripheral/Source/gd32f30x_fmc.c ****                 FMC_CTL1 &= ~FMC_CTL1_PER;
 199:Drivers/GD32F30x_standard_peripheral/Source/gd32f30x_fmc.c ****             }
 200:Drivers/GD32F30x_standard_peripheral/Source/gd32f30x_fmc.c ****         }
 201:Drivers/GD32F30x_standard_peripheral/Source/gd32f30x_fmc.c ****     }else{
 202:Drivers/GD32F30x_standard_peripheral/Source/gd32f30x_fmc.c ****         fmc_state = fmc_bank0_ready_wait(FMC_TIMEOUT_COUNT);
 203:Drivers/GD32F30x_standard_peripheral/Source/gd32f30x_fmc.c ****         /* if the last operation is completed, start page erase */
 204:Drivers/GD32F30x_standard_peripheral/Source/gd32f30x_fmc.c ****         if(FMC_READY == fmc_state){
ARM GAS  C:\Users\Prog\AppData\Local\Temp\cclIyEjW.s 			page 10


 205:Drivers/GD32F30x_standard_peripheral/Source/gd32f30x_fmc.c ****             FMC_CTL0 |= FMC_CTL0_PER;
 206:Drivers/GD32F30x_standard_peripheral/Source/gd32f30x_fmc.c ****             FMC_ADDR0 = page_address;
 207:Drivers/GD32F30x_standard_peripheral/Source/gd32f30x_fmc.c ****             FMC_CTL0 |= FMC_CTL0_START;
 208:Drivers/GD32F30x_standard_peripheral/Source/gd32f30x_fmc.c ****             /* wait for the FMC ready */
 209:Drivers/GD32F30x_standard_peripheral/Source/gd32f30x_fmc.c ****             fmc_state = fmc_bank0_ready_wait(FMC_TIMEOUT_COUNT);
 210:Drivers/GD32F30x_standard_peripheral/Source/gd32f30x_fmc.c ****             /* reset the PER bit */
 211:Drivers/GD32F30x_standard_peripheral/Source/gd32f30x_fmc.c ****             FMC_CTL0 &= ~FMC_CTL0_PER;
 212:Drivers/GD32F30x_standard_peripheral/Source/gd32f30x_fmc.c ****         }
 213:Drivers/GD32F30x_standard_peripheral/Source/gd32f30x_fmc.c ****     }
 214:Drivers/GD32F30x_standard_peripheral/Source/gd32f30x_fmc.c ****     /* return the FMC state */
 215:Drivers/GD32F30x_standard_peripheral/Source/gd32f30x_fmc.c ****     return fmc_state;
 216:Drivers/GD32F30x_standard_peripheral/Source/gd32f30x_fmc.c **** }
 217:Drivers/GD32F30x_standard_peripheral/Source/gd32f30x_fmc.c **** 
 218:Drivers/GD32F30x_standard_peripheral/Source/gd32f30x_fmc.c **** /*!
 219:Drivers/GD32F30x_standard_peripheral/Source/gd32f30x_fmc.c ****     \brief      erase whole chip
 220:Drivers/GD32F30x_standard_peripheral/Source/gd32f30x_fmc.c ****     \param[in]  none
 221:Drivers/GD32F30x_standard_peripheral/Source/gd32f30x_fmc.c ****     \param[out] none
 222:Drivers/GD32F30x_standard_peripheral/Source/gd32f30x_fmc.c ****     \retval     state of FMC, refer to fmc_state_enum
 223:Drivers/GD32F30x_standard_peripheral/Source/gd32f30x_fmc.c **** */
 224:Drivers/GD32F30x_standard_peripheral/Source/gd32f30x_fmc.c **** fmc_state_enum fmc_mass_erase(void)
 225:Drivers/GD32F30x_standard_peripheral/Source/gd32f30x_fmc.c **** {
 226:Drivers/GD32F30x_standard_peripheral/Source/gd32f30x_fmc.c ****     fmc_state_enum fmc_state;
 227:Drivers/GD32F30x_standard_peripheral/Source/gd32f30x_fmc.c ****     if(FMC_BANK0_SIZE < FMC_SIZE){
 228:Drivers/GD32F30x_standard_peripheral/Source/gd32f30x_fmc.c ****         /* wait for the FMC ready */
 229:Drivers/GD32F30x_standard_peripheral/Source/gd32f30x_fmc.c ****         fmc_state = fmc_bank0_ready_wait(FMC_TIMEOUT_COUNT);
 230:Drivers/GD32F30x_standard_peripheral/Source/gd32f30x_fmc.c ****         if(FMC_READY == fmc_state){
 231:Drivers/GD32F30x_standard_peripheral/Source/gd32f30x_fmc.c ****             /* start whole chip erase */
 232:Drivers/GD32F30x_standard_peripheral/Source/gd32f30x_fmc.c ****             FMC_CTL0 |= FMC_CTL0_MER;
 233:Drivers/GD32F30x_standard_peripheral/Source/gd32f30x_fmc.c ****             FMC_CTL0 |= FMC_CTL0_START;
 234:Drivers/GD32F30x_standard_peripheral/Source/gd32f30x_fmc.c ****             /* wait for the FMC ready */
 235:Drivers/GD32F30x_standard_peripheral/Source/gd32f30x_fmc.c ****             fmc_state = fmc_bank0_ready_wait(FMC_TIMEOUT_COUNT);
 236:Drivers/GD32F30x_standard_peripheral/Source/gd32f30x_fmc.c ****             if(FMC_READY != fmc_state){
 237:Drivers/GD32F30x_standard_peripheral/Source/gd32f30x_fmc.c ****                 return fmc_state;
 238:Drivers/GD32F30x_standard_peripheral/Source/gd32f30x_fmc.c ****             }
 239:Drivers/GD32F30x_standard_peripheral/Source/gd32f30x_fmc.c ****             /* reset the MER bit */
 240:Drivers/GD32F30x_standard_peripheral/Source/gd32f30x_fmc.c ****             FMC_CTL0 &= ~FMC_CTL0_MER;
 241:Drivers/GD32F30x_standard_peripheral/Source/gd32f30x_fmc.c ****         }
 242:Drivers/GD32F30x_standard_peripheral/Source/gd32f30x_fmc.c ****         fmc_state = fmc_bank1_ready_wait(FMC_TIMEOUT_COUNT);
 243:Drivers/GD32F30x_standard_peripheral/Source/gd32f30x_fmc.c ****         if(FMC_READY == fmc_state){
 244:Drivers/GD32F30x_standard_peripheral/Source/gd32f30x_fmc.c ****             /* start whole chip erase */
 245:Drivers/GD32F30x_standard_peripheral/Source/gd32f30x_fmc.c ****             FMC_CTL1 |= FMC_CTL1_MER;
 246:Drivers/GD32F30x_standard_peripheral/Source/gd32f30x_fmc.c ****             FMC_CTL1 |= FMC_CTL1_START;
 247:Drivers/GD32F30x_standard_peripheral/Source/gd32f30x_fmc.c ****             /* wait for the FMC ready */
 248:Drivers/GD32F30x_standard_peripheral/Source/gd32f30x_fmc.c ****             fmc_state = fmc_bank1_ready_wait(FMC_TIMEOUT_COUNT);
 249:Drivers/GD32F30x_standard_peripheral/Source/gd32f30x_fmc.c ****             /* reset the MER bit */
 250:Drivers/GD32F30x_standard_peripheral/Source/gd32f30x_fmc.c ****             FMC_CTL1 &= ~FMC_CTL1_MER;
 251:Drivers/GD32F30x_standard_peripheral/Source/gd32f30x_fmc.c ****         }
 252:Drivers/GD32F30x_standard_peripheral/Source/gd32f30x_fmc.c ****     }else{
 253:Drivers/GD32F30x_standard_peripheral/Source/gd32f30x_fmc.c ****         fmc_state = fmc_bank0_ready_wait(FMC_TIMEOUT_COUNT);
 254:Drivers/GD32F30x_standard_peripheral/Source/gd32f30x_fmc.c ****         if(FMC_READY == fmc_state){
 255:Drivers/GD32F30x_standard_peripheral/Source/gd32f30x_fmc.c ****             /* start whole chip erase */
 256:Drivers/GD32F30x_standard_peripheral/Source/gd32f30x_fmc.c ****             FMC_CTL0 |= FMC_CTL0_MER;
 257:Drivers/GD32F30x_standard_peripheral/Source/gd32f30x_fmc.c ****             FMC_CTL0 |= FMC_CTL0_START;    
 258:Drivers/GD32F30x_standard_peripheral/Source/gd32f30x_fmc.c ****             /* wait for the FMC ready */
 259:Drivers/GD32F30x_standard_peripheral/Source/gd32f30x_fmc.c ****             fmc_state = fmc_bank0_ready_wait(FMC_TIMEOUT_COUNT);
 260:Drivers/GD32F30x_standard_peripheral/Source/gd32f30x_fmc.c ****             /* reset the MER bit */
 261:Drivers/GD32F30x_standard_peripheral/Source/gd32f30x_fmc.c ****             FMC_CTL0 &= ~FMC_CTL0_MER;
ARM GAS  C:\Users\Prog\AppData\Local\Temp\cclIyEjW.s 			page 11


 262:Drivers/GD32F30x_standard_peripheral/Source/gd32f30x_fmc.c ****         }
 263:Drivers/GD32F30x_standard_peripheral/Source/gd32f30x_fmc.c ****     }
 264:Drivers/GD32F30x_standard_peripheral/Source/gd32f30x_fmc.c ****     /* return the FMC state  */
 265:Drivers/GD32F30x_standard_peripheral/Source/gd32f30x_fmc.c ****     return fmc_state;
 266:Drivers/GD32F30x_standard_peripheral/Source/gd32f30x_fmc.c **** }
 267:Drivers/GD32F30x_standard_peripheral/Source/gd32f30x_fmc.c **** 
 268:Drivers/GD32F30x_standard_peripheral/Source/gd32f30x_fmc.c **** /*!
 269:Drivers/GD32F30x_standard_peripheral/Source/gd32f30x_fmc.c ****     \brief      erase bank0
 270:Drivers/GD32F30x_standard_peripheral/Source/gd32f30x_fmc.c ****     \param[in]  none
 271:Drivers/GD32F30x_standard_peripheral/Source/gd32f30x_fmc.c ****     \param[out] none
 272:Drivers/GD32F30x_standard_peripheral/Source/gd32f30x_fmc.c ****     \retval     state of FMC, refer to fmc_state_enum
 273:Drivers/GD32F30x_standard_peripheral/Source/gd32f30x_fmc.c **** */
 274:Drivers/GD32F30x_standard_peripheral/Source/gd32f30x_fmc.c **** fmc_state_enum fmc_bank0_erase(void)
 275:Drivers/GD32F30x_standard_peripheral/Source/gd32f30x_fmc.c **** {
 276:Drivers/GD32F30x_standard_peripheral/Source/gd32f30x_fmc.c ****     fmc_state_enum fmc_state = FMC_READY;
 277:Drivers/GD32F30x_standard_peripheral/Source/gd32f30x_fmc.c ****     /* wait for the FMC ready */
 278:Drivers/GD32F30x_standard_peripheral/Source/gd32f30x_fmc.c ****     fmc_state = fmc_bank0_ready_wait(FMC_TIMEOUT_COUNT);
 279:Drivers/GD32F30x_standard_peripheral/Source/gd32f30x_fmc.c **** 
 280:Drivers/GD32F30x_standard_peripheral/Source/gd32f30x_fmc.c ****     if(FMC_READY == fmc_state){
 281:Drivers/GD32F30x_standard_peripheral/Source/gd32f30x_fmc.c ****         /* start FMC bank0 erase */
 282:Drivers/GD32F30x_standard_peripheral/Source/gd32f30x_fmc.c ****         FMC_CTL0 |= FMC_CTL0_MER;
 283:Drivers/GD32F30x_standard_peripheral/Source/gd32f30x_fmc.c ****         FMC_CTL0 |= FMC_CTL0_START;
 284:Drivers/GD32F30x_standard_peripheral/Source/gd32f30x_fmc.c ****         /* wait for the FMC ready */
 285:Drivers/GD32F30x_standard_peripheral/Source/gd32f30x_fmc.c ****         fmc_state = fmc_bank0_ready_wait(FMC_TIMEOUT_COUNT);
 286:Drivers/GD32F30x_standard_peripheral/Source/gd32f30x_fmc.c ****         /* reset the MER bit */
 287:Drivers/GD32F30x_standard_peripheral/Source/gd32f30x_fmc.c ****         FMC_CTL0 &= ~FMC_CTL0_MER;
 288:Drivers/GD32F30x_standard_peripheral/Source/gd32f30x_fmc.c ****     }
 289:Drivers/GD32F30x_standard_peripheral/Source/gd32f30x_fmc.c ****     /* return the fmc state */
 290:Drivers/GD32F30x_standard_peripheral/Source/gd32f30x_fmc.c ****     return fmc_state;
 291:Drivers/GD32F30x_standard_peripheral/Source/gd32f30x_fmc.c **** }
 292:Drivers/GD32F30x_standard_peripheral/Source/gd32f30x_fmc.c **** 
 293:Drivers/GD32F30x_standard_peripheral/Source/gd32f30x_fmc.c **** /*!
 294:Drivers/GD32F30x_standard_peripheral/Source/gd32f30x_fmc.c ****     \brief      erase bank1
 295:Drivers/GD32F30x_standard_peripheral/Source/gd32f30x_fmc.c ****     \param[in]  none
 296:Drivers/GD32F30x_standard_peripheral/Source/gd32f30x_fmc.c ****     \param[out] none
 297:Drivers/GD32F30x_standard_peripheral/Source/gd32f30x_fmc.c ****     \retval     state of FMC, refer to fmc_state_enum
 298:Drivers/GD32F30x_standard_peripheral/Source/gd32f30x_fmc.c **** */
 299:Drivers/GD32F30x_standard_peripheral/Source/gd32f30x_fmc.c **** fmc_state_enum fmc_bank1_erase(void)
 300:Drivers/GD32F30x_standard_peripheral/Source/gd32f30x_fmc.c **** {
 301:Drivers/GD32F30x_standard_peripheral/Source/gd32f30x_fmc.c ****     fmc_state_enum fmc_state = FMC_READY;
 302:Drivers/GD32F30x_standard_peripheral/Source/gd32f30x_fmc.c ****     /* wait for the FMC ready */
 303:Drivers/GD32F30x_standard_peripheral/Source/gd32f30x_fmc.c ****     fmc_state = fmc_bank1_ready_wait(FMC_TIMEOUT_COUNT);
 304:Drivers/GD32F30x_standard_peripheral/Source/gd32f30x_fmc.c ****   
 305:Drivers/GD32F30x_standard_peripheral/Source/gd32f30x_fmc.c ****    if(FMC_READY == fmc_state){
 306:Drivers/GD32F30x_standard_peripheral/Source/gd32f30x_fmc.c ****         /* start FMC bank1 erase */
 307:Drivers/GD32F30x_standard_peripheral/Source/gd32f30x_fmc.c ****         FMC_CTL1 |= FMC_CTL1_MER;
 308:Drivers/GD32F30x_standard_peripheral/Source/gd32f30x_fmc.c ****         FMC_CTL1 |= FMC_CTL1_START;
 309:Drivers/GD32F30x_standard_peripheral/Source/gd32f30x_fmc.c ****         /* wait for the FMC ready */
 310:Drivers/GD32F30x_standard_peripheral/Source/gd32f30x_fmc.c ****         fmc_state = fmc_bank1_ready_wait(FMC_TIMEOUT_COUNT);
 311:Drivers/GD32F30x_standard_peripheral/Source/gd32f30x_fmc.c ****         /* reset the MER bit */
 312:Drivers/GD32F30x_standard_peripheral/Source/gd32f30x_fmc.c ****         FMC_CTL1 &= ~FMC_CTL1_MER;
 313:Drivers/GD32F30x_standard_peripheral/Source/gd32f30x_fmc.c ****     }
 314:Drivers/GD32F30x_standard_peripheral/Source/gd32f30x_fmc.c ****     /* return the fmc state */
 315:Drivers/GD32F30x_standard_peripheral/Source/gd32f30x_fmc.c ****     return fmc_state;
 316:Drivers/GD32F30x_standard_peripheral/Source/gd32f30x_fmc.c **** }
 317:Drivers/GD32F30x_standard_peripheral/Source/gd32f30x_fmc.c **** 
 318:Drivers/GD32F30x_standard_peripheral/Source/gd32f30x_fmc.c **** /*!
ARM GAS  C:\Users\Prog\AppData\Local\Temp\cclIyEjW.s 			page 12


 319:Drivers/GD32F30x_standard_peripheral/Source/gd32f30x_fmc.c ****     \brief      program a word at the corresponding address
 320:Drivers/GD32F30x_standard_peripheral/Source/gd32f30x_fmc.c ****     \param[in]  address: address to program
 321:Drivers/GD32F30x_standard_peripheral/Source/gd32f30x_fmc.c ****     \param[in]  data: word to program
 322:Drivers/GD32F30x_standard_peripheral/Source/gd32f30x_fmc.c ****     \param[out] none
 323:Drivers/GD32F30x_standard_peripheral/Source/gd32f30x_fmc.c ****     \retval     state of FMC, refer to fmc_state_enum
 324:Drivers/GD32F30x_standard_peripheral/Source/gd32f30x_fmc.c **** */
 325:Drivers/GD32F30x_standard_peripheral/Source/gd32f30x_fmc.c **** fmc_state_enum fmc_word_program(uint32_t address, uint32_t data)
 326:Drivers/GD32F30x_standard_peripheral/Source/gd32f30x_fmc.c **** {
 327:Drivers/GD32F30x_standard_peripheral/Source/gd32f30x_fmc.c ****     fmc_state_enum fmc_state = FMC_READY;
 328:Drivers/GD32F30x_standard_peripheral/Source/gd32f30x_fmc.c ****     if(FMC_BANK0_SIZE < FMC_SIZE){
 329:Drivers/GD32F30x_standard_peripheral/Source/gd32f30x_fmc.c ****         if(FMC_BANK0_END_ADDRESS > address){
 330:Drivers/GD32F30x_standard_peripheral/Source/gd32f30x_fmc.c ****             fmc_state = fmc_bank0_ready_wait(FMC_TIMEOUT_COUNT); 
 331:Drivers/GD32F30x_standard_peripheral/Source/gd32f30x_fmc.c ****   
 332:Drivers/GD32F30x_standard_peripheral/Source/gd32f30x_fmc.c ****             if(FMC_READY == fmc_state){
 333:Drivers/GD32F30x_standard_peripheral/Source/gd32f30x_fmc.c ****                 /* set the PG bit to start program */
 334:Drivers/GD32F30x_standard_peripheral/Source/gd32f30x_fmc.c ****                 FMC_CTL0 |= FMC_CTL0_PG;
 335:Drivers/GD32F30x_standard_peripheral/Source/gd32f30x_fmc.c ****                 REG32(address) = data;
 336:Drivers/GD32F30x_standard_peripheral/Source/gd32f30x_fmc.c ****                 /* wait for the FMC ready */
 337:Drivers/GD32F30x_standard_peripheral/Source/gd32f30x_fmc.c ****                 fmc_state = fmc_bank0_ready_wait(FMC_TIMEOUT_COUNT);
 338:Drivers/GD32F30x_standard_peripheral/Source/gd32f30x_fmc.c ****                 /* reset the PG bit */
 339:Drivers/GD32F30x_standard_peripheral/Source/gd32f30x_fmc.c ****                 FMC_CTL0 &= ~FMC_CTL0_PG;
 340:Drivers/GD32F30x_standard_peripheral/Source/gd32f30x_fmc.c ****             }
 341:Drivers/GD32F30x_standard_peripheral/Source/gd32f30x_fmc.c ****         }else{
 342:Drivers/GD32F30x_standard_peripheral/Source/gd32f30x_fmc.c ****             fmc_state = fmc_bank1_ready_wait(FMC_TIMEOUT_COUNT); 
 343:Drivers/GD32F30x_standard_peripheral/Source/gd32f30x_fmc.c ****   
 344:Drivers/GD32F30x_standard_peripheral/Source/gd32f30x_fmc.c ****             if(FMC_READY == fmc_state){
 345:Drivers/GD32F30x_standard_peripheral/Source/gd32f30x_fmc.c ****                 /* set the PG bit to start program */
 346:Drivers/GD32F30x_standard_peripheral/Source/gd32f30x_fmc.c ****                 FMC_CTL1 |= FMC_CTL1_PG;
 347:Drivers/GD32F30x_standard_peripheral/Source/gd32f30x_fmc.c ****                 REG32(address) = data;
 348:Drivers/GD32F30x_standard_peripheral/Source/gd32f30x_fmc.c ****                 /* wait for the FMC ready */
 349:Drivers/GD32F30x_standard_peripheral/Source/gd32f30x_fmc.c ****                 fmc_state = fmc_bank1_ready_wait(FMC_TIMEOUT_COUNT);
 350:Drivers/GD32F30x_standard_peripheral/Source/gd32f30x_fmc.c ****                 /* reset the PG bit */
 351:Drivers/GD32F30x_standard_peripheral/Source/gd32f30x_fmc.c ****                 FMC_CTL1 &= ~FMC_CTL1_PG;
 352:Drivers/GD32F30x_standard_peripheral/Source/gd32f30x_fmc.c ****             }
 353:Drivers/GD32F30x_standard_peripheral/Source/gd32f30x_fmc.c ****         }
 354:Drivers/GD32F30x_standard_peripheral/Source/gd32f30x_fmc.c ****     }else{
 355:Drivers/GD32F30x_standard_peripheral/Source/gd32f30x_fmc.c ****         fmc_state = fmc_bank0_ready_wait(FMC_TIMEOUT_COUNT);
 356:Drivers/GD32F30x_standard_peripheral/Source/gd32f30x_fmc.c ****   
 357:Drivers/GD32F30x_standard_peripheral/Source/gd32f30x_fmc.c ****         if(FMC_READY == fmc_state){
 358:Drivers/GD32F30x_standard_peripheral/Source/gd32f30x_fmc.c ****             /* set the PG bit to start program */
 359:Drivers/GD32F30x_standard_peripheral/Source/gd32f30x_fmc.c ****             FMC_CTL0 |= FMC_CTL0_PG;
 360:Drivers/GD32F30x_standard_peripheral/Source/gd32f30x_fmc.c ****             REG32(address) = data;
 361:Drivers/GD32F30x_standard_peripheral/Source/gd32f30x_fmc.c ****             /* wait for the FMC ready */
 362:Drivers/GD32F30x_standard_peripheral/Source/gd32f30x_fmc.c ****             fmc_state = fmc_bank0_ready_wait(FMC_TIMEOUT_COUNT);
 363:Drivers/GD32F30x_standard_peripheral/Source/gd32f30x_fmc.c ****             /* reset the PG bit */
 364:Drivers/GD32F30x_standard_peripheral/Source/gd32f30x_fmc.c ****             FMC_CTL0 &= ~FMC_CTL0_PG;
 365:Drivers/GD32F30x_standard_peripheral/Source/gd32f30x_fmc.c ****         } 
 366:Drivers/GD32F30x_standard_peripheral/Source/gd32f30x_fmc.c ****     }
 367:Drivers/GD32F30x_standard_peripheral/Source/gd32f30x_fmc.c ****     /* return the FMC state */
 368:Drivers/GD32F30x_standard_peripheral/Source/gd32f30x_fmc.c ****     return fmc_state;
 369:Drivers/GD32F30x_standard_peripheral/Source/gd32f30x_fmc.c **** }
 370:Drivers/GD32F30x_standard_peripheral/Source/gd32f30x_fmc.c **** 
 371:Drivers/GD32F30x_standard_peripheral/Source/gd32f30x_fmc.c **** /*!
 372:Drivers/GD32F30x_standard_peripheral/Source/gd32f30x_fmc.c ****     \brief      program a half word at the corresponding address
 373:Drivers/GD32F30x_standard_peripheral/Source/gd32f30x_fmc.c ****     \param[in]  address: address to program
 374:Drivers/GD32F30x_standard_peripheral/Source/gd32f30x_fmc.c ****     \param[in]  data: halfword to program
 375:Drivers/GD32F30x_standard_peripheral/Source/gd32f30x_fmc.c ****     \param[out] none
ARM GAS  C:\Users\Prog\AppData\Local\Temp\cclIyEjW.s 			page 13


 376:Drivers/GD32F30x_standard_peripheral/Source/gd32f30x_fmc.c ****     \retval     state of FMC, refer to fmc_state_enum
 377:Drivers/GD32F30x_standard_peripheral/Source/gd32f30x_fmc.c **** */
 378:Drivers/GD32F30x_standard_peripheral/Source/gd32f30x_fmc.c **** fmc_state_enum fmc_halfword_program(uint32_t address, uint16_t data)
 379:Drivers/GD32F30x_standard_peripheral/Source/gd32f30x_fmc.c **** {
 380:Drivers/GD32F30x_standard_peripheral/Source/gd32f30x_fmc.c ****     fmc_state_enum fmc_state = FMC_READY;
 381:Drivers/GD32F30x_standard_peripheral/Source/gd32f30x_fmc.c ****     if(FMC_BANK0_SIZE < FMC_SIZE){
 382:Drivers/GD32F30x_standard_peripheral/Source/gd32f30x_fmc.c ****         if(FMC_BANK0_END_ADDRESS > address){
 383:Drivers/GD32F30x_standard_peripheral/Source/gd32f30x_fmc.c ****             fmc_state = fmc_bank0_ready_wait(FMC_TIMEOUT_COUNT); 
 384:Drivers/GD32F30x_standard_peripheral/Source/gd32f30x_fmc.c ****   
 385:Drivers/GD32F30x_standard_peripheral/Source/gd32f30x_fmc.c ****             if(FMC_READY == fmc_state){
 386:Drivers/GD32F30x_standard_peripheral/Source/gd32f30x_fmc.c ****                 /* set the PG bit to start program */
 387:Drivers/GD32F30x_standard_peripheral/Source/gd32f30x_fmc.c ****                 FMC_CTL0 |= FMC_CTL0_PG;
 388:Drivers/GD32F30x_standard_peripheral/Source/gd32f30x_fmc.c ****                 REG16(address) = data;
 389:Drivers/GD32F30x_standard_peripheral/Source/gd32f30x_fmc.c ****                 /* wait for the FMC ready */
 390:Drivers/GD32F30x_standard_peripheral/Source/gd32f30x_fmc.c ****                 fmc_state = fmc_bank0_ready_wait(FMC_TIMEOUT_COUNT);
 391:Drivers/GD32F30x_standard_peripheral/Source/gd32f30x_fmc.c ****                 /* reset the PG bit */
 392:Drivers/GD32F30x_standard_peripheral/Source/gd32f30x_fmc.c ****                 FMC_CTL0 &= ~FMC_CTL0_PG;
 393:Drivers/GD32F30x_standard_peripheral/Source/gd32f30x_fmc.c ****             }
 394:Drivers/GD32F30x_standard_peripheral/Source/gd32f30x_fmc.c ****         }else{
 395:Drivers/GD32F30x_standard_peripheral/Source/gd32f30x_fmc.c ****             fmc_state = fmc_bank1_ready_wait(FMC_TIMEOUT_COUNT); 
 396:Drivers/GD32F30x_standard_peripheral/Source/gd32f30x_fmc.c ****   
 397:Drivers/GD32F30x_standard_peripheral/Source/gd32f30x_fmc.c ****             if(FMC_READY == fmc_state){
 398:Drivers/GD32F30x_standard_peripheral/Source/gd32f30x_fmc.c ****                 /* set the PG bit to start program */
 399:Drivers/GD32F30x_standard_peripheral/Source/gd32f30x_fmc.c ****                 FMC_CTL1 |= FMC_CTL1_PG;
 400:Drivers/GD32F30x_standard_peripheral/Source/gd32f30x_fmc.c ****                 REG16(address) = data;
 401:Drivers/GD32F30x_standard_peripheral/Source/gd32f30x_fmc.c ****                 /* wait for the FMC ready */
 402:Drivers/GD32F30x_standard_peripheral/Source/gd32f30x_fmc.c ****                 fmc_state = fmc_bank1_ready_wait(FMC_TIMEOUT_COUNT);
 403:Drivers/GD32F30x_standard_peripheral/Source/gd32f30x_fmc.c ****                 /* reset the PG bit */
 404:Drivers/GD32F30x_standard_peripheral/Source/gd32f30x_fmc.c ****                 FMC_CTL1 &= ~FMC_CTL1_PG;
 405:Drivers/GD32F30x_standard_peripheral/Source/gd32f30x_fmc.c ****             }
 406:Drivers/GD32F30x_standard_peripheral/Source/gd32f30x_fmc.c ****         }
 407:Drivers/GD32F30x_standard_peripheral/Source/gd32f30x_fmc.c ****     }else{
 408:Drivers/GD32F30x_standard_peripheral/Source/gd32f30x_fmc.c ****         fmc_state = fmc_bank0_ready_wait(FMC_TIMEOUT_COUNT);
 409:Drivers/GD32F30x_standard_peripheral/Source/gd32f30x_fmc.c ****   
 410:Drivers/GD32F30x_standard_peripheral/Source/gd32f30x_fmc.c ****         if(FMC_READY == fmc_state){
 411:Drivers/GD32F30x_standard_peripheral/Source/gd32f30x_fmc.c ****             /* set the PG bit to start program */
 412:Drivers/GD32F30x_standard_peripheral/Source/gd32f30x_fmc.c ****             FMC_CTL0 |= FMC_CTL0_PG;
 413:Drivers/GD32F30x_standard_peripheral/Source/gd32f30x_fmc.c ****             REG16(address) = data;
 414:Drivers/GD32F30x_standard_peripheral/Source/gd32f30x_fmc.c ****             /* wait for the FMC ready */
 415:Drivers/GD32F30x_standard_peripheral/Source/gd32f30x_fmc.c ****             fmc_state = fmc_bank0_ready_wait(FMC_TIMEOUT_COUNT);
 416:Drivers/GD32F30x_standard_peripheral/Source/gd32f30x_fmc.c ****             /* reset the PG bit */
 417:Drivers/GD32F30x_standard_peripheral/Source/gd32f30x_fmc.c ****             FMC_CTL0 &= ~FMC_CTL0_PG;
 418:Drivers/GD32F30x_standard_peripheral/Source/gd32f30x_fmc.c ****         } 
 419:Drivers/GD32F30x_standard_peripheral/Source/gd32f30x_fmc.c ****     }
 420:Drivers/GD32F30x_standard_peripheral/Source/gd32f30x_fmc.c ****     /* return the FMC state */
 421:Drivers/GD32F30x_standard_peripheral/Source/gd32f30x_fmc.c ****     return fmc_state;
 422:Drivers/GD32F30x_standard_peripheral/Source/gd32f30x_fmc.c **** }
 423:Drivers/GD32F30x_standard_peripheral/Source/gd32f30x_fmc.c **** 
 424:Drivers/GD32F30x_standard_peripheral/Source/gd32f30x_fmc.c **** /*!
 425:Drivers/GD32F30x_standard_peripheral/Source/gd32f30x_fmc.c ****     \brief      program a word at the corresponding address without erasing
 426:Drivers/GD32F30x_standard_peripheral/Source/gd32f30x_fmc.c ****     \param[in]  address: address to program
 427:Drivers/GD32F30x_standard_peripheral/Source/gd32f30x_fmc.c ****     \param[in]  data: word to program
 428:Drivers/GD32F30x_standard_peripheral/Source/gd32f30x_fmc.c ****     \param[out] none
 429:Drivers/GD32F30x_standard_peripheral/Source/gd32f30x_fmc.c ****     \retval     fmc_state
 430:Drivers/GD32F30x_standard_peripheral/Source/gd32f30x_fmc.c **** */
 431:Drivers/GD32F30x_standard_peripheral/Source/gd32f30x_fmc.c **** fmc_state_enum fmc_word_reprogram(uint32_t address, uint32_t data)
 432:Drivers/GD32F30x_standard_peripheral/Source/gd32f30x_fmc.c **** {
ARM GAS  C:\Users\Prog\AppData\Local\Temp\cclIyEjW.s 			page 14


 433:Drivers/GD32F30x_standard_peripheral/Source/gd32f30x_fmc.c ****     fmc_state_enum fmc_state = FMC_READY;
 434:Drivers/GD32F30x_standard_peripheral/Source/gd32f30x_fmc.c ****     if(FMC_BANK0_SIZE < FMC_SIZE){
 435:Drivers/GD32F30x_standard_peripheral/Source/gd32f30x_fmc.c ****         if(FMC_BANK0_END_ADDRESS > address){
 436:Drivers/GD32F30x_standard_peripheral/Source/gd32f30x_fmc.c ****             fmc_state = fmc_bank0_ready_wait(FMC_TIMEOUT_COUNT); 
 437:Drivers/GD32F30x_standard_peripheral/Source/gd32f30x_fmc.c ****             FMC_WSEN |= FMC_WSEN_BPEN;
 438:Drivers/GD32F30x_standard_peripheral/Source/gd32f30x_fmc.c ****             if(FMC_READY == fmc_state){
 439:Drivers/GD32F30x_standard_peripheral/Source/gd32f30x_fmc.c ****                 /* set the PG bit to start program */
 440:Drivers/GD32F30x_standard_peripheral/Source/gd32f30x_fmc.c ****                 FMC_CTL0 |= FMC_CTL0_PG;
 441:Drivers/GD32F30x_standard_peripheral/Source/gd32f30x_fmc.c ****                 REG32(address) = data;
 442:Drivers/GD32F30x_standard_peripheral/Source/gd32f30x_fmc.c ****                 /* wait for the FMC ready */
 443:Drivers/GD32F30x_standard_peripheral/Source/gd32f30x_fmc.c ****                 fmc_state = fmc_bank0_ready_wait(FMC_TIMEOUT_COUNT);
 444:Drivers/GD32F30x_standard_peripheral/Source/gd32f30x_fmc.c ****                 /* reset the PG bit */
 445:Drivers/GD32F30x_standard_peripheral/Source/gd32f30x_fmc.c ****                 FMC_CTL0 &= ~FMC_CTL0_PG;
 446:Drivers/GD32F30x_standard_peripheral/Source/gd32f30x_fmc.c ****             }
 447:Drivers/GD32F30x_standard_peripheral/Source/gd32f30x_fmc.c ****         }else{
 448:Drivers/GD32F30x_standard_peripheral/Source/gd32f30x_fmc.c ****             fmc_state = fmc_bank1_ready_wait(FMC_TIMEOUT_COUNT); 
 449:Drivers/GD32F30x_standard_peripheral/Source/gd32f30x_fmc.c ****             FMC_WSEN |= FMC_WSEN_BPEN;
 450:Drivers/GD32F30x_standard_peripheral/Source/gd32f30x_fmc.c ****             if(FMC_READY == fmc_state){
 451:Drivers/GD32F30x_standard_peripheral/Source/gd32f30x_fmc.c ****                 /* set the PG bit to start program */
 452:Drivers/GD32F30x_standard_peripheral/Source/gd32f30x_fmc.c ****                 FMC_CTL1 |= FMC_CTL1_PG;
 453:Drivers/GD32F30x_standard_peripheral/Source/gd32f30x_fmc.c ****                 REG32(address) = data;
 454:Drivers/GD32F30x_standard_peripheral/Source/gd32f30x_fmc.c ****                 /* wait for the FMC ready */
 455:Drivers/GD32F30x_standard_peripheral/Source/gd32f30x_fmc.c ****                 fmc_state = fmc_bank1_ready_wait(FMC_TIMEOUT_COUNT);
 456:Drivers/GD32F30x_standard_peripheral/Source/gd32f30x_fmc.c ****                 /* reset the PG bit */
 457:Drivers/GD32F30x_standard_peripheral/Source/gd32f30x_fmc.c ****                 FMC_CTL1 &= ~FMC_CTL1_PG;
 458:Drivers/GD32F30x_standard_peripheral/Source/gd32f30x_fmc.c ****             }
 459:Drivers/GD32F30x_standard_peripheral/Source/gd32f30x_fmc.c ****         }
 460:Drivers/GD32F30x_standard_peripheral/Source/gd32f30x_fmc.c ****     }else{
 461:Drivers/GD32F30x_standard_peripheral/Source/gd32f30x_fmc.c ****         fmc_state = fmc_bank0_ready_wait(FMC_TIMEOUT_COUNT);
 462:Drivers/GD32F30x_standard_peripheral/Source/gd32f30x_fmc.c ****         FMC_WSEN |= FMC_WSEN_BPEN;
 463:Drivers/GD32F30x_standard_peripheral/Source/gd32f30x_fmc.c ****         if(FMC_READY == fmc_state){
 464:Drivers/GD32F30x_standard_peripheral/Source/gd32f30x_fmc.c ****             /* set the PG bit to start program */
 465:Drivers/GD32F30x_standard_peripheral/Source/gd32f30x_fmc.c ****             FMC_CTL0 |= FMC_CTL0_PG;
 466:Drivers/GD32F30x_standard_peripheral/Source/gd32f30x_fmc.c ****             REG32(address) = data;
 467:Drivers/GD32F30x_standard_peripheral/Source/gd32f30x_fmc.c ****             /* wait for the FMC ready */
 468:Drivers/GD32F30x_standard_peripheral/Source/gd32f30x_fmc.c ****             fmc_state = fmc_bank0_ready_wait(FMC_TIMEOUT_COUNT);
 469:Drivers/GD32F30x_standard_peripheral/Source/gd32f30x_fmc.c ****             /* reset the PG bit */
 470:Drivers/GD32F30x_standard_peripheral/Source/gd32f30x_fmc.c ****             FMC_CTL0 &= ~FMC_CTL0_PG;
 471:Drivers/GD32F30x_standard_peripheral/Source/gd32f30x_fmc.c ****         } 
 472:Drivers/GD32F30x_standard_peripheral/Source/gd32f30x_fmc.c ****     }
 473:Drivers/GD32F30x_standard_peripheral/Source/gd32f30x_fmc.c ****     /* return the FMC state */
 474:Drivers/GD32F30x_standard_peripheral/Source/gd32f30x_fmc.c ****     return fmc_state;
 475:Drivers/GD32F30x_standard_peripheral/Source/gd32f30x_fmc.c **** }
 476:Drivers/GD32F30x_standard_peripheral/Source/gd32f30x_fmc.c **** 
 477:Drivers/GD32F30x_standard_peripheral/Source/gd32f30x_fmc.c **** /*!
 478:Drivers/GD32F30x_standard_peripheral/Source/gd32f30x_fmc.c ****     \brief      unlock the option byte operation
 479:Drivers/GD32F30x_standard_peripheral/Source/gd32f30x_fmc.c ****     \param[in]  none
 480:Drivers/GD32F30x_standard_peripheral/Source/gd32f30x_fmc.c ****     \param[out] none
 481:Drivers/GD32F30x_standard_peripheral/Source/gd32f30x_fmc.c ****     \retval     none
 482:Drivers/GD32F30x_standard_peripheral/Source/gd32f30x_fmc.c **** */
 483:Drivers/GD32F30x_standard_peripheral/Source/gd32f30x_fmc.c **** void ob_unlock(void)
 484:Drivers/GD32F30x_standard_peripheral/Source/gd32f30x_fmc.c **** {
 325              		.loc 1 484 1 is_stmt 1 view -0
 326              		.cfi_startproc
 327              		@ args = 0, pretend = 0, frame = 0
 328              		@ frame_needed = 0, uses_anonymous_args = 0
 329              		@ link register save eliminated.
ARM GAS  C:\Users\Prog\AppData\Local\Temp\cclIyEjW.s 			page 15


 485:Drivers/GD32F30x_standard_peripheral/Source/gd32f30x_fmc.c ****     if(RESET == (FMC_CTL0 & FMC_CTL0_OBWEN)){
 330              		.loc 1 485 5 view .LVU65
 331              		.loc 1 485 18 is_stmt 0 view .LVU66
 332 0000 054B     		ldr	r3, .L29
 333 0002 1B69     		ldr	r3, [r3, #16]
 334              		.loc 1 485 7 view .LVU67
 335 0004 13F4007F 		tst	r3, #512
 336 0008 05D1     		bne	.L27
 486:Drivers/GD32F30x_standard_peripheral/Source/gd32f30x_fmc.c ****         /* write the FMC key */
 487:Drivers/GD32F30x_standard_peripheral/Source/gd32f30x_fmc.c ****         FMC_OBKEY = UNLOCK_KEY0;
 337              		.loc 1 487 9 is_stmt 1 view .LVU68
 338              		.loc 1 487 19 is_stmt 0 view .LVU69
 339 000a 034B     		ldr	r3, .L29
 340 000c 034A     		ldr	r2, .L29+4
 341 000e 9A60     		str	r2, [r3, #8]
 488:Drivers/GD32F30x_standard_peripheral/Source/gd32f30x_fmc.c ****         FMC_OBKEY = UNLOCK_KEY1;
 342              		.loc 1 488 9 is_stmt 1 view .LVU70
 343              		.loc 1 488 19 is_stmt 0 view .LVU71
 344 0010 02F18832 		add	r2, r2, #-2004318072
 345 0014 9A60     		str	r2, [r3, #8]
 346              	.L27:
 489:Drivers/GD32F30x_standard_peripheral/Source/gd32f30x_fmc.c ****     }
 490:Drivers/GD32F30x_standard_peripheral/Source/gd32f30x_fmc.c **** }
 347              		.loc 1 490 1 view .LVU72
 348 0016 7047     		bx	lr
 349              	.L30:
 350              		.align	2
 351              	.L29:
 352 0018 00200240 		.word	1073881088
 353 001c 23016745 		.word	1164378403
 354              		.cfi_endproc
 355              	.LFE130:
 357              		.section	.text.ob_lock,"ax",%progbits
 358              		.align	1
 359              		.global	ob_lock
 360              		.syntax unified
 361              		.thumb
 362              		.thumb_func
 363              		.fpu fpv4-sp-d16
 365              	ob_lock:
 366              	.LFB131:
 491:Drivers/GD32F30x_standard_peripheral/Source/gd32f30x_fmc.c **** 
 492:Drivers/GD32F30x_standard_peripheral/Source/gd32f30x_fmc.c **** /*!
 493:Drivers/GD32F30x_standard_peripheral/Source/gd32f30x_fmc.c ****     \brief      lock the option byte operation
 494:Drivers/GD32F30x_standard_peripheral/Source/gd32f30x_fmc.c ****     \param[in]  none
 495:Drivers/GD32F30x_standard_peripheral/Source/gd32f30x_fmc.c ****     \param[out] none
 496:Drivers/GD32F30x_standard_peripheral/Source/gd32f30x_fmc.c ****     \retval     none
 497:Drivers/GD32F30x_standard_peripheral/Source/gd32f30x_fmc.c **** */
 498:Drivers/GD32F30x_standard_peripheral/Source/gd32f30x_fmc.c **** void ob_lock(void)
 499:Drivers/GD32F30x_standard_peripheral/Source/gd32f30x_fmc.c **** {
 367              		.loc 1 499 1 is_stmt 1 view -0
 368              		.cfi_startproc
 369              		@ args = 0, pretend = 0, frame = 0
 370              		@ frame_needed = 0, uses_anonymous_args = 0
 371              		@ link register save eliminated.
 500:Drivers/GD32F30x_standard_peripheral/Source/gd32f30x_fmc.c ****     /* reset the OBWEN bit */
 501:Drivers/GD32F30x_standard_peripheral/Source/gd32f30x_fmc.c ****     FMC_CTL0 &= ~FMC_CTL0_OBWEN;
ARM GAS  C:\Users\Prog\AppData\Local\Temp\cclIyEjW.s 			page 16


 372              		.loc 1 501 5 view .LVU74
 373              		.loc 1 501 14 is_stmt 0 view .LVU75
 374 0000 024A     		ldr	r2, .L32
 375 0002 1369     		ldr	r3, [r2, #16]
 376 0004 23F40073 		bic	r3, r3, #512
 377 0008 1361     		str	r3, [r2, #16]
 502:Drivers/GD32F30x_standard_peripheral/Source/gd32f30x_fmc.c **** }
 378              		.loc 1 502 1 view .LVU76
 379 000a 7047     		bx	lr
 380              	.L33:
 381              		.align	2
 382              	.L32:
 383 000c 00200240 		.word	1073881088
 384              		.cfi_endproc
 385              	.LFE131:
 387              		.section	.text.ob_user_get,"ax",%progbits
 388              		.align	1
 389              		.global	ob_user_get
 390              		.syntax unified
 391              		.thumb
 392              		.thumb_func
 393              		.fpu fpv4-sp-d16
 395              	ob_user_get:
 396              	.LFB137:
 503:Drivers/GD32F30x_standard_peripheral/Source/gd32f30x_fmc.c **** 
 504:Drivers/GD32F30x_standard_peripheral/Source/gd32f30x_fmc.c **** /*!
 505:Drivers/GD32F30x_standard_peripheral/Source/gd32f30x_fmc.c ****     \brief      erase the FMC option byte
 506:Drivers/GD32F30x_standard_peripheral/Source/gd32f30x_fmc.c ****                 unlock the FMC_CTL0 and option byte before calling this function
 507:Drivers/GD32F30x_standard_peripheral/Source/gd32f30x_fmc.c ****     \param[in]  none
 508:Drivers/GD32F30x_standard_peripheral/Source/gd32f30x_fmc.c ****     \param[out] none
 509:Drivers/GD32F30x_standard_peripheral/Source/gd32f30x_fmc.c ****     \retval     state of FMC, refer to fmc_state_enum
 510:Drivers/GD32F30x_standard_peripheral/Source/gd32f30x_fmc.c **** */
 511:Drivers/GD32F30x_standard_peripheral/Source/gd32f30x_fmc.c **** fmc_state_enum ob_erase(void)
 512:Drivers/GD32F30x_standard_peripheral/Source/gd32f30x_fmc.c **** {
 513:Drivers/GD32F30x_standard_peripheral/Source/gd32f30x_fmc.c ****     uint16_t temp_spc = FMC_NSPC;
 514:Drivers/GD32F30x_standard_peripheral/Source/gd32f30x_fmc.c **** 
 515:Drivers/GD32F30x_standard_peripheral/Source/gd32f30x_fmc.c ****     fmc_state_enum fmc_state = fmc_bank0_ready_wait(FMC_TIMEOUT_COUNT);
 516:Drivers/GD32F30x_standard_peripheral/Source/gd32f30x_fmc.c **** 
 517:Drivers/GD32F30x_standard_peripheral/Source/gd32f30x_fmc.c ****     /* check the option byte security protection value */
 518:Drivers/GD32F30x_standard_peripheral/Source/gd32f30x_fmc.c ****     if(RESET != ob_spc_get()){
 519:Drivers/GD32F30x_standard_peripheral/Source/gd32f30x_fmc.c ****         temp_spc = FMC_USPC;  
 520:Drivers/GD32F30x_standard_peripheral/Source/gd32f30x_fmc.c ****     }
 521:Drivers/GD32F30x_standard_peripheral/Source/gd32f30x_fmc.c **** 
 522:Drivers/GD32F30x_standard_peripheral/Source/gd32f30x_fmc.c ****     if(FMC_READY == fmc_state){
 523:Drivers/GD32F30x_standard_peripheral/Source/gd32f30x_fmc.c **** 
 524:Drivers/GD32F30x_standard_peripheral/Source/gd32f30x_fmc.c ****         /* start erase the option byte */
 525:Drivers/GD32F30x_standard_peripheral/Source/gd32f30x_fmc.c ****         FMC_CTL0 |= FMC_CTL0_OBER;
 526:Drivers/GD32F30x_standard_peripheral/Source/gd32f30x_fmc.c ****         FMC_CTL0 |= FMC_CTL0_START;
 527:Drivers/GD32F30x_standard_peripheral/Source/gd32f30x_fmc.c **** 
 528:Drivers/GD32F30x_standard_peripheral/Source/gd32f30x_fmc.c ****         /* wait for the FMC ready */
 529:Drivers/GD32F30x_standard_peripheral/Source/gd32f30x_fmc.c ****         fmc_state = fmc_bank0_ready_wait(FMC_TIMEOUT_COUNT);
 530:Drivers/GD32F30x_standard_peripheral/Source/gd32f30x_fmc.c ****     
 531:Drivers/GD32F30x_standard_peripheral/Source/gd32f30x_fmc.c ****         if(FMC_READY == fmc_state){
 532:Drivers/GD32F30x_standard_peripheral/Source/gd32f30x_fmc.c ****             /* reset the OBER bit */
 533:Drivers/GD32F30x_standard_peripheral/Source/gd32f30x_fmc.c ****             FMC_CTL0 &= ~FMC_CTL0_OBER;
 534:Drivers/GD32F30x_standard_peripheral/Source/gd32f30x_fmc.c ****             /* set the OBPG bit */
 535:Drivers/GD32F30x_standard_peripheral/Source/gd32f30x_fmc.c ****             FMC_CTL0 |= FMC_CTL0_OBPG;
ARM GAS  C:\Users\Prog\AppData\Local\Temp\cclIyEjW.s 			page 17


 536:Drivers/GD32F30x_standard_peripheral/Source/gd32f30x_fmc.c ****             /* no security protection */
 537:Drivers/GD32F30x_standard_peripheral/Source/gd32f30x_fmc.c ****             OB_SPC = (uint16_t)temp_spc; 
 538:Drivers/GD32F30x_standard_peripheral/Source/gd32f30x_fmc.c ****             /* wait for the FMC ready */
 539:Drivers/GD32F30x_standard_peripheral/Source/gd32f30x_fmc.c ****             fmc_state = fmc_bank0_ready_wait(FMC_TIMEOUT_COUNT); 
 540:Drivers/GD32F30x_standard_peripheral/Source/gd32f30x_fmc.c ****             if(FMC_TOERR != fmc_state){
 541:Drivers/GD32F30x_standard_peripheral/Source/gd32f30x_fmc.c ****                 /* reset the OBPG bit */
 542:Drivers/GD32F30x_standard_peripheral/Source/gd32f30x_fmc.c ****                 FMC_CTL0 &= ~FMC_CTL0_OBPG;
 543:Drivers/GD32F30x_standard_peripheral/Source/gd32f30x_fmc.c ****             }
 544:Drivers/GD32F30x_standard_peripheral/Source/gd32f30x_fmc.c ****         }else{
 545:Drivers/GD32F30x_standard_peripheral/Source/gd32f30x_fmc.c ****             if(FMC_TOERR != fmc_state){
 546:Drivers/GD32F30x_standard_peripheral/Source/gd32f30x_fmc.c ****                 /* reset the OBPG bit */
 547:Drivers/GD32F30x_standard_peripheral/Source/gd32f30x_fmc.c ****                 FMC_CTL0 &= ~FMC_CTL0_OBPG;
 548:Drivers/GD32F30x_standard_peripheral/Source/gd32f30x_fmc.c ****             }
 549:Drivers/GD32F30x_standard_peripheral/Source/gd32f30x_fmc.c ****         }
 550:Drivers/GD32F30x_standard_peripheral/Source/gd32f30x_fmc.c ****     }
 551:Drivers/GD32F30x_standard_peripheral/Source/gd32f30x_fmc.c ****     /* return the FMC state */
 552:Drivers/GD32F30x_standard_peripheral/Source/gd32f30x_fmc.c ****     return fmc_state;
 553:Drivers/GD32F30x_standard_peripheral/Source/gd32f30x_fmc.c **** }
 554:Drivers/GD32F30x_standard_peripheral/Source/gd32f30x_fmc.c **** 
 555:Drivers/GD32F30x_standard_peripheral/Source/gd32f30x_fmc.c **** /*!
 556:Drivers/GD32F30x_standard_peripheral/Source/gd32f30x_fmc.c ****     \brief      enable write protection
 557:Drivers/GD32F30x_standard_peripheral/Source/gd32f30x_fmc.c ****     \param[in]  ob_wp: specify sector to be write protected
 558:Drivers/GD32F30x_standard_peripheral/Source/gd32f30x_fmc.c ****       \arg        OB_WPx(x=0..31): write protect specify sector
 559:Drivers/GD32F30x_standard_peripheral/Source/gd32f30x_fmc.c ****       \arg        OB_WP_ALL: write protect all sector
 560:Drivers/GD32F30x_standard_peripheral/Source/gd32f30x_fmc.c ****     \param[out] none
 561:Drivers/GD32F30x_standard_peripheral/Source/gd32f30x_fmc.c ****     \retval     state of FMC, refer to fmc_state_enum
 562:Drivers/GD32F30x_standard_peripheral/Source/gd32f30x_fmc.c **** */
 563:Drivers/GD32F30x_standard_peripheral/Source/gd32f30x_fmc.c **** fmc_state_enum ob_write_protection_enable(uint32_t ob_wp)
 564:Drivers/GD32F30x_standard_peripheral/Source/gd32f30x_fmc.c **** {
 565:Drivers/GD32F30x_standard_peripheral/Source/gd32f30x_fmc.c ****     uint16_t temp_wp0, temp_wp1, temp_wp2, temp_wp3;
 566:Drivers/GD32F30x_standard_peripheral/Source/gd32f30x_fmc.c **** 
 567:Drivers/GD32F30x_standard_peripheral/Source/gd32f30x_fmc.c ****     fmc_state_enum fmc_state = fmc_bank0_ready_wait(FMC_TIMEOUT_COUNT);
 568:Drivers/GD32F30x_standard_peripheral/Source/gd32f30x_fmc.c **** 
 569:Drivers/GD32F30x_standard_peripheral/Source/gd32f30x_fmc.c ****     ob_wp = (uint32_t)(~ob_wp);
 570:Drivers/GD32F30x_standard_peripheral/Source/gd32f30x_fmc.c ****     temp_wp0 = (uint16_t)(ob_wp & OB_WP0_WP0);
 571:Drivers/GD32F30x_standard_peripheral/Source/gd32f30x_fmc.c ****     temp_wp1 = (uint16_t)((ob_wp & OB_WP1_WP1) >> 8U);
 572:Drivers/GD32F30x_standard_peripheral/Source/gd32f30x_fmc.c ****     temp_wp2 = (uint16_t)((ob_wp & OB_WP2_WP2) >> 16U);
 573:Drivers/GD32F30x_standard_peripheral/Source/gd32f30x_fmc.c ****     temp_wp3 = (uint16_t)((ob_wp & OB_WP3_WP3) >> 24U);
 574:Drivers/GD32F30x_standard_peripheral/Source/gd32f30x_fmc.c **** 
 575:Drivers/GD32F30x_standard_peripheral/Source/gd32f30x_fmc.c ****     if(FMC_READY == fmc_state){
 576:Drivers/GD32F30x_standard_peripheral/Source/gd32f30x_fmc.c ****     
 577:Drivers/GD32F30x_standard_peripheral/Source/gd32f30x_fmc.c ****         /* set the OBPG bit*/
 578:Drivers/GD32F30x_standard_peripheral/Source/gd32f30x_fmc.c ****         FMC_CTL0 |= FMC_CTL0_OBPG;
 579:Drivers/GD32F30x_standard_peripheral/Source/gd32f30x_fmc.c **** 
 580:Drivers/GD32F30x_standard_peripheral/Source/gd32f30x_fmc.c ****         if(0xFFU != temp_wp0){
 581:Drivers/GD32F30x_standard_peripheral/Source/gd32f30x_fmc.c ****             OB_WP0 = temp_wp0;
 582:Drivers/GD32F30x_standard_peripheral/Source/gd32f30x_fmc.c ****       
 583:Drivers/GD32F30x_standard_peripheral/Source/gd32f30x_fmc.c ****             /* wait for the FMC ready */
 584:Drivers/GD32F30x_standard_peripheral/Source/gd32f30x_fmc.c ****             fmc_state = fmc_bank0_ready_wait(FMC_TIMEOUT_COUNT);
 585:Drivers/GD32F30x_standard_peripheral/Source/gd32f30x_fmc.c ****         }
 586:Drivers/GD32F30x_standard_peripheral/Source/gd32f30x_fmc.c ****         if((FMC_READY == fmc_state) && (0xFFU != temp_wp1)){
 587:Drivers/GD32F30x_standard_peripheral/Source/gd32f30x_fmc.c ****             OB_WP1 = temp_wp1;
 588:Drivers/GD32F30x_standard_peripheral/Source/gd32f30x_fmc.c ****       
 589:Drivers/GD32F30x_standard_peripheral/Source/gd32f30x_fmc.c ****             /* wait for the FMC ready */
 590:Drivers/GD32F30x_standard_peripheral/Source/gd32f30x_fmc.c ****             fmc_state = fmc_bank0_ready_wait(FMC_TIMEOUT_COUNT);
 591:Drivers/GD32F30x_standard_peripheral/Source/gd32f30x_fmc.c ****         }
 592:Drivers/GD32F30x_standard_peripheral/Source/gd32f30x_fmc.c ****         if((FMC_READY == fmc_state) && (0xFFU != temp_wp2)){
ARM GAS  C:\Users\Prog\AppData\Local\Temp\cclIyEjW.s 			page 18


 593:Drivers/GD32F30x_standard_peripheral/Source/gd32f30x_fmc.c ****             OB_WP2 = temp_wp2;
 594:Drivers/GD32F30x_standard_peripheral/Source/gd32f30x_fmc.c ****       
 595:Drivers/GD32F30x_standard_peripheral/Source/gd32f30x_fmc.c ****             /* wait for the FMC ready */
 596:Drivers/GD32F30x_standard_peripheral/Source/gd32f30x_fmc.c ****             fmc_state = fmc_bank0_ready_wait(FMC_TIMEOUT_COUNT);
 597:Drivers/GD32F30x_standard_peripheral/Source/gd32f30x_fmc.c ****         }
 598:Drivers/GD32F30x_standard_peripheral/Source/gd32f30x_fmc.c ****         if((FMC_READY == fmc_state) && (0xFFU != temp_wp3)){
 599:Drivers/GD32F30x_standard_peripheral/Source/gd32f30x_fmc.c ****             OB_WP3 = temp_wp3;
 600:Drivers/GD32F30x_standard_peripheral/Source/gd32f30x_fmc.c ****       
 601:Drivers/GD32F30x_standard_peripheral/Source/gd32f30x_fmc.c ****             /* wait for the FMC ready */
 602:Drivers/GD32F30x_standard_peripheral/Source/gd32f30x_fmc.c ****             fmc_state = fmc_bank0_ready_wait(FMC_TIMEOUT_COUNT);
 603:Drivers/GD32F30x_standard_peripheral/Source/gd32f30x_fmc.c ****         }
 604:Drivers/GD32F30x_standard_peripheral/Source/gd32f30x_fmc.c ****         if(FMC_TOERR != fmc_state){
 605:Drivers/GD32F30x_standard_peripheral/Source/gd32f30x_fmc.c ****             /* reset the OBPG bit */
 606:Drivers/GD32F30x_standard_peripheral/Source/gd32f30x_fmc.c ****             FMC_CTL0 &= ~FMC_CTL0_OBPG;
 607:Drivers/GD32F30x_standard_peripheral/Source/gd32f30x_fmc.c ****         }
 608:Drivers/GD32F30x_standard_peripheral/Source/gd32f30x_fmc.c ****     } 
 609:Drivers/GD32F30x_standard_peripheral/Source/gd32f30x_fmc.c ****     /* return the FMC state */
 610:Drivers/GD32F30x_standard_peripheral/Source/gd32f30x_fmc.c ****     return fmc_state;
 611:Drivers/GD32F30x_standard_peripheral/Source/gd32f30x_fmc.c **** }
 612:Drivers/GD32F30x_standard_peripheral/Source/gd32f30x_fmc.c **** 
 613:Drivers/GD32F30x_standard_peripheral/Source/gd32f30x_fmc.c **** /*!
 614:Drivers/GD32F30x_standard_peripheral/Source/gd32f30x_fmc.c ****     \brief      configure security protection
 615:Drivers/GD32F30x_standard_peripheral/Source/gd32f30x_fmc.c ****     \param[in]  ob_spc: specify security protection
 616:Drivers/GD32F30x_standard_peripheral/Source/gd32f30x_fmc.c ****       \arg        FMC_NSPC: no security protection
 617:Drivers/GD32F30x_standard_peripheral/Source/gd32f30x_fmc.c ****       \arg        FMC_USPC: under security protection
 618:Drivers/GD32F30x_standard_peripheral/Source/gd32f30x_fmc.c ****     \param[out] none
 619:Drivers/GD32F30x_standard_peripheral/Source/gd32f30x_fmc.c ****     \retval     state of FMC, refer to fmc_state_enum
 620:Drivers/GD32F30x_standard_peripheral/Source/gd32f30x_fmc.c **** */
 621:Drivers/GD32F30x_standard_peripheral/Source/gd32f30x_fmc.c **** fmc_state_enum ob_security_protection_config(uint8_t ob_spc)
 622:Drivers/GD32F30x_standard_peripheral/Source/gd32f30x_fmc.c **** {
 623:Drivers/GD32F30x_standard_peripheral/Source/gd32f30x_fmc.c ****     fmc_state_enum fmc_state = fmc_bank0_ready_wait(FMC_TIMEOUT_COUNT);
 624:Drivers/GD32F30x_standard_peripheral/Source/gd32f30x_fmc.c **** 
 625:Drivers/GD32F30x_standard_peripheral/Source/gd32f30x_fmc.c ****     if(FMC_READY == fmc_state){
 626:Drivers/GD32F30x_standard_peripheral/Source/gd32f30x_fmc.c ****         FMC_CTL0 |= FMC_CTL0_OBER;
 627:Drivers/GD32F30x_standard_peripheral/Source/gd32f30x_fmc.c ****         FMC_CTL0 |= FMC_CTL0_START;
 628:Drivers/GD32F30x_standard_peripheral/Source/gd32f30x_fmc.c ****     
 629:Drivers/GD32F30x_standard_peripheral/Source/gd32f30x_fmc.c ****         /* wait for the FMC ready */
 630:Drivers/GD32F30x_standard_peripheral/Source/gd32f30x_fmc.c ****         fmc_state = fmc_bank0_ready_wait(FMC_TIMEOUT_COUNT);
 631:Drivers/GD32F30x_standard_peripheral/Source/gd32f30x_fmc.c ****     
 632:Drivers/GD32F30x_standard_peripheral/Source/gd32f30x_fmc.c ****         if(FMC_READY == fmc_state){
 633:Drivers/GD32F30x_standard_peripheral/Source/gd32f30x_fmc.c ****             /* reset the OBER bit */
 634:Drivers/GD32F30x_standard_peripheral/Source/gd32f30x_fmc.c ****             FMC_CTL0 &= ~FMC_CTL0_OBER;
 635:Drivers/GD32F30x_standard_peripheral/Source/gd32f30x_fmc.c ****       
 636:Drivers/GD32F30x_standard_peripheral/Source/gd32f30x_fmc.c ****             /* start the option byte program */
 637:Drivers/GD32F30x_standard_peripheral/Source/gd32f30x_fmc.c ****             FMC_CTL0 |= FMC_CTL0_OBPG;
 638:Drivers/GD32F30x_standard_peripheral/Source/gd32f30x_fmc.c ****        
 639:Drivers/GD32F30x_standard_peripheral/Source/gd32f30x_fmc.c ****             OB_SPC = (uint16_t)ob_spc;
 640:Drivers/GD32F30x_standard_peripheral/Source/gd32f30x_fmc.c **** 
 641:Drivers/GD32F30x_standard_peripheral/Source/gd32f30x_fmc.c ****             /* wait for the FMC ready */
 642:Drivers/GD32F30x_standard_peripheral/Source/gd32f30x_fmc.c ****             fmc_state = fmc_bank0_ready_wait(FMC_TIMEOUT_COUNT); 
 643:Drivers/GD32F30x_standard_peripheral/Source/gd32f30x_fmc.c ****     
 644:Drivers/GD32F30x_standard_peripheral/Source/gd32f30x_fmc.c ****             if(FMC_TOERR != fmc_state){
 645:Drivers/GD32F30x_standard_peripheral/Source/gd32f30x_fmc.c ****                 /* reset the OBPG bit */
 646:Drivers/GD32F30x_standard_peripheral/Source/gd32f30x_fmc.c ****                 FMC_CTL0 &= ~FMC_CTL0_OBPG;
 647:Drivers/GD32F30x_standard_peripheral/Source/gd32f30x_fmc.c ****             }
 648:Drivers/GD32F30x_standard_peripheral/Source/gd32f30x_fmc.c ****         }else{
 649:Drivers/GD32F30x_standard_peripheral/Source/gd32f30x_fmc.c ****             if(FMC_TOERR != fmc_state){
ARM GAS  C:\Users\Prog\AppData\Local\Temp\cclIyEjW.s 			page 19


 650:Drivers/GD32F30x_standard_peripheral/Source/gd32f30x_fmc.c ****                 /* reset the OBER bit */
 651:Drivers/GD32F30x_standard_peripheral/Source/gd32f30x_fmc.c ****                 FMC_CTL0 &= ~FMC_CTL0_OBER;
 652:Drivers/GD32F30x_standard_peripheral/Source/gd32f30x_fmc.c ****             }
 653:Drivers/GD32F30x_standard_peripheral/Source/gd32f30x_fmc.c ****         }
 654:Drivers/GD32F30x_standard_peripheral/Source/gd32f30x_fmc.c ****     }
 655:Drivers/GD32F30x_standard_peripheral/Source/gd32f30x_fmc.c ****     /* return the FMC state */
 656:Drivers/GD32F30x_standard_peripheral/Source/gd32f30x_fmc.c ****     return fmc_state;
 657:Drivers/GD32F30x_standard_peripheral/Source/gd32f30x_fmc.c **** }
 658:Drivers/GD32F30x_standard_peripheral/Source/gd32f30x_fmc.c **** 
 659:Drivers/GD32F30x_standard_peripheral/Source/gd32f30x_fmc.c **** /*!
 660:Drivers/GD32F30x_standard_peripheral/Source/gd32f30x_fmc.c ****     \brief      program the FMC user option byte 
 661:Drivers/GD32F30x_standard_peripheral/Source/gd32f30x_fmc.c ****     \param[in]  ob_fwdgt: option byte watchdog value
 662:Drivers/GD32F30x_standard_peripheral/Source/gd32f30x_fmc.c ****       \arg        OB_FWDGT_SW: software free watchdog
 663:Drivers/GD32F30x_standard_peripheral/Source/gd32f30x_fmc.c ****       \arg        OB_FWDGT_HW: hardware free watchdog
 664:Drivers/GD32F30x_standard_peripheral/Source/gd32f30x_fmc.c ****     \param[in]  ob_deepsleep: option byte deepsleep reset value
 665:Drivers/GD32F30x_standard_peripheral/Source/gd32f30x_fmc.c ****       \arg        OB_DEEPSLEEP_NRST: no reset when entering deepsleep mode
 666:Drivers/GD32F30x_standard_peripheral/Source/gd32f30x_fmc.c ****       \arg        OB_DEEPSLEEP_RST: generate a reset instead of entering deepsleep mode 
 667:Drivers/GD32F30x_standard_peripheral/Source/gd32f30x_fmc.c ****     \param[in]  ob_stdby:option byte standby reset value
 668:Drivers/GD32F30x_standard_peripheral/Source/gd32f30x_fmc.c ****       \arg        OB_STDBY_NRST: no reset when entering standby mode
 669:Drivers/GD32F30x_standard_peripheral/Source/gd32f30x_fmc.c ****       \arg        OB_STDBY_RST: generate a reset instead of entering standby mode
 670:Drivers/GD32F30x_standard_peripheral/Source/gd32f30x_fmc.c ****     \param[in]  ob_boot: specifies the option byte boot bank value
 671:Drivers/GD32F30x_standard_peripheral/Source/gd32f30x_fmc.c ****       \arg        OB_BOOT_B0: boot from bank0
 672:Drivers/GD32F30x_standard_peripheral/Source/gd32f30x_fmc.c ****       \arg        OB_BOOT_B1: boot from bank1 or bank0 if bank1 is void
 673:Drivers/GD32F30x_standard_peripheral/Source/gd32f30x_fmc.c ****     \param[out] none
 674:Drivers/GD32F30x_standard_peripheral/Source/gd32f30x_fmc.c ****     \retval     state of FMC, refer to fmc_state_enum
 675:Drivers/GD32F30x_standard_peripheral/Source/gd32f30x_fmc.c **** */
 676:Drivers/GD32F30x_standard_peripheral/Source/gd32f30x_fmc.c **** fmc_state_enum ob_user_write(uint8_t ob_fwdgt, uint8_t ob_deepsleep, uint8_t ob_stdby, uint8_t ob_b
 677:Drivers/GD32F30x_standard_peripheral/Source/gd32f30x_fmc.c **** {
 678:Drivers/GD32F30x_standard_peripheral/Source/gd32f30x_fmc.c ****     fmc_state_enum fmc_state = FMC_READY;
 679:Drivers/GD32F30x_standard_peripheral/Source/gd32f30x_fmc.c ****     uint8_t temp;
 680:Drivers/GD32F30x_standard_peripheral/Source/gd32f30x_fmc.c **** 
 681:Drivers/GD32F30x_standard_peripheral/Source/gd32f30x_fmc.c ****     /* wait for the FMC ready */
 682:Drivers/GD32F30x_standard_peripheral/Source/gd32f30x_fmc.c ****     fmc_state = fmc_bank0_ready_wait(FMC_TIMEOUT_COUNT);
 683:Drivers/GD32F30x_standard_peripheral/Source/gd32f30x_fmc.c ****   
 684:Drivers/GD32F30x_standard_peripheral/Source/gd32f30x_fmc.c ****     if(FMC_READY == fmc_state){
 685:Drivers/GD32F30x_standard_peripheral/Source/gd32f30x_fmc.c ****         /* set the OBPG bit*/
 686:Drivers/GD32F30x_standard_peripheral/Source/gd32f30x_fmc.c ****         FMC_CTL0 |= FMC_CTL0_OBPG; 
 687:Drivers/GD32F30x_standard_peripheral/Source/gd32f30x_fmc.c **** 
 688:Drivers/GD32F30x_standard_peripheral/Source/gd32f30x_fmc.c ****         temp = ((uint8_t)((uint8_t)((uint8_t)(ob_boot | ob_fwdgt) | ob_deepsleep) | ob_stdby) | OB_
 689:Drivers/GD32F30x_standard_peripheral/Source/gd32f30x_fmc.c ****         OB_USER = (uint16_t)temp;
 690:Drivers/GD32F30x_standard_peripheral/Source/gd32f30x_fmc.c ****     
 691:Drivers/GD32F30x_standard_peripheral/Source/gd32f30x_fmc.c ****         /* wait for the FMC ready */
 692:Drivers/GD32F30x_standard_peripheral/Source/gd32f30x_fmc.c ****         fmc_state = fmc_bank0_ready_wait(FMC_TIMEOUT_COUNT);
 693:Drivers/GD32F30x_standard_peripheral/Source/gd32f30x_fmc.c **** 
 694:Drivers/GD32F30x_standard_peripheral/Source/gd32f30x_fmc.c ****         if(FMC_TOERR != fmc_state){
 695:Drivers/GD32F30x_standard_peripheral/Source/gd32f30x_fmc.c ****             /* reset the OBPG bit */
 696:Drivers/GD32F30x_standard_peripheral/Source/gd32f30x_fmc.c ****             FMC_CTL0 &= ~FMC_CTL0_OBPG;
 697:Drivers/GD32F30x_standard_peripheral/Source/gd32f30x_fmc.c ****         }
 698:Drivers/GD32F30x_standard_peripheral/Source/gd32f30x_fmc.c ****     }
 699:Drivers/GD32F30x_standard_peripheral/Source/gd32f30x_fmc.c ****     /* return the FMC state */
 700:Drivers/GD32F30x_standard_peripheral/Source/gd32f30x_fmc.c ****     return fmc_state;
 701:Drivers/GD32F30x_standard_peripheral/Source/gd32f30x_fmc.c **** }
 702:Drivers/GD32F30x_standard_peripheral/Source/gd32f30x_fmc.c **** 
 703:Drivers/GD32F30x_standard_peripheral/Source/gd32f30x_fmc.c **** /*!
 704:Drivers/GD32F30x_standard_peripheral/Source/gd32f30x_fmc.c ****     \brief      program option bytes data
 705:Drivers/GD32F30x_standard_peripheral/Source/gd32f30x_fmc.c ****     \param[in]  address: the option bytes address to be programmed
 706:Drivers/GD32F30x_standard_peripheral/Source/gd32f30x_fmc.c ****     \param[in]  data: the byte to be programmed
ARM GAS  C:\Users\Prog\AppData\Local\Temp\cclIyEjW.s 			page 20


 707:Drivers/GD32F30x_standard_peripheral/Source/gd32f30x_fmc.c ****     \param[out] none
 708:Drivers/GD32F30x_standard_peripheral/Source/gd32f30x_fmc.c ****     \retval     state of FMC, refer to fmc_state_enum
 709:Drivers/GD32F30x_standard_peripheral/Source/gd32f30x_fmc.c **** */
 710:Drivers/GD32F30x_standard_peripheral/Source/gd32f30x_fmc.c **** fmc_state_enum ob_data_program(uint32_t address, uint8_t data)
 711:Drivers/GD32F30x_standard_peripheral/Source/gd32f30x_fmc.c **** {
 712:Drivers/GD32F30x_standard_peripheral/Source/gd32f30x_fmc.c ****     fmc_state_enum fmc_state = fmc_bank0_ready_wait(FMC_TIMEOUT_COUNT);
 713:Drivers/GD32F30x_standard_peripheral/Source/gd32f30x_fmc.c **** 
 714:Drivers/GD32F30x_standard_peripheral/Source/gd32f30x_fmc.c ****     if(FMC_READY == fmc_state){
 715:Drivers/GD32F30x_standard_peripheral/Source/gd32f30x_fmc.c ****         /* set the OBPG bit */
 716:Drivers/GD32F30x_standard_peripheral/Source/gd32f30x_fmc.c ****         FMC_CTL0 |= FMC_CTL0_OBPG; 
 717:Drivers/GD32F30x_standard_peripheral/Source/gd32f30x_fmc.c ****         REG16(address) = data;
 718:Drivers/GD32F30x_standard_peripheral/Source/gd32f30x_fmc.c ****     
 719:Drivers/GD32F30x_standard_peripheral/Source/gd32f30x_fmc.c ****         /* wait for the FMC ready */
 720:Drivers/GD32F30x_standard_peripheral/Source/gd32f30x_fmc.c ****         fmc_state = fmc_bank0_ready_wait(FMC_TIMEOUT_COUNT);
 721:Drivers/GD32F30x_standard_peripheral/Source/gd32f30x_fmc.c ****     
 722:Drivers/GD32F30x_standard_peripheral/Source/gd32f30x_fmc.c ****         if(FMC_TOERR != fmc_state){
 723:Drivers/GD32F30x_standard_peripheral/Source/gd32f30x_fmc.c ****             /* reset the OBPG bit */
 724:Drivers/GD32F30x_standard_peripheral/Source/gd32f30x_fmc.c ****             FMC_CTL0 &= ~FMC_CTL0_OBPG;
 725:Drivers/GD32F30x_standard_peripheral/Source/gd32f30x_fmc.c ****         }
 726:Drivers/GD32F30x_standard_peripheral/Source/gd32f30x_fmc.c ****     }
 727:Drivers/GD32F30x_standard_peripheral/Source/gd32f30x_fmc.c ****     /* return the FMC state */
 728:Drivers/GD32F30x_standard_peripheral/Source/gd32f30x_fmc.c ****     return fmc_state;
 729:Drivers/GD32F30x_standard_peripheral/Source/gd32f30x_fmc.c **** }
 730:Drivers/GD32F30x_standard_peripheral/Source/gd32f30x_fmc.c **** 
 731:Drivers/GD32F30x_standard_peripheral/Source/gd32f30x_fmc.c **** /*!
 732:Drivers/GD32F30x_standard_peripheral/Source/gd32f30x_fmc.c ****     \brief      get the FMC user option byte
 733:Drivers/GD32F30x_standard_peripheral/Source/gd32f30x_fmc.c ****     \param[in]  none
 734:Drivers/GD32F30x_standard_peripheral/Source/gd32f30x_fmc.c ****     \param[out] none
 735:Drivers/GD32F30x_standard_peripheral/Source/gd32f30x_fmc.c ****     \retval     the FMC user option byte values
 736:Drivers/GD32F30x_standard_peripheral/Source/gd32f30x_fmc.c **** */
 737:Drivers/GD32F30x_standard_peripheral/Source/gd32f30x_fmc.c **** uint8_t ob_user_get(void)
 738:Drivers/GD32F30x_standard_peripheral/Source/gd32f30x_fmc.c **** {
 397              		.loc 1 738 1 is_stmt 1 view -0
 398              		.cfi_startproc
 399              		@ args = 0, pretend = 0, frame = 0
 400              		@ frame_needed = 0, uses_anonymous_args = 0
 401              		@ link register save eliminated.
 739:Drivers/GD32F30x_standard_peripheral/Source/gd32f30x_fmc.c ****     /* return the FMC user option byte value */
 740:Drivers/GD32F30x_standard_peripheral/Source/gd32f30x_fmc.c ****     return (uint8_t)(FMC_OBSTAT >> 2U);
 402              		.loc 1 740 5 view .LVU78
 403              		.loc 1 740 22 is_stmt 0 view .LVU79
 404 0000 024B     		ldr	r3, .L35
 405 0002 D869     		ldr	r0, [r3, #28]
 741:Drivers/GD32F30x_standard_peripheral/Source/gd32f30x_fmc.c **** }
 406              		.loc 1 741 1 view .LVU80
 407 0004 C0F38700 		ubfx	r0, r0, #2, #8
 408 0008 7047     		bx	lr
 409              	.L36:
 410 000a 00BF     		.align	2
 411              	.L35:
 412 000c 00200240 		.word	1073881088
 413              		.cfi_endproc
 414              	.LFE137:
 416              		.section	.text.ob_data_get,"ax",%progbits
 417              		.align	1
 418              		.global	ob_data_get
 419              		.syntax unified
ARM GAS  C:\Users\Prog\AppData\Local\Temp\cclIyEjW.s 			page 21


 420              		.thumb
 421              		.thumb_func
 422              		.fpu fpv4-sp-d16
 424              	ob_data_get:
 425              	.LFB138:
 742:Drivers/GD32F30x_standard_peripheral/Source/gd32f30x_fmc.c **** 
 743:Drivers/GD32F30x_standard_peripheral/Source/gd32f30x_fmc.c **** /*!
 744:Drivers/GD32F30x_standard_peripheral/Source/gd32f30x_fmc.c ****     \brief      get OB_DATA in register FMC_OBSTAT
 745:Drivers/GD32F30x_standard_peripheral/Source/gd32f30x_fmc.c ****     \param[in]  none
 746:Drivers/GD32F30x_standard_peripheral/Source/gd32f30x_fmc.c ****     \param[out] none
 747:Drivers/GD32F30x_standard_peripheral/Source/gd32f30x_fmc.c ****     \retval     ob_data
 748:Drivers/GD32F30x_standard_peripheral/Source/gd32f30x_fmc.c **** */
 749:Drivers/GD32F30x_standard_peripheral/Source/gd32f30x_fmc.c **** uint16_t ob_data_get(void)
 750:Drivers/GD32F30x_standard_peripheral/Source/gd32f30x_fmc.c **** {
 426              		.loc 1 750 1 is_stmt 1 view -0
 427              		.cfi_startproc
 428              		@ args = 0, pretend = 0, frame = 0
 429              		@ frame_needed = 0, uses_anonymous_args = 0
 430              		@ link register save eliminated.
 751:Drivers/GD32F30x_standard_peripheral/Source/gd32f30x_fmc.c ****     return (uint16_t)(FMC_OBSTAT >> 10U);
 431              		.loc 1 751 5 view .LVU82
 432              		.loc 1 751 23 is_stmt 0 view .LVU83
 433 0000 024B     		ldr	r3, .L38
 434 0002 D869     		ldr	r0, [r3, #28]
 752:Drivers/GD32F30x_standard_peripheral/Source/gd32f30x_fmc.c **** }
 435              		.loc 1 752 1 view .LVU84
 436 0004 C0F38F20 		ubfx	r0, r0, #10, #16
 437 0008 7047     		bx	lr
 438              	.L39:
 439 000a 00BF     		.align	2
 440              	.L38:
 441 000c 00200240 		.word	1073881088
 442              		.cfi_endproc
 443              	.LFE138:
 445              		.section	.text.ob_write_protection_get,"ax",%progbits
 446              		.align	1
 447              		.global	ob_write_protection_get
 448              		.syntax unified
 449              		.thumb
 450              		.thumb_func
 451              		.fpu fpv4-sp-d16
 453              	ob_write_protection_get:
 454              	.LFB139:
 753:Drivers/GD32F30x_standard_peripheral/Source/gd32f30x_fmc.c **** 
 754:Drivers/GD32F30x_standard_peripheral/Source/gd32f30x_fmc.c **** /*!
 755:Drivers/GD32F30x_standard_peripheral/Source/gd32f30x_fmc.c ****     \brief      get the FMC option byte write protection
 756:Drivers/GD32F30x_standard_peripheral/Source/gd32f30x_fmc.c ****     \param[in]  none
 757:Drivers/GD32F30x_standard_peripheral/Source/gd32f30x_fmc.c ****     \param[out] none
 758:Drivers/GD32F30x_standard_peripheral/Source/gd32f30x_fmc.c ****     \retval     the FMC write protection option byte value
 759:Drivers/GD32F30x_standard_peripheral/Source/gd32f30x_fmc.c **** */
 760:Drivers/GD32F30x_standard_peripheral/Source/gd32f30x_fmc.c **** uint32_t ob_write_protection_get(void)
 761:Drivers/GD32F30x_standard_peripheral/Source/gd32f30x_fmc.c **** {
 455              		.loc 1 761 1 is_stmt 1 view -0
 456              		.cfi_startproc
 457              		@ args = 0, pretend = 0, frame = 0
 458              		@ frame_needed = 0, uses_anonymous_args = 0
 459              		@ link register save eliminated.
ARM GAS  C:\Users\Prog\AppData\Local\Temp\cclIyEjW.s 			page 22


 762:Drivers/GD32F30x_standard_peripheral/Source/gd32f30x_fmc.c ****     /* return the FMC write protection option byte value */
 763:Drivers/GD32F30x_standard_peripheral/Source/gd32f30x_fmc.c ****     return FMC_WP;
 460              		.loc 1 763 5 view .LVU86
 461              		.loc 1 763 12 is_stmt 0 view .LVU87
 462 0000 014B     		ldr	r3, .L41
 463 0002 186A     		ldr	r0, [r3, #32]
 764:Drivers/GD32F30x_standard_peripheral/Source/gd32f30x_fmc.c **** }
 464              		.loc 1 764 1 view .LVU88
 465 0004 7047     		bx	lr
 466              	.L42:
 467 0006 00BF     		.align	2
 468              	.L41:
 469 0008 00200240 		.word	1073881088
 470              		.cfi_endproc
 471              	.LFE139:
 473              		.section	.text.ob_spc_get,"ax",%progbits
 474              		.align	1
 475              		.global	ob_spc_get
 476              		.syntax unified
 477              		.thumb
 478              		.thumb_func
 479              		.fpu fpv4-sp-d16
 481              	ob_spc_get:
 482              	.LFB140:
 765:Drivers/GD32F30x_standard_peripheral/Source/gd32f30x_fmc.c **** 
 766:Drivers/GD32F30x_standard_peripheral/Source/gd32f30x_fmc.c **** /*!
 767:Drivers/GD32F30x_standard_peripheral/Source/gd32f30x_fmc.c ****     \brief      get the FMC option byte security protection
 768:Drivers/GD32F30x_standard_peripheral/Source/gd32f30x_fmc.c ****     \param[in]  none
 769:Drivers/GD32F30x_standard_peripheral/Source/gd32f30x_fmc.c ****     \param[out] none
 770:Drivers/GD32F30x_standard_peripheral/Source/gd32f30x_fmc.c ****     \retval     FlagStatus: SET or RESET
 771:Drivers/GD32F30x_standard_peripheral/Source/gd32f30x_fmc.c **** */
 772:Drivers/GD32F30x_standard_peripheral/Source/gd32f30x_fmc.c **** FlagStatus ob_spc_get(void)
 773:Drivers/GD32F30x_standard_peripheral/Source/gd32f30x_fmc.c **** {
 483              		.loc 1 773 1 is_stmt 1 view -0
 484              		.cfi_startproc
 485              		@ args = 0, pretend = 0, frame = 0
 486              		@ frame_needed = 0, uses_anonymous_args = 0
 487              		@ link register save eliminated.
 774:Drivers/GD32F30x_standard_peripheral/Source/gd32f30x_fmc.c ****     FlagStatus spc_state = RESET;
 488              		.loc 1 774 5 view .LVU90
 489              	.LVL4:
 775:Drivers/GD32F30x_standard_peripheral/Source/gd32f30x_fmc.c **** 
 776:Drivers/GD32F30x_standard_peripheral/Source/gd32f30x_fmc.c ****     if(RESET != (FMC_OBSTAT & FMC_OBSTAT_SPC)){
 490              		.loc 1 776 5 view .LVU91
 491              		.loc 1 776 18 is_stmt 0 view .LVU92
 492 0000 044B     		ldr	r3, .L46
 493 0002 DB69     		ldr	r3, [r3, #28]
 494              		.loc 1 776 7 view .LVU93
 495 0004 13F0020F 		tst	r3, #2
 496 0008 01D0     		beq	.L45
 777:Drivers/GD32F30x_standard_peripheral/Source/gd32f30x_fmc.c ****         spc_state = SET;
 497              		.loc 1 777 19 view .LVU94
 498 000a 0120     		movs	r0, #1
 499 000c 7047     		bx	lr
 500              	.L45:
 778:Drivers/GD32F30x_standard_peripheral/Source/gd32f30x_fmc.c ****     }else{
 779:Drivers/GD32F30x_standard_peripheral/Source/gd32f30x_fmc.c ****         spc_state = RESET;
ARM GAS  C:\Users\Prog\AppData\Local\Temp\cclIyEjW.s 			page 23


 501              		.loc 1 779 19 view .LVU95
 502 000e 0020     		movs	r0, #0
 503              	.LVL5:
 780:Drivers/GD32F30x_standard_peripheral/Source/gd32f30x_fmc.c ****     }
 781:Drivers/GD32F30x_standard_peripheral/Source/gd32f30x_fmc.c ****     return spc_state;
 504              		.loc 1 781 5 is_stmt 1 view .LVU96
 782:Drivers/GD32F30x_standard_peripheral/Source/gd32f30x_fmc.c **** }
 505              		.loc 1 782 1 is_stmt 0 view .LVU97
 506 0010 7047     		bx	lr
 507              	.L47:
 508 0012 00BF     		.align	2
 509              	.L46:
 510 0014 00200240 		.word	1073881088
 511              		.cfi_endproc
 512              	.LFE140:
 514              		.section	.text.fmc_interrupt_enable,"ax",%progbits
 515              		.align	1
 516              		.global	fmc_interrupt_enable
 517              		.syntax unified
 518              		.thumb
 519              		.thumb_func
 520              		.fpu fpv4-sp-d16
 522              	fmc_interrupt_enable:
 523              	.LVL6:
 524              	.LFB141:
 783:Drivers/GD32F30x_standard_peripheral/Source/gd32f30x_fmc.c **** 
 784:Drivers/GD32F30x_standard_peripheral/Source/gd32f30x_fmc.c **** /*!
 785:Drivers/GD32F30x_standard_peripheral/Source/gd32f30x_fmc.c ****     \brief      enable FMC interrupt
 786:Drivers/GD32F30x_standard_peripheral/Source/gd32f30x_fmc.c ****     \param[in]  interrupt: the FMC interrupt source
 787:Drivers/GD32F30x_standard_peripheral/Source/gd32f30x_fmc.c ****       \arg        FMC_INT_BANK0_END: FMC bank0 end of program interrupt
 788:Drivers/GD32F30x_standard_peripheral/Source/gd32f30x_fmc.c ****       \arg        FMC_INT_BANK0_ERR: FMC bank0 error interrupt
 789:Drivers/GD32F30x_standard_peripheral/Source/gd32f30x_fmc.c ****       \arg        FMC_INT_BANK1_END: FMC bank1 end of program interrupt
 790:Drivers/GD32F30x_standard_peripheral/Source/gd32f30x_fmc.c ****       \arg        FMC_INT_BANK1_ERR: FMC bank1 error interrupt
 791:Drivers/GD32F30x_standard_peripheral/Source/gd32f30x_fmc.c ****     \param[out] none
 792:Drivers/GD32F30x_standard_peripheral/Source/gd32f30x_fmc.c ****     \retval     none
 793:Drivers/GD32F30x_standard_peripheral/Source/gd32f30x_fmc.c **** */
 794:Drivers/GD32F30x_standard_peripheral/Source/gd32f30x_fmc.c **** void fmc_interrupt_enable(uint32_t interrupt)
 795:Drivers/GD32F30x_standard_peripheral/Source/gd32f30x_fmc.c **** {
 525              		.loc 1 795 1 is_stmt 1 view -0
 526              		.cfi_startproc
 527              		@ args = 0, pretend = 0, frame = 0
 528              		@ frame_needed = 0, uses_anonymous_args = 0
 529              		@ link register save eliminated.
 796:Drivers/GD32F30x_standard_peripheral/Source/gd32f30x_fmc.c ****     FMC_REG_VAL(interrupt) |= BIT(FMC_BIT_POS(interrupt));
 530              		.loc 1 796 5 view .LVU99
 531              		.loc 1 796 28 is_stmt 0 view .LVU100
 532 0000 8309     		lsrs	r3, r0, #6
 533 0002 03F18043 		add	r3, r3, #1073741824
 534 0006 03F50833 		add	r3, r3, #139264
 535 000a 1A68     		ldr	r2, [r3]
 536              		.loc 1 796 31 view .LVU101
 537 000c 00F01F00 		and	r0, r0, #31
 538              	.LVL7:
 539              		.loc 1 796 31 view .LVU102
 540 0010 0121     		movs	r1, #1
 541 0012 01FA00F0 		lsl	r0, r1, r0
 542              		.loc 1 796 28 view .LVU103
ARM GAS  C:\Users\Prog\AppData\Local\Temp\cclIyEjW.s 			page 24


 543 0016 1043     		orrs	r0, r0, r2
 544 0018 1860     		str	r0, [r3]
 797:Drivers/GD32F30x_standard_peripheral/Source/gd32f30x_fmc.c **** }
 545              		.loc 1 797 1 view .LVU104
 546 001a 7047     		bx	lr
 547              		.cfi_endproc
 548              	.LFE141:
 550              		.section	.text.fmc_interrupt_disable,"ax",%progbits
 551              		.align	1
 552              		.global	fmc_interrupt_disable
 553              		.syntax unified
 554              		.thumb
 555              		.thumb_func
 556              		.fpu fpv4-sp-d16
 558              	fmc_interrupt_disable:
 559              	.LVL8:
 560              	.LFB142:
 798:Drivers/GD32F30x_standard_peripheral/Source/gd32f30x_fmc.c **** 
 799:Drivers/GD32F30x_standard_peripheral/Source/gd32f30x_fmc.c **** /*!
 800:Drivers/GD32F30x_standard_peripheral/Source/gd32f30x_fmc.c ****     \brief      disable FMC interrupt
 801:Drivers/GD32F30x_standard_peripheral/Source/gd32f30x_fmc.c ****     \param[in]  interrupt: the FMC interrupt source
 802:Drivers/GD32F30x_standard_peripheral/Source/gd32f30x_fmc.c ****       \arg        FMC_INT_BANK0_END: FMC bank0 end of program interrupt
 803:Drivers/GD32F30x_standard_peripheral/Source/gd32f30x_fmc.c ****       \arg        FMC_INT_BANK0_ERR: FMC bank0 error interrupt
 804:Drivers/GD32F30x_standard_peripheral/Source/gd32f30x_fmc.c ****       \arg        FMC_INT_BANK1_END: FMC bank1 end of program interrupt
 805:Drivers/GD32F30x_standard_peripheral/Source/gd32f30x_fmc.c ****       \arg        FMC_INT_BANK1_ERR: FMC bank1 error interrupt
 806:Drivers/GD32F30x_standard_peripheral/Source/gd32f30x_fmc.c ****     \param[out] none
 807:Drivers/GD32F30x_standard_peripheral/Source/gd32f30x_fmc.c ****     \retval     none
 808:Drivers/GD32F30x_standard_peripheral/Source/gd32f30x_fmc.c **** */
 809:Drivers/GD32F30x_standard_peripheral/Source/gd32f30x_fmc.c **** void fmc_interrupt_disable(uint32_t interrupt)
 810:Drivers/GD32F30x_standard_peripheral/Source/gd32f30x_fmc.c **** {
 561              		.loc 1 810 1 is_stmt 1 view -0
 562              		.cfi_startproc
 563              		@ args = 0, pretend = 0, frame = 0
 564              		@ frame_needed = 0, uses_anonymous_args = 0
 565              		@ link register save eliminated.
 811:Drivers/GD32F30x_standard_peripheral/Source/gd32f30x_fmc.c ****     FMC_REG_VAL(interrupt) &= ~BIT(FMC_BIT_POS(interrupt));
 566              		.loc 1 811 5 view .LVU106
 567              		.loc 1 811 28 is_stmt 0 view .LVU107
 568 0000 8309     		lsrs	r3, r0, #6
 569 0002 03F18043 		add	r3, r3, #1073741824
 570 0006 03F50833 		add	r3, r3, #139264
 571 000a 1A68     		ldr	r2, [r3]
 572              		.loc 1 811 32 view .LVU108
 573 000c 00F01F00 		and	r0, r0, #31
 574              	.LVL9:
 575              		.loc 1 811 32 view .LVU109
 576 0010 0121     		movs	r1, #1
 577 0012 01FA00F0 		lsl	r0, r1, r0
 578              		.loc 1 811 28 view .LVU110
 579 0016 22EA0000 		bic	r0, r2, r0
 580 001a 1860     		str	r0, [r3]
 812:Drivers/GD32F30x_standard_peripheral/Source/gd32f30x_fmc.c **** }
 581              		.loc 1 812 1 view .LVU111
 582 001c 7047     		bx	lr
 583              		.cfi_endproc
 584              	.LFE142:
 586              		.section	.text.fmc_flag_get,"ax",%progbits
ARM GAS  C:\Users\Prog\AppData\Local\Temp\cclIyEjW.s 			page 25


 587              		.align	1
 588              		.global	fmc_flag_get
 589              		.syntax unified
 590              		.thumb
 591              		.thumb_func
 592              		.fpu fpv4-sp-d16
 594              	fmc_flag_get:
 595              	.LVL10:
 596              	.LFB143:
 813:Drivers/GD32F30x_standard_peripheral/Source/gd32f30x_fmc.c **** 
 814:Drivers/GD32F30x_standard_peripheral/Source/gd32f30x_fmc.c **** /*!
 815:Drivers/GD32F30x_standard_peripheral/Source/gd32f30x_fmc.c ****     \brief      check flag is set or not
 816:Drivers/GD32F30x_standard_peripheral/Source/gd32f30x_fmc.c ****     \param[in]  flag: check FMC flag
 817:Drivers/GD32F30x_standard_peripheral/Source/gd32f30x_fmc.c ****                 only one parameter can be selected which is shown as below:
 818:Drivers/GD32F30x_standard_peripheral/Source/gd32f30x_fmc.c ****       \arg        FMC_FLAG_BANK0_BUSY: FMC bank0 busy flag bit
 819:Drivers/GD32F30x_standard_peripheral/Source/gd32f30x_fmc.c ****       \arg        FMC_FLAG_BANK0_PGERR: FMC bank0 operation error flag bit
 820:Drivers/GD32F30x_standard_peripheral/Source/gd32f30x_fmc.c ****       \arg        FMC_FLAG_BANK0_WPERR: FMC bank0 erase/program protection error flag bit
 821:Drivers/GD32F30x_standard_peripheral/Source/gd32f30x_fmc.c ****       \arg        FMC_FLAG_BANK0_END: FMC bank0 end of operation flag bit
 822:Drivers/GD32F30x_standard_peripheral/Source/gd32f30x_fmc.c ****       \arg        FMC_FLAG_OBERR: FMC option bytes read error flag bit
 823:Drivers/GD32F30x_standard_peripheral/Source/gd32f30x_fmc.c ****       \arg        FMC_FLAG_BANK1_BUSY: FMC bank1 busy flag bit
 824:Drivers/GD32F30x_standard_peripheral/Source/gd32f30x_fmc.c ****       \arg        FMC_FLAG_BANK1_PGERR: FMC bank1 operation error flag bit
 825:Drivers/GD32F30x_standard_peripheral/Source/gd32f30x_fmc.c ****       \arg        FMC_FLAG_BANK1_WPERR: FMC bank1 erase/program protection error flag bit
 826:Drivers/GD32F30x_standard_peripheral/Source/gd32f30x_fmc.c ****       \arg        FMC_FLAG_BANK1_END: FMC bank1 end of operation flag bit
 827:Drivers/GD32F30x_standard_peripheral/Source/gd32f30x_fmc.c ****     \param[out] none
 828:Drivers/GD32F30x_standard_peripheral/Source/gd32f30x_fmc.c ****     \retval     FlagStatus: SET or RESET
 829:Drivers/GD32F30x_standard_peripheral/Source/gd32f30x_fmc.c **** */
 830:Drivers/GD32F30x_standard_peripheral/Source/gd32f30x_fmc.c **** FlagStatus fmc_flag_get(uint32_t flag)
 831:Drivers/GD32F30x_standard_peripheral/Source/gd32f30x_fmc.c **** {
 597              		.loc 1 831 1 is_stmt 1 view -0
 598              		.cfi_startproc
 599              		@ args = 0, pretend = 0, frame = 0
 600              		@ frame_needed = 0, uses_anonymous_args = 0
 601              		@ link register save eliminated.
 832:Drivers/GD32F30x_standard_peripheral/Source/gd32f30x_fmc.c ****     if(RESET != (FMC_REG_VAL(flag) & BIT(FMC_BIT_POS(flag)))){
 602              		.loc 1 832 5 view .LVU113
 603              		.loc 1 832 18 is_stmt 0 view .LVU114
 604 0000 8309     		lsrs	r3, r0, #6
 605 0002 03F18043 		add	r3, r3, #1073741824
 606 0006 03F50833 		add	r3, r3, #139264
 607 000a 1B68     		ldr	r3, [r3]
 608              		.loc 1 832 38 view .LVU115
 609 000c 00F01F00 		and	r0, r0, #31
 610              	.LVL11:
 611              		.loc 1 832 14 view .LVU116
 612 0010 23FA00F0 		lsr	r0, r3, r0
 613              		.loc 1 832 7 view .LVU117
 614 0014 10F0010F 		tst	r0, #1
 615 0018 01D0     		beq	.L52
 833:Drivers/GD32F30x_standard_peripheral/Source/gd32f30x_fmc.c ****         return SET;
 616              		.loc 1 833 16 view .LVU118
 617 001a 0120     		movs	r0, #1
 618 001c 7047     		bx	lr
 619              	.L52:
 834:Drivers/GD32F30x_standard_peripheral/Source/gd32f30x_fmc.c ****     }else{
 835:Drivers/GD32F30x_standard_peripheral/Source/gd32f30x_fmc.c ****         return RESET;
 620              		.loc 1 835 16 view .LVU119
 621 001e 0020     		movs	r0, #0
ARM GAS  C:\Users\Prog\AppData\Local\Temp\cclIyEjW.s 			page 26


 836:Drivers/GD32F30x_standard_peripheral/Source/gd32f30x_fmc.c ****     }
 837:Drivers/GD32F30x_standard_peripheral/Source/gd32f30x_fmc.c **** }
 622              		.loc 1 837 1 view .LVU120
 623 0020 7047     		bx	lr
 624              		.cfi_endproc
 625              	.LFE143:
 627              		.section	.text.fmc_flag_clear,"ax",%progbits
 628              		.align	1
 629              		.global	fmc_flag_clear
 630              		.syntax unified
 631              		.thumb
 632              		.thumb_func
 633              		.fpu fpv4-sp-d16
 635              	fmc_flag_clear:
 636              	.LVL12:
 637              	.LFB144:
 838:Drivers/GD32F30x_standard_peripheral/Source/gd32f30x_fmc.c **** 
 839:Drivers/GD32F30x_standard_peripheral/Source/gd32f30x_fmc.c **** /*!
 840:Drivers/GD32F30x_standard_peripheral/Source/gd32f30x_fmc.c ****     \brief      clear the FMC flag
 841:Drivers/GD32F30x_standard_peripheral/Source/gd32f30x_fmc.c ****     \param[in]  flag: clear FMC flag
 842:Drivers/GD32F30x_standard_peripheral/Source/gd32f30x_fmc.c ****                 only one parameter can be selected which is shown as below:
 843:Drivers/GD32F30x_standard_peripheral/Source/gd32f30x_fmc.c ****       \arg        FMC_FLAG_BANK0_PGERR: FMC bank0 operation error flag bit
 844:Drivers/GD32F30x_standard_peripheral/Source/gd32f30x_fmc.c ****       \arg        FMC_FLAG_BANK0_WPERR: FMC bank0 erase/program protection error flag bit
 845:Drivers/GD32F30x_standard_peripheral/Source/gd32f30x_fmc.c ****       \arg        FMC_FLAG_BANK0_END: FMC bank0 end of operation flag bit
 846:Drivers/GD32F30x_standard_peripheral/Source/gd32f30x_fmc.c ****       \arg        FMC_FLAG_BANK1_PGERR: FMC bank1 operation error flag bit
 847:Drivers/GD32F30x_standard_peripheral/Source/gd32f30x_fmc.c ****       \arg        FMC_FLAG_BANK1_WPERR: FMC bank1 erase/program protection error flag bit
 848:Drivers/GD32F30x_standard_peripheral/Source/gd32f30x_fmc.c ****       \arg        FMC_FLAG_BANK1_END: FMC bank1 end of operation flag bit
 849:Drivers/GD32F30x_standard_peripheral/Source/gd32f30x_fmc.c ****     \param[out] none
 850:Drivers/GD32F30x_standard_peripheral/Source/gd32f30x_fmc.c ****     \retval     none
 851:Drivers/GD32F30x_standard_peripheral/Source/gd32f30x_fmc.c **** */
 852:Drivers/GD32F30x_standard_peripheral/Source/gd32f30x_fmc.c **** void fmc_flag_clear(uint32_t flag)
 853:Drivers/GD32F30x_standard_peripheral/Source/gd32f30x_fmc.c **** {
 638              		.loc 1 853 1 is_stmt 1 view -0
 639              		.cfi_startproc
 640              		@ args = 0, pretend = 0, frame = 0
 641              		@ frame_needed = 0, uses_anonymous_args = 0
 642              		@ link register save eliminated.
 854:Drivers/GD32F30x_standard_peripheral/Source/gd32f30x_fmc.c ****     FMC_REG_VAL(flag) |= BIT(FMC_BIT_POS(flag));
 643              		.loc 1 854 5 view .LVU122
 644              		.loc 1 854 23 is_stmt 0 view .LVU123
 645 0000 8309     		lsrs	r3, r0, #6
 646 0002 03F18043 		add	r3, r3, #1073741824
 647 0006 03F50833 		add	r3, r3, #139264
 648 000a 1A68     		ldr	r2, [r3]
 649              		.loc 1 854 26 view .LVU124
 650 000c 00F01F00 		and	r0, r0, #31
 651              	.LVL13:
 652              		.loc 1 854 26 view .LVU125
 653 0010 0121     		movs	r1, #1
 654 0012 01FA00F0 		lsl	r0, r1, r0
 655              		.loc 1 854 23 view .LVU126
 656 0016 1043     		orrs	r0, r0, r2
 657 0018 1860     		str	r0, [r3]
 855:Drivers/GD32F30x_standard_peripheral/Source/gd32f30x_fmc.c **** }
 658              		.loc 1 855 1 view .LVU127
 659 001a 7047     		bx	lr
 660              		.cfi_endproc
ARM GAS  C:\Users\Prog\AppData\Local\Temp\cclIyEjW.s 			page 27


 661              	.LFE144:
 663              		.section	.text.fmc_interrupt_flag_get,"ax",%progbits
 664              		.align	1
 665              		.global	fmc_interrupt_flag_get
 666              		.syntax unified
 667              		.thumb
 668              		.thumb_func
 669              		.fpu fpv4-sp-d16
 671              	fmc_interrupt_flag_get:
 672              	.LVL14:
 673              	.LFB145:
 856:Drivers/GD32F30x_standard_peripheral/Source/gd32f30x_fmc.c **** 
 857:Drivers/GD32F30x_standard_peripheral/Source/gd32f30x_fmc.c **** /*!
 858:Drivers/GD32F30x_standard_peripheral/Source/gd32f30x_fmc.c ****     \brief      get FMC interrupt flag state
 859:Drivers/GD32F30x_standard_peripheral/Source/gd32f30x_fmc.c ****     \param[in]  flag: FMC interrupt flags, refer to fmc_interrupt_flag_enum
 860:Drivers/GD32F30x_standard_peripheral/Source/gd32f30x_fmc.c ****                 only one parameter can be selected which is shown as below:
 861:Drivers/GD32F30x_standard_peripheral/Source/gd32f30x_fmc.c ****       \arg        FMC_INT_FLAG_BANK0_PGERR: FMC bank0 operation error interrupt flag bit
 862:Drivers/GD32F30x_standard_peripheral/Source/gd32f30x_fmc.c ****       \arg        FMC_INT_FLAG_BANK0_WPERR: FMC bank0 erase/program protection error interrupt flag
 863:Drivers/GD32F30x_standard_peripheral/Source/gd32f30x_fmc.c ****       \arg        FMC_INT_FLAG_BANK0_END: FMC bank0 end of operation interrupt flag bit
 864:Drivers/GD32F30x_standard_peripheral/Source/gd32f30x_fmc.c ****       \arg        FMC_INT_FLAG_BANK1_PGERR: FMC bank1 operation error interrupt flag bit
 865:Drivers/GD32F30x_standard_peripheral/Source/gd32f30x_fmc.c ****       \arg        FMC_INT_FLAG_BANK1_WPERR: FMC bank1 erase/program protection error interrupt flag
 866:Drivers/GD32F30x_standard_peripheral/Source/gd32f30x_fmc.c ****       \arg        FMC_INT_FLAG_BANK1_END: FMC bank1 end of operation interrupt flag bit
 867:Drivers/GD32F30x_standard_peripheral/Source/gd32f30x_fmc.c ****     \param[out] none
 868:Drivers/GD32F30x_standard_peripheral/Source/gd32f30x_fmc.c ****     \retval     FlagStatus: SET or RESET
 869:Drivers/GD32F30x_standard_peripheral/Source/gd32f30x_fmc.c **** */
 870:Drivers/GD32F30x_standard_peripheral/Source/gd32f30x_fmc.c **** FlagStatus fmc_interrupt_flag_get(fmc_interrupt_flag_enum flag)
 871:Drivers/GD32F30x_standard_peripheral/Source/gd32f30x_fmc.c **** {
 674              		.loc 1 871 1 is_stmt 1 view -0
 675              		.cfi_startproc
 676              		@ args = 0, pretend = 0, frame = 0
 677              		@ frame_needed = 0, uses_anonymous_args = 0
 678              		@ link register save eliminated.
 872:Drivers/GD32F30x_standard_peripheral/Source/gd32f30x_fmc.c ****     FlagStatus ret1 = RESET;
 679              		.loc 1 872 5 view .LVU129
 873:Drivers/GD32F30x_standard_peripheral/Source/gd32f30x_fmc.c ****     FlagStatus ret2 = RESET;
 680              		.loc 1 873 5 view .LVU130
 874:Drivers/GD32F30x_standard_peripheral/Source/gd32f30x_fmc.c ****     
 875:Drivers/GD32F30x_standard_peripheral/Source/gd32f30x_fmc.c ****     if(FMC_STAT0_REG_OFFSET == FMC_REG_OFFSET_GET(flag)){
 681              		.loc 1 875 5 view .LVU131
 682              		.loc 1 875 32 is_stmt 0 view .LVU132
 683 0000 030B     		lsrs	r3, r0, #12
 684              		.loc 1 875 7 view .LVU133
 685 0002 0C2B     		cmp	r3, #12
 686 0004 16D0     		beq	.L60
 876:Drivers/GD32F30x_standard_peripheral/Source/gd32f30x_fmc.c ****         /* get the staus of interrupt flag */
 877:Drivers/GD32F30x_standard_peripheral/Source/gd32f30x_fmc.c ****         ret1 = (FlagStatus)(FMC_REG_VALS(flag) & BIT(FMC_BIT_POS0(flag)));
 878:Drivers/GD32F30x_standard_peripheral/Source/gd32f30x_fmc.c ****         /* get the staus of interrupt enale bit */
 879:Drivers/GD32F30x_standard_peripheral/Source/gd32f30x_fmc.c ****         ret2 = (FlagStatus)(FMC_CTL0 & BIT(FMC_BIT_POS1(flag)));
 880:Drivers/GD32F30x_standard_peripheral/Source/gd32f30x_fmc.c ****     }else{
 881:Drivers/GD32F30x_standard_peripheral/Source/gd32f30x_fmc.c ****         /* get the staus of interrupt flag */
 882:Drivers/GD32F30x_standard_peripheral/Source/gd32f30x_fmc.c ****         ret1 = (FlagStatus)(FMC_REG_VALS(flag) & BIT(FMC_BIT_POS0(flag)));
 687              		.loc 1 882 9 is_stmt 1 view .LVU134
 688              		.loc 1 882 29 is_stmt 0 view .LVU135
 689 0006 03F18043 		add	r3, r3, #1073741824
 690 000a 03F50833 		add	r3, r3, #139264
 691 000e 1968     		ldr	r1, [r3]
 692              		.loc 1 882 50 view .LVU136
ARM GAS  C:\Users\Prog\AppData\Local\Temp\cclIyEjW.s 			page 28


 693 0010 C0F38412 		ubfx	r2, r0, #6, #5
 694 0014 0123     		movs	r3, #1
 695 0016 03FA02F2 		lsl	r2, r3, r2
 696              		.loc 1 882 16 view .LVU137
 697 001a D2B2     		uxtb	r2, r2
 698              		.loc 1 882 14 view .LVU138
 699 001c 0A40     		ands	r2, r2, r1
 700              	.LVL15:
 883:Drivers/GD32F30x_standard_peripheral/Source/gd32f30x_fmc.c ****         /* get the staus of interrupt enale bit */
 884:Drivers/GD32F30x_standard_peripheral/Source/gd32f30x_fmc.c ****         ret2 = (FlagStatus)(FMC_CTL1 & BIT(FMC_BIT_POS1(flag)));
 701              		.loc 1 884 9 is_stmt 1 view .LVU139
 702              		.loc 1 884 29 is_stmt 0 view .LVU140
 703 001e 1249     		ldr	r1, .L61
 704 0020 096D     		ldr	r1, [r1, #80]
 705              		.loc 1 884 40 view .LVU141
 706 0022 00F01F00 		and	r0, r0, #31
 707              	.LVL16:
 708              		.loc 1 884 40 view .LVU142
 709 0026 03FA00F0 		lsl	r0, r3, r0
 710              		.loc 1 884 16 view .LVU143
 711 002a C0B2     		uxtb	r0, r0
 712              		.loc 1 884 14 view .LVU144
 713 002c 0840     		ands	r0, r0, r1
 714              	.LVL17:
 715              	.L56:
 885:Drivers/GD32F30x_standard_peripheral/Source/gd32f30x_fmc.c ****     }
 886:Drivers/GD32F30x_standard_peripheral/Source/gd32f30x_fmc.c **** 
 887:Drivers/GD32F30x_standard_peripheral/Source/gd32f30x_fmc.c ****     if(ret1 && ret2){
 716              		.loc 1 887 5 is_stmt 1 view .LVU145
 717              		.loc 1 887 7 is_stmt 0 view .LVU146
 718 002e B2B1     		cbz	r2, .L58
 719              		.loc 1 887 13 discriminator 1 view .LVU147
 720 0030 B8B9     		cbnz	r0, .L59
 721 0032 7047     		bx	lr
 722              	.LVL18:
 723              	.L60:
 877:Drivers/GD32F30x_standard_peripheral/Source/gd32f30x_fmc.c ****         /* get the staus of interrupt enale bit */
 724              		.loc 1 877 9 is_stmt 1 view .LVU148
 877:Drivers/GD32F30x_standard_peripheral/Source/gd32f30x_fmc.c ****         /* get the staus of interrupt enale bit */
 725              		.loc 1 877 29 is_stmt 0 view .LVU149
 726 0034 03F18043 		add	r3, r3, #1073741824
 727 0038 03F50833 		add	r3, r3, #139264
 728 003c 1A68     		ldr	r2, [r3]
 877:Drivers/GD32F30x_standard_peripheral/Source/gd32f30x_fmc.c ****         /* get the staus of interrupt enale bit */
 729              		.loc 1 877 50 view .LVU150
 730 003e C0F38413 		ubfx	r3, r0, #6, #5
 731 0042 0121     		movs	r1, #1
 732 0044 01FA03F3 		lsl	r3, r1, r3
 877:Drivers/GD32F30x_standard_peripheral/Source/gd32f30x_fmc.c ****         /* get the staus of interrupt enale bit */
 733              		.loc 1 877 16 view .LVU151
 734 0048 DBB2     		uxtb	r3, r3
 877:Drivers/GD32F30x_standard_peripheral/Source/gd32f30x_fmc.c ****         /* get the staus of interrupt enale bit */
 735              		.loc 1 877 14 view .LVU152
 736 004a 1A40     		ands	r2, r2, r3
 737              	.LVL19:
 879:Drivers/GD32F30x_standard_peripheral/Source/gd32f30x_fmc.c ****     }else{
 738              		.loc 1 879 9 is_stmt 1 view .LVU153
ARM GAS  C:\Users\Prog\AppData\Local\Temp\cclIyEjW.s 			page 29


 879:Drivers/GD32F30x_standard_peripheral/Source/gd32f30x_fmc.c ****     }else{
 739              		.loc 1 879 29 is_stmt 0 view .LVU154
 740 004c 064B     		ldr	r3, .L61
 741 004e 1B69     		ldr	r3, [r3, #16]
 879:Drivers/GD32F30x_standard_peripheral/Source/gd32f30x_fmc.c ****     }else{
 742              		.loc 1 879 40 view .LVU155
 743 0050 00F01F00 		and	r0, r0, #31
 744              	.LVL20:
 879:Drivers/GD32F30x_standard_peripheral/Source/gd32f30x_fmc.c ****     }else{
 745              		.loc 1 879 40 view .LVU156
 746 0054 01FA00F0 		lsl	r0, r1, r0
 879:Drivers/GD32F30x_standard_peripheral/Source/gd32f30x_fmc.c ****     }else{
 747              		.loc 1 879 16 view .LVU157
 748 0058 C0B2     		uxtb	r0, r0
 879:Drivers/GD32F30x_standard_peripheral/Source/gd32f30x_fmc.c ****     }else{
 749              		.loc 1 879 14 view .LVU158
 750 005a 1840     		ands	r0, r0, r3
 751              	.LVL21:
 879:Drivers/GD32F30x_standard_peripheral/Source/gd32f30x_fmc.c ****     }else{
 752              		.loc 1 879 14 view .LVU159
 753 005c E7E7     		b	.L56
 754              	.L58:
 888:Drivers/GD32F30x_standard_peripheral/Source/gd32f30x_fmc.c ****         return SET;
 889:Drivers/GD32F30x_standard_peripheral/Source/gd32f30x_fmc.c ****     }else{
 890:Drivers/GD32F30x_standard_peripheral/Source/gd32f30x_fmc.c ****         return RESET;
 755              		.loc 1 890 16 view .LVU160
 756 005e 0020     		movs	r0, #0
 757              	.LVL22:
 758              		.loc 1 890 16 view .LVU161
 759 0060 7047     		bx	lr
 760              	.LVL23:
 761              	.L59:
 888:Drivers/GD32F30x_standard_peripheral/Source/gd32f30x_fmc.c ****         return SET;
 762              		.loc 1 888 16 view .LVU162
 763 0062 0120     		movs	r0, #1
 764              	.LVL24:
 891:Drivers/GD32F30x_standard_peripheral/Source/gd32f30x_fmc.c ****     }
 892:Drivers/GD32F30x_standard_peripheral/Source/gd32f30x_fmc.c **** }
 765              		.loc 1 892 1 view .LVU163
 766 0064 7047     		bx	lr
 767              	.L62:
 768 0066 00BF     		.align	2
 769              	.L61:
 770 0068 00200240 		.word	1073881088
 771              		.cfi_endproc
 772              	.LFE145:
 774              		.section	.text.fmc_interrupt_flag_clear,"ax",%progbits
 775              		.align	1
 776              		.global	fmc_interrupt_flag_clear
 777              		.syntax unified
 778              		.thumb
 779              		.thumb_func
 780              		.fpu fpv4-sp-d16
 782              	fmc_interrupt_flag_clear:
 783              	.LVL25:
 784              	.LFB146:
 893:Drivers/GD32F30x_standard_peripheral/Source/gd32f30x_fmc.c **** 
ARM GAS  C:\Users\Prog\AppData\Local\Temp\cclIyEjW.s 			page 30


 894:Drivers/GD32F30x_standard_peripheral/Source/gd32f30x_fmc.c **** /*!
 895:Drivers/GD32F30x_standard_peripheral/Source/gd32f30x_fmc.c ****     \brief      clear FMC interrupt flag state
 896:Drivers/GD32F30x_standard_peripheral/Source/gd32f30x_fmc.c ****     \param[in]  flag: FMC interrupt flags, refer to can_interrupt_flag_enum
 897:Drivers/GD32F30x_standard_peripheral/Source/gd32f30x_fmc.c ****                 only one parameter can be selected which is shown as below:
 898:Drivers/GD32F30x_standard_peripheral/Source/gd32f30x_fmc.c ****       \arg        FMC_INT_FLAG_BANK0_PGERR: FMC bank0 operation error interrupt flag bit
 899:Drivers/GD32F30x_standard_peripheral/Source/gd32f30x_fmc.c ****       \arg        FMC_INT_FLAG_BANK0_WPERR: FMC bank0 erase/program protection error interrupt flag
 900:Drivers/GD32F30x_standard_peripheral/Source/gd32f30x_fmc.c ****       \arg        FMC_INT_FLAG_BANK0_END: FMC bank0 end of operation interrupt flag bit
 901:Drivers/GD32F30x_standard_peripheral/Source/gd32f30x_fmc.c ****       \arg        FMC_INT_FLAG_BANK1_PGERR: FMC bank1 operation error interrupt flag bit
 902:Drivers/GD32F30x_standard_peripheral/Source/gd32f30x_fmc.c ****       \arg        FMC_INT_FLAG_BANK1_WPERR: FMC bank1 erase/program protection error interrupt flag
 903:Drivers/GD32F30x_standard_peripheral/Source/gd32f30x_fmc.c ****       \arg        FMC_INT_FLAG_BANK1_END: FMC bank1 end of operation interrupt flag bit
 904:Drivers/GD32F30x_standard_peripheral/Source/gd32f30x_fmc.c ****     \param[out] none
 905:Drivers/GD32F30x_standard_peripheral/Source/gd32f30x_fmc.c ****     \retval     none
 906:Drivers/GD32F30x_standard_peripheral/Source/gd32f30x_fmc.c **** */
 907:Drivers/GD32F30x_standard_peripheral/Source/gd32f30x_fmc.c **** void fmc_interrupt_flag_clear(fmc_interrupt_flag_enum flag)
 908:Drivers/GD32F30x_standard_peripheral/Source/gd32f30x_fmc.c **** {
 785              		.loc 1 908 1 is_stmt 1 view -0
 786              		.cfi_startproc
 787              		@ args = 0, pretend = 0, frame = 0
 788              		@ frame_needed = 0, uses_anonymous_args = 0
 789              		@ link register save eliminated.
 909:Drivers/GD32F30x_standard_peripheral/Source/gd32f30x_fmc.c ****     FMC_REG_VALS(flag) |= BIT(FMC_BIT_POS0(flag));
 790              		.loc 1 909 5 view .LVU165
 791              		.loc 1 909 24 is_stmt 0 view .LVU166
 792 0000 030B     		lsrs	r3, r0, #12
 793 0002 03F18043 		add	r3, r3, #1073741824
 794 0006 03F50833 		add	r3, r3, #139264
 795 000a 1A68     		ldr	r2, [r3]
 796              		.loc 1 909 27 view .LVU167
 797 000c C0F38410 		ubfx	r0, r0, #6, #5
 798              	.LVL26:
 799              		.loc 1 909 27 view .LVU168
 800 0010 0121     		movs	r1, #1
 801 0012 01FA00F0 		lsl	r0, r1, r0
 802              		.loc 1 909 24 view .LVU169
 803 0016 1043     		orrs	r0, r0, r2
 804 0018 1860     		str	r0, [r3]
 910:Drivers/GD32F30x_standard_peripheral/Source/gd32f30x_fmc.c **** }
 805              		.loc 1 910 1 view .LVU170
 806 001a 7047     		bx	lr
 807              		.cfi_endproc
 808              	.LFE146:
 810              		.section	.text.fmc_bank0_state_get,"ax",%progbits
 811              		.align	1
 812              		.global	fmc_bank0_state_get
 813              		.syntax unified
 814              		.thumb
 815              		.thumb_func
 816              		.fpu fpv4-sp-d16
 818              	fmc_bank0_state_get:
 819              	.LFB147:
 911:Drivers/GD32F30x_standard_peripheral/Source/gd32f30x_fmc.c **** 
 912:Drivers/GD32F30x_standard_peripheral/Source/gd32f30x_fmc.c **** /*!
 913:Drivers/GD32F30x_standard_peripheral/Source/gd32f30x_fmc.c ****     \brief      get the FMC bank0 state
 914:Drivers/GD32F30x_standard_peripheral/Source/gd32f30x_fmc.c ****     \param[in]  none
 915:Drivers/GD32F30x_standard_peripheral/Source/gd32f30x_fmc.c ****     \param[out] none
 916:Drivers/GD32F30x_standard_peripheral/Source/gd32f30x_fmc.c ****     \retval     state of FMC, refer to fmc_state_enum
 917:Drivers/GD32F30x_standard_peripheral/Source/gd32f30x_fmc.c **** */
ARM GAS  C:\Users\Prog\AppData\Local\Temp\cclIyEjW.s 			page 31


 918:Drivers/GD32F30x_standard_peripheral/Source/gd32f30x_fmc.c **** fmc_state_enum fmc_bank0_state_get(void)
 919:Drivers/GD32F30x_standard_peripheral/Source/gd32f30x_fmc.c **** {
 820              		.loc 1 919 1 is_stmt 1 view -0
 821              		.cfi_startproc
 822              		@ args = 0, pretend = 0, frame = 0
 823              		@ frame_needed = 0, uses_anonymous_args = 0
 824              		@ link register save eliminated.
 920:Drivers/GD32F30x_standard_peripheral/Source/gd32f30x_fmc.c ****     fmc_state_enum fmc_state = FMC_READY;
 825              		.loc 1 920 5 view .LVU172
 826              	.LVL27:
 921:Drivers/GD32F30x_standard_peripheral/Source/gd32f30x_fmc.c ****   
 922:Drivers/GD32F30x_standard_peripheral/Source/gd32f30x_fmc.c ****     if((uint32_t)0x00U != (FMC_STAT0 & FMC_STAT0_BUSY)){
 827              		.loc 1 922 5 view .LVU173
 828              		.loc 1 922 28 is_stmt 0 view .LVU174
 829 0000 0B4B     		ldr	r3, .L69
 830 0002 DB68     		ldr	r3, [r3, #12]
 831              		.loc 1 922 7 view .LVU175
 832 0004 13F0010F 		tst	r3, #1
 833 0008 0BD1     		bne	.L66
 923:Drivers/GD32F30x_standard_peripheral/Source/gd32f30x_fmc.c ****         fmc_state = FMC_BUSY;
 924:Drivers/GD32F30x_standard_peripheral/Source/gd32f30x_fmc.c ****     }else{
 925:Drivers/GD32F30x_standard_peripheral/Source/gd32f30x_fmc.c ****         if((uint32_t)0x00U != (FMC_STAT0 & FMC_STAT0_WPERR)){
 834              		.loc 1 925 9 is_stmt 1 view .LVU176
 835              		.loc 1 925 32 is_stmt 0 view .LVU177
 836 000a 094B     		ldr	r3, .L69
 837 000c DB68     		ldr	r3, [r3, #12]
 838              		.loc 1 925 11 view .LVU178
 839 000e 13F0100F 		tst	r3, #16
 840 0012 08D1     		bne	.L67
 926:Drivers/GD32F30x_standard_peripheral/Source/gd32f30x_fmc.c ****             fmc_state = FMC_WPERR;
 927:Drivers/GD32F30x_standard_peripheral/Source/gd32f30x_fmc.c ****         }else{
 928:Drivers/GD32F30x_standard_peripheral/Source/gd32f30x_fmc.c ****             if((uint32_t)0x00U != (FMC_STAT0 & (FMC_STAT0_PGERR))){
 841              		.loc 1 928 13 is_stmt 1 view .LVU179
 842              		.loc 1 928 36 is_stmt 0 view .LVU180
 843 0014 064B     		ldr	r3, .L69
 844 0016 DB68     		ldr	r3, [r3, #12]
 845              		.loc 1 928 15 view .LVU181
 846 0018 13F0040F 		tst	r3, #4
 847 001c 05D1     		bne	.L68
 920:Drivers/GD32F30x_standard_peripheral/Source/gd32f30x_fmc.c ****   
 848              		.loc 1 920 20 view .LVU182
 849 001e 0020     		movs	r0, #0
 850 0020 7047     		bx	lr
 851              	.L66:
 923:Drivers/GD32F30x_standard_peripheral/Source/gd32f30x_fmc.c ****         fmc_state = FMC_BUSY;
 852              		.loc 1 923 19 view .LVU183
 853 0022 0120     		movs	r0, #1
 854 0024 7047     		bx	lr
 855              	.L67:
 926:Drivers/GD32F30x_standard_peripheral/Source/gd32f30x_fmc.c ****             fmc_state = FMC_WPERR;
 856              		.loc 1 926 23 view .LVU184
 857 0026 0320     		movs	r0, #3
 858 0028 7047     		bx	lr
 859              	.L68:
 929:Drivers/GD32F30x_standard_peripheral/Source/gd32f30x_fmc.c ****                 fmc_state = FMC_PGERR; 
 860              		.loc 1 929 27 view .LVU185
 861 002a 0220     		movs	r0, #2
ARM GAS  C:\Users\Prog\AppData\Local\Temp\cclIyEjW.s 			page 32


 862              	.LVL28:
 930:Drivers/GD32F30x_standard_peripheral/Source/gd32f30x_fmc.c ****             }
 931:Drivers/GD32F30x_standard_peripheral/Source/gd32f30x_fmc.c ****         }
 932:Drivers/GD32F30x_standard_peripheral/Source/gd32f30x_fmc.c ****     }
 933:Drivers/GD32F30x_standard_peripheral/Source/gd32f30x_fmc.c ****     /* return the FMC state */
 934:Drivers/GD32F30x_standard_peripheral/Source/gd32f30x_fmc.c ****     return fmc_state;
 863              		.loc 1 934 5 is_stmt 1 view .LVU186
 935:Drivers/GD32F30x_standard_peripheral/Source/gd32f30x_fmc.c **** }
 864              		.loc 1 935 1 is_stmt 0 view .LVU187
 865 002c 7047     		bx	lr
 866              	.L70:
 867 002e 00BF     		.align	2
 868              	.L69:
 869 0030 00200240 		.word	1073881088
 870              		.cfi_endproc
 871              	.LFE147:
 873              		.section	.text.fmc_bank1_state_get,"ax",%progbits
 874              		.align	1
 875              		.global	fmc_bank1_state_get
 876              		.syntax unified
 877              		.thumb
 878              		.thumb_func
 879              		.fpu fpv4-sp-d16
 881              	fmc_bank1_state_get:
 882              	.LFB148:
 936:Drivers/GD32F30x_standard_peripheral/Source/gd32f30x_fmc.c **** 
 937:Drivers/GD32F30x_standard_peripheral/Source/gd32f30x_fmc.c **** /*!
 938:Drivers/GD32F30x_standard_peripheral/Source/gd32f30x_fmc.c ****     \brief      get the FMC bank1 state
 939:Drivers/GD32F30x_standard_peripheral/Source/gd32f30x_fmc.c ****     \param[in]  none
 940:Drivers/GD32F30x_standard_peripheral/Source/gd32f30x_fmc.c ****     \param[out] none
 941:Drivers/GD32F30x_standard_peripheral/Source/gd32f30x_fmc.c ****     \retval     state of FMC, refer to fmc_state_enum
 942:Drivers/GD32F30x_standard_peripheral/Source/gd32f30x_fmc.c **** */
 943:Drivers/GD32F30x_standard_peripheral/Source/gd32f30x_fmc.c **** fmc_state_enum fmc_bank1_state_get(void)
 944:Drivers/GD32F30x_standard_peripheral/Source/gd32f30x_fmc.c **** {
 883              		.loc 1 944 1 is_stmt 1 view -0
 884              		.cfi_startproc
 885              		@ args = 0, pretend = 0, frame = 0
 886              		@ frame_needed = 0, uses_anonymous_args = 0
 887              		@ link register save eliminated.
 945:Drivers/GD32F30x_standard_peripheral/Source/gd32f30x_fmc.c ****     fmc_state_enum fmc_state = FMC_READY;
 888              		.loc 1 945 5 view .LVU189
 889              	.LVL29:
 946:Drivers/GD32F30x_standard_peripheral/Source/gd32f30x_fmc.c **** 
 947:Drivers/GD32F30x_standard_peripheral/Source/gd32f30x_fmc.c ****     if((uint32_t)0x00U != (FMC_STAT1 & FMC_STAT1_BUSY)){
 890              		.loc 1 947 5 view .LVU190
 891              		.loc 1 947 28 is_stmt 0 view .LVU191
 892 0000 0B4B     		ldr	r3, .L76
 893 0002 DB6C     		ldr	r3, [r3, #76]
 894              		.loc 1 947 7 view .LVU192
 895 0004 13F0010F 		tst	r3, #1
 896 0008 0BD1     		bne	.L73
 948:Drivers/GD32F30x_standard_peripheral/Source/gd32f30x_fmc.c ****         fmc_state = FMC_BUSY;
 949:Drivers/GD32F30x_standard_peripheral/Source/gd32f30x_fmc.c ****     }else{
 950:Drivers/GD32F30x_standard_peripheral/Source/gd32f30x_fmc.c ****         if((uint32_t)0x00U != (FMC_STAT1 & FMC_STAT1_WPERR)){
 897              		.loc 1 950 9 is_stmt 1 view .LVU193
 898              		.loc 1 950 32 is_stmt 0 view .LVU194
 899 000a 094B     		ldr	r3, .L76
ARM GAS  C:\Users\Prog\AppData\Local\Temp\cclIyEjW.s 			page 33


 900 000c DB6C     		ldr	r3, [r3, #76]
 901              		.loc 1 950 11 view .LVU195
 902 000e 13F0100F 		tst	r3, #16
 903 0012 08D1     		bne	.L74
 951:Drivers/GD32F30x_standard_peripheral/Source/gd32f30x_fmc.c ****             fmc_state = FMC_WPERR;
 952:Drivers/GD32F30x_standard_peripheral/Source/gd32f30x_fmc.c ****         }else{
 953:Drivers/GD32F30x_standard_peripheral/Source/gd32f30x_fmc.c ****             if((uint32_t)0x00U != (FMC_STAT1 & FMC_STAT1_PGERR)){
 904              		.loc 1 953 13 is_stmt 1 view .LVU196
 905              		.loc 1 953 36 is_stmt 0 view .LVU197
 906 0014 064B     		ldr	r3, .L76
 907 0016 DB6C     		ldr	r3, [r3, #76]
 908              		.loc 1 953 15 view .LVU198
 909 0018 13F0040F 		tst	r3, #4
 910 001c 05D1     		bne	.L75
 945:Drivers/GD32F30x_standard_peripheral/Source/gd32f30x_fmc.c **** 
 911              		.loc 1 945 20 view .LVU199
 912 001e 0020     		movs	r0, #0
 913 0020 7047     		bx	lr
 914              	.L73:
 948:Drivers/GD32F30x_standard_peripheral/Source/gd32f30x_fmc.c ****         fmc_state = FMC_BUSY;
 915              		.loc 1 948 19 view .LVU200
 916 0022 0120     		movs	r0, #1
 917 0024 7047     		bx	lr
 918              	.L74:
 951:Drivers/GD32F30x_standard_peripheral/Source/gd32f30x_fmc.c ****             fmc_state = FMC_WPERR;
 919              		.loc 1 951 23 view .LVU201
 920 0026 0320     		movs	r0, #3
 921 0028 7047     		bx	lr
 922              	.L75:
 954:Drivers/GD32F30x_standard_peripheral/Source/gd32f30x_fmc.c ****                 fmc_state = FMC_PGERR; 
 923              		.loc 1 954 27 view .LVU202
 924 002a 0220     		movs	r0, #2
 925              	.LVL30:
 955:Drivers/GD32F30x_standard_peripheral/Source/gd32f30x_fmc.c ****             }
 956:Drivers/GD32F30x_standard_peripheral/Source/gd32f30x_fmc.c ****         }
 957:Drivers/GD32F30x_standard_peripheral/Source/gd32f30x_fmc.c ****     }
 958:Drivers/GD32F30x_standard_peripheral/Source/gd32f30x_fmc.c **** 
 959:Drivers/GD32F30x_standard_peripheral/Source/gd32f30x_fmc.c ****     /* return the FMC state */
 960:Drivers/GD32F30x_standard_peripheral/Source/gd32f30x_fmc.c ****     return fmc_state;
 926              		.loc 1 960 5 is_stmt 1 view .LVU203
 961:Drivers/GD32F30x_standard_peripheral/Source/gd32f30x_fmc.c **** }
 927              		.loc 1 961 1 is_stmt 0 view .LVU204
 928 002c 7047     		bx	lr
 929              	.L77:
 930 002e 00BF     		.align	2
 931              	.L76:
 932 0030 00200240 		.word	1073881088
 933              		.cfi_endproc
 934              	.LFE148:
 936              		.section	.text.fmc_bank0_ready_wait,"ax",%progbits
 937              		.align	1
 938              		.global	fmc_bank0_ready_wait
 939              		.syntax unified
 940              		.thumb
 941              		.thumb_func
 942              		.fpu fpv4-sp-d16
 944              	fmc_bank0_ready_wait:
ARM GAS  C:\Users\Prog\AppData\Local\Temp\cclIyEjW.s 			page 34


 945              	.LVL31:
 946              	.LFB149:
 962:Drivers/GD32F30x_standard_peripheral/Source/gd32f30x_fmc.c **** 
 963:Drivers/GD32F30x_standard_peripheral/Source/gd32f30x_fmc.c **** /*!
 964:Drivers/GD32F30x_standard_peripheral/Source/gd32f30x_fmc.c ****     \brief      check whether FMC bank0 is ready or not
 965:Drivers/GD32F30x_standard_peripheral/Source/gd32f30x_fmc.c ****     \param[in]  timeout: count of loop
 966:Drivers/GD32F30x_standard_peripheral/Source/gd32f30x_fmc.c ****     \param[out] none
 967:Drivers/GD32F30x_standard_peripheral/Source/gd32f30x_fmc.c ****     \retval     state of FMC, refer to fmc_state_enum
 968:Drivers/GD32F30x_standard_peripheral/Source/gd32f30x_fmc.c **** */
 969:Drivers/GD32F30x_standard_peripheral/Source/gd32f30x_fmc.c **** fmc_state_enum fmc_bank0_ready_wait(uint32_t timeout)
 970:Drivers/GD32F30x_standard_peripheral/Source/gd32f30x_fmc.c **** {
 947              		.loc 1 970 1 is_stmt 1 view -0
 948              		.cfi_startproc
 949              		@ args = 0, pretend = 0, frame = 0
 950              		@ frame_needed = 0, uses_anonymous_args = 0
 951              		.loc 1 970 1 is_stmt 0 view .LVU206
 952 0000 10B5     		push	{r4, lr}
 953              	.LCFI0:
 954              		.cfi_def_cfa_offset 8
 955              		.cfi_offset 4, -8
 956              		.cfi_offset 14, -4
 957 0002 0446     		mov	r4, r0
 971:Drivers/GD32F30x_standard_peripheral/Source/gd32f30x_fmc.c ****     fmc_state_enum fmc_state = FMC_BUSY;
 958              		.loc 1 971 5 is_stmt 1 view .LVU207
 959              	.LVL32:
 960              	.L80:
 972:Drivers/GD32F30x_standard_peripheral/Source/gd32f30x_fmc.c ****   
 973:Drivers/GD32F30x_standard_peripheral/Source/gd32f30x_fmc.c ****     /* wait for FMC ready */
 974:Drivers/GD32F30x_standard_peripheral/Source/gd32f30x_fmc.c ****     do{
 961              		.loc 1 974 5 discriminator 2 view .LVU208
 975:Drivers/GD32F30x_standard_peripheral/Source/gd32f30x_fmc.c ****         /* get FMC state */
 976:Drivers/GD32F30x_standard_peripheral/Source/gd32f30x_fmc.c ****         fmc_state = fmc_bank0_state_get();
 962              		.loc 1 976 9 discriminator 2 view .LVU209
 963              		.loc 1 976 21 is_stmt 0 discriminator 2 view .LVU210
 964 0004 FFF7FEFF 		bl	fmc_bank0_state_get
 965              	.LVL33:
 977:Drivers/GD32F30x_standard_peripheral/Source/gd32f30x_fmc.c ****         timeout--;
 966              		.loc 1 977 9 is_stmt 1 discriminator 2 view .LVU211
 967              		.loc 1 977 16 is_stmt 0 discriminator 2 view .LVU212
 968 0008 013C     		subs	r4, r4, #1
 969              	.LVL34:
 978:Drivers/GD32F30x_standard_peripheral/Source/gd32f30x_fmc.c ****     }while((FMC_BUSY == fmc_state) && (0x00U != timeout));
 970              		.loc 1 978 11 is_stmt 1 discriminator 2 view .LVU213
 971              		.loc 1 978 5 is_stmt 0 discriminator 2 view .LVU214
 972 000a 0128     		cmp	r0, #1
 973 000c 01D1     		bne	.L79
 974              		.loc 1 978 36 discriminator 1 view .LVU215
 975 000e 002C     		cmp	r4, #0
 976 0010 F8D1     		bne	.L80
 977              	.L79:
 979:Drivers/GD32F30x_standard_peripheral/Source/gd32f30x_fmc.c ****     
 980:Drivers/GD32F30x_standard_peripheral/Source/gd32f30x_fmc.c ****     if(FMC_BUSY == fmc_state){
 978              		.loc 1 980 5 is_stmt 1 view .LVU216
 979              		.loc 1 980 7 is_stmt 0 view .LVU217
 980 0012 0128     		cmp	r0, #1
 981 0014 00D0     		beq	.L84
 982              	.LVL35:
ARM GAS  C:\Users\Prog\AppData\Local\Temp\cclIyEjW.s 			page 35


 983              	.L81:
 981:Drivers/GD32F30x_standard_peripheral/Source/gd32f30x_fmc.c ****         fmc_state = FMC_TOERR;
 982:Drivers/GD32F30x_standard_peripheral/Source/gd32f30x_fmc.c ****     }
 983:Drivers/GD32F30x_standard_peripheral/Source/gd32f30x_fmc.c ****     /* return the FMC state */
 984:Drivers/GD32F30x_standard_peripheral/Source/gd32f30x_fmc.c ****     return fmc_state;
 984              		.loc 1 984 5 is_stmt 1 view .LVU218
 985:Drivers/GD32F30x_standard_peripheral/Source/gd32f30x_fmc.c **** }
 985              		.loc 1 985 1 is_stmt 0 view .LVU219
 986 0016 10BD     		pop	{r4, pc}
 987              	.LVL36:
 988              	.L84:
 981:Drivers/GD32F30x_standard_peripheral/Source/gd32f30x_fmc.c ****         fmc_state = FMC_TOERR;
 989              		.loc 1 981 19 view .LVU220
 990 0018 0420     		movs	r0, #4
 991              	.LVL37:
 981:Drivers/GD32F30x_standard_peripheral/Source/gd32f30x_fmc.c ****         fmc_state = FMC_TOERR;
 992              		.loc 1 981 19 view .LVU221
 993 001a FCE7     		b	.L81
 994              		.cfi_endproc
 995              	.LFE149:
 997              		.section	.text.fmc_bank0_erase,"ax",%progbits
 998              		.align	1
 999              		.global	fmc_bank0_erase
 1000              		.syntax unified
 1001              		.thumb
 1002              		.thumb_func
 1003              		.fpu fpv4-sp-d16
 1005              	fmc_bank0_erase:
 1006              	.LFB125:
 275:Drivers/GD32F30x_standard_peripheral/Source/gd32f30x_fmc.c ****     fmc_state_enum fmc_state = FMC_READY;
 1007              		.loc 1 275 1 is_stmt 1 view -0
 1008              		.cfi_startproc
 1009              		@ args = 0, pretend = 0, frame = 0
 1010              		@ frame_needed = 0, uses_anonymous_args = 0
 1011 0000 10B5     		push	{r4, lr}
 1012              	.LCFI1:
 1013              		.cfi_def_cfa_offset 8
 1014              		.cfi_offset 4, -8
 1015              		.cfi_offset 14, -4
 276:Drivers/GD32F30x_standard_peripheral/Source/gd32f30x_fmc.c ****     /* wait for the FMC ready */
 1016              		.loc 1 276 5 view .LVU223
 1017              	.LVL38:
 278:Drivers/GD32F30x_standard_peripheral/Source/gd32f30x_fmc.c **** 
 1018              		.loc 1 278 5 view .LVU224
 278:Drivers/GD32F30x_standard_peripheral/Source/gd32f30x_fmc.c **** 
 1019              		.loc 1 278 17 is_stmt 0 view .LVU225
 1020 0002 0B48     		ldr	r0, .L89
 1021 0004 FFF7FEFF 		bl	fmc_bank0_ready_wait
 1022              	.LVL39:
 280:Drivers/GD32F30x_standard_peripheral/Source/gd32f30x_fmc.c ****         /* start FMC bank0 erase */
 1023              		.loc 1 280 5 is_stmt 1 view .LVU226
 280:Drivers/GD32F30x_standard_peripheral/Source/gd32f30x_fmc.c ****         /* start FMC bank0 erase */
 1024              		.loc 1 280 7 is_stmt 0 view .LVU227
 1025 0008 00B1     		cbz	r0, .L88
 1026              	.L86:
 1027              	.LVL40:
 290:Drivers/GD32F30x_standard_peripheral/Source/gd32f30x_fmc.c **** }
ARM GAS  C:\Users\Prog\AppData\Local\Temp\cclIyEjW.s 			page 36


 1028              		.loc 1 290 5 is_stmt 1 view .LVU228
 291:Drivers/GD32F30x_standard_peripheral/Source/gd32f30x_fmc.c **** 
 1029              		.loc 1 291 1 is_stmt 0 view .LVU229
 1030 000a 10BD     		pop	{r4, pc}
 1031              	.LVL41:
 1032              	.L88:
 282:Drivers/GD32F30x_standard_peripheral/Source/gd32f30x_fmc.c ****         FMC_CTL0 |= FMC_CTL0_START;
 1033              		.loc 1 282 9 is_stmt 1 view .LVU230
 282:Drivers/GD32F30x_standard_peripheral/Source/gd32f30x_fmc.c ****         FMC_CTL0 |= FMC_CTL0_START;
 1034              		.loc 1 282 18 is_stmt 0 view .LVU231
 1035 000c 094C     		ldr	r4, .L89+4
 1036 000e 2369     		ldr	r3, [r4, #16]
 1037 0010 43F00403 		orr	r3, r3, #4
 1038 0014 2361     		str	r3, [r4, #16]
 283:Drivers/GD32F30x_standard_peripheral/Source/gd32f30x_fmc.c ****         /* wait for the FMC ready */
 1039              		.loc 1 283 9 is_stmt 1 view .LVU232
 283:Drivers/GD32F30x_standard_peripheral/Source/gd32f30x_fmc.c ****         /* wait for the FMC ready */
 1040              		.loc 1 283 18 is_stmt 0 view .LVU233
 1041 0016 2369     		ldr	r3, [r4, #16]
 1042 0018 43F04003 		orr	r3, r3, #64
 1043 001c 2361     		str	r3, [r4, #16]
 285:Drivers/GD32F30x_standard_peripheral/Source/gd32f30x_fmc.c ****         /* reset the MER bit */
 1044              		.loc 1 285 9 is_stmt 1 view .LVU234
 285:Drivers/GD32F30x_standard_peripheral/Source/gd32f30x_fmc.c ****         /* reset the MER bit */
 1045              		.loc 1 285 21 is_stmt 0 view .LVU235
 1046 001e 0448     		ldr	r0, .L89
 1047 0020 FFF7FEFF 		bl	fmc_bank0_ready_wait
 1048              	.LVL42:
 287:Drivers/GD32F30x_standard_peripheral/Source/gd32f30x_fmc.c ****     }
 1049              		.loc 1 287 9 is_stmt 1 view .LVU236
 287:Drivers/GD32F30x_standard_peripheral/Source/gd32f30x_fmc.c ****     }
 1050              		.loc 1 287 18 is_stmt 0 view .LVU237
 1051 0024 2369     		ldr	r3, [r4, #16]
 1052 0026 23F00403 		bic	r3, r3, #4
 1053 002a 2361     		str	r3, [r4, #16]
 1054 002c EDE7     		b	.L86
 1055              	.L90:
 1056 002e 00BF     		.align	2
 1057              	.L89:
 1058 0030 0000FF0F 		.word	268369920
 1059 0034 00200240 		.word	1073881088
 1060              		.cfi_endproc
 1061              	.LFE125:
 1063              		.section	.text.ob_erase,"ax",%progbits
 1064              		.align	1
 1065              		.global	ob_erase
 1066              		.syntax unified
 1067              		.thumb
 1068              		.thumb_func
 1069              		.fpu fpv4-sp-d16
 1071              	ob_erase:
 1072              	.LFB132:
 512:Drivers/GD32F30x_standard_peripheral/Source/gd32f30x_fmc.c ****     uint16_t temp_spc = FMC_NSPC;
 1073              		.loc 1 512 1 is_stmt 1 view -0
 1074              		.cfi_startproc
 1075              		@ args = 0, pretend = 0, frame = 0
 1076              		@ frame_needed = 0, uses_anonymous_args = 0
ARM GAS  C:\Users\Prog\AppData\Local\Temp\cclIyEjW.s 			page 37


 1077 0000 38B5     		push	{r3, r4, r5, lr}
 1078              	.LCFI2:
 1079              		.cfi_def_cfa_offset 16
 1080              		.cfi_offset 3, -16
 1081              		.cfi_offset 4, -12
 1082              		.cfi_offset 5, -8
 1083              		.cfi_offset 14, -4
 513:Drivers/GD32F30x_standard_peripheral/Source/gd32f30x_fmc.c **** 
 1084              		.loc 1 513 5 view .LVU239
 1085              	.LVL43:
 515:Drivers/GD32F30x_standard_peripheral/Source/gd32f30x_fmc.c **** 
 1086              		.loc 1 515 5 view .LVU240
 515:Drivers/GD32F30x_standard_peripheral/Source/gd32f30x_fmc.c **** 
 1087              		.loc 1 515 32 is_stmt 0 view .LVU241
 1088 0002 1D48     		ldr	r0, .L99
 1089 0004 FFF7FEFF 		bl	fmc_bank0_ready_wait
 1090              	.LVL44:
 1091 0008 0446     		mov	r4, r0
 1092              	.LVL45:
 518:Drivers/GD32F30x_standard_peripheral/Source/gd32f30x_fmc.c ****         temp_spc = FMC_USPC;  
 1093              		.loc 1 518 5 is_stmt 1 view .LVU242
 518:Drivers/GD32F30x_standard_peripheral/Source/gd32f30x_fmc.c ****         temp_spc = FMC_USPC;  
 1094              		.loc 1 518 17 is_stmt 0 view .LVU243
 1095 000a FFF7FEFF 		bl	ob_spc_get
 1096              	.LVL46:
 518:Drivers/GD32F30x_standard_peripheral/Source/gd32f30x_fmc.c ****         temp_spc = FMC_USPC;  
 1097              		.loc 1 518 7 view .LVU244
 1098 000e 18B9     		cbnz	r0, .L95
 513:Drivers/GD32F30x_standard_peripheral/Source/gd32f30x_fmc.c **** 
 1099              		.loc 1 513 14 view .LVU245
 1100 0010 A525     		movs	r5, #165
 1101              	.L92:
 1102              	.LVL47:
 522:Drivers/GD32F30x_standard_peripheral/Source/gd32f30x_fmc.c **** 
 1103              		.loc 1 522 5 is_stmt 1 view .LVU246
 522:Drivers/GD32F30x_standard_peripheral/Source/gd32f30x_fmc.c **** 
 1104              		.loc 1 522 7 is_stmt 0 view .LVU247
 1105 0012 1CB1     		cbz	r4, .L97
 1106              	.LVL48:
 1107              	.L93:
 552:Drivers/GD32F30x_standard_peripheral/Source/gd32f30x_fmc.c **** }
 1108              		.loc 1 552 5 is_stmt 1 view .LVU248
 553:Drivers/GD32F30x_standard_peripheral/Source/gd32f30x_fmc.c **** 
 1109              		.loc 1 553 1 is_stmt 0 view .LVU249
 1110 0014 2046     		mov	r0, r4
 1111 0016 38BD     		pop	{r3, r4, r5, pc}
 1112              	.LVL49:
 1113              	.L95:
 519:Drivers/GD32F30x_standard_peripheral/Source/gd32f30x_fmc.c ****     }
 1114              		.loc 1 519 18 view .LVU250
 1115 0018 BB25     		movs	r5, #187
 1116 001a FAE7     		b	.L92
 1117              	.LVL50:
 1118              	.L97:
 525:Drivers/GD32F30x_standard_peripheral/Source/gd32f30x_fmc.c ****         FMC_CTL0 |= FMC_CTL0_START;
 1119              		.loc 1 525 9 is_stmt 1 view .LVU251
 525:Drivers/GD32F30x_standard_peripheral/Source/gd32f30x_fmc.c ****         FMC_CTL0 |= FMC_CTL0_START;
ARM GAS  C:\Users\Prog\AppData\Local\Temp\cclIyEjW.s 			page 38


 1120              		.loc 1 525 18 is_stmt 0 view .LVU252
 1121 001c 174B     		ldr	r3, .L99+4
 1122 001e 1A69     		ldr	r2, [r3, #16]
 1123 0020 42F02002 		orr	r2, r2, #32
 1124 0024 1A61     		str	r2, [r3, #16]
 526:Drivers/GD32F30x_standard_peripheral/Source/gd32f30x_fmc.c **** 
 1125              		.loc 1 526 9 is_stmt 1 view .LVU253
 526:Drivers/GD32F30x_standard_peripheral/Source/gd32f30x_fmc.c **** 
 1126              		.loc 1 526 18 is_stmt 0 view .LVU254
 1127 0026 1A69     		ldr	r2, [r3, #16]
 1128 0028 42F04002 		orr	r2, r2, #64
 1129 002c 1A61     		str	r2, [r3, #16]
 529:Drivers/GD32F30x_standard_peripheral/Source/gd32f30x_fmc.c ****     
 1130              		.loc 1 529 9 is_stmt 1 view .LVU255
 529:Drivers/GD32F30x_standard_peripheral/Source/gd32f30x_fmc.c ****     
 1131              		.loc 1 529 21 is_stmt 0 view .LVU256
 1132 002e 1248     		ldr	r0, .L99
 1133 0030 FFF7FEFF 		bl	fmc_bank0_ready_wait
 1134              	.LVL51:
 531:Drivers/GD32F30x_standard_peripheral/Source/gd32f30x_fmc.c ****             /* reset the OBER bit */
 1135              		.loc 1 531 9 is_stmt 1 view .LVU257
 531:Drivers/GD32F30x_standard_peripheral/Source/gd32f30x_fmc.c ****             /* reset the OBER bit */
 1136              		.loc 1 531 11 is_stmt 0 view .LVU258
 1137 0034 0446     		mov	r4, r0
 1138 0036 38B1     		cbz	r0, .L98
 545:Drivers/GD32F30x_standard_peripheral/Source/gd32f30x_fmc.c ****                 /* reset the OBPG bit */
 1139              		.loc 1 545 13 is_stmt 1 view .LVU259
 545:Drivers/GD32F30x_standard_peripheral/Source/gd32f30x_fmc.c ****                 /* reset the OBPG bit */
 1140              		.loc 1 545 15 is_stmt 0 view .LVU260
 1141 0038 0428     		cmp	r0, #4
 1142 003a EBD0     		beq	.L93
 547:Drivers/GD32F30x_standard_peripheral/Source/gd32f30x_fmc.c ****             }
 1143              		.loc 1 547 17 is_stmt 1 view .LVU261
 547:Drivers/GD32F30x_standard_peripheral/Source/gd32f30x_fmc.c ****             }
 1144              		.loc 1 547 26 is_stmt 0 view .LVU262
 1145 003c 0F4A     		ldr	r2, .L99+4
 1146 003e 1369     		ldr	r3, [r2, #16]
 1147 0040 23F01003 		bic	r3, r3, #16
 1148 0044 1361     		str	r3, [r2, #16]
 1149 0046 E5E7     		b	.L93
 1150              	.L98:
 533:Drivers/GD32F30x_standard_peripheral/Source/gd32f30x_fmc.c ****             /* set the OBPG bit */
 1151              		.loc 1 533 13 is_stmt 1 view .LVU263
 533:Drivers/GD32F30x_standard_peripheral/Source/gd32f30x_fmc.c ****             /* set the OBPG bit */
 1152              		.loc 1 533 22 is_stmt 0 view .LVU264
 1153 0048 0C4B     		ldr	r3, .L99+4
 1154 004a 1A69     		ldr	r2, [r3, #16]
 1155 004c 22F02002 		bic	r2, r2, #32
 1156 0050 1A61     		str	r2, [r3, #16]
 535:Drivers/GD32F30x_standard_peripheral/Source/gd32f30x_fmc.c ****             /* no security protection */
 1157              		.loc 1 535 13 is_stmt 1 view .LVU265
 535:Drivers/GD32F30x_standard_peripheral/Source/gd32f30x_fmc.c ****             /* no security protection */
 1158              		.loc 1 535 22 is_stmt 0 view .LVU266
 1159 0052 1A69     		ldr	r2, [r3, #16]
 1160 0054 42F01002 		orr	r2, r2, #16
 1161 0058 1A61     		str	r2, [r3, #16]
 537:Drivers/GD32F30x_standard_peripheral/Source/gd32f30x_fmc.c ****             /* wait for the FMC ready */
ARM GAS  C:\Users\Prog\AppData\Local\Temp\cclIyEjW.s 			page 39


 1162              		.loc 1 537 13 is_stmt 1 view .LVU267
 537:Drivers/GD32F30x_standard_peripheral/Source/gd32f30x_fmc.c ****             /* wait for the FMC ready */
 1163              		.loc 1 537 20 is_stmt 0 view .LVU268
 1164 005a 094B     		ldr	r3, .L99+8
 1165 005c 1D80     		strh	r5, [r3]	@ movhi
 539:Drivers/GD32F30x_standard_peripheral/Source/gd32f30x_fmc.c ****             if(FMC_TOERR != fmc_state){
 1166              		.loc 1 539 13 is_stmt 1 view .LVU269
 539:Drivers/GD32F30x_standard_peripheral/Source/gd32f30x_fmc.c ****             if(FMC_TOERR != fmc_state){
 1167              		.loc 1 539 25 is_stmt 0 view .LVU270
 1168 005e 0648     		ldr	r0, .L99
 1169              	.LVL52:
 539:Drivers/GD32F30x_standard_peripheral/Source/gd32f30x_fmc.c ****             if(FMC_TOERR != fmc_state){
 1170              		.loc 1 539 25 view .LVU271
 1171 0060 FFF7FEFF 		bl	fmc_bank0_ready_wait
 1172              	.LVL53:
 1173 0064 0446     		mov	r4, r0
 1174              	.LVL54:
 540:Drivers/GD32F30x_standard_peripheral/Source/gd32f30x_fmc.c ****                 /* reset the OBPG bit */
 1175              		.loc 1 540 13 is_stmt 1 view .LVU272
 540:Drivers/GD32F30x_standard_peripheral/Source/gd32f30x_fmc.c ****                 /* reset the OBPG bit */
 1176              		.loc 1 540 15 is_stmt 0 view .LVU273
 1177 0066 0428     		cmp	r0, #4
 1178 0068 D4D0     		beq	.L93
 542:Drivers/GD32F30x_standard_peripheral/Source/gd32f30x_fmc.c ****             }
 1179              		.loc 1 542 17 is_stmt 1 view .LVU274
 542:Drivers/GD32F30x_standard_peripheral/Source/gd32f30x_fmc.c ****             }
 1180              		.loc 1 542 26 is_stmt 0 view .LVU275
 1181 006a 044A     		ldr	r2, .L99+4
 1182 006c 1369     		ldr	r3, [r2, #16]
 1183 006e 23F01003 		bic	r3, r3, #16
 1184 0072 1361     		str	r3, [r2, #16]
 1185 0074 CEE7     		b	.L93
 1186              	.L100:
 1187 0076 00BF     		.align	2
 1188              	.L99:
 1189 0078 0000FF0F 		.word	268369920
 1190 007c 00200240 		.word	1073881088
 1191 0080 00F8FF1F 		.word	536868864
 1192              		.cfi_endproc
 1193              	.LFE132:
 1195              		.section	.text.ob_write_protection_enable,"ax",%progbits
 1196              		.align	1
 1197              		.global	ob_write_protection_enable
 1198              		.syntax unified
 1199              		.thumb
 1200              		.thumb_func
 1201              		.fpu fpv4-sp-d16
 1203              	ob_write_protection_enable:
 1204              	.LVL55:
 1205              	.LFB133:
 564:Drivers/GD32F30x_standard_peripheral/Source/gd32f30x_fmc.c ****     uint16_t temp_wp0, temp_wp1, temp_wp2, temp_wp3;
 1206              		.loc 1 564 1 is_stmt 1 view -0
 1207              		.cfi_startproc
 1208              		@ args = 0, pretend = 0, frame = 0
 1209              		@ frame_needed = 0, uses_anonymous_args = 0
 564:Drivers/GD32F30x_standard_peripheral/Source/gd32f30x_fmc.c ****     uint16_t temp_wp0, temp_wp1, temp_wp2, temp_wp3;
 1210              		.loc 1 564 1 is_stmt 0 view .LVU277
ARM GAS  C:\Users\Prog\AppData\Local\Temp\cclIyEjW.s 			page 40


 1211 0000 70B5     		push	{r4, r5, r6, lr}
 1212              	.LCFI3:
 1213              		.cfi_def_cfa_offset 16
 1214              		.cfi_offset 4, -16
 1215              		.cfi_offset 5, -12
 1216              		.cfi_offset 6, -8
 1217              		.cfi_offset 14, -4
 1218 0002 0446     		mov	r4, r0
 565:Drivers/GD32F30x_standard_peripheral/Source/gd32f30x_fmc.c **** 
 1219              		.loc 1 565 5 is_stmt 1 view .LVU278
 567:Drivers/GD32F30x_standard_peripheral/Source/gd32f30x_fmc.c **** 
 1220              		.loc 1 567 5 view .LVU279
 567:Drivers/GD32F30x_standard_peripheral/Source/gd32f30x_fmc.c **** 
 1221              		.loc 1 567 32 is_stmt 0 view .LVU280
 1222 0004 1D48     		ldr	r0, .L112
 1223              	.LVL56:
 567:Drivers/GD32F30x_standard_peripheral/Source/gd32f30x_fmc.c **** 
 1224              		.loc 1 567 32 view .LVU281
 1225 0006 FFF7FEFF 		bl	fmc_bank0_ready_wait
 1226              	.LVL57:
 569:Drivers/GD32F30x_standard_peripheral/Source/gd32f30x_fmc.c ****     temp_wp0 = (uint16_t)(ob_wp & OB_WP0_WP0);
 1227              		.loc 1 569 5 is_stmt 1 view .LVU282
 569:Drivers/GD32F30x_standard_peripheral/Source/gd32f30x_fmc.c ****     temp_wp0 = (uint16_t)(ob_wp & OB_WP0_WP0);
 1228              		.loc 1 569 11 is_stmt 0 view .LVU283
 1229 000a E343     		mvns	r3, r4
 1230              	.LVL58:
 570:Drivers/GD32F30x_standard_peripheral/Source/gd32f30x_fmc.c ****     temp_wp1 = (uint16_t)((ob_wp & OB_WP1_WP1) >> 8U);
 1231              		.loc 1 570 5 is_stmt 1 view .LVU284
 571:Drivers/GD32F30x_standard_peripheral/Source/gd32f30x_fmc.c ****     temp_wp2 = (uint16_t)((ob_wp & OB_WP2_WP2) >> 16U);
 1232              		.loc 1 571 5 view .LVU285
 571:Drivers/GD32F30x_standard_peripheral/Source/gd32f30x_fmc.c ****     temp_wp2 = (uint16_t)((ob_wp & OB_WP2_WP2) >> 16U);
 1233              		.loc 1 571 14 is_stmt 0 view .LVU286
 1234 000c C3F30726 		ubfx	r6, r3, #8, #8
 1235              	.LVL59:
 572:Drivers/GD32F30x_standard_peripheral/Source/gd32f30x_fmc.c ****     temp_wp3 = (uint16_t)((ob_wp & OB_WP3_WP3) >> 24U);
 1236              		.loc 1 572 5 is_stmt 1 view .LVU287
 572:Drivers/GD32F30x_standard_peripheral/Source/gd32f30x_fmc.c ****     temp_wp3 = (uint16_t)((ob_wp & OB_WP3_WP3) >> 24U);
 1237              		.loc 1 572 14 is_stmt 0 view .LVU288
 1238 0010 C3F30745 		ubfx	r5, r3, #16, #8
 1239              	.LVL60:
 573:Drivers/GD32F30x_standard_peripheral/Source/gd32f30x_fmc.c **** 
 1240              		.loc 1 573 5 is_stmt 1 view .LVU289
 575:Drivers/GD32F30x_standard_peripheral/Source/gd32f30x_fmc.c ****     
 1241              		.loc 1 575 5 view .LVU290
 575:Drivers/GD32F30x_standard_peripheral/Source/gd32f30x_fmc.c ****     
 1242              		.loc 1 575 7 is_stmt 0 view .LVU291
 1243 0014 C0B9     		cbnz	r0, .L102
 1244 0016 D9B2     		uxtb	r1, r3
 1245 0018 1C0E     		lsrs	r4, r3, #24
 578:Drivers/GD32F30x_standard_peripheral/Source/gd32f30x_fmc.c **** 
 1246              		.loc 1 578 9 is_stmt 1 view .LVU292
 578:Drivers/GD32F30x_standard_peripheral/Source/gd32f30x_fmc.c **** 
 1247              		.loc 1 578 18 is_stmt 0 view .LVU293
 1248 001a 194A     		ldr	r2, .L112+4
 1249 001c 1369     		ldr	r3, [r2, #16]
 1250              	.LVL61:
 578:Drivers/GD32F30x_standard_peripheral/Source/gd32f30x_fmc.c **** 
ARM GAS  C:\Users\Prog\AppData\Local\Temp\cclIyEjW.s 			page 41


 1251              		.loc 1 578 18 view .LVU294
 1252 001e 43F01003 		orr	r3, r3, #16
 1253 0022 1361     		str	r3, [r2, #16]
 580:Drivers/GD32F30x_standard_peripheral/Source/gd32f30x_fmc.c ****             OB_WP0 = temp_wp0;
 1254              		.loc 1 580 9 is_stmt 1 view .LVU295
 580:Drivers/GD32F30x_standard_peripheral/Source/gd32f30x_fmc.c ****             OB_WP0 = temp_wp0;
 1255              		.loc 1 580 11 is_stmt 0 view .LVU296
 1256 0024 FF29     		cmp	r1, #255
 1257 0026 10D1     		bne	.L108
 1258              	.LVL62:
 1259              	.L103:
 586:Drivers/GD32F30x_standard_peripheral/Source/gd32f30x_fmc.c ****             OB_WP1 = temp_wp1;
 1260              		.loc 1 586 9 is_stmt 1 view .LVU297
 586:Drivers/GD32F30x_standard_peripheral/Source/gd32f30x_fmc.c ****             OB_WP1 = temp_wp1;
 1261              		.loc 1 586 11 is_stmt 0 view .LVU298
 1262 0028 08B9     		cbnz	r0, .L104
 586:Drivers/GD32F30x_standard_peripheral/Source/gd32f30x_fmc.c ****             OB_WP1 = temp_wp1;
 1263              		.loc 1 586 37 discriminator 1 view .LVU299
 1264 002a FF2E     		cmp	r6, #255
 1265 002c 13D1     		bne	.L109
 1266              	.L104:
 592:Drivers/GD32F30x_standard_peripheral/Source/gd32f30x_fmc.c ****             OB_WP2 = temp_wp2;
 1267              		.loc 1 592 9 is_stmt 1 view .LVU300
 592:Drivers/GD32F30x_standard_peripheral/Source/gd32f30x_fmc.c ****             OB_WP2 = temp_wp2;
 1268              		.loc 1 592 11 is_stmt 0 view .LVU301
 1269 002e 08B9     		cbnz	r0, .L105
 592:Drivers/GD32F30x_standard_peripheral/Source/gd32f30x_fmc.c ****             OB_WP2 = temp_wp2;
 1270              		.loc 1 592 37 discriminator 1 view .LVU302
 1271 0030 FF2D     		cmp	r5, #255
 1272 0032 16D1     		bne	.L110
 1273              	.L105:
 598:Drivers/GD32F30x_standard_peripheral/Source/gd32f30x_fmc.c ****             OB_WP3 = temp_wp3;
 1274              		.loc 1 598 9 is_stmt 1 view .LVU303
 598:Drivers/GD32F30x_standard_peripheral/Source/gd32f30x_fmc.c ****             OB_WP3 = temp_wp3;
 1275              		.loc 1 598 11 is_stmt 0 view .LVU304
 1276 0034 08B9     		cbnz	r0, .L106
 598:Drivers/GD32F30x_standard_peripheral/Source/gd32f30x_fmc.c ****             OB_WP3 = temp_wp3;
 1277              		.loc 1 598 37 discriminator 1 view .LVU305
 1278 0036 FF2C     		cmp	r4, #255
 1279 0038 19D1     		bne	.L111
 1280              	.L106:
 604:Drivers/GD32F30x_standard_peripheral/Source/gd32f30x_fmc.c ****             /* reset the OBPG bit */
 1281              		.loc 1 604 9 is_stmt 1 view .LVU306
 604:Drivers/GD32F30x_standard_peripheral/Source/gd32f30x_fmc.c ****             /* reset the OBPG bit */
 1282              		.loc 1 604 11 is_stmt 0 view .LVU307
 1283 003a 0428     		cmp	r0, #4
 1284 003c 04D0     		beq	.L102
 606:Drivers/GD32F30x_standard_peripheral/Source/gd32f30x_fmc.c ****         }
 1285              		.loc 1 606 13 is_stmt 1 view .LVU308
 606:Drivers/GD32F30x_standard_peripheral/Source/gd32f30x_fmc.c ****         }
 1286              		.loc 1 606 22 is_stmt 0 view .LVU309
 1287 003e 104A     		ldr	r2, .L112+4
 1288 0040 1369     		ldr	r3, [r2, #16]
 1289 0042 23F01003 		bic	r3, r3, #16
 1290 0046 1361     		str	r3, [r2, #16]
 1291              	.LVL63:
 1292              	.L102:
ARM GAS  C:\Users\Prog\AppData\Local\Temp\cclIyEjW.s 			page 42


 610:Drivers/GD32F30x_standard_peripheral/Source/gd32f30x_fmc.c **** }
 1293              		.loc 1 610 5 is_stmt 1 view .LVU310
 611:Drivers/GD32F30x_standard_peripheral/Source/gd32f30x_fmc.c **** 
 1294              		.loc 1 611 1 is_stmt 0 view .LVU311
 1295 0048 70BD     		pop	{r4, r5, r6, pc}
 1296              	.LVL64:
 1297              	.L108:
 581:Drivers/GD32F30x_standard_peripheral/Source/gd32f30x_fmc.c ****       
 1298              		.loc 1 581 13 is_stmt 1 view .LVU312
 581:Drivers/GD32F30x_standard_peripheral/Source/gd32f30x_fmc.c ****       
 1299              		.loc 1 581 20 is_stmt 0 view .LVU313
 1300 004a 0E4B     		ldr	r3, .L112+8
 1301 004c 1981     		strh	r1, [r3, #8]	@ movhi
 584:Drivers/GD32F30x_standard_peripheral/Source/gd32f30x_fmc.c ****         }
 1302              		.loc 1 584 13 is_stmt 1 view .LVU314
 584:Drivers/GD32F30x_standard_peripheral/Source/gd32f30x_fmc.c ****         }
 1303              		.loc 1 584 25 is_stmt 0 view .LVU315
 1304 004e 0B48     		ldr	r0, .L112
 1305 0050 FFF7FEFF 		bl	fmc_bank0_ready_wait
 1306              	.LVL65:
 584:Drivers/GD32F30x_standard_peripheral/Source/gd32f30x_fmc.c ****         }
 1307              		.loc 1 584 25 view .LVU316
 1308 0054 E8E7     		b	.L103
 1309              	.L109:
 587:Drivers/GD32F30x_standard_peripheral/Source/gd32f30x_fmc.c ****       
 1310              		.loc 1 587 13 is_stmt 1 view .LVU317
 587:Drivers/GD32F30x_standard_peripheral/Source/gd32f30x_fmc.c ****       
 1311              		.loc 1 587 20 is_stmt 0 view .LVU318
 1312 0056 0B4B     		ldr	r3, .L112+8
 1313 0058 5E81     		strh	r6, [r3, #10]	@ movhi
 590:Drivers/GD32F30x_standard_peripheral/Source/gd32f30x_fmc.c ****         }
 1314              		.loc 1 590 13 is_stmt 1 view .LVU319
 590:Drivers/GD32F30x_standard_peripheral/Source/gd32f30x_fmc.c ****         }
 1315              		.loc 1 590 25 is_stmt 0 view .LVU320
 1316 005a 0848     		ldr	r0, .L112
 1317              	.LVL66:
 590:Drivers/GD32F30x_standard_peripheral/Source/gd32f30x_fmc.c ****         }
 1318              		.loc 1 590 25 view .LVU321
 1319 005c FFF7FEFF 		bl	fmc_bank0_ready_wait
 1320              	.LVL67:
 590:Drivers/GD32F30x_standard_peripheral/Source/gd32f30x_fmc.c ****         }
 1321              		.loc 1 590 25 view .LVU322
 1322 0060 E5E7     		b	.L104
 1323              	.L110:
 593:Drivers/GD32F30x_standard_peripheral/Source/gd32f30x_fmc.c ****       
 1324              		.loc 1 593 13 is_stmt 1 view .LVU323
 593:Drivers/GD32F30x_standard_peripheral/Source/gd32f30x_fmc.c ****       
 1325              		.loc 1 593 20 is_stmt 0 view .LVU324
 1326 0062 084B     		ldr	r3, .L112+8
 1327 0064 9D81     		strh	r5, [r3, #12]	@ movhi
 596:Drivers/GD32F30x_standard_peripheral/Source/gd32f30x_fmc.c ****         }
 1328              		.loc 1 596 13 is_stmt 1 view .LVU325
 596:Drivers/GD32F30x_standard_peripheral/Source/gd32f30x_fmc.c ****         }
 1329              		.loc 1 596 25 is_stmt 0 view .LVU326
 1330 0066 0548     		ldr	r0, .L112
 1331              	.LVL68:
 596:Drivers/GD32F30x_standard_peripheral/Source/gd32f30x_fmc.c ****         }
ARM GAS  C:\Users\Prog\AppData\Local\Temp\cclIyEjW.s 			page 43


 1332              		.loc 1 596 25 view .LVU327
 1333 0068 FFF7FEFF 		bl	fmc_bank0_ready_wait
 1334              	.LVL69:
 596:Drivers/GD32F30x_standard_peripheral/Source/gd32f30x_fmc.c ****         }
 1335              		.loc 1 596 25 view .LVU328
 1336 006c E2E7     		b	.L105
 1337              	.L111:
 599:Drivers/GD32F30x_standard_peripheral/Source/gd32f30x_fmc.c ****       
 1338              		.loc 1 599 13 is_stmt 1 view .LVU329
 599:Drivers/GD32F30x_standard_peripheral/Source/gd32f30x_fmc.c ****       
 1339              		.loc 1 599 20 is_stmt 0 view .LVU330
 1340 006e 054B     		ldr	r3, .L112+8
 1341 0070 DC81     		strh	r4, [r3, #14]	@ movhi
 602:Drivers/GD32F30x_standard_peripheral/Source/gd32f30x_fmc.c ****         }
 1342              		.loc 1 602 13 is_stmt 1 view .LVU331
 602:Drivers/GD32F30x_standard_peripheral/Source/gd32f30x_fmc.c ****         }
 1343              		.loc 1 602 25 is_stmt 0 view .LVU332
 1344 0072 0248     		ldr	r0, .L112
 1345              	.LVL70:
 602:Drivers/GD32F30x_standard_peripheral/Source/gd32f30x_fmc.c ****         }
 1346              		.loc 1 602 25 view .LVU333
 1347 0074 FFF7FEFF 		bl	fmc_bank0_ready_wait
 1348              	.LVL71:
 602:Drivers/GD32F30x_standard_peripheral/Source/gd32f30x_fmc.c ****         }
 1349              		.loc 1 602 25 view .LVU334
 1350 0078 DFE7     		b	.L106
 1351              	.L113:
 1352 007a 00BF     		.align	2
 1353              	.L112:
 1354 007c 0000FF0F 		.word	268369920
 1355 0080 00200240 		.word	1073881088
 1356 0084 00F8FF1F 		.word	536868864
 1357              		.cfi_endproc
 1358              	.LFE133:
 1360              		.section	.text.ob_security_protection_config,"ax",%progbits
 1361              		.align	1
 1362              		.global	ob_security_protection_config
 1363              		.syntax unified
 1364              		.thumb
 1365              		.thumb_func
 1366              		.fpu fpv4-sp-d16
 1368              	ob_security_protection_config:
 1369              	.LVL72:
 1370              	.LFB134:
 622:Drivers/GD32F30x_standard_peripheral/Source/gd32f30x_fmc.c ****     fmc_state_enum fmc_state = fmc_bank0_ready_wait(FMC_TIMEOUT_COUNT);
 1371              		.loc 1 622 1 is_stmt 1 view -0
 1372              		.cfi_startproc
 1373              		@ args = 0, pretend = 0, frame = 0
 1374              		@ frame_needed = 0, uses_anonymous_args = 0
 622:Drivers/GD32F30x_standard_peripheral/Source/gd32f30x_fmc.c ****     fmc_state_enum fmc_state = fmc_bank0_ready_wait(FMC_TIMEOUT_COUNT);
 1375              		.loc 1 622 1 is_stmt 0 view .LVU336
 1376 0000 10B5     		push	{r4, lr}
 1377              	.LCFI4:
 1378              		.cfi_def_cfa_offset 8
 1379              		.cfi_offset 4, -8
 1380              		.cfi_offset 14, -4
 1381 0002 0446     		mov	r4, r0
ARM GAS  C:\Users\Prog\AppData\Local\Temp\cclIyEjW.s 			page 44


 623:Drivers/GD32F30x_standard_peripheral/Source/gd32f30x_fmc.c **** 
 1382              		.loc 1 623 5 is_stmt 1 view .LVU337
 623:Drivers/GD32F30x_standard_peripheral/Source/gd32f30x_fmc.c **** 
 1383              		.loc 1 623 32 is_stmt 0 view .LVU338
 1384 0004 1848     		ldr	r0, .L120
 1385              	.LVL73:
 623:Drivers/GD32F30x_standard_peripheral/Source/gd32f30x_fmc.c **** 
 1386              		.loc 1 623 32 view .LVU339
 1387 0006 FFF7FEFF 		bl	fmc_bank0_ready_wait
 1388              	.LVL74:
 625:Drivers/GD32F30x_standard_peripheral/Source/gd32f30x_fmc.c ****         FMC_CTL0 |= FMC_CTL0_OBER;
 1389              		.loc 1 625 5 is_stmt 1 view .LVU340
 625:Drivers/GD32F30x_standard_peripheral/Source/gd32f30x_fmc.c ****         FMC_CTL0 |= FMC_CTL0_OBER;
 1390              		.loc 1 625 7 is_stmt 0 view .LVU341
 1391 000a 00B1     		cbz	r0, .L118
 1392              	.L115:
 1393              	.LVL75:
 656:Drivers/GD32F30x_standard_peripheral/Source/gd32f30x_fmc.c **** }
 1394              		.loc 1 656 5 is_stmt 1 view .LVU342
 657:Drivers/GD32F30x_standard_peripheral/Source/gd32f30x_fmc.c **** 
 1395              		.loc 1 657 1 is_stmt 0 view .LVU343
 1396 000c 10BD     		pop	{r4, pc}
 1397              	.LVL76:
 1398              	.L118:
 626:Drivers/GD32F30x_standard_peripheral/Source/gd32f30x_fmc.c ****         FMC_CTL0 |= FMC_CTL0_START;
 1399              		.loc 1 626 9 is_stmt 1 view .LVU344
 626:Drivers/GD32F30x_standard_peripheral/Source/gd32f30x_fmc.c ****         FMC_CTL0 |= FMC_CTL0_START;
 1400              		.loc 1 626 18 is_stmt 0 view .LVU345
 1401 000e 174B     		ldr	r3, .L120+4
 1402 0010 1A69     		ldr	r2, [r3, #16]
 1403 0012 42F02002 		orr	r2, r2, #32
 1404 0016 1A61     		str	r2, [r3, #16]
 627:Drivers/GD32F30x_standard_peripheral/Source/gd32f30x_fmc.c ****     
 1405              		.loc 1 627 9 is_stmt 1 view .LVU346
 627:Drivers/GD32F30x_standard_peripheral/Source/gd32f30x_fmc.c ****     
 1406              		.loc 1 627 18 is_stmt 0 view .LVU347
 1407 0018 1A69     		ldr	r2, [r3, #16]
 1408 001a 42F04002 		orr	r2, r2, #64
 1409 001e 1A61     		str	r2, [r3, #16]
 630:Drivers/GD32F30x_standard_peripheral/Source/gd32f30x_fmc.c ****     
 1410              		.loc 1 630 9 is_stmt 1 view .LVU348
 630:Drivers/GD32F30x_standard_peripheral/Source/gd32f30x_fmc.c ****     
 1411              		.loc 1 630 21 is_stmt 0 view .LVU349
 1412 0020 1148     		ldr	r0, .L120
 1413 0022 FFF7FEFF 		bl	fmc_bank0_ready_wait
 1414              	.LVL77:
 632:Drivers/GD32F30x_standard_peripheral/Source/gd32f30x_fmc.c ****             /* reset the OBER bit */
 1415              		.loc 1 632 9 is_stmt 1 view .LVU350
 632:Drivers/GD32F30x_standard_peripheral/Source/gd32f30x_fmc.c ****             /* reset the OBER bit */
 1416              		.loc 1 632 11 is_stmt 0 view .LVU351
 1417 0026 38B1     		cbz	r0, .L119
 649:Drivers/GD32F30x_standard_peripheral/Source/gd32f30x_fmc.c ****                 /* reset the OBER bit */
 1418              		.loc 1 649 13 is_stmt 1 view .LVU352
 649:Drivers/GD32F30x_standard_peripheral/Source/gd32f30x_fmc.c ****                 /* reset the OBER bit */
 1419              		.loc 1 649 15 is_stmt 0 view .LVU353
 1420 0028 0428     		cmp	r0, #4
 1421 002a EFD0     		beq	.L115
ARM GAS  C:\Users\Prog\AppData\Local\Temp\cclIyEjW.s 			page 45


 651:Drivers/GD32F30x_standard_peripheral/Source/gd32f30x_fmc.c ****             }
 1422              		.loc 1 651 17 is_stmt 1 view .LVU354
 651:Drivers/GD32F30x_standard_peripheral/Source/gd32f30x_fmc.c ****             }
 1423              		.loc 1 651 26 is_stmt 0 view .LVU355
 1424 002c 0F4A     		ldr	r2, .L120+4
 1425 002e 1369     		ldr	r3, [r2, #16]
 1426 0030 23F02003 		bic	r3, r3, #32
 1427 0034 1361     		str	r3, [r2, #16]
 1428 0036 E9E7     		b	.L115
 1429              	.L119:
 634:Drivers/GD32F30x_standard_peripheral/Source/gd32f30x_fmc.c ****       
 1430              		.loc 1 634 13 is_stmt 1 view .LVU356
 634:Drivers/GD32F30x_standard_peripheral/Source/gd32f30x_fmc.c ****       
 1431              		.loc 1 634 22 is_stmt 0 view .LVU357
 1432 0038 0C4B     		ldr	r3, .L120+4
 1433 003a 1A69     		ldr	r2, [r3, #16]
 1434 003c 22F02002 		bic	r2, r2, #32
 1435 0040 1A61     		str	r2, [r3, #16]
 637:Drivers/GD32F30x_standard_peripheral/Source/gd32f30x_fmc.c ****        
 1436              		.loc 1 637 13 is_stmt 1 view .LVU358
 637:Drivers/GD32F30x_standard_peripheral/Source/gd32f30x_fmc.c ****        
 1437              		.loc 1 637 22 is_stmt 0 view .LVU359
 1438 0042 1A69     		ldr	r2, [r3, #16]
 1439 0044 42F01002 		orr	r2, r2, #16
 1440 0048 1A61     		str	r2, [r3, #16]
 639:Drivers/GD32F30x_standard_peripheral/Source/gd32f30x_fmc.c **** 
 1441              		.loc 1 639 13 is_stmt 1 view .LVU360
 639:Drivers/GD32F30x_standard_peripheral/Source/gd32f30x_fmc.c **** 
 1442              		.loc 1 639 22 is_stmt 0 view .LVU361
 1443 004a A0B2     		uxth	r0, r4
 1444              	.LVL78:
 639:Drivers/GD32F30x_standard_peripheral/Source/gd32f30x_fmc.c **** 
 1445              		.loc 1 639 20 view .LVU362
 1446 004c 084B     		ldr	r3, .L120+8
 1447 004e 1880     		strh	r0, [r3]	@ movhi
 642:Drivers/GD32F30x_standard_peripheral/Source/gd32f30x_fmc.c ****     
 1448              		.loc 1 642 13 is_stmt 1 view .LVU363
 642:Drivers/GD32F30x_standard_peripheral/Source/gd32f30x_fmc.c ****     
 1449              		.loc 1 642 25 is_stmt 0 view .LVU364
 1450 0050 0548     		ldr	r0, .L120
 1451 0052 FFF7FEFF 		bl	fmc_bank0_ready_wait
 1452              	.LVL79:
 644:Drivers/GD32F30x_standard_peripheral/Source/gd32f30x_fmc.c ****                 /* reset the OBPG bit */
 1453              		.loc 1 644 13 is_stmt 1 view .LVU365
 644:Drivers/GD32F30x_standard_peripheral/Source/gd32f30x_fmc.c ****                 /* reset the OBPG bit */
 1454              		.loc 1 644 15 is_stmt 0 view .LVU366
 1455 0056 0428     		cmp	r0, #4
 1456 0058 D8D0     		beq	.L115
 646:Drivers/GD32F30x_standard_peripheral/Source/gd32f30x_fmc.c ****             }
 1457              		.loc 1 646 17 is_stmt 1 view .LVU367
 646:Drivers/GD32F30x_standard_peripheral/Source/gd32f30x_fmc.c ****             }
 1458              		.loc 1 646 26 is_stmt 0 view .LVU368
 1459 005a 044A     		ldr	r2, .L120+4
 1460 005c 1369     		ldr	r3, [r2, #16]
 1461 005e 23F01003 		bic	r3, r3, #16
 1462 0062 1361     		str	r3, [r2, #16]
 1463 0064 D2E7     		b	.L115
ARM GAS  C:\Users\Prog\AppData\Local\Temp\cclIyEjW.s 			page 46


 1464              	.L121:
 1465 0066 00BF     		.align	2
 1466              	.L120:
 1467 0068 0000FF0F 		.word	268369920
 1468 006c 00200240 		.word	1073881088
 1469 0070 00F8FF1F 		.word	536868864
 1470              		.cfi_endproc
 1471              	.LFE134:
 1473              		.section	.text.ob_user_write,"ax",%progbits
 1474              		.align	1
 1475              		.global	ob_user_write
 1476              		.syntax unified
 1477              		.thumb
 1478              		.thumb_func
 1479              		.fpu fpv4-sp-d16
 1481              	ob_user_write:
 1482              	.LVL80:
 1483              	.LFB135:
 677:Drivers/GD32F30x_standard_peripheral/Source/gd32f30x_fmc.c ****     fmc_state_enum fmc_state = FMC_READY;
 1484              		.loc 1 677 1 is_stmt 1 view -0
 1485              		.cfi_startproc
 1486              		@ args = 0, pretend = 0, frame = 0
 1487              		@ frame_needed = 0, uses_anonymous_args = 0
 677:Drivers/GD32F30x_standard_peripheral/Source/gd32f30x_fmc.c ****     fmc_state_enum fmc_state = FMC_READY;
 1488              		.loc 1 677 1 is_stmt 0 view .LVU370
 1489 0000 F8B5     		push	{r3, r4, r5, r6, r7, lr}
 1490              	.LCFI5:
 1491              		.cfi_def_cfa_offset 24
 1492              		.cfi_offset 3, -24
 1493              		.cfi_offset 4, -20
 1494              		.cfi_offset 5, -16
 1495              		.cfi_offset 6, -12
 1496              		.cfi_offset 7, -8
 1497              		.cfi_offset 14, -4
 1498 0002 0746     		mov	r7, r0
 1499 0004 0E46     		mov	r6, r1
 1500 0006 1546     		mov	r5, r2
 1501 0008 1C46     		mov	r4, r3
 678:Drivers/GD32F30x_standard_peripheral/Source/gd32f30x_fmc.c ****     uint8_t temp;
 1502              		.loc 1 678 5 is_stmt 1 view .LVU371
 1503              	.LVL81:
 679:Drivers/GD32F30x_standard_peripheral/Source/gd32f30x_fmc.c **** 
 1504              		.loc 1 679 5 view .LVU372
 682:Drivers/GD32F30x_standard_peripheral/Source/gd32f30x_fmc.c ****   
 1505              		.loc 1 682 5 view .LVU373
 682:Drivers/GD32F30x_standard_peripheral/Source/gd32f30x_fmc.c ****   
 1506              		.loc 1 682 17 is_stmt 0 view .LVU374
 1507 000a 1148     		ldr	r0, .L126
 1508              	.LVL82:
 682:Drivers/GD32F30x_standard_peripheral/Source/gd32f30x_fmc.c ****   
 1509              		.loc 1 682 17 view .LVU375
 1510 000c FFF7FEFF 		bl	fmc_bank0_ready_wait
 1511              	.LVL83:
 684:Drivers/GD32F30x_standard_peripheral/Source/gd32f30x_fmc.c ****         /* set the OBPG bit*/
 1512              		.loc 1 684 5 is_stmt 1 view .LVU376
 684:Drivers/GD32F30x_standard_peripheral/Source/gd32f30x_fmc.c ****         /* set the OBPG bit*/
 1513              		.loc 1 684 7 is_stmt 0 view .LVU377
ARM GAS  C:\Users\Prog\AppData\Local\Temp\cclIyEjW.s 			page 47


 1514 0010 8446     		mov	ip, r0
 1515 0012 08B1     		cbz	r0, .L125
 1516              	.L123:
 1517              	.LVL84:
 700:Drivers/GD32F30x_standard_peripheral/Source/gd32f30x_fmc.c **** }
 1518              		.loc 1 700 5 is_stmt 1 view .LVU378
 701:Drivers/GD32F30x_standard_peripheral/Source/gd32f30x_fmc.c **** 
 1519              		.loc 1 701 1 is_stmt 0 view .LVU379
 1520 0014 6046     		mov	r0, ip
 1521 0016 F8BD     		pop	{r3, r4, r5, r6, r7, pc}
 1522              	.LVL85:
 1523              	.L125:
 686:Drivers/GD32F30x_standard_peripheral/Source/gd32f30x_fmc.c **** 
 1524              		.loc 1 686 9 is_stmt 1 view .LVU380
 686:Drivers/GD32F30x_standard_peripheral/Source/gd32f30x_fmc.c **** 
 1525              		.loc 1 686 18 is_stmt 0 view .LVU381
 1526 0018 0E4A     		ldr	r2, .L126+4
 1527 001a 1369     		ldr	r3, [r2, #16]
 1528 001c 43F01003 		orr	r3, r3, #16
 1529 0020 1361     		str	r3, [r2, #16]
 688:Drivers/GD32F30x_standard_peripheral/Source/gd32f30x_fmc.c ****         OB_USER = (uint16_t)temp;
 1530              		.loc 1 688 9 is_stmt 1 view .LVU382
 688:Drivers/GD32F30x_standard_peripheral/Source/gd32f30x_fmc.c ****         OB_USER = (uint16_t)temp;
 1531              		.loc 1 688 37 is_stmt 0 view .LVU383
 1532 0022 44EA0703 		orr	r3, r4, r7
 688:Drivers/GD32F30x_standard_peripheral/Source/gd32f30x_fmc.c ****         OB_USER = (uint16_t)temp;
 1533              		.loc 1 688 27 view .LVU384
 1534 0026 43EA0601 		orr	r1, r3, r6
 688:Drivers/GD32F30x_standard_peripheral/Source/gd32f30x_fmc.c ****         OB_USER = (uint16_t)temp;
 1535              		.loc 1 688 17 view .LVU385
 1536 002a 41EA0502 		orr	r2, r1, r5
 1537              	.LVL86:
 689:Drivers/GD32F30x_standard_peripheral/Source/gd32f30x_fmc.c ****     
 1538              		.loc 1 689 9 is_stmt 1 view .LVU386
 689:Drivers/GD32F30x_standard_peripheral/Source/gd32f30x_fmc.c ****     
 1539              		.loc 1 689 19 is_stmt 0 view .LVU387
 1540 002e 42F0F002 		orr	r2, r2, #240
 1541              	.LVL87:
 689:Drivers/GD32F30x_standard_peripheral/Source/gd32f30x_fmc.c ****     
 1542              		.loc 1 689 17 view .LVU388
 1543 0032 094B     		ldr	r3, .L126+8
 1544 0034 5A80     		strh	r2, [r3, #2]	@ movhi
 692:Drivers/GD32F30x_standard_peripheral/Source/gd32f30x_fmc.c **** 
 1545              		.loc 1 692 9 is_stmt 1 view .LVU389
 692:Drivers/GD32F30x_standard_peripheral/Source/gd32f30x_fmc.c **** 
 1546              		.loc 1 692 21 is_stmt 0 view .LVU390
 1547 0036 0648     		ldr	r0, .L126
 1548              	.LVL88:
 692:Drivers/GD32F30x_standard_peripheral/Source/gd32f30x_fmc.c **** 
 1549              		.loc 1 692 21 view .LVU391
 1550 0038 FFF7FEFF 		bl	fmc_bank0_ready_wait
 1551              	.LVL89:
 692:Drivers/GD32F30x_standard_peripheral/Source/gd32f30x_fmc.c **** 
 1552              		.loc 1 692 21 view .LVU392
 1553 003c 8446     		mov	ip, r0
 1554              	.LVL90:
 694:Drivers/GD32F30x_standard_peripheral/Source/gd32f30x_fmc.c ****             /* reset the OBPG bit */
ARM GAS  C:\Users\Prog\AppData\Local\Temp\cclIyEjW.s 			page 48


 1555              		.loc 1 694 9 is_stmt 1 view .LVU393
 694:Drivers/GD32F30x_standard_peripheral/Source/gd32f30x_fmc.c ****             /* reset the OBPG bit */
 1556              		.loc 1 694 11 is_stmt 0 view .LVU394
 1557 003e 0428     		cmp	r0, #4
 1558 0040 E8D0     		beq	.L123
 696:Drivers/GD32F30x_standard_peripheral/Source/gd32f30x_fmc.c ****         }
 1559              		.loc 1 696 13 is_stmt 1 view .LVU395
 696:Drivers/GD32F30x_standard_peripheral/Source/gd32f30x_fmc.c ****         }
 1560              		.loc 1 696 22 is_stmt 0 view .LVU396
 1561 0042 044A     		ldr	r2, .L126+4
 1562 0044 1369     		ldr	r3, [r2, #16]
 1563 0046 23F01003 		bic	r3, r3, #16
 1564 004a 1361     		str	r3, [r2, #16]
 1565 004c E2E7     		b	.L123
 1566              	.L127:
 1567 004e 00BF     		.align	2
 1568              	.L126:
 1569 0050 0000FF0F 		.word	268369920
 1570 0054 00200240 		.word	1073881088
 1571 0058 00F8FF1F 		.word	536868864
 1572              		.cfi_endproc
 1573              	.LFE135:
 1575              		.section	.text.ob_data_program,"ax",%progbits
 1576              		.align	1
 1577              		.global	ob_data_program
 1578              		.syntax unified
 1579              		.thumb
 1580              		.thumb_func
 1581              		.fpu fpv4-sp-d16
 1583              	ob_data_program:
 1584              	.LVL91:
 1585              	.LFB136:
 711:Drivers/GD32F30x_standard_peripheral/Source/gd32f30x_fmc.c ****     fmc_state_enum fmc_state = fmc_bank0_ready_wait(FMC_TIMEOUT_COUNT);
 1586              		.loc 1 711 1 is_stmt 1 view -0
 1587              		.cfi_startproc
 1588              		@ args = 0, pretend = 0, frame = 0
 1589              		@ frame_needed = 0, uses_anonymous_args = 0
 711:Drivers/GD32F30x_standard_peripheral/Source/gd32f30x_fmc.c ****     fmc_state_enum fmc_state = fmc_bank0_ready_wait(FMC_TIMEOUT_COUNT);
 1590              		.loc 1 711 1 is_stmt 0 view .LVU398
 1591 0000 38B5     		push	{r3, r4, r5, lr}
 1592              	.LCFI6:
 1593              		.cfi_def_cfa_offset 16
 1594              		.cfi_offset 3, -16
 1595              		.cfi_offset 4, -12
 1596              		.cfi_offset 5, -8
 1597              		.cfi_offset 14, -4
 1598 0002 0546     		mov	r5, r0
 1599 0004 0C46     		mov	r4, r1
 712:Drivers/GD32F30x_standard_peripheral/Source/gd32f30x_fmc.c **** 
 1600              		.loc 1 712 5 is_stmt 1 view .LVU399
 712:Drivers/GD32F30x_standard_peripheral/Source/gd32f30x_fmc.c **** 
 1601              		.loc 1 712 32 is_stmt 0 view .LVU400
 1602 0006 0D48     		ldr	r0, .L132
 1603              	.LVL92:
 712:Drivers/GD32F30x_standard_peripheral/Source/gd32f30x_fmc.c **** 
 1604              		.loc 1 712 32 view .LVU401
 1605 0008 FFF7FEFF 		bl	fmc_bank0_ready_wait
ARM GAS  C:\Users\Prog\AppData\Local\Temp\cclIyEjW.s 			page 49


 1606              	.LVL93:
 714:Drivers/GD32F30x_standard_peripheral/Source/gd32f30x_fmc.c ****         /* set the OBPG bit */
 1607              		.loc 1 714 5 is_stmt 1 view .LVU402
 714:Drivers/GD32F30x_standard_peripheral/Source/gd32f30x_fmc.c ****         /* set the OBPG bit */
 1608              		.loc 1 714 7 is_stmt 0 view .LVU403
 1609 000c 0346     		mov	r3, r0
 1610 000e 08B1     		cbz	r0, .L131
 1611              	.L129:
 1612              	.LVL94:
 728:Drivers/GD32F30x_standard_peripheral/Source/gd32f30x_fmc.c **** }
 1613              		.loc 1 728 5 is_stmt 1 view .LVU404
 729:Drivers/GD32F30x_standard_peripheral/Source/gd32f30x_fmc.c **** 
 1614              		.loc 1 729 1 is_stmt 0 view .LVU405
 1615 0010 1846     		mov	r0, r3
 1616 0012 38BD     		pop	{r3, r4, r5, pc}
 1617              	.LVL95:
 1618              	.L131:
 716:Drivers/GD32F30x_standard_peripheral/Source/gd32f30x_fmc.c ****         REG16(address) = data;
 1619              		.loc 1 716 9 is_stmt 1 view .LVU406
 716:Drivers/GD32F30x_standard_peripheral/Source/gd32f30x_fmc.c ****         REG16(address) = data;
 1620              		.loc 1 716 18 is_stmt 0 view .LVU407
 1621 0014 0A4A     		ldr	r2, .L132+4
 1622 0016 1369     		ldr	r3, [r2, #16]
 1623 0018 43F01003 		orr	r3, r3, #16
 1624 001c 1361     		str	r3, [r2, #16]
 717:Drivers/GD32F30x_standard_peripheral/Source/gd32f30x_fmc.c ****     
 1625              		.loc 1 717 9 is_stmt 1 view .LVU408
 717:Drivers/GD32F30x_standard_peripheral/Source/gd32f30x_fmc.c ****     
 1626              		.loc 1 717 24 is_stmt 0 view .LVU409
 1627 001e A1B2     		uxth	r1, r4
 1628 0020 2980     		strh	r1, [r5]	@ movhi
 720:Drivers/GD32F30x_standard_peripheral/Source/gd32f30x_fmc.c ****     
 1629              		.loc 1 720 9 is_stmt 1 view .LVU410
 720:Drivers/GD32F30x_standard_peripheral/Source/gd32f30x_fmc.c ****     
 1630              		.loc 1 720 21 is_stmt 0 view .LVU411
 1631 0022 0648     		ldr	r0, .L132
 1632              	.LVL96:
 720:Drivers/GD32F30x_standard_peripheral/Source/gd32f30x_fmc.c ****     
 1633              		.loc 1 720 21 view .LVU412
 1634 0024 FFF7FEFF 		bl	fmc_bank0_ready_wait
 1635              	.LVL97:
 1636 0028 0346     		mov	r3, r0
 1637              	.LVL98:
 722:Drivers/GD32F30x_standard_peripheral/Source/gd32f30x_fmc.c ****             /* reset the OBPG bit */
 1638              		.loc 1 722 9 is_stmt 1 view .LVU413
 722:Drivers/GD32F30x_standard_peripheral/Source/gd32f30x_fmc.c ****             /* reset the OBPG bit */
 1639              		.loc 1 722 11 is_stmt 0 view .LVU414
 1640 002a 0428     		cmp	r0, #4
 1641 002c F0D0     		beq	.L129
 724:Drivers/GD32F30x_standard_peripheral/Source/gd32f30x_fmc.c ****         }
 1642              		.loc 1 724 13 is_stmt 1 view .LVU415
 724:Drivers/GD32F30x_standard_peripheral/Source/gd32f30x_fmc.c ****         }
 1643              		.loc 1 724 22 is_stmt 0 view .LVU416
 1644 002e 0449     		ldr	r1, .L132+4
 1645 0030 0A69     		ldr	r2, [r1, #16]
 1646 0032 22F01002 		bic	r2, r2, #16
 1647 0036 0A61     		str	r2, [r1, #16]
ARM GAS  C:\Users\Prog\AppData\Local\Temp\cclIyEjW.s 			page 50


 1648 0038 EAE7     		b	.L129
 1649              	.L133:
 1650 003a 00BF     		.align	2
 1651              	.L132:
 1652 003c 0000FF0F 		.word	268369920
 1653 0040 00200240 		.word	1073881088
 1654              		.cfi_endproc
 1655              	.LFE136:
 1657              		.section	.text.fmc_bank1_ready_wait,"ax",%progbits
 1658              		.align	1
 1659              		.global	fmc_bank1_ready_wait
 1660              		.syntax unified
 1661              		.thumb
 1662              		.thumb_func
 1663              		.fpu fpv4-sp-d16
 1665              	fmc_bank1_ready_wait:
 1666              	.LVL99:
 1667              	.LFB150:
 986:Drivers/GD32F30x_standard_peripheral/Source/gd32f30x_fmc.c **** 
 987:Drivers/GD32F30x_standard_peripheral/Source/gd32f30x_fmc.c **** /*!
 988:Drivers/GD32F30x_standard_peripheral/Source/gd32f30x_fmc.c ****     \brief      check whether FMC bank1 is ready or not
 989:Drivers/GD32F30x_standard_peripheral/Source/gd32f30x_fmc.c ****     \param[in]  timeout: count of loop
 990:Drivers/GD32F30x_standard_peripheral/Source/gd32f30x_fmc.c ****     \param[out] none
 991:Drivers/GD32F30x_standard_peripheral/Source/gd32f30x_fmc.c ****     \retval     state of FMC, refer to fmc_state_enum
 992:Drivers/GD32F30x_standard_peripheral/Source/gd32f30x_fmc.c **** */
 993:Drivers/GD32F30x_standard_peripheral/Source/gd32f30x_fmc.c **** fmc_state_enum fmc_bank1_ready_wait(uint32_t timeout)
 994:Drivers/GD32F30x_standard_peripheral/Source/gd32f30x_fmc.c **** {
 1668              		.loc 1 994 1 is_stmt 1 view -0
 1669              		.cfi_startproc
 1670              		@ args = 0, pretend = 0, frame = 0
 1671              		@ frame_needed = 0, uses_anonymous_args = 0
 1672              		.loc 1 994 1 is_stmt 0 view .LVU418
 1673 0000 10B5     		push	{r4, lr}
 1674              	.LCFI7:
 1675              		.cfi_def_cfa_offset 8
 1676              		.cfi_offset 4, -8
 1677              		.cfi_offset 14, -4
 1678 0002 0446     		mov	r4, r0
 995:Drivers/GD32F30x_standard_peripheral/Source/gd32f30x_fmc.c ****     fmc_state_enum fmc_state = FMC_BUSY;
 1679              		.loc 1 995 5 is_stmt 1 view .LVU419
 1680              	.LVL100:
 1681              	.L136:
 996:Drivers/GD32F30x_standard_peripheral/Source/gd32f30x_fmc.c ****   
 997:Drivers/GD32F30x_standard_peripheral/Source/gd32f30x_fmc.c ****     /* wait for FMC ready */
 998:Drivers/GD32F30x_standard_peripheral/Source/gd32f30x_fmc.c ****     do{
 1682              		.loc 1 998 5 discriminator 2 view .LVU420
 999:Drivers/GD32F30x_standard_peripheral/Source/gd32f30x_fmc.c ****         /* get FMC state */
1000:Drivers/GD32F30x_standard_peripheral/Source/gd32f30x_fmc.c ****         fmc_state = fmc_bank1_state_get();
 1683              		.loc 1 1000 9 discriminator 2 view .LVU421
 1684              		.loc 1 1000 21 is_stmt 0 discriminator 2 view .LVU422
 1685 0004 FFF7FEFF 		bl	fmc_bank1_state_get
 1686              	.LVL101:
1001:Drivers/GD32F30x_standard_peripheral/Source/gd32f30x_fmc.c ****         timeout--;
 1687              		.loc 1 1001 9 is_stmt 1 discriminator 2 view .LVU423
 1688              		.loc 1 1001 16 is_stmt 0 discriminator 2 view .LVU424
 1689 0008 013C     		subs	r4, r4, #1
 1690              	.LVL102:
ARM GAS  C:\Users\Prog\AppData\Local\Temp\cclIyEjW.s 			page 51


1002:Drivers/GD32F30x_standard_peripheral/Source/gd32f30x_fmc.c ****     }while((FMC_BUSY == fmc_state) && (0x00U != timeout));
 1691              		.loc 1 1002 11 is_stmt 1 discriminator 2 view .LVU425
 1692              		.loc 1 1002 5 is_stmt 0 discriminator 2 view .LVU426
 1693 000a 0128     		cmp	r0, #1
 1694 000c 01D1     		bne	.L135
 1695              		.loc 1 1002 36 discriminator 1 view .LVU427
 1696 000e 002C     		cmp	r4, #0
 1697 0010 F8D1     		bne	.L136
 1698              	.L135:
1003:Drivers/GD32F30x_standard_peripheral/Source/gd32f30x_fmc.c ****     
1004:Drivers/GD32F30x_standard_peripheral/Source/gd32f30x_fmc.c ****     if(FMC_BUSY == fmc_state){
 1699              		.loc 1 1004 5 is_stmt 1 view .LVU428
 1700              		.loc 1 1004 7 is_stmt 0 view .LVU429
 1701 0012 0128     		cmp	r0, #1
 1702 0014 00D0     		beq	.L140
 1703              	.LVL103:
 1704              	.L137:
1005:Drivers/GD32F30x_standard_peripheral/Source/gd32f30x_fmc.c ****         fmc_state = FMC_TOERR;
1006:Drivers/GD32F30x_standard_peripheral/Source/gd32f30x_fmc.c ****     }
1007:Drivers/GD32F30x_standard_peripheral/Source/gd32f30x_fmc.c ****     /* return the FMC state */
1008:Drivers/GD32F30x_standard_peripheral/Source/gd32f30x_fmc.c ****     return fmc_state;
 1705              		.loc 1 1008 5 is_stmt 1 view .LVU430
1009:Drivers/GD32F30x_standard_peripheral/Source/gd32f30x_fmc.c **** }
 1706              		.loc 1 1009 1 is_stmt 0 view .LVU431
 1707 0016 10BD     		pop	{r4, pc}
 1708              	.LVL104:
 1709              	.L140:
1005:Drivers/GD32F30x_standard_peripheral/Source/gd32f30x_fmc.c ****         fmc_state = FMC_TOERR;
 1710              		.loc 1 1005 19 view .LVU432
 1711 0018 0420     		movs	r0, #4
 1712              	.LVL105:
1005:Drivers/GD32F30x_standard_peripheral/Source/gd32f30x_fmc.c ****         fmc_state = FMC_TOERR;
 1713              		.loc 1 1005 19 view .LVU433
 1714 001a FCE7     		b	.L137
 1715              		.cfi_endproc
 1716              	.LFE150:
 1718              		.section	.text.fmc_page_erase,"ax",%progbits
 1719              		.align	1
 1720              		.global	fmc_page_erase
 1721              		.syntax unified
 1722              		.thumb
 1723              		.thumb_func
 1724              		.fpu fpv4-sp-d16
 1726              	fmc_page_erase:
 1727              	.LVL106:
 1728              	.LFB123:
 168:Drivers/GD32F30x_standard_peripheral/Source/gd32f30x_fmc.c ****     fmc_state_enum fmc_state;
 1729              		.loc 1 168 1 is_stmt 1 view -0
 1730              		.cfi_startproc
 1731              		@ args = 0, pretend = 0, frame = 0
 1732              		@ frame_needed = 0, uses_anonymous_args = 0
 168:Drivers/GD32F30x_standard_peripheral/Source/gd32f30x_fmc.c ****     fmc_state_enum fmc_state;
 1733              		.loc 1 168 1 is_stmt 0 view .LVU435
 1734 0000 38B5     		push	{r3, r4, r5, lr}
 1735              	.LCFI8:
 1736              		.cfi_def_cfa_offset 16
 1737              		.cfi_offset 3, -16
ARM GAS  C:\Users\Prog\AppData\Local\Temp\cclIyEjW.s 			page 52


 1738              		.cfi_offset 4, -12
 1739              		.cfi_offset 5, -8
 1740              		.cfi_offset 14, -4
 1741 0002 0446     		mov	r4, r0
 169:Drivers/GD32F30x_standard_peripheral/Source/gd32f30x_fmc.c ****     
 1742              		.loc 1 169 5 is_stmt 1 view .LVU436
 171:Drivers/GD32F30x_standard_peripheral/Source/gd32f30x_fmc.c ****         if(FMC_BANK0_END_ADDRESS > page_address){
 1743              		.loc 1 171 5 view .LVU437
 171:Drivers/GD32F30x_standard_peripheral/Source/gd32f30x_fmc.c ****         if(FMC_BANK0_END_ADDRESS > page_address){
 1744              		.loc 1 171 25 is_stmt 0 view .LVU438
 1745 0004 2A4B     		ldr	r3, .L148
 1746 0006 B3F8E030 		ldrh	r3, [r3, #224]
 171:Drivers/GD32F30x_standard_peripheral/Source/gd32f30x_fmc.c ****         if(FMC_BANK0_END_ADDRESS > page_address){
 1747              		.loc 1 171 7 view .LVU439
 1748 000a B3F5007F 		cmp	r3, #512
 1749 000e 37D9     		bls	.L142
 172:Drivers/GD32F30x_standard_peripheral/Source/gd32f30x_fmc.c ****             fmc_state = fmc_bank0_ready_wait(FMC_TIMEOUT_COUNT);
 1750              		.loc 1 172 9 is_stmt 1 view .LVU440
 172:Drivers/GD32F30x_standard_peripheral/Source/gd32f30x_fmc.c ****             fmc_state = fmc_bank0_ready_wait(FMC_TIMEOUT_COUNT);
 1751              		.loc 1 172 11 is_stmt 0 view .LVU441
 1752 0010 284B     		ldr	r3, .L148+4
 1753 0012 9842     		cmp	r0, r3
 1754 0014 16D2     		bcs	.L143
 173:Drivers/GD32F30x_standard_peripheral/Source/gd32f30x_fmc.c ****             /* if the last operation is completed, start page erase */
 1755              		.loc 1 173 13 is_stmt 1 view .LVU442
 173:Drivers/GD32F30x_standard_peripheral/Source/gd32f30x_fmc.c ****             /* if the last operation is completed, start page erase */
 1756              		.loc 1 173 25 is_stmt 0 view .LVU443
 1757 0016 2848     		ldr	r0, .L148+8
 1758              	.LVL107:
 173:Drivers/GD32F30x_standard_peripheral/Source/gd32f30x_fmc.c ****             /* if the last operation is completed, start page erase */
 1759              		.loc 1 173 25 view .LVU444
 1760 0018 FFF7FEFF 		bl	fmc_bank0_ready_wait
 1761              	.LVL108:
 175:Drivers/GD32F30x_standard_peripheral/Source/gd32f30x_fmc.c ****                 FMC_CTL0 |= FMC_CTL0_PER;
 1762              		.loc 1 175 13 is_stmt 1 view .LVU445
 175:Drivers/GD32F30x_standard_peripheral/Source/gd32f30x_fmc.c ****                 FMC_CTL0 |= FMC_CTL0_PER;
 1763              		.loc 1 175 15 is_stmt 0 view .LVU446
 1764 001c 00B1     		cbz	r0, .L147
 1765              	.LVL109:
 1766              	.L144:
 215:Drivers/GD32F30x_standard_peripheral/Source/gd32f30x_fmc.c **** }
 1767              		.loc 1 215 5 is_stmt 1 view .LVU447
 216:Drivers/GD32F30x_standard_peripheral/Source/gd32f30x_fmc.c **** 
 1768              		.loc 1 216 1 is_stmt 0 view .LVU448
 1769 001e 38BD     		pop	{r3, r4, r5, pc}
 1770              	.LVL110:
 1771              	.L147:
 176:Drivers/GD32F30x_standard_peripheral/Source/gd32f30x_fmc.c ****                 FMC_ADDR0 = page_address;
 1772              		.loc 1 176 17 is_stmt 1 view .LVU449
 176:Drivers/GD32F30x_standard_peripheral/Source/gd32f30x_fmc.c ****                 FMC_ADDR0 = page_address;
 1773              		.loc 1 176 26 is_stmt 0 view .LVU450
 1774 0020 264D     		ldr	r5, .L148+12
 1775 0022 2B69     		ldr	r3, [r5, #16]
 1776 0024 43F00203 		orr	r3, r3, #2
 1777 0028 2B61     		str	r3, [r5, #16]
 177:Drivers/GD32F30x_standard_peripheral/Source/gd32f30x_fmc.c ****                 FMC_CTL0 |= FMC_CTL0_START;
 1778              		.loc 1 177 17 is_stmt 1 view .LVU451
ARM GAS  C:\Users\Prog\AppData\Local\Temp\cclIyEjW.s 			page 53


 177:Drivers/GD32F30x_standard_peripheral/Source/gd32f30x_fmc.c ****                 FMC_CTL0 |= FMC_CTL0_START;
 1779              		.loc 1 177 27 is_stmt 0 view .LVU452
 1780 002a 6C61     		str	r4, [r5, #20]
 178:Drivers/GD32F30x_standard_peripheral/Source/gd32f30x_fmc.c ****                 /* wait for the FMC ready */
 1781              		.loc 1 178 17 is_stmt 1 view .LVU453
 178:Drivers/GD32F30x_standard_peripheral/Source/gd32f30x_fmc.c ****                 /* wait for the FMC ready */
 1782              		.loc 1 178 26 is_stmt 0 view .LVU454
 1783 002c 2B69     		ldr	r3, [r5, #16]
 1784 002e 43F04003 		orr	r3, r3, #64
 1785 0032 2B61     		str	r3, [r5, #16]
 180:Drivers/GD32F30x_standard_peripheral/Source/gd32f30x_fmc.c ****                 /* reset the PER bit */
 1786              		.loc 1 180 17 is_stmt 1 view .LVU455
 180:Drivers/GD32F30x_standard_peripheral/Source/gd32f30x_fmc.c ****                 /* reset the PER bit */
 1787              		.loc 1 180 29 is_stmt 0 view .LVU456
 1788 0034 2048     		ldr	r0, .L148+8
 1789              	.LVL111:
 180:Drivers/GD32F30x_standard_peripheral/Source/gd32f30x_fmc.c ****                 /* reset the PER bit */
 1790              		.loc 1 180 29 view .LVU457
 1791 0036 FFF7FEFF 		bl	fmc_bank0_ready_wait
 1792              	.LVL112:
 182:Drivers/GD32F30x_standard_peripheral/Source/gd32f30x_fmc.c ****             }
 1793              		.loc 1 182 17 is_stmt 1 view .LVU458
 182:Drivers/GD32F30x_standard_peripheral/Source/gd32f30x_fmc.c ****             }
 1794              		.loc 1 182 26 is_stmt 0 view .LVU459
 1795 003a 2B69     		ldr	r3, [r5, #16]
 1796 003c 23F00203 		bic	r3, r3, #2
 1797 0040 2B61     		str	r3, [r5, #16]
 1798 0042 ECE7     		b	.L144
 1799              	.LVL113:
 1800              	.L143:
 186:Drivers/GD32F30x_standard_peripheral/Source/gd32f30x_fmc.c ****             /* if the last operation is completed, start page erase */
 1801              		.loc 1 186 13 is_stmt 1 view .LVU460
 186:Drivers/GD32F30x_standard_peripheral/Source/gd32f30x_fmc.c ****             /* if the last operation is completed, start page erase */
 1802              		.loc 1 186 25 is_stmt 0 view .LVU461
 1803 0044 1C48     		ldr	r0, .L148+8
 1804              	.LVL114:
 186:Drivers/GD32F30x_standard_peripheral/Source/gd32f30x_fmc.c ****             /* if the last operation is completed, start page erase */
 1805              		.loc 1 186 25 view .LVU462
 1806 0046 FFF7FEFF 		bl	fmc_bank1_ready_wait
 1807              	.LVL115:
 188:Drivers/GD32F30x_standard_peripheral/Source/gd32f30x_fmc.c ****                 FMC_CTL1 |= FMC_CTL1_PER;
 1808              		.loc 1 188 13 is_stmt 1 view .LVU463
 188:Drivers/GD32F30x_standard_peripheral/Source/gd32f30x_fmc.c ****                 FMC_CTL1 |= FMC_CTL1_PER;
 1809              		.loc 1 188 15 is_stmt 0 view .LVU464
 1810 004a 0028     		cmp	r0, #0
 1811 004c E7D1     		bne	.L144
 189:Drivers/GD32F30x_standard_peripheral/Source/gd32f30x_fmc.c ****                 FMC_ADDR1 = page_address;
 1812              		.loc 1 189 17 is_stmt 1 view .LVU465
 189:Drivers/GD32F30x_standard_peripheral/Source/gd32f30x_fmc.c ****                 FMC_ADDR1 = page_address;
 1813              		.loc 1 189 26 is_stmt 0 view .LVU466
 1814 004e 1B4B     		ldr	r3, .L148+12
 1815 0050 1A6D     		ldr	r2, [r3, #80]
 1816 0052 42F00202 		orr	r2, r2, #2
 1817 0056 1A65     		str	r2, [r3, #80]
 190:Drivers/GD32F30x_standard_peripheral/Source/gd32f30x_fmc.c ****                 if(FMC_OBSTAT & FMC_OBSTAT_SPC){
 1818              		.loc 1 190 17 is_stmt 1 view .LVU467
 190:Drivers/GD32F30x_standard_peripheral/Source/gd32f30x_fmc.c ****                 if(FMC_OBSTAT & FMC_OBSTAT_SPC){
ARM GAS  C:\Users\Prog\AppData\Local\Temp\cclIyEjW.s 			page 54


 1819              		.loc 1 190 27 is_stmt 0 view .LVU468
 1820 0058 5C65     		str	r4, [r3, #84]
 191:Drivers/GD32F30x_standard_peripheral/Source/gd32f30x_fmc.c ****                     FMC_ADDR0 = page_address;
 1821              		.loc 1 191 17 is_stmt 1 view .LVU469
 191:Drivers/GD32F30x_standard_peripheral/Source/gd32f30x_fmc.c ****                     FMC_ADDR0 = page_address;
 1822              		.loc 1 191 20 is_stmt 0 view .LVU470
 1823 005a DB69     		ldr	r3, [r3, #28]
 191:Drivers/GD32F30x_standard_peripheral/Source/gd32f30x_fmc.c ****                     FMC_ADDR0 = page_address;
 1824              		.loc 1 191 19 view .LVU471
 1825 005c 13F0020F 		tst	r3, #2
 1826 0060 01D0     		beq	.L145
 192:Drivers/GD32F30x_standard_peripheral/Source/gd32f30x_fmc.c ****                 }
 1827              		.loc 1 192 21 is_stmt 1 view .LVU472
 192:Drivers/GD32F30x_standard_peripheral/Source/gd32f30x_fmc.c ****                 }
 1828              		.loc 1 192 31 is_stmt 0 view .LVU473
 1829 0062 164B     		ldr	r3, .L148+12
 1830 0064 5C61     		str	r4, [r3, #20]
 1831              	.L145:
 194:Drivers/GD32F30x_standard_peripheral/Source/gd32f30x_fmc.c ****                 /* wait for the FMC ready */
 1832              		.loc 1 194 17 is_stmt 1 view .LVU474
 194:Drivers/GD32F30x_standard_peripheral/Source/gd32f30x_fmc.c ****                 /* wait for the FMC ready */
 1833              		.loc 1 194 26 is_stmt 0 view .LVU475
 1834 0066 154C     		ldr	r4, .L148+12
 1835              	.LVL116:
 194:Drivers/GD32F30x_standard_peripheral/Source/gd32f30x_fmc.c ****                 /* wait for the FMC ready */
 1836              		.loc 1 194 26 view .LVU476
 1837 0068 236D     		ldr	r3, [r4, #80]
 1838 006a 43F04003 		orr	r3, r3, #64
 1839 006e 2365     		str	r3, [r4, #80]
 196:Drivers/GD32F30x_standard_peripheral/Source/gd32f30x_fmc.c ****                 /* reset the PER bit */
 1840              		.loc 1 196 17 is_stmt 1 view .LVU477
 196:Drivers/GD32F30x_standard_peripheral/Source/gd32f30x_fmc.c ****                 /* reset the PER bit */
 1841              		.loc 1 196 29 is_stmt 0 view .LVU478
 1842 0070 1148     		ldr	r0, .L148+8
 1843              	.LVL117:
 196:Drivers/GD32F30x_standard_peripheral/Source/gd32f30x_fmc.c ****                 /* reset the PER bit */
 1844              		.loc 1 196 29 view .LVU479
 1845 0072 FFF7FEFF 		bl	fmc_bank1_ready_wait
 1846              	.LVL118:
 198:Drivers/GD32F30x_standard_peripheral/Source/gd32f30x_fmc.c ****             }
 1847              		.loc 1 198 17 is_stmt 1 view .LVU480
 198:Drivers/GD32F30x_standard_peripheral/Source/gd32f30x_fmc.c ****             }
 1848              		.loc 1 198 26 is_stmt 0 view .LVU481
 1849 0076 236D     		ldr	r3, [r4, #80]
 1850 0078 23F00203 		bic	r3, r3, #2
 1851 007c 2365     		str	r3, [r4, #80]
 1852 007e CEE7     		b	.L144
 1853              	.LVL119:
 1854              	.L142:
 202:Drivers/GD32F30x_standard_peripheral/Source/gd32f30x_fmc.c ****         /* if the last operation is completed, start page erase */
 1855              		.loc 1 202 9 is_stmt 1 view .LVU482
 202:Drivers/GD32F30x_standard_peripheral/Source/gd32f30x_fmc.c ****         /* if the last operation is completed, start page erase */
 1856              		.loc 1 202 21 is_stmt 0 view .LVU483
 1857 0080 0D48     		ldr	r0, .L148+8
 1858              	.LVL120:
 202:Drivers/GD32F30x_standard_peripheral/Source/gd32f30x_fmc.c ****         /* if the last operation is completed, start page erase */
 1859              		.loc 1 202 21 view .LVU484
ARM GAS  C:\Users\Prog\AppData\Local\Temp\cclIyEjW.s 			page 55


 1860 0082 FFF7FEFF 		bl	fmc_bank0_ready_wait
 1861              	.LVL121:
 204:Drivers/GD32F30x_standard_peripheral/Source/gd32f30x_fmc.c ****             FMC_CTL0 |= FMC_CTL0_PER;
 1862              		.loc 1 204 9 is_stmt 1 view .LVU485
 204:Drivers/GD32F30x_standard_peripheral/Source/gd32f30x_fmc.c ****             FMC_CTL0 |= FMC_CTL0_PER;
 1863              		.loc 1 204 11 is_stmt 0 view .LVU486
 1864 0086 0028     		cmp	r0, #0
 1865 0088 C9D1     		bne	.L144
 205:Drivers/GD32F30x_standard_peripheral/Source/gd32f30x_fmc.c ****             FMC_ADDR0 = page_address;
 1866              		.loc 1 205 13 is_stmt 1 view .LVU487
 205:Drivers/GD32F30x_standard_peripheral/Source/gd32f30x_fmc.c ****             FMC_ADDR0 = page_address;
 1867              		.loc 1 205 22 is_stmt 0 view .LVU488
 1868 008a 0C4D     		ldr	r5, .L148+12
 1869 008c 2B69     		ldr	r3, [r5, #16]
 1870 008e 43F00203 		orr	r3, r3, #2
 1871 0092 2B61     		str	r3, [r5, #16]
 206:Drivers/GD32F30x_standard_peripheral/Source/gd32f30x_fmc.c ****             FMC_CTL0 |= FMC_CTL0_START;
 1872              		.loc 1 206 13 is_stmt 1 view .LVU489
 206:Drivers/GD32F30x_standard_peripheral/Source/gd32f30x_fmc.c ****             FMC_CTL0 |= FMC_CTL0_START;
 1873              		.loc 1 206 23 is_stmt 0 view .LVU490
 1874 0094 6C61     		str	r4, [r5, #20]
 207:Drivers/GD32F30x_standard_peripheral/Source/gd32f30x_fmc.c ****             /* wait for the FMC ready */
 1875              		.loc 1 207 13 is_stmt 1 view .LVU491
 207:Drivers/GD32F30x_standard_peripheral/Source/gd32f30x_fmc.c ****             /* wait for the FMC ready */
 1876              		.loc 1 207 22 is_stmt 0 view .LVU492
 1877 0096 2B69     		ldr	r3, [r5, #16]
 1878 0098 43F04003 		orr	r3, r3, #64
 1879 009c 2B61     		str	r3, [r5, #16]
 209:Drivers/GD32F30x_standard_peripheral/Source/gd32f30x_fmc.c ****             /* reset the PER bit */
 1880              		.loc 1 209 13 is_stmt 1 view .LVU493
 209:Drivers/GD32F30x_standard_peripheral/Source/gd32f30x_fmc.c ****             /* reset the PER bit */
 1881              		.loc 1 209 25 is_stmt 0 view .LVU494
 1882 009e 0648     		ldr	r0, .L148+8
 1883              	.LVL122:
 209:Drivers/GD32F30x_standard_peripheral/Source/gd32f30x_fmc.c ****             /* reset the PER bit */
 1884              		.loc 1 209 25 view .LVU495
 1885 00a0 FFF7FEFF 		bl	fmc_bank0_ready_wait
 1886              	.LVL123:
 211:Drivers/GD32F30x_standard_peripheral/Source/gd32f30x_fmc.c ****         }
 1887              		.loc 1 211 13 is_stmt 1 view .LVU496
 211:Drivers/GD32F30x_standard_peripheral/Source/gd32f30x_fmc.c ****         }
 1888              		.loc 1 211 22 is_stmt 0 view .LVU497
 1889 00a4 2B69     		ldr	r3, [r5, #16]
 1890 00a6 23F00203 		bic	r3, r3, #2
 1891 00aa 2B61     		str	r3, [r5, #16]
 1892 00ac B7E7     		b	.L144
 1893              	.L149:
 1894 00ae 00BF     		.align	2
 1895              	.L148:
 1896 00b0 00F7FF1F 		.word	536868608
 1897 00b4 FFFF0708 		.word	134742015
 1898 00b8 0000FF0F 		.word	268369920
 1899 00bc 00200240 		.word	1073881088
 1900              		.cfi_endproc
 1901              	.LFE123:
 1903              		.section	.text.fmc_mass_erase,"ax",%progbits
 1904              		.align	1
ARM GAS  C:\Users\Prog\AppData\Local\Temp\cclIyEjW.s 			page 56


 1905              		.global	fmc_mass_erase
 1906              		.syntax unified
 1907              		.thumb
 1908              		.thumb_func
 1909              		.fpu fpv4-sp-d16
 1911              	fmc_mass_erase:
 1912              	.LFB124:
 225:Drivers/GD32F30x_standard_peripheral/Source/gd32f30x_fmc.c ****     fmc_state_enum fmc_state;
 1913              		.loc 1 225 1 is_stmt 1 view -0
 1914              		.cfi_startproc
 1915              		@ args = 0, pretend = 0, frame = 0
 1916              		@ frame_needed = 0, uses_anonymous_args = 0
 1917 0000 10B5     		push	{r4, lr}
 1918              	.LCFI9:
 1919              		.cfi_def_cfa_offset 8
 1920              		.cfi_offset 4, -8
 1921              		.cfi_offset 14, -4
 226:Drivers/GD32F30x_standard_peripheral/Source/gd32f30x_fmc.c ****     if(FMC_BANK0_SIZE < FMC_SIZE){
 1922              		.loc 1 226 5 view .LVU499
 227:Drivers/GD32F30x_standard_peripheral/Source/gd32f30x_fmc.c ****         /* wait for the FMC ready */
 1923              		.loc 1 227 5 view .LVU500
 227:Drivers/GD32F30x_standard_peripheral/Source/gd32f30x_fmc.c ****         /* wait for the FMC ready */
 1924              		.loc 1 227 25 is_stmt 0 view .LVU501
 1925 0002 264B     		ldr	r3, .L156
 1926 0004 B3F8E030 		ldrh	r3, [r3, #224]
 227:Drivers/GD32F30x_standard_peripheral/Source/gd32f30x_fmc.c ****         /* wait for the FMC ready */
 1927              		.loc 1 227 7 view .LVU502
 1928 0008 B3F5007F 		cmp	r3, #512
 1929 000c 2DD9     		bls	.L151
 229:Drivers/GD32F30x_standard_peripheral/Source/gd32f30x_fmc.c ****         if(FMC_READY == fmc_state){
 1930              		.loc 1 229 9 is_stmt 1 view .LVU503
 229:Drivers/GD32F30x_standard_peripheral/Source/gd32f30x_fmc.c ****         if(FMC_READY == fmc_state){
 1931              		.loc 1 229 21 is_stmt 0 view .LVU504
 1932 000e 2448     		ldr	r0, .L156+4
 1933 0010 FFF7FEFF 		bl	fmc_bank0_ready_wait
 1934              	.LVL124:
 230:Drivers/GD32F30x_standard_peripheral/Source/gd32f30x_fmc.c ****             /* start whole chip erase */
 1935              		.loc 1 230 9 is_stmt 1 view .LVU505
 230:Drivers/GD32F30x_standard_peripheral/Source/gd32f30x_fmc.c ****             /* start whole chip erase */
 1936              		.loc 1 230 11 is_stmt 0 view .LVU506
 1937 0014 90B9     		cbnz	r0, .L152
 232:Drivers/GD32F30x_standard_peripheral/Source/gd32f30x_fmc.c ****             FMC_CTL0 |= FMC_CTL0_START;
 1938              		.loc 1 232 13 is_stmt 1 view .LVU507
 232:Drivers/GD32F30x_standard_peripheral/Source/gd32f30x_fmc.c ****             FMC_CTL0 |= FMC_CTL0_START;
 1939              		.loc 1 232 22 is_stmt 0 view .LVU508
 1940 0016 234B     		ldr	r3, .L156+8
 1941 0018 1A69     		ldr	r2, [r3, #16]
 1942 001a 42F00402 		orr	r2, r2, #4
 1943 001e 1A61     		str	r2, [r3, #16]
 233:Drivers/GD32F30x_standard_peripheral/Source/gd32f30x_fmc.c ****             /* wait for the FMC ready */
 1944              		.loc 1 233 13 is_stmt 1 view .LVU509
 233:Drivers/GD32F30x_standard_peripheral/Source/gd32f30x_fmc.c ****             /* wait for the FMC ready */
 1945              		.loc 1 233 22 is_stmt 0 view .LVU510
 1946 0020 1A69     		ldr	r2, [r3, #16]
 1947 0022 42F04002 		orr	r2, r2, #64
 1948 0026 1A61     		str	r2, [r3, #16]
 235:Drivers/GD32F30x_standard_peripheral/Source/gd32f30x_fmc.c ****             if(FMC_READY != fmc_state){
ARM GAS  C:\Users\Prog\AppData\Local\Temp\cclIyEjW.s 			page 57


 1949              		.loc 1 235 13 is_stmt 1 view .LVU511
 235:Drivers/GD32F30x_standard_peripheral/Source/gd32f30x_fmc.c ****             if(FMC_READY != fmc_state){
 1950              		.loc 1 235 25 is_stmt 0 view .LVU512
 1951 0028 1D48     		ldr	r0, .L156+4
 1952              	.LVL125:
 235:Drivers/GD32F30x_standard_peripheral/Source/gd32f30x_fmc.c ****             if(FMC_READY != fmc_state){
 1953              		.loc 1 235 25 view .LVU513
 1954 002a FFF7FEFF 		bl	fmc_bank0_ready_wait
 1955              	.LVL126:
 236:Drivers/GD32F30x_standard_peripheral/Source/gd32f30x_fmc.c ****                 return fmc_state;
 1956              		.loc 1 236 13 is_stmt 1 view .LVU514
 236:Drivers/GD32F30x_standard_peripheral/Source/gd32f30x_fmc.c ****                 return fmc_state;
 1957              		.loc 1 236 15 is_stmt 0 view .LVU515
 1958 002e 0346     		mov	r3, r0
 1959 0030 00BB     		cbnz	r0, .L153
 240:Drivers/GD32F30x_standard_peripheral/Source/gd32f30x_fmc.c ****         }
 1960              		.loc 1 240 13 is_stmt 1 view .LVU516
 240:Drivers/GD32F30x_standard_peripheral/Source/gd32f30x_fmc.c ****         }
 1961              		.loc 1 240 22 is_stmt 0 view .LVU517
 1962 0032 1C4A     		ldr	r2, .L156+8
 1963 0034 1369     		ldr	r3, [r2, #16]
 1964 0036 23F00403 		bic	r3, r3, #4
 1965 003a 1361     		str	r3, [r2, #16]
 1966              	.L152:
 242:Drivers/GD32F30x_standard_peripheral/Source/gd32f30x_fmc.c ****         if(FMC_READY == fmc_state){
 1967              		.loc 1 242 9 is_stmt 1 view .LVU518
 242:Drivers/GD32F30x_standard_peripheral/Source/gd32f30x_fmc.c ****         if(FMC_READY == fmc_state){
 1968              		.loc 1 242 21 is_stmt 0 view .LVU519
 1969 003c 1848     		ldr	r0, .L156+4
 1970              	.LVL127:
 242:Drivers/GD32F30x_standard_peripheral/Source/gd32f30x_fmc.c ****         if(FMC_READY == fmc_state){
 1971              		.loc 1 242 21 view .LVU520
 1972 003e FFF7FEFF 		bl	fmc_bank1_ready_wait
 1973              	.LVL128:
 243:Drivers/GD32F30x_standard_peripheral/Source/gd32f30x_fmc.c ****             /* start whole chip erase */
 1974              		.loc 1 243 9 is_stmt 1 view .LVU521
 243:Drivers/GD32F30x_standard_peripheral/Source/gd32f30x_fmc.c ****             /* start whole chip erase */
 1975              		.loc 1 243 11 is_stmt 0 view .LVU522
 1976 0042 0346     		mov	r3, r0
 1977 0044 B0B9     		cbnz	r0, .L153
 245:Drivers/GD32F30x_standard_peripheral/Source/gd32f30x_fmc.c ****             FMC_CTL1 |= FMC_CTL1_START;
 1978              		.loc 1 245 13 is_stmt 1 view .LVU523
 245:Drivers/GD32F30x_standard_peripheral/Source/gd32f30x_fmc.c ****             FMC_CTL1 |= FMC_CTL1_START;
 1979              		.loc 1 245 22 is_stmt 0 view .LVU524
 1980 0046 174C     		ldr	r4, .L156+8
 1981 0048 236D     		ldr	r3, [r4, #80]
 1982 004a 43F00403 		orr	r3, r3, #4
 1983 004e 2365     		str	r3, [r4, #80]
 246:Drivers/GD32F30x_standard_peripheral/Source/gd32f30x_fmc.c ****             /* wait for the FMC ready */
 1984              		.loc 1 246 13 is_stmt 1 view .LVU525
 246:Drivers/GD32F30x_standard_peripheral/Source/gd32f30x_fmc.c ****             /* wait for the FMC ready */
 1985              		.loc 1 246 22 is_stmt 0 view .LVU526
 1986 0050 236D     		ldr	r3, [r4, #80]
 1987 0052 43F04003 		orr	r3, r3, #64
 1988 0056 2365     		str	r3, [r4, #80]
 248:Drivers/GD32F30x_standard_peripheral/Source/gd32f30x_fmc.c ****             /* reset the MER bit */
 1989              		.loc 1 248 13 is_stmt 1 view .LVU527
ARM GAS  C:\Users\Prog\AppData\Local\Temp\cclIyEjW.s 			page 58


 248:Drivers/GD32F30x_standard_peripheral/Source/gd32f30x_fmc.c ****             /* reset the MER bit */
 1990              		.loc 1 248 25 is_stmt 0 view .LVU528
 1991 0058 1148     		ldr	r0, .L156+4
 1992              	.LVL129:
 248:Drivers/GD32F30x_standard_peripheral/Source/gd32f30x_fmc.c ****             /* reset the MER bit */
 1993              		.loc 1 248 25 view .LVU529
 1994 005a FFF7FEFF 		bl	fmc_bank1_ready_wait
 1995              	.LVL130:
 1996 005e 0346     		mov	r3, r0
 1997              	.LVL131:
 250:Drivers/GD32F30x_standard_peripheral/Source/gd32f30x_fmc.c ****         }
 1998              		.loc 1 250 13 is_stmt 1 view .LVU530
 250:Drivers/GD32F30x_standard_peripheral/Source/gd32f30x_fmc.c ****         }
 1999              		.loc 1 250 22 is_stmt 0 view .LVU531
 2000 0060 226D     		ldr	r2, [r4, #80]
 2001 0062 22F00402 		bic	r2, r2, #4
 2002 0066 2265     		str	r2, [r4, #80]
 2003 0068 04E0     		b	.L153
 2004              	.LVL132:
 2005              	.L151:
 253:Drivers/GD32F30x_standard_peripheral/Source/gd32f30x_fmc.c ****         if(FMC_READY == fmc_state){
 2006              		.loc 1 253 9 is_stmt 1 view .LVU532
 253:Drivers/GD32F30x_standard_peripheral/Source/gd32f30x_fmc.c ****         if(FMC_READY == fmc_state){
 2007              		.loc 1 253 21 is_stmt 0 view .LVU533
 2008 006a 0D48     		ldr	r0, .L156+4
 2009 006c FFF7FEFF 		bl	fmc_bank0_ready_wait
 2010              	.LVL133:
 254:Drivers/GD32F30x_standard_peripheral/Source/gd32f30x_fmc.c ****             /* start whole chip erase */
 2011              		.loc 1 254 9 is_stmt 1 view .LVU534
 254:Drivers/GD32F30x_standard_peripheral/Source/gd32f30x_fmc.c ****             /* start whole chip erase */
 2012              		.loc 1 254 11 is_stmt 0 view .LVU535
 2013 0070 0346     		mov	r3, r0
 2014 0072 08B1     		cbz	r0, .L155
 2015              	.LVL134:
 2016              	.L153:
 266:Drivers/GD32F30x_standard_peripheral/Source/gd32f30x_fmc.c **** 
 2017              		.loc 1 266 1 view .LVU536
 2018 0074 1846     		mov	r0, r3
 2019 0076 10BD     		pop	{r4, pc}
 2020              	.LVL135:
 2021              	.L155:
 256:Drivers/GD32F30x_standard_peripheral/Source/gd32f30x_fmc.c ****             FMC_CTL0 |= FMC_CTL0_START;    
 2022              		.loc 1 256 13 is_stmt 1 view .LVU537
 256:Drivers/GD32F30x_standard_peripheral/Source/gd32f30x_fmc.c ****             FMC_CTL0 |= FMC_CTL0_START;    
 2023              		.loc 1 256 22 is_stmt 0 view .LVU538
 2024 0078 0A4C     		ldr	r4, .L156+8
 2025 007a 2369     		ldr	r3, [r4, #16]
 2026 007c 43F00403 		orr	r3, r3, #4
 2027 0080 2361     		str	r3, [r4, #16]
 257:Drivers/GD32F30x_standard_peripheral/Source/gd32f30x_fmc.c ****             /* wait for the FMC ready */
 2028              		.loc 1 257 13 is_stmt 1 view .LVU539
 257:Drivers/GD32F30x_standard_peripheral/Source/gd32f30x_fmc.c ****             /* wait for the FMC ready */
 2029              		.loc 1 257 22 is_stmt 0 view .LVU540
 2030 0082 2369     		ldr	r3, [r4, #16]
 2031 0084 43F04003 		orr	r3, r3, #64
 2032 0088 2361     		str	r3, [r4, #16]
 259:Drivers/GD32F30x_standard_peripheral/Source/gd32f30x_fmc.c ****             /* reset the MER bit */
ARM GAS  C:\Users\Prog\AppData\Local\Temp\cclIyEjW.s 			page 59


 2033              		.loc 1 259 13 is_stmt 1 view .LVU541
 259:Drivers/GD32F30x_standard_peripheral/Source/gd32f30x_fmc.c ****             /* reset the MER bit */
 2034              		.loc 1 259 25 is_stmt 0 view .LVU542
 2035 008a 0548     		ldr	r0, .L156+4
 2036              	.LVL136:
 259:Drivers/GD32F30x_standard_peripheral/Source/gd32f30x_fmc.c ****             /* reset the MER bit */
 2037              		.loc 1 259 25 view .LVU543
 2038 008c FFF7FEFF 		bl	fmc_bank0_ready_wait
 2039              	.LVL137:
 2040 0090 0346     		mov	r3, r0
 2041              	.LVL138:
 261:Drivers/GD32F30x_standard_peripheral/Source/gd32f30x_fmc.c ****         }
 2042              		.loc 1 261 13 is_stmt 1 view .LVU544
 261:Drivers/GD32F30x_standard_peripheral/Source/gd32f30x_fmc.c ****         }
 2043              		.loc 1 261 22 is_stmt 0 view .LVU545
 2044 0092 2269     		ldr	r2, [r4, #16]
 2045 0094 22F00402 		bic	r2, r2, #4
 2046 0098 2261     		str	r2, [r4, #16]
 2047 009a EBE7     		b	.L153
 2048              	.L157:
 2049              		.align	2
 2050              	.L156:
 2051 009c 00F7FF1F 		.word	536868608
 2052 00a0 0000FF0F 		.word	268369920
 2053 00a4 00200240 		.word	1073881088
 2054              		.cfi_endproc
 2055              	.LFE124:
 2057              		.section	.text.fmc_bank1_erase,"ax",%progbits
 2058              		.align	1
 2059              		.global	fmc_bank1_erase
 2060              		.syntax unified
 2061              		.thumb
 2062              		.thumb_func
 2063              		.fpu fpv4-sp-d16
 2065              	fmc_bank1_erase:
 2066              	.LFB126:
 300:Drivers/GD32F30x_standard_peripheral/Source/gd32f30x_fmc.c ****     fmc_state_enum fmc_state = FMC_READY;
 2067              		.loc 1 300 1 is_stmt 1 view -0
 2068              		.cfi_startproc
 2069              		@ args = 0, pretend = 0, frame = 0
 2070              		@ frame_needed = 0, uses_anonymous_args = 0
 2071 0000 10B5     		push	{r4, lr}
 2072              	.LCFI10:
 2073              		.cfi_def_cfa_offset 8
 2074              		.cfi_offset 4, -8
 2075              		.cfi_offset 14, -4
 301:Drivers/GD32F30x_standard_peripheral/Source/gd32f30x_fmc.c ****     /* wait for the FMC ready */
 2076              		.loc 1 301 5 view .LVU547
 2077              	.LVL139:
 303:Drivers/GD32F30x_standard_peripheral/Source/gd32f30x_fmc.c ****   
 2078              		.loc 1 303 5 view .LVU548
 303:Drivers/GD32F30x_standard_peripheral/Source/gd32f30x_fmc.c ****   
 2079              		.loc 1 303 17 is_stmt 0 view .LVU549
 2080 0002 0B48     		ldr	r0, .L162
 2081 0004 FFF7FEFF 		bl	fmc_bank1_ready_wait
 2082              	.LVL140:
 305:Drivers/GD32F30x_standard_peripheral/Source/gd32f30x_fmc.c ****         /* start FMC bank1 erase */
ARM GAS  C:\Users\Prog\AppData\Local\Temp\cclIyEjW.s 			page 60


 2083              		.loc 1 305 4 is_stmt 1 view .LVU550
 305:Drivers/GD32F30x_standard_peripheral/Source/gd32f30x_fmc.c ****         /* start FMC bank1 erase */
 2084              		.loc 1 305 6 is_stmt 0 view .LVU551
 2085 0008 00B1     		cbz	r0, .L161
 2086              	.L159:
 2087              	.LVL141:
 315:Drivers/GD32F30x_standard_peripheral/Source/gd32f30x_fmc.c **** }
 2088              		.loc 1 315 5 is_stmt 1 view .LVU552
 316:Drivers/GD32F30x_standard_peripheral/Source/gd32f30x_fmc.c **** 
 2089              		.loc 1 316 1 is_stmt 0 view .LVU553
 2090 000a 10BD     		pop	{r4, pc}
 2091              	.LVL142:
 2092              	.L161:
 307:Drivers/GD32F30x_standard_peripheral/Source/gd32f30x_fmc.c ****         FMC_CTL1 |= FMC_CTL1_START;
 2093              		.loc 1 307 9 is_stmt 1 view .LVU554
 307:Drivers/GD32F30x_standard_peripheral/Source/gd32f30x_fmc.c ****         FMC_CTL1 |= FMC_CTL1_START;
 2094              		.loc 1 307 18 is_stmt 0 view .LVU555
 2095 000c 094C     		ldr	r4, .L162+4
 2096 000e 236D     		ldr	r3, [r4, #80]
 2097 0010 43F00403 		orr	r3, r3, #4
 2098 0014 2365     		str	r3, [r4, #80]
 308:Drivers/GD32F30x_standard_peripheral/Source/gd32f30x_fmc.c ****         /* wait for the FMC ready */
 2099              		.loc 1 308 9 is_stmt 1 view .LVU556
 308:Drivers/GD32F30x_standard_peripheral/Source/gd32f30x_fmc.c ****         /* wait for the FMC ready */
 2100              		.loc 1 308 18 is_stmt 0 view .LVU557
 2101 0016 236D     		ldr	r3, [r4, #80]
 2102 0018 43F04003 		orr	r3, r3, #64
 2103 001c 2365     		str	r3, [r4, #80]
 310:Drivers/GD32F30x_standard_peripheral/Source/gd32f30x_fmc.c ****         /* reset the MER bit */
 2104              		.loc 1 310 9 is_stmt 1 view .LVU558
 310:Drivers/GD32F30x_standard_peripheral/Source/gd32f30x_fmc.c ****         /* reset the MER bit */
 2105              		.loc 1 310 21 is_stmt 0 view .LVU559
 2106 001e 0448     		ldr	r0, .L162
 2107 0020 FFF7FEFF 		bl	fmc_bank1_ready_wait
 2108              	.LVL143:
 312:Drivers/GD32F30x_standard_peripheral/Source/gd32f30x_fmc.c ****     }
 2109              		.loc 1 312 9 is_stmt 1 view .LVU560
 312:Drivers/GD32F30x_standard_peripheral/Source/gd32f30x_fmc.c ****     }
 2110              		.loc 1 312 18 is_stmt 0 view .LVU561
 2111 0024 236D     		ldr	r3, [r4, #80]
 2112 0026 23F00403 		bic	r3, r3, #4
 2113 002a 2365     		str	r3, [r4, #80]
 2114 002c EDE7     		b	.L159
 2115              	.L163:
 2116 002e 00BF     		.align	2
 2117              	.L162:
 2118 0030 0000FF0F 		.word	268369920
 2119 0034 00200240 		.word	1073881088
 2120              		.cfi_endproc
 2121              	.LFE126:
 2123              		.section	.text.fmc_word_program,"ax",%progbits
 2124              		.align	1
 2125              		.global	fmc_word_program
 2126              		.syntax unified
 2127              		.thumb
 2128              		.thumb_func
 2129              		.fpu fpv4-sp-d16
ARM GAS  C:\Users\Prog\AppData\Local\Temp\cclIyEjW.s 			page 61


 2131              	fmc_word_program:
 2132              	.LVL144:
 2133              	.LFB127:
 326:Drivers/GD32F30x_standard_peripheral/Source/gd32f30x_fmc.c ****     fmc_state_enum fmc_state = FMC_READY;
 2134              		.loc 1 326 1 is_stmt 1 view -0
 2135              		.cfi_startproc
 2136              		@ args = 0, pretend = 0, frame = 0
 2137              		@ frame_needed = 0, uses_anonymous_args = 0
 326:Drivers/GD32F30x_standard_peripheral/Source/gd32f30x_fmc.c ****     fmc_state_enum fmc_state = FMC_READY;
 2138              		.loc 1 326 1 is_stmt 0 view .LVU563
 2139 0000 70B5     		push	{r4, r5, r6, lr}
 2140              	.LCFI11:
 2141              		.cfi_def_cfa_offset 16
 2142              		.cfi_offset 4, -16
 2143              		.cfi_offset 5, -12
 2144              		.cfi_offset 6, -8
 2145              		.cfi_offset 14, -4
 2146 0002 0546     		mov	r5, r0
 2147 0004 0C46     		mov	r4, r1
 327:Drivers/GD32F30x_standard_peripheral/Source/gd32f30x_fmc.c ****     if(FMC_BANK0_SIZE < FMC_SIZE){
 2148              		.loc 1 327 5 is_stmt 1 view .LVU564
 2149              	.LVL145:
 328:Drivers/GD32F30x_standard_peripheral/Source/gd32f30x_fmc.c ****         if(FMC_BANK0_END_ADDRESS > address){
 2150              		.loc 1 328 5 view .LVU565
 328:Drivers/GD32F30x_standard_peripheral/Source/gd32f30x_fmc.c ****         if(FMC_BANK0_END_ADDRESS > address){
 2151              		.loc 1 328 25 is_stmt 0 view .LVU566
 2152 0006 244B     		ldr	r3, .L170
 2153 0008 B3F8E030 		ldrh	r3, [r3, #224]
 328:Drivers/GD32F30x_standard_peripheral/Source/gd32f30x_fmc.c ****         if(FMC_BANK0_END_ADDRESS > address){
 2154              		.loc 1 328 7 view .LVU567
 2155 000c B3F5007F 		cmp	r3, #512
 2156 0010 2DD9     		bls	.L165
 329:Drivers/GD32F30x_standard_peripheral/Source/gd32f30x_fmc.c ****             fmc_state = fmc_bank0_ready_wait(FMC_TIMEOUT_COUNT); 
 2157              		.loc 1 329 9 is_stmt 1 view .LVU568
 329:Drivers/GD32F30x_standard_peripheral/Source/gd32f30x_fmc.c ****             fmc_state = fmc_bank0_ready_wait(FMC_TIMEOUT_COUNT); 
 2158              		.loc 1 329 11 is_stmt 0 view .LVU569
 2159 0012 224B     		ldr	r3, .L170+4
 2160 0014 9842     		cmp	r0, r3
 2161 0016 15D2     		bcs	.L166
 330:Drivers/GD32F30x_standard_peripheral/Source/gd32f30x_fmc.c ****   
 2162              		.loc 1 330 13 is_stmt 1 view .LVU570
 330:Drivers/GD32F30x_standard_peripheral/Source/gd32f30x_fmc.c ****   
 2163              		.loc 1 330 25 is_stmt 0 view .LVU571
 2164 0018 2148     		ldr	r0, .L170+8
 2165              	.LVL146:
 330:Drivers/GD32F30x_standard_peripheral/Source/gd32f30x_fmc.c ****   
 2166              		.loc 1 330 25 view .LVU572
 2167 001a FFF7FEFF 		bl	fmc_bank0_ready_wait
 2168              	.LVL147:
 332:Drivers/GD32F30x_standard_peripheral/Source/gd32f30x_fmc.c ****                 /* set the PG bit to start program */
 2169              		.loc 1 332 13 is_stmt 1 view .LVU573
 332:Drivers/GD32F30x_standard_peripheral/Source/gd32f30x_fmc.c ****                 /* set the PG bit to start program */
 2170              		.loc 1 332 15 is_stmt 0 view .LVU574
 2171 001e 0346     		mov	r3, r0
 2172 0020 08B1     		cbz	r0, .L169
 2173              	.LVL148:
 2174              	.L167:
ARM GAS  C:\Users\Prog\AppData\Local\Temp\cclIyEjW.s 			page 62


 368:Drivers/GD32F30x_standard_peripheral/Source/gd32f30x_fmc.c **** }
 2175              		.loc 1 368 5 is_stmt 1 view .LVU575
 369:Drivers/GD32F30x_standard_peripheral/Source/gd32f30x_fmc.c **** 
 2176              		.loc 1 369 1 is_stmt 0 view .LVU576
 2177 0022 1846     		mov	r0, r3
 2178 0024 70BD     		pop	{r4, r5, r6, pc}
 2179              	.LVL149:
 2180              	.L169:
 334:Drivers/GD32F30x_standard_peripheral/Source/gd32f30x_fmc.c ****                 REG32(address) = data;
 2181              		.loc 1 334 17 is_stmt 1 view .LVU577
 334:Drivers/GD32F30x_standard_peripheral/Source/gd32f30x_fmc.c ****                 REG32(address) = data;
 2182              		.loc 1 334 26 is_stmt 0 view .LVU578
 2183 0026 1F4E     		ldr	r6, .L170+12
 2184 0028 3369     		ldr	r3, [r6, #16]
 2185 002a 43F00103 		orr	r3, r3, #1
 2186 002e 3361     		str	r3, [r6, #16]
 335:Drivers/GD32F30x_standard_peripheral/Source/gd32f30x_fmc.c ****                 /* wait for the FMC ready */
 2187              		.loc 1 335 17 is_stmt 1 view .LVU579
 335:Drivers/GD32F30x_standard_peripheral/Source/gd32f30x_fmc.c ****                 /* wait for the FMC ready */
 2188              		.loc 1 335 32 is_stmt 0 view .LVU580
 2189 0030 2C60     		str	r4, [r5]
 337:Drivers/GD32F30x_standard_peripheral/Source/gd32f30x_fmc.c ****                 /* reset the PG bit */
 2190              		.loc 1 337 17 is_stmt 1 view .LVU581
 337:Drivers/GD32F30x_standard_peripheral/Source/gd32f30x_fmc.c ****                 /* reset the PG bit */
 2191              		.loc 1 337 29 is_stmt 0 view .LVU582
 2192 0032 1B48     		ldr	r0, .L170+8
 2193              	.LVL150:
 337:Drivers/GD32F30x_standard_peripheral/Source/gd32f30x_fmc.c ****                 /* reset the PG bit */
 2194              		.loc 1 337 29 view .LVU583
 2195 0034 FFF7FEFF 		bl	fmc_bank0_ready_wait
 2196              	.LVL151:
 2197 0038 0346     		mov	r3, r0
 2198              	.LVL152:
 339:Drivers/GD32F30x_standard_peripheral/Source/gd32f30x_fmc.c ****             }
 2199              		.loc 1 339 17 is_stmt 1 view .LVU584
 339:Drivers/GD32F30x_standard_peripheral/Source/gd32f30x_fmc.c ****             }
 2200              		.loc 1 339 26 is_stmt 0 view .LVU585
 2201 003a 3269     		ldr	r2, [r6, #16]
 2202 003c 22F00102 		bic	r2, r2, #1
 2203 0040 3261     		str	r2, [r6, #16]
 2204 0042 EEE7     		b	.L167
 2205              	.LVL153:
 2206              	.L166:
 342:Drivers/GD32F30x_standard_peripheral/Source/gd32f30x_fmc.c ****   
 2207              		.loc 1 342 13 is_stmt 1 view .LVU586
 342:Drivers/GD32F30x_standard_peripheral/Source/gd32f30x_fmc.c ****   
 2208              		.loc 1 342 25 is_stmt 0 view .LVU587
 2209 0044 1648     		ldr	r0, .L170+8
 2210              	.LVL154:
 342:Drivers/GD32F30x_standard_peripheral/Source/gd32f30x_fmc.c ****   
 2211              		.loc 1 342 25 view .LVU588
 2212 0046 FFF7FEFF 		bl	fmc_bank1_ready_wait
 2213              	.LVL155:
 344:Drivers/GD32F30x_standard_peripheral/Source/gd32f30x_fmc.c ****                 /* set the PG bit to start program */
 2214              		.loc 1 344 13 is_stmt 1 view .LVU589
 344:Drivers/GD32F30x_standard_peripheral/Source/gd32f30x_fmc.c ****                 /* set the PG bit to start program */
 2215              		.loc 1 344 15 is_stmt 0 view .LVU590
ARM GAS  C:\Users\Prog\AppData\Local\Temp\cclIyEjW.s 			page 63


 2216 004a 0346     		mov	r3, r0
 2217 004c 0028     		cmp	r0, #0
 2218 004e E8D1     		bne	.L167
 346:Drivers/GD32F30x_standard_peripheral/Source/gd32f30x_fmc.c ****                 REG32(address) = data;
 2219              		.loc 1 346 17 is_stmt 1 view .LVU591
 346:Drivers/GD32F30x_standard_peripheral/Source/gd32f30x_fmc.c ****                 REG32(address) = data;
 2220              		.loc 1 346 26 is_stmt 0 view .LVU592
 2221 0050 144E     		ldr	r6, .L170+12
 2222 0052 336D     		ldr	r3, [r6, #80]
 2223 0054 43F00103 		orr	r3, r3, #1
 2224 0058 3365     		str	r3, [r6, #80]
 347:Drivers/GD32F30x_standard_peripheral/Source/gd32f30x_fmc.c ****                 /* wait for the FMC ready */
 2225              		.loc 1 347 17 is_stmt 1 view .LVU593
 347:Drivers/GD32F30x_standard_peripheral/Source/gd32f30x_fmc.c ****                 /* wait for the FMC ready */
 2226              		.loc 1 347 32 is_stmt 0 view .LVU594
 2227 005a 2C60     		str	r4, [r5]
 349:Drivers/GD32F30x_standard_peripheral/Source/gd32f30x_fmc.c ****                 /* reset the PG bit */
 2228              		.loc 1 349 17 is_stmt 1 view .LVU595
 349:Drivers/GD32F30x_standard_peripheral/Source/gd32f30x_fmc.c ****                 /* reset the PG bit */
 2229              		.loc 1 349 29 is_stmt 0 view .LVU596
 2230 005c 1048     		ldr	r0, .L170+8
 2231              	.LVL156:
 349:Drivers/GD32F30x_standard_peripheral/Source/gd32f30x_fmc.c ****                 /* reset the PG bit */
 2232              		.loc 1 349 29 view .LVU597
 2233 005e FFF7FEFF 		bl	fmc_bank1_ready_wait
 2234              	.LVL157:
 2235 0062 0346     		mov	r3, r0
 2236              	.LVL158:
 351:Drivers/GD32F30x_standard_peripheral/Source/gd32f30x_fmc.c ****             }
 2237              		.loc 1 351 17 is_stmt 1 view .LVU598
 351:Drivers/GD32F30x_standard_peripheral/Source/gd32f30x_fmc.c ****             }
 2238              		.loc 1 351 26 is_stmt 0 view .LVU599
 2239 0064 326D     		ldr	r2, [r6, #80]
 2240 0066 22F00102 		bic	r2, r2, #1
 2241 006a 3265     		str	r2, [r6, #80]
 2242 006c D9E7     		b	.L167
 2243              	.LVL159:
 2244              	.L165:
 355:Drivers/GD32F30x_standard_peripheral/Source/gd32f30x_fmc.c ****   
 2245              		.loc 1 355 9 is_stmt 1 view .LVU600
 355:Drivers/GD32F30x_standard_peripheral/Source/gd32f30x_fmc.c ****   
 2246              		.loc 1 355 21 is_stmt 0 view .LVU601
 2247 006e 0C48     		ldr	r0, .L170+8
 2248              	.LVL160:
 355:Drivers/GD32F30x_standard_peripheral/Source/gd32f30x_fmc.c ****   
 2249              		.loc 1 355 21 view .LVU602
 2250 0070 FFF7FEFF 		bl	fmc_bank0_ready_wait
 2251              	.LVL161:
 357:Drivers/GD32F30x_standard_peripheral/Source/gd32f30x_fmc.c ****             /* set the PG bit to start program */
 2252              		.loc 1 357 9 is_stmt 1 view .LVU603
 357:Drivers/GD32F30x_standard_peripheral/Source/gd32f30x_fmc.c ****             /* set the PG bit to start program */
 2253              		.loc 1 357 11 is_stmt 0 view .LVU604
 2254 0074 0346     		mov	r3, r0
 2255 0076 0028     		cmp	r0, #0
 2256 0078 D3D1     		bne	.L167
 359:Drivers/GD32F30x_standard_peripheral/Source/gd32f30x_fmc.c ****             REG32(address) = data;
 2257              		.loc 1 359 13 is_stmt 1 view .LVU605
ARM GAS  C:\Users\Prog\AppData\Local\Temp\cclIyEjW.s 			page 64


 359:Drivers/GD32F30x_standard_peripheral/Source/gd32f30x_fmc.c ****             REG32(address) = data;
 2258              		.loc 1 359 22 is_stmt 0 view .LVU606
 2259 007a 0A4E     		ldr	r6, .L170+12
 2260 007c 3369     		ldr	r3, [r6, #16]
 2261 007e 43F00103 		orr	r3, r3, #1
 2262 0082 3361     		str	r3, [r6, #16]
 360:Drivers/GD32F30x_standard_peripheral/Source/gd32f30x_fmc.c ****             /* wait for the FMC ready */
 2263              		.loc 1 360 13 is_stmt 1 view .LVU607
 360:Drivers/GD32F30x_standard_peripheral/Source/gd32f30x_fmc.c ****             /* wait for the FMC ready */
 2264              		.loc 1 360 28 is_stmt 0 view .LVU608
 2265 0084 2C60     		str	r4, [r5]
 362:Drivers/GD32F30x_standard_peripheral/Source/gd32f30x_fmc.c ****             /* reset the PG bit */
 2266              		.loc 1 362 13 is_stmt 1 view .LVU609
 362:Drivers/GD32F30x_standard_peripheral/Source/gd32f30x_fmc.c ****             /* reset the PG bit */
 2267              		.loc 1 362 25 is_stmt 0 view .LVU610
 2268 0086 0648     		ldr	r0, .L170+8
 2269              	.LVL162:
 362:Drivers/GD32F30x_standard_peripheral/Source/gd32f30x_fmc.c ****             /* reset the PG bit */
 2270              		.loc 1 362 25 view .LVU611
 2271 0088 FFF7FEFF 		bl	fmc_bank0_ready_wait
 2272              	.LVL163:
 2273 008c 0346     		mov	r3, r0
 2274              	.LVL164:
 364:Drivers/GD32F30x_standard_peripheral/Source/gd32f30x_fmc.c ****         } 
 2275              		.loc 1 364 13 is_stmt 1 view .LVU612
 364:Drivers/GD32F30x_standard_peripheral/Source/gd32f30x_fmc.c ****         } 
 2276              		.loc 1 364 22 is_stmt 0 view .LVU613
 2277 008e 3269     		ldr	r2, [r6, #16]
 2278 0090 22F00102 		bic	r2, r2, #1
 2279 0094 3261     		str	r2, [r6, #16]
 2280 0096 C4E7     		b	.L167
 2281              	.L171:
 2282              		.align	2
 2283              	.L170:
 2284 0098 00F7FF1F 		.word	536868608
 2285 009c FFFF0708 		.word	134742015
 2286 00a0 0000FF0F 		.word	268369920
 2287 00a4 00200240 		.word	1073881088
 2288              		.cfi_endproc
 2289              	.LFE127:
 2291              		.section	.text.fmc_halfword_program,"ax",%progbits
 2292              		.align	1
 2293              		.global	fmc_halfword_program
 2294              		.syntax unified
 2295              		.thumb
 2296              		.thumb_func
 2297              		.fpu fpv4-sp-d16
 2299              	fmc_halfword_program:
 2300              	.LVL165:
 2301              	.LFB128:
 379:Drivers/GD32F30x_standard_peripheral/Source/gd32f30x_fmc.c ****     fmc_state_enum fmc_state = FMC_READY;
 2302              		.loc 1 379 1 is_stmt 1 view -0
 2303              		.cfi_startproc
 2304              		@ args = 0, pretend = 0, frame = 0
 2305              		@ frame_needed = 0, uses_anonymous_args = 0
 379:Drivers/GD32F30x_standard_peripheral/Source/gd32f30x_fmc.c ****     fmc_state_enum fmc_state = FMC_READY;
 2306              		.loc 1 379 1 is_stmt 0 view .LVU615
ARM GAS  C:\Users\Prog\AppData\Local\Temp\cclIyEjW.s 			page 65


 2307 0000 70B5     		push	{r4, r5, r6, lr}
 2308              	.LCFI12:
 2309              		.cfi_def_cfa_offset 16
 2310              		.cfi_offset 4, -16
 2311              		.cfi_offset 5, -12
 2312              		.cfi_offset 6, -8
 2313              		.cfi_offset 14, -4
 2314 0002 0546     		mov	r5, r0
 2315 0004 0C46     		mov	r4, r1
 380:Drivers/GD32F30x_standard_peripheral/Source/gd32f30x_fmc.c ****     if(FMC_BANK0_SIZE < FMC_SIZE){
 2316              		.loc 1 380 5 is_stmt 1 view .LVU616
 2317              	.LVL166:
 381:Drivers/GD32F30x_standard_peripheral/Source/gd32f30x_fmc.c ****         if(FMC_BANK0_END_ADDRESS > address){
 2318              		.loc 1 381 5 view .LVU617
 381:Drivers/GD32F30x_standard_peripheral/Source/gd32f30x_fmc.c ****         if(FMC_BANK0_END_ADDRESS > address){
 2319              		.loc 1 381 25 is_stmt 0 view .LVU618
 2320 0006 244B     		ldr	r3, .L178
 2321 0008 B3F8E030 		ldrh	r3, [r3, #224]
 381:Drivers/GD32F30x_standard_peripheral/Source/gd32f30x_fmc.c ****         if(FMC_BANK0_END_ADDRESS > address){
 2322              		.loc 1 381 7 view .LVU619
 2323 000c B3F5007F 		cmp	r3, #512
 2324 0010 2DD9     		bls	.L173
 382:Drivers/GD32F30x_standard_peripheral/Source/gd32f30x_fmc.c ****             fmc_state = fmc_bank0_ready_wait(FMC_TIMEOUT_COUNT); 
 2325              		.loc 1 382 9 is_stmt 1 view .LVU620
 382:Drivers/GD32F30x_standard_peripheral/Source/gd32f30x_fmc.c ****             fmc_state = fmc_bank0_ready_wait(FMC_TIMEOUT_COUNT); 
 2326              		.loc 1 382 11 is_stmt 0 view .LVU621
 2327 0012 224B     		ldr	r3, .L178+4
 2328 0014 9842     		cmp	r0, r3
 2329 0016 15D2     		bcs	.L174
 383:Drivers/GD32F30x_standard_peripheral/Source/gd32f30x_fmc.c ****   
 2330              		.loc 1 383 13 is_stmt 1 view .LVU622
 383:Drivers/GD32F30x_standard_peripheral/Source/gd32f30x_fmc.c ****   
 2331              		.loc 1 383 25 is_stmt 0 view .LVU623
 2332 0018 2148     		ldr	r0, .L178+8
 2333              	.LVL167:
 383:Drivers/GD32F30x_standard_peripheral/Source/gd32f30x_fmc.c ****   
 2334              		.loc 1 383 25 view .LVU624
 2335 001a FFF7FEFF 		bl	fmc_bank0_ready_wait
 2336              	.LVL168:
 385:Drivers/GD32F30x_standard_peripheral/Source/gd32f30x_fmc.c ****                 /* set the PG bit to start program */
 2337              		.loc 1 385 13 is_stmt 1 view .LVU625
 385:Drivers/GD32F30x_standard_peripheral/Source/gd32f30x_fmc.c ****                 /* set the PG bit to start program */
 2338              		.loc 1 385 15 is_stmt 0 view .LVU626
 2339 001e 0346     		mov	r3, r0
 2340 0020 08B1     		cbz	r0, .L177
 2341              	.LVL169:
 2342              	.L175:
 421:Drivers/GD32F30x_standard_peripheral/Source/gd32f30x_fmc.c **** }
 2343              		.loc 1 421 5 is_stmt 1 view .LVU627
 422:Drivers/GD32F30x_standard_peripheral/Source/gd32f30x_fmc.c **** 
 2344              		.loc 1 422 1 is_stmt 0 view .LVU628
 2345 0022 1846     		mov	r0, r3
 2346 0024 70BD     		pop	{r4, r5, r6, pc}
 2347              	.LVL170:
 2348              	.L177:
 387:Drivers/GD32F30x_standard_peripheral/Source/gd32f30x_fmc.c ****                 REG16(address) = data;
 2349              		.loc 1 387 17 is_stmt 1 view .LVU629
ARM GAS  C:\Users\Prog\AppData\Local\Temp\cclIyEjW.s 			page 66


 387:Drivers/GD32F30x_standard_peripheral/Source/gd32f30x_fmc.c ****                 REG16(address) = data;
 2350              		.loc 1 387 26 is_stmt 0 view .LVU630
 2351 0026 1F4E     		ldr	r6, .L178+12
 2352 0028 3369     		ldr	r3, [r6, #16]
 2353 002a 43F00103 		orr	r3, r3, #1
 2354 002e 3361     		str	r3, [r6, #16]
 388:Drivers/GD32F30x_standard_peripheral/Source/gd32f30x_fmc.c ****                 /* wait for the FMC ready */
 2355              		.loc 1 388 17 is_stmt 1 view .LVU631
 388:Drivers/GD32F30x_standard_peripheral/Source/gd32f30x_fmc.c ****                 /* wait for the FMC ready */
 2356              		.loc 1 388 32 is_stmt 0 view .LVU632
 2357 0030 2C80     		strh	r4, [r5]	@ movhi
 390:Drivers/GD32F30x_standard_peripheral/Source/gd32f30x_fmc.c ****                 /* reset the PG bit */
 2358              		.loc 1 390 17 is_stmt 1 view .LVU633
 390:Drivers/GD32F30x_standard_peripheral/Source/gd32f30x_fmc.c ****                 /* reset the PG bit */
 2359              		.loc 1 390 29 is_stmt 0 view .LVU634
 2360 0032 1B48     		ldr	r0, .L178+8
 2361              	.LVL171:
 390:Drivers/GD32F30x_standard_peripheral/Source/gd32f30x_fmc.c ****                 /* reset the PG bit */
 2362              		.loc 1 390 29 view .LVU635
 2363 0034 FFF7FEFF 		bl	fmc_bank0_ready_wait
 2364              	.LVL172:
 2365 0038 0346     		mov	r3, r0
 2366              	.LVL173:
 392:Drivers/GD32F30x_standard_peripheral/Source/gd32f30x_fmc.c ****             }
 2367              		.loc 1 392 17 is_stmt 1 view .LVU636
 392:Drivers/GD32F30x_standard_peripheral/Source/gd32f30x_fmc.c ****             }
 2368              		.loc 1 392 26 is_stmt 0 view .LVU637
 2369 003a 3269     		ldr	r2, [r6, #16]
 2370 003c 22F00102 		bic	r2, r2, #1
 2371 0040 3261     		str	r2, [r6, #16]
 2372 0042 EEE7     		b	.L175
 2373              	.LVL174:
 2374              	.L174:
 395:Drivers/GD32F30x_standard_peripheral/Source/gd32f30x_fmc.c ****   
 2375              		.loc 1 395 13 is_stmt 1 view .LVU638
 395:Drivers/GD32F30x_standard_peripheral/Source/gd32f30x_fmc.c ****   
 2376              		.loc 1 395 25 is_stmt 0 view .LVU639
 2377 0044 1648     		ldr	r0, .L178+8
 2378              	.LVL175:
 395:Drivers/GD32F30x_standard_peripheral/Source/gd32f30x_fmc.c ****   
 2379              		.loc 1 395 25 view .LVU640
 2380 0046 FFF7FEFF 		bl	fmc_bank1_ready_wait
 2381              	.LVL176:
 397:Drivers/GD32F30x_standard_peripheral/Source/gd32f30x_fmc.c ****                 /* set the PG bit to start program */
 2382              		.loc 1 397 13 is_stmt 1 view .LVU641
 397:Drivers/GD32F30x_standard_peripheral/Source/gd32f30x_fmc.c ****                 /* set the PG bit to start program */
 2383              		.loc 1 397 15 is_stmt 0 view .LVU642
 2384 004a 0346     		mov	r3, r0
 2385 004c 0028     		cmp	r0, #0
 2386 004e E8D1     		bne	.L175
 399:Drivers/GD32F30x_standard_peripheral/Source/gd32f30x_fmc.c ****                 REG16(address) = data;
 2387              		.loc 1 399 17 is_stmt 1 view .LVU643
 399:Drivers/GD32F30x_standard_peripheral/Source/gd32f30x_fmc.c ****                 REG16(address) = data;
 2388              		.loc 1 399 26 is_stmt 0 view .LVU644
 2389 0050 144E     		ldr	r6, .L178+12
 2390 0052 336D     		ldr	r3, [r6, #80]
 2391 0054 43F00103 		orr	r3, r3, #1
ARM GAS  C:\Users\Prog\AppData\Local\Temp\cclIyEjW.s 			page 67


 2392 0058 3365     		str	r3, [r6, #80]
 400:Drivers/GD32F30x_standard_peripheral/Source/gd32f30x_fmc.c ****                 /* wait for the FMC ready */
 2393              		.loc 1 400 17 is_stmt 1 view .LVU645
 400:Drivers/GD32F30x_standard_peripheral/Source/gd32f30x_fmc.c ****                 /* wait for the FMC ready */
 2394              		.loc 1 400 32 is_stmt 0 view .LVU646
 2395 005a 2C80     		strh	r4, [r5]	@ movhi
 402:Drivers/GD32F30x_standard_peripheral/Source/gd32f30x_fmc.c ****                 /* reset the PG bit */
 2396              		.loc 1 402 17 is_stmt 1 view .LVU647
 402:Drivers/GD32F30x_standard_peripheral/Source/gd32f30x_fmc.c ****                 /* reset the PG bit */
 2397              		.loc 1 402 29 is_stmt 0 view .LVU648
 2398 005c 1048     		ldr	r0, .L178+8
 2399              	.LVL177:
 402:Drivers/GD32F30x_standard_peripheral/Source/gd32f30x_fmc.c ****                 /* reset the PG bit */
 2400              		.loc 1 402 29 view .LVU649
 2401 005e FFF7FEFF 		bl	fmc_bank1_ready_wait
 2402              	.LVL178:
 2403 0062 0346     		mov	r3, r0
 2404              	.LVL179:
 404:Drivers/GD32F30x_standard_peripheral/Source/gd32f30x_fmc.c ****             }
 2405              		.loc 1 404 17 is_stmt 1 view .LVU650
 404:Drivers/GD32F30x_standard_peripheral/Source/gd32f30x_fmc.c ****             }
 2406              		.loc 1 404 26 is_stmt 0 view .LVU651
 2407 0064 326D     		ldr	r2, [r6, #80]
 2408 0066 22F00102 		bic	r2, r2, #1
 2409 006a 3265     		str	r2, [r6, #80]
 2410 006c D9E7     		b	.L175
 2411              	.LVL180:
 2412              	.L173:
 408:Drivers/GD32F30x_standard_peripheral/Source/gd32f30x_fmc.c ****   
 2413              		.loc 1 408 9 is_stmt 1 view .LVU652
 408:Drivers/GD32F30x_standard_peripheral/Source/gd32f30x_fmc.c ****   
 2414              		.loc 1 408 21 is_stmt 0 view .LVU653
 2415 006e 0C48     		ldr	r0, .L178+8
 2416              	.LVL181:
 408:Drivers/GD32F30x_standard_peripheral/Source/gd32f30x_fmc.c ****   
 2417              		.loc 1 408 21 view .LVU654
 2418 0070 FFF7FEFF 		bl	fmc_bank0_ready_wait
 2419              	.LVL182:
 410:Drivers/GD32F30x_standard_peripheral/Source/gd32f30x_fmc.c ****             /* set the PG bit to start program */
 2420              		.loc 1 410 9 is_stmt 1 view .LVU655
 410:Drivers/GD32F30x_standard_peripheral/Source/gd32f30x_fmc.c ****             /* set the PG bit to start program */
 2421              		.loc 1 410 11 is_stmt 0 view .LVU656
 2422 0074 0346     		mov	r3, r0
 2423 0076 0028     		cmp	r0, #0
 2424 0078 D3D1     		bne	.L175
 412:Drivers/GD32F30x_standard_peripheral/Source/gd32f30x_fmc.c ****             REG16(address) = data;
 2425              		.loc 1 412 13 is_stmt 1 view .LVU657
 412:Drivers/GD32F30x_standard_peripheral/Source/gd32f30x_fmc.c ****             REG16(address) = data;
 2426              		.loc 1 412 22 is_stmt 0 view .LVU658
 2427 007a 0A4E     		ldr	r6, .L178+12
 2428 007c 3369     		ldr	r3, [r6, #16]
 2429 007e 43F00103 		orr	r3, r3, #1
 2430 0082 3361     		str	r3, [r6, #16]
 413:Drivers/GD32F30x_standard_peripheral/Source/gd32f30x_fmc.c ****             /* wait for the FMC ready */
 2431              		.loc 1 413 13 is_stmt 1 view .LVU659
 413:Drivers/GD32F30x_standard_peripheral/Source/gd32f30x_fmc.c ****             /* wait for the FMC ready */
 2432              		.loc 1 413 28 is_stmt 0 view .LVU660
ARM GAS  C:\Users\Prog\AppData\Local\Temp\cclIyEjW.s 			page 68


 2433 0084 2C80     		strh	r4, [r5]	@ movhi
 415:Drivers/GD32F30x_standard_peripheral/Source/gd32f30x_fmc.c ****             /* reset the PG bit */
 2434              		.loc 1 415 13 is_stmt 1 view .LVU661
 415:Drivers/GD32F30x_standard_peripheral/Source/gd32f30x_fmc.c ****             /* reset the PG bit */
 2435              		.loc 1 415 25 is_stmt 0 view .LVU662
 2436 0086 0648     		ldr	r0, .L178+8
 2437              	.LVL183:
 415:Drivers/GD32F30x_standard_peripheral/Source/gd32f30x_fmc.c ****             /* reset the PG bit */
 2438              		.loc 1 415 25 view .LVU663
 2439 0088 FFF7FEFF 		bl	fmc_bank0_ready_wait
 2440              	.LVL184:
 2441 008c 0346     		mov	r3, r0
 2442              	.LVL185:
 417:Drivers/GD32F30x_standard_peripheral/Source/gd32f30x_fmc.c ****         } 
 2443              		.loc 1 417 13 is_stmt 1 view .LVU664
 417:Drivers/GD32F30x_standard_peripheral/Source/gd32f30x_fmc.c ****         } 
 2444              		.loc 1 417 22 is_stmt 0 view .LVU665
 2445 008e 3269     		ldr	r2, [r6, #16]
 2446 0090 22F00102 		bic	r2, r2, #1
 2447 0094 3261     		str	r2, [r6, #16]
 2448 0096 C4E7     		b	.L175
 2449              	.L179:
 2450              		.align	2
 2451              	.L178:
 2452 0098 00F7FF1F 		.word	536868608
 2453 009c FFFF0708 		.word	134742015
 2454 00a0 0000FF0F 		.word	268369920
 2455 00a4 00200240 		.word	1073881088
 2456              		.cfi_endproc
 2457              	.LFE128:
 2459              		.section	.text.fmc_word_reprogram,"ax",%progbits
 2460              		.align	1
 2461              		.global	fmc_word_reprogram
 2462              		.syntax unified
 2463              		.thumb
 2464              		.thumb_func
 2465              		.fpu fpv4-sp-d16
 2467              	fmc_word_reprogram:
 2468              	.LVL186:
 2469              	.LFB129:
 432:Drivers/GD32F30x_standard_peripheral/Source/gd32f30x_fmc.c ****     fmc_state_enum fmc_state = FMC_READY;
 2470              		.loc 1 432 1 is_stmt 1 view -0
 2471              		.cfi_startproc
 2472              		@ args = 0, pretend = 0, frame = 0
 2473              		@ frame_needed = 0, uses_anonymous_args = 0
 432:Drivers/GD32F30x_standard_peripheral/Source/gd32f30x_fmc.c ****     fmc_state_enum fmc_state = FMC_READY;
 2474              		.loc 1 432 1 is_stmt 0 view .LVU667
 2475 0000 70B5     		push	{r4, r5, r6, lr}
 2476              	.LCFI13:
 2477              		.cfi_def_cfa_offset 16
 2478              		.cfi_offset 4, -16
 2479              		.cfi_offset 5, -12
 2480              		.cfi_offset 6, -8
 2481              		.cfi_offset 14, -4
 2482 0002 0546     		mov	r5, r0
 2483 0004 0C46     		mov	r4, r1
 433:Drivers/GD32F30x_standard_peripheral/Source/gd32f30x_fmc.c ****     if(FMC_BANK0_SIZE < FMC_SIZE){
ARM GAS  C:\Users\Prog\AppData\Local\Temp\cclIyEjW.s 			page 69


 2484              		.loc 1 433 5 is_stmt 1 view .LVU668
 2485              	.LVL187:
 434:Drivers/GD32F30x_standard_peripheral/Source/gd32f30x_fmc.c ****         if(FMC_BANK0_END_ADDRESS > address){
 2486              		.loc 1 434 5 view .LVU669
