ARM GAS  C:\Users\Prog\AppData\Local\Temp\ccJHD9tp.s 			page 1


   1              		.cpu cortex-m4
   2              		.eabi_attribute 27, 1
   3              		.eabi_attribute 28, 1
   4              		.eabi_attribute 20, 1
   5              		.eabi_attribute 21, 1
   6              		.eabi_attribute 23, 3
   7              		.eabi_attribute 24, 1
   8              		.eabi_attribute 25, 1
   9              		.eabi_attribute 26, 1
  10              		.eabi_attribute 30, 1
  11              		.eabi_attribute 34, 1
  12              		.eabi_attribute 18, 4
  13              		.file	"gd32f30x_usart.c"
  14              		.text
  15              	.Ltext0:
  16              		.cfi_sections	.debug_frame
  17              		.section	.text.usart_deinit,"ax",%progbits
  18              		.align	1
  19              		.global	usart_deinit
  20              		.arch armv7e-m
  21              		.syntax unified
  22              		.thumb
  23              		.thumb_func
  24              		.fpu fpv4-sp-d16
  26              	usart_deinit:
  27              	.LVL0:
  28              	.LFB116:
  29              		.file 1 "Drivers/GD32F30x_standard_peripheral/Source/gd32f30x_usart.c"
   1:Drivers/GD32F30x_standard_peripheral/Source/gd32f30x_usart.c **** /*!
   2:Drivers/GD32F30x_standard_peripheral/Source/gd32f30x_usart.c ****     \file    gd32f30x_usart.c
   3:Drivers/GD32F30x_standard_peripheral/Source/gd32f30x_usart.c ****     \brief   USART driver
   4:Drivers/GD32F30x_standard_peripheral/Source/gd32f30x_usart.c **** 
   5:Drivers/GD32F30x_standard_peripheral/Source/gd32f30x_usart.c ****     \version 2017-02-10, V1.0.0, firmware for GD32F30x
   6:Drivers/GD32F30x_standard_peripheral/Source/gd32f30x_usart.c ****     \version 2018-10-10, V1.1.0, firmware for GD32F30x
   7:Drivers/GD32F30x_standard_peripheral/Source/gd32f30x_usart.c ****     \version 2018-12-25, V2.0.0, firmware for GD32F30x
   8:Drivers/GD32F30x_standard_peripheral/Source/gd32f30x_usart.c ****     \version 2020-09-30, V2.1.0, firmware for GD32F30x
   9:Drivers/GD32F30x_standard_peripheral/Source/gd32f30x_usart.c **** */
  10:Drivers/GD32F30x_standard_peripheral/Source/gd32f30x_usart.c **** 
  11:Drivers/GD32F30x_standard_peripheral/Source/gd32f30x_usart.c **** /*
  12:Drivers/GD32F30x_standard_peripheral/Source/gd32f30x_usart.c ****     Copyright (c) 2020, GigaDevice Semiconductor Inc.
  13:Drivers/GD32F30x_standard_peripheral/Source/gd32f30x_usart.c **** 
  14:Drivers/GD32F30x_standard_peripheral/Source/gd32f30x_usart.c ****     Redistribution and use in source and binary forms, with or without modification, 
  15:Drivers/GD32F30x_standard_peripheral/Source/gd32f30x_usart.c **** are permitted provided that the following conditions are met:
  16:Drivers/GD32F30x_standard_peripheral/Source/gd32f30x_usart.c **** 
  17:Drivers/GD32F30x_standard_peripheral/Source/gd32f30x_usart.c ****     1. Redistributions of source code must retain the above copyright notice, this 
  18:Drivers/GD32F30x_standard_peripheral/Source/gd32f30x_usart.c ****        list of conditions and the following disclaimer.
  19:Drivers/GD32F30x_standard_peripheral/Source/gd32f30x_usart.c ****     2. Redistributions in binary form must reproduce the above copyright notice, 
  20:Drivers/GD32F30x_standard_peripheral/Source/gd32f30x_usart.c ****        this list of conditions and the following disclaimer in the documentation 
  21:Drivers/GD32F30x_standard_peripheral/Source/gd32f30x_usart.c ****        and/or other materials provided with the distribution.
  22:Drivers/GD32F30x_standard_peripheral/Source/gd32f30x_usart.c ****     3. Neither the name of the copyright holder nor the names of its contributors 
  23:Drivers/GD32F30x_standard_peripheral/Source/gd32f30x_usart.c ****        may be used to endorse or promote products derived from this software without 
  24:Drivers/GD32F30x_standard_peripheral/Source/gd32f30x_usart.c ****        specific prior written permission.
  25:Drivers/GD32F30x_standard_peripheral/Source/gd32f30x_usart.c **** 
  26:Drivers/GD32F30x_standard_peripheral/Source/gd32f30x_usart.c ****     THIS SOFTWARE IS PROVIDED BY THE COPYRIGHT HOLDERS AND CONTRIBUTORS "AS IS" 
  27:Drivers/GD32F30x_standard_peripheral/Source/gd32f30x_usart.c **** AND ANY EXPRESS OR IMPLIED WARRANTIES, INCLUDING, BUT NOT LIMITED TO, THE IMPLIED 
  28:Drivers/GD32F30x_standard_peripheral/Source/gd32f30x_usart.c **** WARRANTIES OF MERCHANTABILITY AND FITNESS FOR A PARTICULAR PURPOSE ARE DISCLAIMED. 
  29:Drivers/GD32F30x_standard_peripheral/Source/gd32f30x_usart.c **** IN NO EVENT SHALL THE COPYRIGHT HOLDER OR CONTRIBUTORS BE LIABLE FOR ANY DIRECT, 
ARM GAS  C:\Users\Prog\AppData\Local\Temp\ccJHD9tp.s 			page 2


  30:Drivers/GD32F30x_standard_peripheral/Source/gd32f30x_usart.c **** INDIRECT, INCIDENTAL, SPECIAL, EXEMPLARY, OR CONSEQUENTIAL DAMAGES (INCLUDING, BUT 
  31:Drivers/GD32F30x_standard_peripheral/Source/gd32f30x_usart.c **** NOT LIMITED TO, PROCUREMENT OF SUBSTITUTE GOODS OR SERVICES; LOSS OF USE, DATA, OR 
  32:Drivers/GD32F30x_standard_peripheral/Source/gd32f30x_usart.c **** PROFITS; OR BUSINESS INTERRUPTION) HOWEVER CAUSED AND ON ANY THEORY OF LIABILITY, 
  33:Drivers/GD32F30x_standard_peripheral/Source/gd32f30x_usart.c **** WHETHER IN CONTRACT, STRICT LIABILITY, OR TORT (INCLUDING NEGLIGENCE OR OTHERWISE) 
  34:Drivers/GD32F30x_standard_peripheral/Source/gd32f30x_usart.c **** ARISING IN ANY WAY OUT OF THE USE OF THIS SOFTWARE, EVEN IF ADVISED OF THE POSSIBILITY 
  35:Drivers/GD32F30x_standard_peripheral/Source/gd32f30x_usart.c **** OF SUCH DAMAGE.
  36:Drivers/GD32F30x_standard_peripheral/Source/gd32f30x_usart.c **** */
  37:Drivers/GD32F30x_standard_peripheral/Source/gd32f30x_usart.c **** 
  38:Drivers/GD32F30x_standard_peripheral/Source/gd32f30x_usart.c **** #include "gd32f30x_usart.h"
  39:Drivers/GD32F30x_standard_peripheral/Source/gd32f30x_usart.c **** 
  40:Drivers/GD32F30x_standard_peripheral/Source/gd32f30x_usart.c **** /* USART register bit offset */
  41:Drivers/GD32F30x_standard_peripheral/Source/gd32f30x_usart.c **** #define GP_GUAT_OFFSET            ((uint32_t)8U)       /* bit offset of GUAT in USART_GP */
  42:Drivers/GD32F30x_standard_peripheral/Source/gd32f30x_usart.c **** #define CTL3_SCRTNUM_OFFSET       ((uint32_t)1U)       /* bit offset of SCRTNUM in USART_CTL3 */
  43:Drivers/GD32F30x_standard_peripheral/Source/gd32f30x_usart.c **** #define RT_BL_OFFSET              ((uint32_t)24U)      /* bit offset of BL in USART_RT */
  44:Drivers/GD32F30x_standard_peripheral/Source/gd32f30x_usart.c **** 
  45:Drivers/GD32F30x_standard_peripheral/Source/gd32f30x_usart.c **** /*!
  46:Drivers/GD32F30x_standard_peripheral/Source/gd32f30x_usart.c ****     \brief      reset USART/UART 
  47:Drivers/GD32F30x_standard_peripheral/Source/gd32f30x_usart.c ****     \param[in]  usart_periph: USARTx(x=0,1,2)/UARTx(x=3,4)
  48:Drivers/GD32F30x_standard_peripheral/Source/gd32f30x_usart.c ****     \param[out] none
  49:Drivers/GD32F30x_standard_peripheral/Source/gd32f30x_usart.c ****     \retval     none
  50:Drivers/GD32F30x_standard_peripheral/Source/gd32f30x_usart.c **** */
  51:Drivers/GD32F30x_standard_peripheral/Source/gd32f30x_usart.c **** void usart_deinit(uint32_t usart_periph)
  52:Drivers/GD32F30x_standard_peripheral/Source/gd32f30x_usart.c **** {
  30              		.loc 1 52 1 view -0
  31              		.cfi_startproc
  32              		@ args = 0, pretend = 0, frame = 0
  33              		@ frame_needed = 0, uses_anonymous_args = 0
  34              		.loc 1 52 1 is_stmt 0 view .LVU1
  35 0000 08B5     		push	{r3, lr}
  36              	.LCFI0:
  37              		.cfi_def_cfa_offset 8
  38              		.cfi_offset 3, -8
  39              		.cfi_offset 14, -4
  53:Drivers/GD32F30x_standard_peripheral/Source/gd32f30x_usart.c ****     switch(usart_periph){
  40              		.loc 1 53 5 is_stmt 1 view .LVU2
  41 0002 204B     		ldr	r3, .L10
  42 0004 9842     		cmp	r0, r3
  43 0006 2AD0     		beq	.L2
  44 0008 0FD9     		bls	.L9
  45 000a 1F4B     		ldr	r3, .L10+4
  46 000c 9842     		cmp	r0, r3
  47 000e 2FD0     		beq	.L7
  48 0010 03F56843 		add	r3, r3, #59392
  49 0014 9842     		cmp	r0, r3
  50 0016 07D1     		bne	.L1
  54:Drivers/GD32F30x_standard_peripheral/Source/gd32f30x_usart.c ****     case USART0:
  55:Drivers/GD32F30x_standard_peripheral/Source/gd32f30x_usart.c ****         /* reset USART0 */
  56:Drivers/GD32F30x_standard_peripheral/Source/gd32f30x_usart.c ****         rcu_periph_reset_enable(RCU_USART0RST);
  51              		.loc 1 56 9 view .LVU3
  52 0018 40F20E30 		movw	r0, #782
  53              	.LVL1:
  54              		.loc 1 56 9 is_stmt 0 view .LVU4
  55 001c FFF7FEFF 		bl	rcu_periph_reset_enable
  56              	.LVL2:
  57:Drivers/GD32F30x_standard_peripheral/Source/gd32f30x_usart.c ****         rcu_periph_reset_disable(RCU_USART0RST);
  57              		.loc 1 57 9 is_stmt 1 view .LVU5
  58 0020 40F20E30 		movw	r0, #782
ARM GAS  C:\Users\Prog\AppData\Local\Temp\ccJHD9tp.s 			page 3


  59 0024 FFF7FEFF 		bl	rcu_periph_reset_disable
  60              	.LVL3:
  58:Drivers/GD32F30x_standard_peripheral/Source/gd32f30x_usart.c ****         break;
  61              		.loc 1 58 9 view .LVU6
  62              	.L1:
  59:Drivers/GD32F30x_standard_peripheral/Source/gd32f30x_usart.c ****     case USART1:
  60:Drivers/GD32F30x_standard_peripheral/Source/gd32f30x_usart.c ****         /* reset USART1 */
  61:Drivers/GD32F30x_standard_peripheral/Source/gd32f30x_usart.c ****         rcu_periph_reset_enable(RCU_USART1RST);
  62:Drivers/GD32F30x_standard_peripheral/Source/gd32f30x_usart.c ****         rcu_periph_reset_disable(RCU_USART1RST);
  63:Drivers/GD32F30x_standard_peripheral/Source/gd32f30x_usart.c ****         break;
  64:Drivers/GD32F30x_standard_peripheral/Source/gd32f30x_usart.c ****     case USART2:
  65:Drivers/GD32F30x_standard_peripheral/Source/gd32f30x_usart.c ****         /* reset USART2 */
  66:Drivers/GD32F30x_standard_peripheral/Source/gd32f30x_usart.c ****         rcu_periph_reset_enable(RCU_USART2RST);
  67:Drivers/GD32F30x_standard_peripheral/Source/gd32f30x_usart.c ****         rcu_periph_reset_disable(RCU_USART2RST);
  68:Drivers/GD32F30x_standard_peripheral/Source/gd32f30x_usart.c ****         break;
  69:Drivers/GD32F30x_standard_peripheral/Source/gd32f30x_usart.c ****     case UART3:
  70:Drivers/GD32F30x_standard_peripheral/Source/gd32f30x_usart.c ****         /* reset UART3 */
  71:Drivers/GD32F30x_standard_peripheral/Source/gd32f30x_usart.c ****         rcu_periph_reset_enable(RCU_UART3RST);
  72:Drivers/GD32F30x_standard_peripheral/Source/gd32f30x_usart.c ****         rcu_periph_reset_disable(RCU_UART3RST);
  73:Drivers/GD32F30x_standard_peripheral/Source/gd32f30x_usart.c ****         break;
  74:Drivers/GD32F30x_standard_peripheral/Source/gd32f30x_usart.c ****     case UART4:
  75:Drivers/GD32F30x_standard_peripheral/Source/gd32f30x_usart.c ****         /* reset UART4 */
  76:Drivers/GD32F30x_standard_peripheral/Source/gd32f30x_usart.c ****         rcu_periph_reset_enable(RCU_UART4RST);
  77:Drivers/GD32F30x_standard_peripheral/Source/gd32f30x_usart.c ****         rcu_periph_reset_disable(RCU_UART4RST);
  78:Drivers/GD32F30x_standard_peripheral/Source/gd32f30x_usart.c ****         break;
  79:Drivers/GD32F30x_standard_peripheral/Source/gd32f30x_usart.c ****     default:
  80:Drivers/GD32F30x_standard_peripheral/Source/gd32f30x_usart.c ****         break;
  81:Drivers/GD32F30x_standard_peripheral/Source/gd32f30x_usart.c ****     }
  82:Drivers/GD32F30x_standard_peripheral/Source/gd32f30x_usart.c **** }
  63              		.loc 1 82 1 is_stmt 0 view .LVU7
  64 0028 08BD     		pop	{r3, pc}
  65              	.LVL4:
  66              	.L9:
  53:Drivers/GD32F30x_standard_peripheral/Source/gd32f30x_usart.c ****     case USART0:
  67              		.loc 1 53 5 view .LVU8
  68 002a A3F50063 		sub	r3, r3, #2048
  69 002e 9842     		cmp	r0, r3
  70 0030 0CD0     		beq	.L4
  71 0032 03F58063 		add	r3, r3, #1024
  72 0036 9842     		cmp	r0, r3
  73 0038 F6D1     		bne	.L1
  66:Drivers/GD32F30x_standard_peripheral/Source/gd32f30x_usart.c ****         rcu_periph_reset_disable(RCU_USART2RST);
  74              		.loc 1 66 9 is_stmt 1 view .LVU9
  75 003a 40F21240 		movw	r0, #1042
  76              	.LVL5:
  66:Drivers/GD32F30x_standard_peripheral/Source/gd32f30x_usart.c ****         rcu_periph_reset_disable(RCU_USART2RST);
  77              		.loc 1 66 9 is_stmt 0 view .LVU10
  78 003e FFF7FEFF 		bl	rcu_periph_reset_enable
  79              	.LVL6:
  67:Drivers/GD32F30x_standard_peripheral/Source/gd32f30x_usart.c ****         break;
  80              		.loc 1 67 9 is_stmt 1 view .LVU11
  81 0042 40F21240 		movw	r0, #1042
  82 0046 FFF7FEFF 		bl	rcu_periph_reset_disable
  83              	.LVL7:
  68:Drivers/GD32F30x_standard_peripheral/Source/gd32f30x_usart.c ****     case UART3:
  84              		.loc 1 68 9 view .LVU12
  85 004a EDE7     		b	.L1
ARM GAS  C:\Users\Prog\AppData\Local\Temp\ccJHD9tp.s 			page 4


  86              	.LVL8:
  87              	.L4:
  61:Drivers/GD32F30x_standard_peripheral/Source/gd32f30x_usart.c ****         rcu_periph_reset_disable(RCU_USART1RST);
  88              		.loc 1 61 9 view .LVU13
  89 004c 40F21140 		movw	r0, #1041
  90              	.LVL9:
  61:Drivers/GD32F30x_standard_peripheral/Source/gd32f30x_usart.c ****         rcu_periph_reset_disable(RCU_USART1RST);
  91              		.loc 1 61 9 is_stmt 0 view .LVU14
  92 0050 FFF7FEFF 		bl	rcu_periph_reset_enable
  93              	.LVL10:
  62:Drivers/GD32F30x_standard_peripheral/Source/gd32f30x_usart.c ****         break;
  94              		.loc 1 62 9 is_stmt 1 view .LVU15
  95 0054 40F21140 		movw	r0, #1041
  96 0058 FFF7FEFF 		bl	rcu_periph_reset_disable
  97              	.LVL11:
  63:Drivers/GD32F30x_standard_peripheral/Source/gd32f30x_usart.c ****     case USART2:
  98              		.loc 1 63 9 view .LVU16
  99 005c E4E7     		b	.L1
 100              	.LVL12:
 101              	.L2:
  71:Drivers/GD32F30x_standard_peripheral/Source/gd32f30x_usart.c ****         rcu_periph_reset_disable(RCU_UART3RST);
 102              		.loc 1 71 9 view .LVU17
 103 005e 40F21340 		movw	r0, #1043
 104              	.LVL13:
  71:Drivers/GD32F30x_standard_peripheral/Source/gd32f30x_usart.c ****         rcu_periph_reset_disable(RCU_UART3RST);
 105              		.loc 1 71 9 is_stmt 0 view .LVU18
 106 0062 FFF7FEFF 		bl	rcu_periph_reset_enable
 107              	.LVL14:
  72:Drivers/GD32F30x_standard_peripheral/Source/gd32f30x_usart.c ****         break;
 108              		.loc 1 72 9 is_stmt 1 view .LVU19
 109 0066 40F21340 		movw	r0, #1043
 110 006a FFF7FEFF 		bl	rcu_periph_reset_disable
 111              	.LVL15:
  73:Drivers/GD32F30x_standard_peripheral/Source/gd32f30x_usart.c ****     case UART4:
 112              		.loc 1 73 9 view .LVU20
 113 006e DBE7     		b	.L1
 114              	.LVL16:
 115              	.L7:
  76:Drivers/GD32F30x_standard_peripheral/Source/gd32f30x_usart.c ****         rcu_periph_reset_disable(RCU_UART4RST);
 116              		.loc 1 76 9 view .LVU21
 117 0070 40F21440 		movw	r0, #1044
 118              	.LVL17:
  76:Drivers/GD32F30x_standard_peripheral/Source/gd32f30x_usart.c ****         rcu_periph_reset_disable(RCU_UART4RST);
 119              		.loc 1 76 9 is_stmt 0 view .LVU22
 120 0074 FFF7FEFF 		bl	rcu_periph_reset_enable
 121              	.LVL18:
  77:Drivers/GD32F30x_standard_peripheral/Source/gd32f30x_usart.c ****         break;
 122              		.loc 1 77 9 is_stmt 1 view .LVU23
 123 0078 40F21440 		movw	r0, #1044
 124 007c FFF7FEFF 		bl	rcu_periph_reset_disable
 125              	.LVL19:
  78:Drivers/GD32F30x_standard_peripheral/Source/gd32f30x_usart.c ****     default:
 126              		.loc 1 78 9 view .LVU24
 127              		.loc 1 82 1 is_stmt 0 view .LVU25
 128 0080 D2E7     		b	.L1
 129              	.L11:
 130 0082 00BF     		.align	2
ARM GAS  C:\Users\Prog\AppData\Local\Temp\ccJHD9tp.s 			page 5


 131              	.L10:
 132 0084 004C0040 		.word	1073761280
 133 0088 00500040 		.word	1073762304
 134              		.cfi_endproc
 135              	.LFE116:
 137              		.section	.text.usart_baudrate_set,"ax",%progbits
 138              		.align	1
 139              		.global	usart_baudrate_set
 140              		.syntax unified
 141              		.thumb
 142              		.thumb_func
 143              		.fpu fpv4-sp-d16
 145              	usart_baudrate_set:
 146              	.LVL20:
 147              	.LFB117:
  83:Drivers/GD32F30x_standard_peripheral/Source/gd32f30x_usart.c **** 
  84:Drivers/GD32F30x_standard_peripheral/Source/gd32f30x_usart.c **** /*!
  85:Drivers/GD32F30x_standard_peripheral/Source/gd32f30x_usart.c ****     \brief      configure USART baud rate value
  86:Drivers/GD32F30x_standard_peripheral/Source/gd32f30x_usart.c ****     \param[in]  usart_periph: USARTx(x=0,1,2)/UARTx(x=3,4)
  87:Drivers/GD32F30x_standard_peripheral/Source/gd32f30x_usart.c ****     \param[in]  baudval: baud rate value
  88:Drivers/GD32F30x_standard_peripheral/Source/gd32f30x_usart.c ****     \param[out] none
  89:Drivers/GD32F30x_standard_peripheral/Source/gd32f30x_usart.c ****     \retval     none
  90:Drivers/GD32F30x_standard_peripheral/Source/gd32f30x_usart.c **** */ 
  91:Drivers/GD32F30x_standard_peripheral/Source/gd32f30x_usart.c **** void usart_baudrate_set(uint32_t usart_periph, uint32_t baudval)
  92:Drivers/GD32F30x_standard_peripheral/Source/gd32f30x_usart.c **** {
 148              		.loc 1 92 1 is_stmt 1 view -0
 149              		.cfi_startproc
 150              		@ args = 0, pretend = 0, frame = 0
 151              		@ frame_needed = 0, uses_anonymous_args = 0
 152              		.loc 1 92 1 is_stmt 0 view .LVU27
 153 0000 38B5     		push	{r3, r4, r5, lr}
 154              	.LCFI1:
 155              		.cfi_def_cfa_offset 16
 156              		.cfi_offset 3, -16
 157              		.cfi_offset 4, -12
 158              		.cfi_offset 5, -8
 159              		.cfi_offset 14, -4
 160 0002 0446     		mov	r4, r0
 161 0004 0D46     		mov	r5, r1
  93:Drivers/GD32F30x_standard_peripheral/Source/gd32f30x_usart.c ****     uint32_t uclk=0U, intdiv=0U, fradiv=0U, udiv=0U;
 162              		.loc 1 93 5 is_stmt 1 view .LVU28
 163              	.LVL21:
  94:Drivers/GD32F30x_standard_peripheral/Source/gd32f30x_usart.c ****     switch(usart_periph){
 164              		.loc 1 94 5 view .LVU29
 165 0006 184B     		ldr	r3, .L23
 166 0008 9842     		cmp	r0, r3
 167 000a 23D0     		beq	.L13
 168 000c 0AD9     		bls	.L21
 169 000e 174B     		ldr	r3, .L23+4
 170 0010 9842     		cmp	r0, r3
 171 0012 23D0     		beq	.L18
 172 0014 03F56843 		add	r3, r3, #59392
 173 0018 9842     		cmp	r0, r3
 174 001a 23D1     		bne	.L19
  95:Drivers/GD32F30x_standard_peripheral/Source/gd32f30x_usart.c ****          /* get clock frequency */
  96:Drivers/GD32F30x_standard_peripheral/Source/gd32f30x_usart.c ****     case USART0:
  97:Drivers/GD32F30x_standard_peripheral/Source/gd32f30x_usart.c ****          /* get USART0 clock */
ARM GAS  C:\Users\Prog\AppData\Local\Temp\ccJHD9tp.s 			page 6


  98:Drivers/GD32F30x_standard_peripheral/Source/gd32f30x_usart.c ****          uclk = rcu_clock_freq_get(CK_APB2);
 175              		.loc 1 98 10 view .LVU30
 176              		.loc 1 98 17 is_stmt 0 view .LVU31
 177 001c 0320     		movs	r0, #3
 178              	.LVL22:
 179              		.loc 1 98 17 view .LVU32
 180 001e FFF7FEFF 		bl	rcu_clock_freq_get
 181              	.LVL23:
  99:Drivers/GD32F30x_standard_peripheral/Source/gd32f30x_usart.c ****          break;
 182              		.loc 1 99 10 is_stmt 1 view .LVU33
 183 0022 0CE0     		b	.L17
 184              	.LVL24:
 185              	.L21:
  94:Drivers/GD32F30x_standard_peripheral/Source/gd32f30x_usart.c ****     switch(usart_periph){
 186              		.loc 1 94 5 is_stmt 0 view .LVU34
 187 0024 A3F50063 		sub	r3, r3, #2048
 188 0028 9842     		cmp	r0, r3
 189 002a 0FD0     		beq	.L15
 190 002c 03F58063 		add	r3, r3, #1024
 191 0030 9842     		cmp	r0, r3
 192 0032 03D1     		bne	.L22
 100:Drivers/GD32F30x_standard_peripheral/Source/gd32f30x_usart.c ****     case USART1:
 101:Drivers/GD32F30x_standard_peripheral/Source/gd32f30x_usart.c ****          /* get USART1 clock */
 102:Drivers/GD32F30x_standard_peripheral/Source/gd32f30x_usart.c ****          uclk = rcu_clock_freq_get(CK_APB1);
 103:Drivers/GD32F30x_standard_peripheral/Source/gd32f30x_usart.c ****          break;
 104:Drivers/GD32F30x_standard_peripheral/Source/gd32f30x_usart.c ****     case USART2:
 105:Drivers/GD32F30x_standard_peripheral/Source/gd32f30x_usart.c ****          /* get USART2 clock */
 106:Drivers/GD32F30x_standard_peripheral/Source/gd32f30x_usart.c ****          uclk = rcu_clock_freq_get(CK_APB1);
 193              		.loc 1 106 10 is_stmt 1 view .LVU35
 194              		.loc 1 106 17 is_stmt 0 view .LVU36
 195 0034 0220     		movs	r0, #2
 196              	.LVL25:
 197              		.loc 1 106 17 view .LVU37
 198 0036 FFF7FEFF 		bl	rcu_clock_freq_get
 199              	.LVL26:
 107:Drivers/GD32F30x_standard_peripheral/Source/gd32f30x_usart.c ****          break;
 200              		.loc 1 107 10 is_stmt 1 view .LVU38
 201 003a 00E0     		b	.L17
 202              	.LVL27:
 203              	.L22:
  93:Drivers/GD32F30x_standard_peripheral/Source/gd32f30x_usart.c ****     switch(usart_periph){
 204              		.loc 1 93 14 is_stmt 0 view .LVU39
 205 003c 0020     		movs	r0, #0
 206              	.LVL28:
 207              	.L17:
 108:Drivers/GD32F30x_standard_peripheral/Source/gd32f30x_usart.c ****     case UART3:
 109:Drivers/GD32F30x_standard_peripheral/Source/gd32f30x_usart.c ****          /* get UART3 clock */
 110:Drivers/GD32F30x_standard_peripheral/Source/gd32f30x_usart.c ****          uclk = rcu_clock_freq_get(CK_APB1);
 111:Drivers/GD32F30x_standard_peripheral/Source/gd32f30x_usart.c ****          break;
 112:Drivers/GD32F30x_standard_peripheral/Source/gd32f30x_usart.c ****     case UART4:
 113:Drivers/GD32F30x_standard_peripheral/Source/gd32f30x_usart.c ****          /* get UART4 clock */
 114:Drivers/GD32F30x_standard_peripheral/Source/gd32f30x_usart.c ****          uclk = rcu_clock_freq_get(CK_APB1);
 115:Drivers/GD32F30x_standard_peripheral/Source/gd32f30x_usart.c ****          break;  
 116:Drivers/GD32F30x_standard_peripheral/Source/gd32f30x_usart.c ****     default:
 117:Drivers/GD32F30x_standard_peripheral/Source/gd32f30x_usart.c ****          break;
 118:Drivers/GD32F30x_standard_peripheral/Source/gd32f30x_usart.c ****     }
 119:Drivers/GD32F30x_standard_peripheral/Source/gd32f30x_usart.c ****     /* oversampling by 16, configure the value of USART_BAUD */
ARM GAS  C:\Users\Prog\AppData\Local\Temp\ccJHD9tp.s 			page 7


 120:Drivers/GD32F30x_standard_peripheral/Source/gd32f30x_usart.c ****     udiv = (uclk+baudval/2U)/baudval;
 208              		.loc 1 120 5 is_stmt 1 view .LVU40
 209              		.loc 1 120 17 is_stmt 0 view .LVU41
 210 003e 00EB5500 		add	r0, r0, r5, lsr #1
 211              	.LVL29:
 212              		.loc 1 120 10 view .LVU42
 213 0042 B0FBF5F0 		udiv	r0, r0, r5
 214              	.LVL30:
 121:Drivers/GD32F30x_standard_peripheral/Source/gd32f30x_usart.c ****     intdiv = udiv & 0xfff0U;
 215              		.loc 1 121 5 is_stmt 1 view .LVU43
 122:Drivers/GD32F30x_standard_peripheral/Source/gd32f30x_usart.c ****     fradiv = udiv & 0xfU;
 216              		.loc 1 122 5 view .LVU44
 123:Drivers/GD32F30x_standard_peripheral/Source/gd32f30x_usart.c ****     USART_BAUD(usart_periph) = ((USART_BAUD_FRADIV | USART_BAUD_INTDIV) & (intdiv | fradiv));
 217              		.loc 1 123 5 view .LVU45
 218              		.loc 1 123 83 is_stmt 0 view .LVU46
 219 0046 80B2     		uxth	r0, r0
 220              	.LVL31:
 221              		.loc 1 123 30 view .LVU47
 222 0048 A060     		str	r0, [r4, #8]
 124:Drivers/GD32F30x_standard_peripheral/Source/gd32f30x_usart.c **** }
 223              		.loc 1 124 1 view .LVU48
 224 004a 38BD     		pop	{r3, r4, r5, pc}
 225              	.LVL32:
 226              	.L15:
 102:Drivers/GD32F30x_standard_peripheral/Source/gd32f30x_usart.c ****          break;
 227              		.loc 1 102 10 is_stmt 1 view .LVU49
 102:Drivers/GD32F30x_standard_peripheral/Source/gd32f30x_usart.c ****          break;
 228              		.loc 1 102 17 is_stmt 0 view .LVU50
 229 004c 0220     		movs	r0, #2
 230              	.LVL33:
 102:Drivers/GD32F30x_standard_peripheral/Source/gd32f30x_usart.c ****          break;
 231              		.loc 1 102 17 view .LVU51
 232 004e FFF7FEFF 		bl	rcu_clock_freq_get
 233              	.LVL34:
 103:Drivers/GD32F30x_standard_peripheral/Source/gd32f30x_usart.c ****     case USART2:
 234              		.loc 1 103 10 is_stmt 1 view .LVU52
 235 0052 F4E7     		b	.L17
 236              	.LVL35:
 237              	.L13:
 110:Drivers/GD32F30x_standard_peripheral/Source/gd32f30x_usart.c ****          break;
 238              		.loc 1 110 10 view .LVU53
 110:Drivers/GD32F30x_standard_peripheral/Source/gd32f30x_usart.c ****          break;
 239              		.loc 1 110 17 is_stmt 0 view .LVU54
 240 0054 0220     		movs	r0, #2
 241              	.LVL36:
 110:Drivers/GD32F30x_standard_peripheral/Source/gd32f30x_usart.c ****          break;
 242              		.loc 1 110 17 view .LVU55
 243 0056 FFF7FEFF 		bl	rcu_clock_freq_get
 244              	.LVL37:
 111:Drivers/GD32F30x_standard_peripheral/Source/gd32f30x_usart.c ****     case UART4:
 245              		.loc 1 111 10 is_stmt 1 view .LVU56
 246 005a F0E7     		b	.L17
 247              	.LVL38:
 248              	.L18:
 114:Drivers/GD32F30x_standard_peripheral/Source/gd32f30x_usart.c ****          break;  
 249              		.loc 1 114 10 view .LVU57
 114:Drivers/GD32F30x_standard_peripheral/Source/gd32f30x_usart.c ****          break;  
ARM GAS  C:\Users\Prog\AppData\Local\Temp\ccJHD9tp.s 			page 8


 250              		.loc 1 114 17 is_stmt 0 view .LVU58
 251 005c 0220     		movs	r0, #2
 252              	.LVL39:
 114:Drivers/GD32F30x_standard_peripheral/Source/gd32f30x_usart.c ****          break;  
 253              		.loc 1 114 17 view .LVU59
 254 005e FFF7FEFF 		bl	rcu_clock_freq_get
 255              	.LVL40:
 115:Drivers/GD32F30x_standard_peripheral/Source/gd32f30x_usart.c ****     default:
 256              		.loc 1 115 10 is_stmt 1 view .LVU60
 257 0062 ECE7     		b	.L17
 258              	.LVL41:
 259              	.L19:
  93:Drivers/GD32F30x_standard_peripheral/Source/gd32f30x_usart.c ****     switch(usart_periph){
 260              		.loc 1 93 14 is_stmt 0 view .LVU61
 261 0064 0020     		movs	r0, #0
 262              	.LVL42:
  93:Drivers/GD32F30x_standard_peripheral/Source/gd32f30x_usart.c ****     switch(usart_periph){
 263              		.loc 1 93 14 view .LVU62
 264 0066 EAE7     		b	.L17
 265              	.L24:
 266              		.align	2
 267              	.L23:
 268 0068 004C0040 		.word	1073761280
 269 006c 00500040 		.word	1073762304
 270              		.cfi_endproc
 271              	.LFE117:
 273              		.section	.text.usart_parity_config,"ax",%progbits
 274              		.align	1
 275              		.global	usart_parity_config
 276              		.syntax unified
 277              		.thumb
 278              		.thumb_func
 279              		.fpu fpv4-sp-d16
 281              	usart_parity_config:
 282              	.LVL43:
 283              	.LFB118:
 125:Drivers/GD32F30x_standard_peripheral/Source/gd32f30x_usart.c **** 
 126:Drivers/GD32F30x_standard_peripheral/Source/gd32f30x_usart.c **** /*!
 127:Drivers/GD32F30x_standard_peripheral/Source/gd32f30x_usart.c ****     \brief       configure USART parity
 128:Drivers/GD32F30x_standard_peripheral/Source/gd32f30x_usart.c ****     \param[in] usart_periph: USARTx(x=0,1,2)/UARTx(x=3,4)
 129:Drivers/GD32F30x_standard_peripheral/Source/gd32f30x_usart.c ****     \param[in] paritycfg: configure USART parity
 130:Drivers/GD32F30x_standard_peripheral/Source/gd32f30x_usart.c ****                only one parameter can be selected which is shown as below:
 131:Drivers/GD32F30x_standard_peripheral/Source/gd32f30x_usart.c ****       \arg       USART_PM_NONE: no parity
 132:Drivers/GD32F30x_standard_peripheral/Source/gd32f30x_usart.c ****       \arg       USART_PM_ODD:  odd parity
 133:Drivers/GD32F30x_standard_peripheral/Source/gd32f30x_usart.c ****       \arg       USART_PM_EVEN: even parity 
 134:Drivers/GD32F30x_standard_peripheral/Source/gd32f30x_usart.c ****     \param[out] none
 135:Drivers/GD32F30x_standard_peripheral/Source/gd32f30x_usart.c ****     \retval     none
 136:Drivers/GD32F30x_standard_peripheral/Source/gd32f30x_usart.c **** */
 137:Drivers/GD32F30x_standard_peripheral/Source/gd32f30x_usart.c **** void usart_parity_config(uint32_t usart_periph, uint32_t paritycfg)
 138:Drivers/GD32F30x_standard_peripheral/Source/gd32f30x_usart.c **** {
 284              		.loc 1 138 1 is_stmt 1 view -0
 285              		.cfi_startproc
 286              		@ args = 0, pretend = 0, frame = 0
 287              		@ frame_needed = 0, uses_anonymous_args = 0
 288              		@ link register save eliminated.
 139:Drivers/GD32F30x_standard_peripheral/Source/gd32f30x_usart.c ****     /* clear USART_CTL0 PM,PCEN bits */
 140:Drivers/GD32F30x_standard_peripheral/Source/gd32f30x_usart.c ****     USART_CTL0(usart_periph) &= ~(USART_CTL0_PM | USART_CTL0_PCEN);
ARM GAS  C:\Users\Prog\AppData\Local\Temp\ccJHD9tp.s 			page 9


 289              		.loc 1 140 5 view .LVU64
 290              		.loc 1 140 30 is_stmt 0 view .LVU65
 291 0000 C368     		ldr	r3, [r0, #12]
 292 0002 23F4C063 		bic	r3, r3, #1536
 293 0006 C360     		str	r3, [r0, #12]
 141:Drivers/GD32F30x_standard_peripheral/Source/gd32f30x_usart.c ****     /* configure USART parity mode */
 142:Drivers/GD32F30x_standard_peripheral/Source/gd32f30x_usart.c ****     USART_CTL0(usart_periph) |= paritycfg ;
 294              		.loc 1 142 5 is_stmt 1 view .LVU66
 295              		.loc 1 142 30 is_stmt 0 view .LVU67
 296 0008 C368     		ldr	r3, [r0, #12]
 297 000a 1943     		orrs	r1, r1, r3
 298              	.LVL44:
 299              		.loc 1 142 30 view .LVU68
 300 000c C160     		str	r1, [r0, #12]
 143:Drivers/GD32F30x_standard_peripheral/Source/gd32f30x_usart.c **** }
 301              		.loc 1 143 1 view .LVU69
 302 000e 7047     		bx	lr
 303              		.cfi_endproc
 304              	.LFE118:
 306              		.section	.text.usart_word_length_set,"ax",%progbits
 307              		.align	1
 308              		.global	usart_word_length_set
 309              		.syntax unified
 310              		.thumb
 311              		.thumb_func
 312              		.fpu fpv4-sp-d16
 314              	usart_word_length_set:
 315              	.LVL45:
 316              	.LFB119:
 144:Drivers/GD32F30x_standard_peripheral/Source/gd32f30x_usart.c **** 
 145:Drivers/GD32F30x_standard_peripheral/Source/gd32f30x_usart.c **** /*!
 146:Drivers/GD32F30x_standard_peripheral/Source/gd32f30x_usart.c ****     \brief       configure USART word length
 147:Drivers/GD32F30x_standard_peripheral/Source/gd32f30x_usart.c ****     \param[in] usart_periph: USARTx(x=0,1,2)/UARTx(x=3,4)
 148:Drivers/GD32F30x_standard_peripheral/Source/gd32f30x_usart.c ****     \param[in] wlen: USART word length configure
 149:Drivers/GD32F30x_standard_peripheral/Source/gd32f30x_usart.c ****                only one parameter can be selected which is shown as below:
 150:Drivers/GD32F30x_standard_peripheral/Source/gd32f30x_usart.c ****       \arg       USART_WL_8BIT: 8 bits
 151:Drivers/GD32F30x_standard_peripheral/Source/gd32f30x_usart.c ****       \arg       USART_WL_9BIT: 9 bits
 152:Drivers/GD32F30x_standard_peripheral/Source/gd32f30x_usart.c ****     \param[out] none
 153:Drivers/GD32F30x_standard_peripheral/Source/gd32f30x_usart.c ****     \retval     none
 154:Drivers/GD32F30x_standard_peripheral/Source/gd32f30x_usart.c **** */
 155:Drivers/GD32F30x_standard_peripheral/Source/gd32f30x_usart.c **** void usart_word_length_set(uint32_t usart_periph, uint32_t wlen)
 156:Drivers/GD32F30x_standard_peripheral/Source/gd32f30x_usart.c **** {
 317              		.loc 1 156 1 is_stmt 1 view -0
 318              		.cfi_startproc
 319              		@ args = 0, pretend = 0, frame = 0
 320              		@ frame_needed = 0, uses_anonymous_args = 0
 321              		@ link register save eliminated.
 157:Drivers/GD32F30x_standard_peripheral/Source/gd32f30x_usart.c ****     /* clear USART_CTL0 WL bit */
 158:Drivers/GD32F30x_standard_peripheral/Source/gd32f30x_usart.c ****     USART_CTL0(usart_periph) &= ~USART_CTL0_WL;
 322              		.loc 1 158 5 view .LVU71
 323              		.loc 1 158 30 is_stmt 0 view .LVU72
 324 0000 C368     		ldr	r3, [r0, #12]
 325 0002 23F48053 		bic	r3, r3, #4096
 326 0006 C360     		str	r3, [r0, #12]
 159:Drivers/GD32F30x_standard_peripheral/Source/gd32f30x_usart.c ****     /* configure USART word length */
 160:Drivers/GD32F30x_standard_peripheral/Source/gd32f30x_usart.c ****     USART_CTL0(usart_periph) |= wlen;
 327              		.loc 1 160 5 is_stmt 1 view .LVU73
ARM GAS  C:\Users\Prog\AppData\Local\Temp\ccJHD9tp.s 			page 10


 328              		.loc 1 160 30 is_stmt 0 view .LVU74
 329 0008 C368     		ldr	r3, [r0, #12]
 330 000a 1943     		orrs	r1, r1, r3
 331              	.LVL46:
 332              		.loc 1 160 30 view .LVU75
 333 000c C160     		str	r1, [r0, #12]
 161:Drivers/GD32F30x_standard_peripheral/Source/gd32f30x_usart.c **** }
 334              		.loc 1 161 1 view .LVU76
 335 000e 7047     		bx	lr
 336              		.cfi_endproc
 337              	.LFE119:
 339              		.section	.text.usart_stop_bit_set,"ax",%progbits
 340              		.align	1
 341              		.global	usart_stop_bit_set
 342              		.syntax unified
 343              		.thumb
 344              		.thumb_func
 345              		.fpu fpv4-sp-d16
 347              	usart_stop_bit_set:
 348              	.LVL47:
 349              	.LFB120:
 162:Drivers/GD32F30x_standard_peripheral/Source/gd32f30x_usart.c **** 
 163:Drivers/GD32F30x_standard_peripheral/Source/gd32f30x_usart.c **** /*!
 164:Drivers/GD32F30x_standard_peripheral/Source/gd32f30x_usart.c ****     \brief       configure USART stop bit length
 165:Drivers/GD32F30x_standard_peripheral/Source/gd32f30x_usart.c ****     \param[in] usart_periph: USARTx(x=0,1,2)/UARTx(x=3,4)
 166:Drivers/GD32F30x_standard_peripheral/Source/gd32f30x_usart.c ****     \param[in] stblen: USART stop bit configure
 167:Drivers/GD32F30x_standard_peripheral/Source/gd32f30x_usart.c ****                only one parameter can be selected which is shown as below:
 168:Drivers/GD32F30x_standard_peripheral/Source/gd32f30x_usart.c ****       \arg       USART_STB_1BIT:   1 bit
 169:Drivers/GD32F30x_standard_peripheral/Source/gd32f30x_usart.c ****       \arg       USART_STB_0_5BIT: 0.5 bit, not available for UARTx(x=3,4)
 170:Drivers/GD32F30x_standard_peripheral/Source/gd32f30x_usart.c ****       \arg       USART_STB_2BIT:   2 bits
 171:Drivers/GD32F30x_standard_peripheral/Source/gd32f30x_usart.c ****       \arg       USART_STB_1_5BIT: 1.5 bits, not available for UARTx(x=3,4)
 172:Drivers/GD32F30x_standard_peripheral/Source/gd32f30x_usart.c ****     \param[out] none
 173:Drivers/GD32F30x_standard_peripheral/Source/gd32f30x_usart.c ****     \retval     none
 174:Drivers/GD32F30x_standard_peripheral/Source/gd32f30x_usart.c **** */
 175:Drivers/GD32F30x_standard_peripheral/Source/gd32f30x_usart.c **** void usart_stop_bit_set(uint32_t usart_periph, uint32_t stblen)
 176:Drivers/GD32F30x_standard_peripheral/Source/gd32f30x_usart.c **** {
 350              		.loc 1 176 1 is_stmt 1 view -0
 351              		.cfi_startproc
 352              		@ args = 0, pretend = 0, frame = 0
 353              		@ frame_needed = 0, uses_anonymous_args = 0
 354              		@ link register save eliminated.
 177:Drivers/GD32F30x_standard_peripheral/Source/gd32f30x_usart.c ****     /* clear USART_CTL1 STB bits */
 178:Drivers/GD32F30x_standard_peripheral/Source/gd32f30x_usart.c ****     USART_CTL1(usart_periph) &= ~USART_CTL1_STB; 
 355              		.loc 1 178 5 view .LVU78
 356              		.loc 1 178 30 is_stmt 0 view .LVU79
 357 0000 0369     		ldr	r3, [r0, #16]
 358 0002 23F44053 		bic	r3, r3, #12288
 359 0006 0361     		str	r3, [r0, #16]
 179:Drivers/GD32F30x_standard_peripheral/Source/gd32f30x_usart.c ****     /* configure USART stop bits */
 180:Drivers/GD32F30x_standard_peripheral/Source/gd32f30x_usart.c ****     USART_CTL1(usart_periph) |= stblen;
 360              		.loc 1 180 5 is_stmt 1 view .LVU80
 361              		.loc 1 180 30 is_stmt 0 view .LVU81
 362 0008 0369     		ldr	r3, [r0, #16]
 363 000a 1943     		orrs	r1, r1, r3
 364              	.LVL48:
 365              		.loc 1 180 30 view .LVU82
 366 000c 0161     		str	r1, [r0, #16]
ARM GAS  C:\Users\Prog\AppData\Local\Temp\ccJHD9tp.s 			page 11


 181:Drivers/GD32F30x_standard_peripheral/Source/gd32f30x_usart.c **** }
 367              		.loc 1 181 1 view .LVU83
 368 000e 7047     		bx	lr
 369              		.cfi_endproc
 370              	.LFE120:
 372              		.section	.text.usart_enable,"ax",%progbits
 373              		.align	1
 374              		.global	usart_enable
 375              		.syntax unified
 376              		.thumb
 377              		.thumb_func
 378              		.fpu fpv4-sp-d16
 380              	usart_enable:
 381              	.LVL49:
 382              	.LFB121:
 182:Drivers/GD32F30x_standard_peripheral/Source/gd32f30x_usart.c **** 
 183:Drivers/GD32F30x_standard_peripheral/Source/gd32f30x_usart.c **** /*!
 184:Drivers/GD32F30x_standard_peripheral/Source/gd32f30x_usart.c ****     \brief      enable USART
 185:Drivers/GD32F30x_standard_peripheral/Source/gd32f30x_usart.c ****     \param[in]  usart_periph: USARTx(x=0,1,2)/UARTx(x=3,4)
 186:Drivers/GD32F30x_standard_peripheral/Source/gd32f30x_usart.c ****     \param[out] none
 187:Drivers/GD32F30x_standard_peripheral/Source/gd32f30x_usart.c ****     \retval     none
 188:Drivers/GD32F30x_standard_peripheral/Source/gd32f30x_usart.c **** */
 189:Drivers/GD32F30x_standard_peripheral/Source/gd32f30x_usart.c **** void usart_enable(uint32_t usart_periph)
 190:Drivers/GD32F30x_standard_peripheral/Source/gd32f30x_usart.c **** {
 383              		.loc 1 190 1 is_stmt 1 view -0
 384              		.cfi_startproc
 385              		@ args = 0, pretend = 0, frame = 0
 386              		@ frame_needed = 0, uses_anonymous_args = 0
 387              		@ link register save eliminated.
 191:Drivers/GD32F30x_standard_peripheral/Source/gd32f30x_usart.c ****     USART_CTL0(usart_periph) |= USART_CTL0_UEN;
 388              		.loc 1 191 5 view .LVU85
 389              		.loc 1 191 30 is_stmt 0 view .LVU86
 390 0000 C368     		ldr	r3, [r0, #12]
 391 0002 43F40053 		orr	r3, r3, #8192
 392 0006 C360     		str	r3, [r0, #12]
 192:Drivers/GD32F30x_standard_peripheral/Source/gd32f30x_usart.c **** }
 393              		.loc 1 192 1 view .LVU87
 394 0008 7047     		bx	lr
 395              		.cfi_endproc
 396              	.LFE121:
 398              		.section	.text.usart_disable,"ax",%progbits
 399              		.align	1
 400              		.global	usart_disable
 401              		.syntax unified
 402              		.thumb
 403              		.thumb_func
 404              		.fpu fpv4-sp-d16
 406              	usart_disable:
 407              	.LVL50:
 408              	.LFB122:
 193:Drivers/GD32F30x_standard_peripheral/Source/gd32f30x_usart.c **** 
 194:Drivers/GD32F30x_standard_peripheral/Source/gd32f30x_usart.c **** /*!
 195:Drivers/GD32F30x_standard_peripheral/Source/gd32f30x_usart.c ****     \brief       disable USART
 196:Drivers/GD32F30x_standard_peripheral/Source/gd32f30x_usart.c ****     \param[in] usart_periph: USARTx(x=0,1,2)/UARTx(x=3,4)
 197:Drivers/GD32F30x_standard_peripheral/Source/gd32f30x_usart.c ****     \param[out] none
 198:Drivers/GD32F30x_standard_peripheral/Source/gd32f30x_usart.c ****     \retval     none
 199:Drivers/GD32F30x_standard_peripheral/Source/gd32f30x_usart.c **** */
ARM GAS  C:\Users\Prog\AppData\Local\Temp\ccJHD9tp.s 			page 12


 200:Drivers/GD32F30x_standard_peripheral/Source/gd32f30x_usart.c **** void usart_disable(uint32_t usart_periph)
 201:Drivers/GD32F30x_standard_peripheral/Source/gd32f30x_usart.c **** {
 409              		.loc 1 201 1 is_stmt 1 view -0
 410              		.cfi_startproc
 411              		@ args = 0, pretend = 0, frame = 0
 412              		@ frame_needed = 0, uses_anonymous_args = 0
 413              		@ link register save eliminated.
 202:Drivers/GD32F30x_standard_peripheral/Source/gd32f30x_usart.c ****     USART_CTL0(usart_periph) &= ~(USART_CTL0_UEN);
 414              		.loc 1 202 5 view .LVU89
 415              		.loc 1 202 30 is_stmt 0 view .LVU90
 416 0000 C368     		ldr	r3, [r0, #12]
 417 0002 23F40053 		bic	r3, r3, #8192
 418 0006 C360     		str	r3, [r0, #12]
 203:Drivers/GD32F30x_standard_peripheral/Source/gd32f30x_usart.c **** }
 419              		.loc 1 203 1 view .LVU91
 420 0008 7047     		bx	lr
 421              		.cfi_endproc
 422              	.LFE122:
 424              		.section	.text.usart_transmit_config,"ax",%progbits
 425              		.align	1
 426              		.global	usart_transmit_config
 427              		.syntax unified
 428              		.thumb
 429              		.thumb_func
 430              		.fpu fpv4-sp-d16
 432              	usart_transmit_config:
 433              	.LVL51:
 434              	.LFB123:
 204:Drivers/GD32F30x_standard_peripheral/Source/gd32f30x_usart.c **** 
 205:Drivers/GD32F30x_standard_peripheral/Source/gd32f30x_usart.c **** /*!
 206:Drivers/GD32F30x_standard_peripheral/Source/gd32f30x_usart.c ****     \brief      configure USART transmitter
 207:Drivers/GD32F30x_standard_peripheral/Source/gd32f30x_usart.c ****     \param[in]  usart_periph: USARTx(x=0,1,2)/UARTx(x=3,4)
 208:Drivers/GD32F30x_standard_peripheral/Source/gd32f30x_usart.c ****     \param[in]  txconfig: enable or disable USART transmitter
 209:Drivers/GD32F30x_standard_peripheral/Source/gd32f30x_usart.c ****                 only one parameter can be selected which is shown as below:
 210:Drivers/GD32F30x_standard_peripheral/Source/gd32f30x_usart.c ****       \arg        USART_TRANSMIT_ENABLE: enable USART transmission
 211:Drivers/GD32F30x_standard_peripheral/Source/gd32f30x_usart.c ****       \arg        USART_TRANSMIT_DISABLE: enable USART transmission
 212:Drivers/GD32F30x_standard_peripheral/Source/gd32f30x_usart.c ****     \param[out] none
 213:Drivers/GD32F30x_standard_peripheral/Source/gd32f30x_usart.c ****     \retval     none
 214:Drivers/GD32F30x_standard_peripheral/Source/gd32f30x_usart.c **** */
 215:Drivers/GD32F30x_standard_peripheral/Source/gd32f30x_usart.c **** void usart_transmit_config(uint32_t usart_periph, uint32_t txconfig)
 216:Drivers/GD32F30x_standard_peripheral/Source/gd32f30x_usart.c **** {
 435              		.loc 1 216 1 is_stmt 1 view -0
 436              		.cfi_startproc
 437              		@ args = 0, pretend = 0, frame = 0
 438              		@ frame_needed = 0, uses_anonymous_args = 0
 439              		@ link register save eliminated.
 217:Drivers/GD32F30x_standard_peripheral/Source/gd32f30x_usart.c ****     uint32_t ctl = 0U;
 440              		.loc 1 217 5 view .LVU93
 218:Drivers/GD32F30x_standard_peripheral/Source/gd32f30x_usart.c ****     
 219:Drivers/GD32F30x_standard_peripheral/Source/gd32f30x_usart.c ****     ctl = USART_CTL0(usart_periph);
 441              		.loc 1 219 5 view .LVU94
 442              		.loc 1 219 9 is_stmt 0 view .LVU95
 443 0000 C368     		ldr	r3, [r0, #12]
 444              	.LVL52:
 220:Drivers/GD32F30x_standard_peripheral/Source/gd32f30x_usart.c ****     ctl &= ~USART_CTL0_TEN;
 445              		.loc 1 220 5 is_stmt 1 view .LVU96
 446              		.loc 1 220 9 is_stmt 0 view .LVU97
ARM GAS  C:\Users\Prog\AppData\Local\Temp\ccJHD9tp.s 			page 13


 447 0002 23F00803 		bic	r3, r3, #8
 448              	.LVL53:
 221:Drivers/GD32F30x_standard_peripheral/Source/gd32f30x_usart.c ****     ctl |= txconfig;
 449              		.loc 1 221 5 is_stmt 1 view .LVU98
 450              		.loc 1 221 9 is_stmt 0 view .LVU99
 451 0006 1943     		orrs	r1, r1, r3
 452              	.LVL54:
 222:Drivers/GD32F30x_standard_peripheral/Source/gd32f30x_usart.c ****     /* configure transfer mode */
 223:Drivers/GD32F30x_standard_peripheral/Source/gd32f30x_usart.c ****     USART_CTL0(usart_periph) = ctl;
 453              		.loc 1 223 5 is_stmt 1 view .LVU100
 454              		.loc 1 223 30 is_stmt 0 view .LVU101
 455 0008 C160     		str	r1, [r0, #12]
 224:Drivers/GD32F30x_standard_peripheral/Source/gd32f30x_usart.c **** }
 456              		.loc 1 224 1 view .LVU102
 457 000a 7047     		bx	lr
 458              		.cfi_endproc
 459              	.LFE123:
 461              		.section	.text.usart_receive_config,"ax",%progbits
 462              		.align	1
 463              		.global	usart_receive_config
 464              		.syntax unified
 465              		.thumb
 466              		.thumb_func
 467              		.fpu fpv4-sp-d16
 469              	usart_receive_config:
 470              	.LVL55:
 471              	.LFB124:
 225:Drivers/GD32F30x_standard_peripheral/Source/gd32f30x_usart.c **** 
 226:Drivers/GD32F30x_standard_peripheral/Source/gd32f30x_usart.c **** /*!
 227:Drivers/GD32F30x_standard_peripheral/Source/gd32f30x_usart.c ****     \brief      configure USART receiver
 228:Drivers/GD32F30x_standard_peripheral/Source/gd32f30x_usart.c ****     \param[in]  usart_periph: USARTx(x=0,1,2)/UARTx(x=3,4)
 229:Drivers/GD32F30x_standard_peripheral/Source/gd32f30x_usart.c ****     \param[in]  rxconfig: enable or disable USART receiver
 230:Drivers/GD32F30x_standard_peripheral/Source/gd32f30x_usart.c ****                 only one parameter can be selected which is shown as below:
 231:Drivers/GD32F30x_standard_peripheral/Source/gd32f30x_usart.c ****       \arg        USART_RECEIVE_ENABLE: enable USART reception
 232:Drivers/GD32F30x_standard_peripheral/Source/gd32f30x_usart.c ****       \arg        USART_RECEIVE_DISABLE: disable USART reception
 233:Drivers/GD32F30x_standard_peripheral/Source/gd32f30x_usart.c ****     \param[out] none
 234:Drivers/GD32F30x_standard_peripheral/Source/gd32f30x_usart.c ****     \retval     none
 235:Drivers/GD32F30x_standard_peripheral/Source/gd32f30x_usart.c **** */
 236:Drivers/GD32F30x_standard_peripheral/Source/gd32f30x_usart.c **** void usart_receive_config(uint32_t usart_periph, uint32_t rxconfig)
 237:Drivers/GD32F30x_standard_peripheral/Source/gd32f30x_usart.c **** {
 472              		.loc 1 237 1 is_stmt 1 view -0
 473              		.cfi_startproc
 474              		@ args = 0, pretend = 0, frame = 0
 475              		@ frame_needed = 0, uses_anonymous_args = 0
 476              		@ link register save eliminated.
 238:Drivers/GD32F30x_standard_peripheral/Source/gd32f30x_usart.c ****     uint32_t ctl = 0U;
 477              		.loc 1 238 5 view .LVU104
 239:Drivers/GD32F30x_standard_peripheral/Source/gd32f30x_usart.c ****     
 240:Drivers/GD32F30x_standard_peripheral/Source/gd32f30x_usart.c ****     ctl = USART_CTL0(usart_periph);
 478              		.loc 1 240 5 view .LVU105
 479              		.loc 1 240 9 is_stmt 0 view .LVU106
 480 0000 C368     		ldr	r3, [r0, #12]
 481              	.LVL56:
 241:Drivers/GD32F30x_standard_peripheral/Source/gd32f30x_usart.c ****     ctl &= ~USART_CTL0_REN;
 482              		.loc 1 241 5 is_stmt 1 view .LVU107
 483              		.loc 1 241 9 is_stmt 0 view .LVU108
 484 0002 23F00403 		bic	r3, r3, #4
ARM GAS  C:\Users\Prog\AppData\Local\Temp\ccJHD9tp.s 			page 14


 485              	.LVL57:
 242:Drivers/GD32F30x_standard_peripheral/Source/gd32f30x_usart.c ****     ctl |= rxconfig;
 486              		.loc 1 242 5 is_stmt 1 view .LVU109
 487              		.loc 1 242 9 is_stmt 0 view .LVU110
 488 0006 1943     		orrs	r1, r1, r3
 489              	.LVL58:
 243:Drivers/GD32F30x_standard_peripheral/Source/gd32f30x_usart.c ****     /* configure transfer mode */
 244:Drivers/GD32F30x_standard_peripheral/Source/gd32f30x_usart.c ****     USART_CTL0(usart_periph) = ctl;
 490              		.loc 1 244 5 is_stmt 1 view .LVU111
 491              		.loc 1 244 30 is_stmt 0 view .LVU112
 492 0008 C160     		str	r1, [r0, #12]
 245:Drivers/GD32F30x_standard_peripheral/Source/gd32f30x_usart.c **** }
 493              		.loc 1 245 1 view .LVU113
 494 000a 7047     		bx	lr
 495              		.cfi_endproc
 496              	.LFE124:
 498              		.section	.text.usart_data_first_config,"ax",%progbits
 499              		.align	1
 500              		.global	usart_data_first_config
 501              		.syntax unified
 502              		.thumb
 503              		.thumb_func
 504              		.fpu fpv4-sp-d16
 506              	usart_data_first_config:
 507              	.LVL59:
 508              	.LFB125:
 246:Drivers/GD32F30x_standard_peripheral/Source/gd32f30x_usart.c **** 
 247:Drivers/GD32F30x_standard_peripheral/Source/gd32f30x_usart.c **** /*!
 248:Drivers/GD32F30x_standard_peripheral/Source/gd32f30x_usart.c ****     \brief      data is transmitted/received with the LSB/MSB first
 249:Drivers/GD32F30x_standard_peripheral/Source/gd32f30x_usart.c ****     \param[in]  usart_periph: USARTx(x=0,1,2)
 250:Drivers/GD32F30x_standard_peripheral/Source/gd32f30x_usart.c ****     \param[in]  msbf: LSB/MSB
 251:Drivers/GD32F30x_standard_peripheral/Source/gd32f30x_usart.c ****                 only one parameter can be selected which is shown as below:
 252:Drivers/GD32F30x_standard_peripheral/Source/gd32f30x_usart.c ****       \arg        USART_MSBF_LSB: LSB first
 253:Drivers/GD32F30x_standard_peripheral/Source/gd32f30x_usart.c ****       \arg        USART_MSBF_MSB: MSB first
 254:Drivers/GD32F30x_standard_peripheral/Source/gd32f30x_usart.c ****     \param[out] none
 255:Drivers/GD32F30x_standard_peripheral/Source/gd32f30x_usart.c ****     \retval     none
 256:Drivers/GD32F30x_standard_peripheral/Source/gd32f30x_usart.c **** */
 257:Drivers/GD32F30x_standard_peripheral/Source/gd32f30x_usart.c **** void usart_data_first_config(uint32_t usart_periph, uint32_t msbf)
 258:Drivers/GD32F30x_standard_peripheral/Source/gd32f30x_usart.c **** {
 509              		.loc 1 258 1 is_stmt 1 view -0
 510              		.cfi_startproc
 511              		@ args = 0, pretend = 0, frame = 0
 512              		@ frame_needed = 0, uses_anonymous_args = 0
 513              		@ link register save eliminated.
 259:Drivers/GD32F30x_standard_peripheral/Source/gd32f30x_usart.c ****     USART_CTL3(usart_periph) &= ~(USART_CTL3_MSBF); 
 514              		.loc 1 259 5 view .LVU115
 515              		.loc 1 259 30 is_stmt 0 view .LVU116
 516 0000 D0F88030 		ldr	r3, [r0, #128]
 517 0004 23F40063 		bic	r3, r3, #2048
 518 0008 C0F88030 		str	r3, [r0, #128]
 260:Drivers/GD32F30x_standard_peripheral/Source/gd32f30x_usart.c ****     USART_CTL3(usart_periph) |= msbf;
 519              		.loc 1 260 5 is_stmt 1 view .LVU117
 520              		.loc 1 260 30 is_stmt 0 view .LVU118
 521 000c D0F88030 		ldr	r3, [r0, #128]
 522 0010 1943     		orrs	r1, r1, r3
 523              	.LVL60:
 524              		.loc 1 260 30 view .LVU119
ARM GAS  C:\Users\Prog\AppData\Local\Temp\ccJHD9tp.s 			page 15


 525 0012 C0F88010 		str	r1, [r0, #128]
 261:Drivers/GD32F30x_standard_peripheral/Source/gd32f30x_usart.c **** }
 526              		.loc 1 261 1 view .LVU120
 527 0016 7047     		bx	lr
 528              		.cfi_endproc
 529              	.LFE125:
 531              		.section	.text.usart_invert_config,"ax",%progbits
 532              		.align	1
 533              		.global	usart_invert_config
 534              		.syntax unified
 535              		.thumb
 536              		.thumb_func
 537              		.fpu fpv4-sp-d16
 539              	usart_invert_config:
 540              	.LVL61:
 541              	.LFB126:
 262:Drivers/GD32F30x_standard_peripheral/Source/gd32f30x_usart.c **** 
 263:Drivers/GD32F30x_standard_peripheral/Source/gd32f30x_usart.c **** /*!
 264:Drivers/GD32F30x_standard_peripheral/Source/gd32f30x_usart.c ****     \brief      configure USART inversion
 265:Drivers/GD32F30x_standard_peripheral/Source/gd32f30x_usart.c ****     \param[in]  usart_periph: USARTx(x=0,1,2)
 266:Drivers/GD32F30x_standard_peripheral/Source/gd32f30x_usart.c ****     \param[in]  invertpara: refer to enum usart_invert_enum
 267:Drivers/GD32F30x_standard_peripheral/Source/gd32f30x_usart.c ****                 only one parameter can be selected which is shown as below:
 268:Drivers/GD32F30x_standard_peripheral/Source/gd32f30x_usart.c ****       \arg        USART_DINV_ENABLE: data bit level inversion
 269:Drivers/GD32F30x_standard_peripheral/Source/gd32f30x_usart.c ****       \arg        USART_DINV_DISABLE: data bit level not inversion
 270:Drivers/GD32F30x_standard_peripheral/Source/gd32f30x_usart.c ****       \arg        USART_TXPIN_ENABLE: TX pin level inversion
 271:Drivers/GD32F30x_standard_peripheral/Source/gd32f30x_usart.c ****       \arg        USART_TXPIN_DISABLE: TX pin level not inversion
 272:Drivers/GD32F30x_standard_peripheral/Source/gd32f30x_usart.c ****       \arg        USART_RXPIN_ENABLE: RX pin level inversion
 273:Drivers/GD32F30x_standard_peripheral/Source/gd32f30x_usart.c ****       \arg        USART_RXPIN_DISABLE: RX pin level not inversion
 274:Drivers/GD32F30x_standard_peripheral/Source/gd32f30x_usart.c ****     \param[out] none
 275:Drivers/GD32F30x_standard_peripheral/Source/gd32f30x_usart.c ****     \retval     none
 276:Drivers/GD32F30x_standard_peripheral/Source/gd32f30x_usart.c **** */
 277:Drivers/GD32F30x_standard_peripheral/Source/gd32f30x_usart.c **** void usart_invert_config(uint32_t usart_periph, usart_invert_enum invertpara)
 278:Drivers/GD32F30x_standard_peripheral/Source/gd32f30x_usart.c **** {
 542              		.loc 1 278 1 is_stmt 1 view -0
 543              		.cfi_startproc
 544              		@ args = 0, pretend = 0, frame = 0
 545              		@ frame_needed = 0, uses_anonymous_args = 0
 546              		@ link register save eliminated.
 279:Drivers/GD32F30x_standard_peripheral/Source/gd32f30x_usart.c ****     /* inverted or not the specified siginal */ 
 280:Drivers/GD32F30x_standard_peripheral/Source/gd32f30x_usart.c ****     switch(invertpara){
 547              		.loc 1 280 5 view .LVU122
 548 0000 0529     		cmp	r1, #5
 549 0002 2DD8     		bhi	.L33
 550 0004 DFE801F0 		tbb	[pc, r1]
 551              	.L36:
 552 0008 03       		.byte	(.L41-.L36)/2
 553 0009 18       		.byte	(.L40-.L36)/2
 554 000a 0A       		.byte	(.L39-.L36)/2
 555 000b 1F       		.byte	(.L38-.L36)/2
 556 000c 11       		.byte	(.L37-.L36)/2
 557 000d 26       		.byte	(.L35-.L36)/2
 558              		.p2align 1
 559              	.L41:
 281:Drivers/GD32F30x_standard_peripheral/Source/gd32f30x_usart.c ****     case USART_DINV_ENABLE:
 282:Drivers/GD32F30x_standard_peripheral/Source/gd32f30x_usart.c ****         /* data bit level inversion */
 283:Drivers/GD32F30x_standard_peripheral/Source/gd32f30x_usart.c ****         USART_CTL3(usart_periph) |= USART_CTL3_DINV;
 560              		.loc 1 283 9 view .LVU123
ARM GAS  C:\Users\Prog\AppData\Local\Temp\ccJHD9tp.s 			page 16


 561              		.loc 1 283 34 is_stmt 0 view .LVU124
 562 000e D0F88030 		ldr	r3, [r0, #128]
 563 0012 43F48063 		orr	r3, r3, #1024
 564 0016 C0F88030 		str	r3, [r0, #128]
 284:Drivers/GD32F30x_standard_peripheral/Source/gd32f30x_usart.c ****         break;
 565              		.loc 1 284 9 is_stmt 1 view .LVU125
 566 001a 7047     		bx	lr
 567              	.L39:
 285:Drivers/GD32F30x_standard_peripheral/Source/gd32f30x_usart.c ****     case USART_TXPIN_ENABLE:
 286:Drivers/GD32F30x_standard_peripheral/Source/gd32f30x_usart.c ****         /* TX pin level inversion */
 287:Drivers/GD32F30x_standard_peripheral/Source/gd32f30x_usart.c ****         USART_CTL3(usart_periph) |= USART_CTL3_TINV;
 568              		.loc 1 287 9 view .LVU126
 569              		.loc 1 287 34 is_stmt 0 view .LVU127
 570 001c D0F88030 		ldr	r3, [r0, #128]
 571 0020 43F40073 		orr	r3, r3, #512
 572 0024 C0F88030 		str	r3, [r0, #128]
 288:Drivers/GD32F30x_standard_peripheral/Source/gd32f30x_usart.c ****         break;
 573              		.loc 1 288 9 is_stmt 1 view .LVU128
 574 0028 7047     		bx	lr
 575              	.L37:
 289:Drivers/GD32F30x_standard_peripheral/Source/gd32f30x_usart.c ****     case USART_RXPIN_ENABLE:
 290:Drivers/GD32F30x_standard_peripheral/Source/gd32f30x_usart.c ****         /* RX pin level inversion */
 291:Drivers/GD32F30x_standard_peripheral/Source/gd32f30x_usart.c ****         USART_CTL3(usart_periph) |= USART_CTL3_RINV;
 576              		.loc 1 291 9 view .LVU129
 577              		.loc 1 291 34 is_stmt 0 view .LVU130
 578 002a D0F88030 		ldr	r3, [r0, #128]
 579 002e 43F48073 		orr	r3, r3, #256
 580 0032 C0F88030 		str	r3, [r0, #128]
 292:Drivers/GD32F30x_standard_peripheral/Source/gd32f30x_usart.c ****         break;
 581              		.loc 1 292 9 is_stmt 1 view .LVU131
 582 0036 7047     		bx	lr
 583              	.L40:
 293:Drivers/GD32F30x_standard_peripheral/Source/gd32f30x_usart.c ****     case USART_DINV_DISABLE:
 294:Drivers/GD32F30x_standard_peripheral/Source/gd32f30x_usart.c ****         /* data bit level not inversion */
 295:Drivers/GD32F30x_standard_peripheral/Source/gd32f30x_usart.c ****         USART_CTL3(usart_periph) &= ~(USART_CTL3_DINV);
 584              		.loc 1 295 9 view .LVU132
 585              		.loc 1 295 34 is_stmt 0 view .LVU133
 586 0038 D0F88030 		ldr	r3, [r0, #128]
 587 003c 23F48063 		bic	r3, r3, #1024
 588 0040 C0F88030 		str	r3, [r0, #128]
 296:Drivers/GD32F30x_standard_peripheral/Source/gd32f30x_usart.c ****         break;
 589              		.loc 1 296 9 is_stmt 1 view .LVU134
 590 0044 7047     		bx	lr
 591              	.L38:
 297:Drivers/GD32F30x_standard_peripheral/Source/gd32f30x_usart.c ****     case USART_TXPIN_DISABLE:
 298:Drivers/GD32F30x_standard_peripheral/Source/gd32f30x_usart.c ****         /* TX pin level not inversion */
 299:Drivers/GD32F30x_standard_peripheral/Source/gd32f30x_usart.c ****         USART_CTL3(usart_periph) &= ~(USART_CTL3_TINV);
 592              		.loc 1 299 9 view .LVU135
 593              		.loc 1 299 34 is_stmt 0 view .LVU136
 594 0046 D0F88030 		ldr	r3, [r0, #128]
 595 004a 23F40073 		bic	r3, r3, #512
 596 004e C0F88030 		str	r3, [r0, #128]
 300:Drivers/GD32F30x_standard_peripheral/Source/gd32f30x_usart.c ****         break;
 597              		.loc 1 300 9 is_stmt 1 view .LVU137
 598 0052 7047     		bx	lr
 599              	.L35:
 301:Drivers/GD32F30x_standard_peripheral/Source/gd32f30x_usart.c ****     case USART_RXPIN_DISABLE:
ARM GAS  C:\Users\Prog\AppData\Local\Temp\ccJHD9tp.s 			page 17


 302:Drivers/GD32F30x_standard_peripheral/Source/gd32f30x_usart.c ****         /* RX pin level not inversion */
 303:Drivers/GD32F30x_standard_peripheral/Source/gd32f30x_usart.c ****         USART_CTL3(usart_periph) &= ~(USART_CTL3_RINV);
 600              		.loc 1 303 9 view .LVU138
 601              		.loc 1 303 34 is_stmt 0 view .LVU139
 602 0054 D0F88030 		ldr	r3, [r0, #128]
 603 0058 23F48073 		bic	r3, r3, #256
 604 005c C0F88030 		str	r3, [r0, #128]
 304:Drivers/GD32F30x_standard_peripheral/Source/gd32f30x_usart.c ****         break;
 605              		.loc 1 304 9 is_stmt 1 view .LVU140
 606              	.L33:
 305:Drivers/GD32F30x_standard_peripheral/Source/gd32f30x_usart.c ****     default:
 306:Drivers/GD32F30x_standard_peripheral/Source/gd32f30x_usart.c ****         break;
 307:Drivers/GD32F30x_standard_peripheral/Source/gd32f30x_usart.c ****     }
 308:Drivers/GD32F30x_standard_peripheral/Source/gd32f30x_usart.c **** }
 607              		.loc 1 308 1 is_stmt 0 view .LVU141
 608 0060 7047     		bx	lr
 609              		.cfi_endproc
 610              	.LFE126:
 612              		.section	.text.usart_receiver_timeout_enable,"ax",%progbits
 613              		.align	1
 614              		.global	usart_receiver_timeout_enable
 615              		.syntax unified
 616              		.thumb
 617              		.thumb_func
 618              		.fpu fpv4-sp-d16
 620              	usart_receiver_timeout_enable:
 621              	.LVL62:
 622              	.LFB127:
 309:Drivers/GD32F30x_standard_peripheral/Source/gd32f30x_usart.c **** 
 310:Drivers/GD32F30x_standard_peripheral/Source/gd32f30x_usart.c **** /*!
 311:Drivers/GD32F30x_standard_peripheral/Source/gd32f30x_usart.c ****     \brief      enable receiver timeout of USART
 312:Drivers/GD32F30x_standard_peripheral/Source/gd32f30x_usart.c ****     \param[in]  usart_periph: USARTx(x=0,1,2)
 313:Drivers/GD32F30x_standard_peripheral/Source/gd32f30x_usart.c ****     \param[out] none
 314:Drivers/GD32F30x_standard_peripheral/Source/gd32f30x_usart.c ****     \retval     none
 315:Drivers/GD32F30x_standard_peripheral/Source/gd32f30x_usart.c **** */
 316:Drivers/GD32F30x_standard_peripheral/Source/gd32f30x_usart.c **** void usart_receiver_timeout_enable(uint32_t usart_periph)
 317:Drivers/GD32F30x_standard_peripheral/Source/gd32f30x_usart.c **** {
 623              		.loc 1 317 1 is_stmt 1 view -0
 624              		.cfi_startproc
 625              		@ args = 0, pretend = 0, frame = 0
 626              		@ frame_needed = 0, uses_anonymous_args = 0
 627              		@ link register save eliminated.
 318:Drivers/GD32F30x_standard_peripheral/Source/gd32f30x_usart.c ****     USART_CTL3(usart_periph) |= USART_CTL3_RTEN;
 628              		.loc 1 318 5 view .LVU143
 629              		.loc 1 318 30 is_stmt 0 view .LVU144
 630 0000 D0F88030 		ldr	r3, [r0, #128]
 631 0004 43F00103 		orr	r3, r3, #1
 632 0008 C0F88030 		str	r3, [r0, #128]
 319:Drivers/GD32F30x_standard_peripheral/Source/gd32f30x_usart.c **** }
 633              		.loc 1 319 1 view .LVU145
 634 000c 7047     		bx	lr
 635              		.cfi_endproc
 636              	.LFE127:
 638              		.section	.text.usart_receiver_timeout_disable,"ax",%progbits
 639              		.align	1
 640              		.global	usart_receiver_timeout_disable
 641              		.syntax unified
ARM GAS  C:\Users\Prog\AppData\Local\Temp\ccJHD9tp.s 			page 18


 642              		.thumb
 643              		.thumb_func
 644              		.fpu fpv4-sp-d16
 646              	usart_receiver_timeout_disable:
 647              	.LVL63:
 648              	.LFB128:
 320:Drivers/GD32F30x_standard_peripheral/Source/gd32f30x_usart.c **** 
 321:Drivers/GD32F30x_standard_peripheral/Source/gd32f30x_usart.c **** /*!
 322:Drivers/GD32F30x_standard_peripheral/Source/gd32f30x_usart.c ****     \brief      disable receiver timeout of USART
 323:Drivers/GD32F30x_standard_peripheral/Source/gd32f30x_usart.c ****     \param[in]  usart_periph: USARTx(x=0,1,2)
 324:Drivers/GD32F30x_standard_peripheral/Source/gd32f30x_usart.c ****     \param[out] none
 325:Drivers/GD32F30x_standard_peripheral/Source/gd32f30x_usart.c ****     \retval     none
 326:Drivers/GD32F30x_standard_peripheral/Source/gd32f30x_usart.c **** */
 327:Drivers/GD32F30x_standard_peripheral/Source/gd32f30x_usart.c **** void usart_receiver_timeout_disable(uint32_t usart_periph)
 328:Drivers/GD32F30x_standard_peripheral/Source/gd32f30x_usart.c **** {
 649              		.loc 1 328 1 is_stmt 1 view -0
 650              		.cfi_startproc
 651              		@ args = 0, pretend = 0, frame = 0
 652              		@ frame_needed = 0, uses_anonymous_args = 0
 653              		@ link register save eliminated.
 329:Drivers/GD32F30x_standard_peripheral/Source/gd32f30x_usart.c ****     USART_CTL3(usart_periph) &= ~(USART_CTL3_RTEN);
 654              		.loc 1 329 5 view .LVU147
 655              		.loc 1 329 30 is_stmt 0 view .LVU148
 656 0000 D0F88030 		ldr	r3, [r0, #128]
 657 0004 23F00103 		bic	r3, r3, #1
 658 0008 C0F88030 		str	r3, [r0, #128]
 330:Drivers/GD32F30x_standard_peripheral/Source/gd32f30x_usart.c **** }
 659              		.loc 1 330 1 view .LVU149
 660 000c 7047     		bx	lr
 661              		.cfi_endproc
 662              	.LFE128:
 664              		.section	.text.usart_receiver_timeout_threshold_config,"ax",%progbits
 665              		.align	1
 666              		.global	usart_receiver_timeout_threshold_config
 667              		.syntax unified
 668              		.thumb
 669              		.thumb_func
 670              		.fpu fpv4-sp-d16
 672              	usart_receiver_timeout_threshold_config:
 673              	.LVL64:
 674              	.LFB129:
 331:Drivers/GD32F30x_standard_peripheral/Source/gd32f30x_usart.c **** 
 332:Drivers/GD32F30x_standard_peripheral/Source/gd32f30x_usart.c **** /*!
 333:Drivers/GD32F30x_standard_peripheral/Source/gd32f30x_usart.c ****     \brief      set the receiver timeout threshold of USART
 334:Drivers/GD32F30x_standard_peripheral/Source/gd32f30x_usart.c ****     \param[in]  usart_periph: USARTx(x=0,1,2)
 335:Drivers/GD32F30x_standard_peripheral/Source/gd32f30x_usart.c ****     \param[in]  rtimeout: 0-0xFFFFFF
 336:Drivers/GD32F30x_standard_peripheral/Source/gd32f30x_usart.c ****     \param[out] none
 337:Drivers/GD32F30x_standard_peripheral/Source/gd32f30x_usart.c ****     \retval     none
 338:Drivers/GD32F30x_standard_peripheral/Source/gd32f30x_usart.c **** */
 339:Drivers/GD32F30x_standard_peripheral/Source/gd32f30x_usart.c **** void usart_receiver_timeout_threshold_config(uint32_t usart_periph, uint32_t rtimeout)
 340:Drivers/GD32F30x_standard_peripheral/Source/gd32f30x_usart.c **** {
 675              		.loc 1 340 1 is_stmt 1 view -0
 676              		.cfi_startproc
 677              		@ args = 0, pretend = 0, frame = 0
 678              		@ frame_needed = 0, uses_anonymous_args = 0
 679              		@ link register save eliminated.
 341:Drivers/GD32F30x_standard_peripheral/Source/gd32f30x_usart.c ****     USART_RT(usart_periph) &= ~(USART_RT_RT);
ARM GAS  C:\Users\Prog\AppData\Local\Temp\ccJHD9tp.s 			page 19


 680              		.loc 1 341 5 view .LVU151
 681              		.loc 1 341 28 is_stmt 0 view .LVU152
 682 0000 D0F88430 		ldr	r3, [r0, #132]
 683 0004 03F07F43 		and	r3, r3, #-16777216
 684 0008 C0F88430 		str	r3, [r0, #132]
 342:Drivers/GD32F30x_standard_peripheral/Source/gd32f30x_usart.c ****     USART_RT(usart_periph) |= rtimeout;
 685              		.loc 1 342 5 is_stmt 1 view .LVU153
 686              		.loc 1 342 28 is_stmt 0 view .LVU154
 687 000c D0F88430 		ldr	r3, [r0, #132]
 688 0010 1943     		orrs	r1, r1, r3
 689              	.LVL65:
 690              		.loc 1 342 28 view .LVU155
 691 0012 C0F88410 		str	r1, [r0, #132]
 343:Drivers/GD32F30x_standard_peripheral/Source/gd32f30x_usart.c **** }
 692              		.loc 1 343 1 view .LVU156
 693 0016 7047     		bx	lr
 694              		.cfi_endproc
 695              	.LFE129:
 697              		.section	.text.usart_data_transmit,"ax",%progbits
 698              		.align	1
 699              		.global	usart_data_transmit
 700              		.syntax unified
 701              		.thumb
 702              		.thumb_func
 703              		.fpu fpv4-sp-d16
 705              	usart_data_transmit:
 706              	.LVL66:
 707              	.LFB130:
 344:Drivers/GD32F30x_standard_peripheral/Source/gd32f30x_usart.c **** 
 345:Drivers/GD32F30x_standard_peripheral/Source/gd32f30x_usart.c **** /*!
 346:Drivers/GD32F30x_standard_peripheral/Source/gd32f30x_usart.c ****     \brief      USART transmit data function
 347:Drivers/GD32F30x_standard_peripheral/Source/gd32f30x_usart.c ****     \param[in]  usart_periph: USARTx(x=0,1,2)/UARTx(x=3,4)
 348:Drivers/GD32F30x_standard_peripheral/Source/gd32f30x_usart.c ****     \param[in]  data: data of transmission 
 349:Drivers/GD32F30x_standard_peripheral/Source/gd32f30x_usart.c ****     \param[out] none
 350:Drivers/GD32F30x_standard_peripheral/Source/gd32f30x_usart.c ****     \retval     none
 351:Drivers/GD32F30x_standard_peripheral/Source/gd32f30x_usart.c **** */
 352:Drivers/GD32F30x_standard_peripheral/Source/gd32f30x_usart.c **** void usart_data_transmit(uint32_t usart_periph, uint32_t data)
 353:Drivers/GD32F30x_standard_peripheral/Source/gd32f30x_usart.c **** {
 708              		.loc 1 353 1 is_stmt 1 view -0
 709              		.cfi_startproc
 710              		@ args = 0, pretend = 0, frame = 0
 711              		@ frame_needed = 0, uses_anonymous_args = 0
 712              		@ link register save eliminated.
 354:Drivers/GD32F30x_standard_peripheral/Source/gd32f30x_usart.c ****     USART_DATA(usart_periph) = ((uint16_t)USART_DATA_DATA & data);
 713              		.loc 1 354 5 view .LVU158
 714              		.loc 1 354 59 is_stmt 0 view .LVU159
 715 0000 C1F30801 		ubfx	r1, r1, #0, #9
 716              	.LVL67:
 717              		.loc 1 354 30 view .LVU160
 718 0004 4160     		str	r1, [r0, #4]
 355:Drivers/GD32F30x_standard_peripheral/Source/gd32f30x_usart.c **** }
 719              		.loc 1 355 1 view .LVU161
 720 0006 7047     		bx	lr
 721              		.cfi_endproc
 722              	.LFE130:
 724              		.section	.text.usart_data_receive,"ax",%progbits
 725              		.align	1
ARM GAS  C:\Users\Prog\AppData\Local\Temp\ccJHD9tp.s 			page 20


 726              		.global	usart_data_receive
 727              		.syntax unified
 728              		.thumb
 729              		.thumb_func
 730              		.fpu fpv4-sp-d16
 732              	usart_data_receive:
 733              	.LVL68:
 734              	.LFB131:
 356:Drivers/GD32F30x_standard_peripheral/Source/gd32f30x_usart.c **** 
 357:Drivers/GD32F30x_standard_peripheral/Source/gd32f30x_usart.c **** /*!
 358:Drivers/GD32F30x_standard_peripheral/Source/gd32f30x_usart.c ****     \brief      USART receive data function
 359:Drivers/GD32F30x_standard_peripheral/Source/gd32f30x_usart.c ****     \param[in]  usart_periph: USARTx(x=0,1,2)/UARTx(x=3,4)
 360:Drivers/GD32F30x_standard_peripheral/Source/gd32f30x_usart.c ****     \param[out] none
 361:Drivers/GD32F30x_standard_peripheral/Source/gd32f30x_usart.c ****     \retval     data of received
 362:Drivers/GD32F30x_standard_peripheral/Source/gd32f30x_usart.c **** */
 363:Drivers/GD32F30x_standard_peripheral/Source/gd32f30x_usart.c **** uint16_t usart_data_receive(uint32_t usart_periph)
 364:Drivers/GD32F30x_standard_peripheral/Source/gd32f30x_usart.c **** {
 735              		.loc 1 364 1 is_stmt 1 view -0
 736              		.cfi_startproc
 737              		@ args = 0, pretend = 0, frame = 0
 738              		@ frame_needed = 0, uses_anonymous_args = 0
 739              		@ link register save eliminated.
 365:Drivers/GD32F30x_standard_peripheral/Source/gd32f30x_usart.c ****     return (uint16_t)(GET_BITS(USART_DATA(usart_periph), 0U, 8U));
 740              		.loc 1 365 5 view .LVU163
 741              		.loc 1 365 23 is_stmt 0 view .LVU164
 742 0000 4068     		ldr	r0, [r0, #4]
 743              	.LVL69:
 366:Drivers/GD32F30x_standard_peripheral/Source/gd32f30x_usart.c **** }
 744              		.loc 1 366 1 view .LVU165
 745 0002 C0F30800 		ubfx	r0, r0, #0, #9
 746 0006 7047     		bx	lr
 747              		.cfi_endproc
 748              	.LFE131:
 750              		.section	.text.usart_address_config,"ax",%progbits
 751              		.align	1
 752              		.global	usart_address_config
 753              		.syntax unified
 754              		.thumb
 755              		.thumb_func
 756              		.fpu fpv4-sp-d16
 758              	usart_address_config:
 759              	.LVL70:
 760              	.LFB132:
 367:Drivers/GD32F30x_standard_peripheral/Source/gd32f30x_usart.c **** 
 368:Drivers/GD32F30x_standard_peripheral/Source/gd32f30x_usart.c **** /*!
 369:Drivers/GD32F30x_standard_peripheral/Source/gd32f30x_usart.c ****     \brief      configure the address of the USART in wake up by address match mode
 370:Drivers/GD32F30x_standard_peripheral/Source/gd32f30x_usart.c ****     \param[in]  usart_periph: USARTx(x=0,1,2)/UARTx(x=3,4)
 371:Drivers/GD32F30x_standard_peripheral/Source/gd32f30x_usart.c ****     \param[in]  addr: address of USART/UART
 372:Drivers/GD32F30x_standard_peripheral/Source/gd32f30x_usart.c ****     \param[out] none
 373:Drivers/GD32F30x_standard_peripheral/Source/gd32f30x_usart.c ****     \retval     none
 374:Drivers/GD32F30x_standard_peripheral/Source/gd32f30x_usart.c **** */
 375:Drivers/GD32F30x_standard_peripheral/Source/gd32f30x_usart.c **** void usart_address_config(uint32_t usart_periph, uint8_t addr)
 376:Drivers/GD32F30x_standard_peripheral/Source/gd32f30x_usart.c **** {
 761              		.loc 1 376 1 is_stmt 1 view -0
 762              		.cfi_startproc
 763              		@ args = 0, pretend = 0, frame = 0
 764              		@ frame_needed = 0, uses_anonymous_args = 0
ARM GAS  C:\Users\Prog\AppData\Local\Temp\ccJHD9tp.s 			page 21


 765              		@ link register save eliminated.
 377:Drivers/GD32F30x_standard_peripheral/Source/gd32f30x_usart.c ****     USART_CTL1(usart_periph) &= ~(USART_CTL1_ADDR);
 766              		.loc 1 377 5 view .LVU167
 767              		.loc 1 377 30 is_stmt 0 view .LVU168
 768 0000 0369     		ldr	r3, [r0, #16]
 769 0002 23F00F03 		bic	r3, r3, #15
 770 0006 0361     		str	r3, [r0, #16]
 378:Drivers/GD32F30x_standard_peripheral/Source/gd32f30x_usart.c ****     USART_CTL1(usart_periph) |= (USART_CTL1_ADDR & addr);
 771              		.loc 1 378 5 is_stmt 1 view .LVU169
 772              		.loc 1 378 30 is_stmt 0 view .LVU170
 773 0008 0369     		ldr	r3, [r0, #16]
 774              		.loc 1 378 50 view .LVU171
 775 000a 01F00F01 		and	r1, r1, #15
 776              	.LVL71:
 777              		.loc 1 378 30 view .LVU172
 778 000e 0B43     		orrs	r3, r3, r1
 779 0010 0361     		str	r3, [r0, #16]
 379:Drivers/GD32F30x_standard_peripheral/Source/gd32f30x_usart.c **** }
 780              		.loc 1 379 1 view .LVU173
 781 0012 7047     		bx	lr
 782              		.cfi_endproc
 783              	.LFE132:
 785              		.section	.text.usart_mute_mode_enable,"ax",%progbits
 786              		.align	1
 787              		.global	usart_mute_mode_enable
 788              		.syntax unified
 789              		.thumb
 790              		.thumb_func
 791              		.fpu fpv4-sp-d16
 793              	usart_mute_mode_enable:
 794              	.LVL72:
 795              	.LFB133:
 380:Drivers/GD32F30x_standard_peripheral/Source/gd32f30x_usart.c **** 
 381:Drivers/GD32F30x_standard_peripheral/Source/gd32f30x_usart.c **** /*!
 382:Drivers/GD32F30x_standard_peripheral/Source/gd32f30x_usart.c ****     \brief      receiver in mute mode
 383:Drivers/GD32F30x_standard_peripheral/Source/gd32f30x_usart.c ****     \param[in]  usart_periph: USARTx(x=0,1,2)/UARTx(x=3,4)
 384:Drivers/GD32F30x_standard_peripheral/Source/gd32f30x_usart.c ****     \param[out] none
 385:Drivers/GD32F30x_standard_peripheral/Source/gd32f30x_usart.c ****     \retval     none
 386:Drivers/GD32F30x_standard_peripheral/Source/gd32f30x_usart.c **** */
 387:Drivers/GD32F30x_standard_peripheral/Source/gd32f30x_usart.c **** void usart_mute_mode_enable(uint32_t usart_periph)
 388:Drivers/GD32F30x_standard_peripheral/Source/gd32f30x_usart.c **** {
 796              		.loc 1 388 1 is_stmt 1 view -0
 797              		.cfi_startproc
 798              		@ args = 0, pretend = 0, frame = 0
 799              		@ frame_needed = 0, uses_anonymous_args = 0
 800              		@ link register save eliminated.
 389:Drivers/GD32F30x_standard_peripheral/Source/gd32f30x_usart.c ****     USART_CTL0(usart_periph) |= USART_CTL0_RWU;
 801              		.loc 1 389 5 view .LVU175
 802              		.loc 1 389 30 is_stmt 0 view .LVU176
 803 0000 C368     		ldr	r3, [r0, #12]
 804 0002 43F00203 		orr	r3, r3, #2
 805 0006 C360     		str	r3, [r0, #12]
 390:Drivers/GD32F30x_standard_peripheral/Source/gd32f30x_usart.c **** }
 806              		.loc 1 390 1 view .LVU177
 807 0008 7047     		bx	lr
 808              		.cfi_endproc
 809              	.LFE133:
ARM GAS  C:\Users\Prog\AppData\Local\Temp\ccJHD9tp.s 			page 22


 811              		.section	.text.usart_mute_mode_disable,"ax",%progbits
 812              		.align	1
 813              		.global	usart_mute_mode_disable
 814              		.syntax unified
 815              		.thumb
 816              		.thumb_func
 817              		.fpu fpv4-sp-d16
 819              	usart_mute_mode_disable:
 820              	.LVL73:
 821              	.LFB134:
 391:Drivers/GD32F30x_standard_peripheral/Source/gd32f30x_usart.c **** 
 392:Drivers/GD32F30x_standard_peripheral/Source/gd32f30x_usart.c **** /*!
 393:Drivers/GD32F30x_standard_peripheral/Source/gd32f30x_usart.c ****     \brief      receiver in active mode
 394:Drivers/GD32F30x_standard_peripheral/Source/gd32f30x_usart.c ****     \param[in]  usart_periph: USARTx(x=0,1,2)/UARTx(x=3,4)
 395:Drivers/GD32F30x_standard_peripheral/Source/gd32f30x_usart.c ****     \param[out] none
 396:Drivers/GD32F30x_standard_peripheral/Source/gd32f30x_usart.c ****     \retval     none
 397:Drivers/GD32F30x_standard_peripheral/Source/gd32f30x_usart.c **** */
 398:Drivers/GD32F30x_standard_peripheral/Source/gd32f30x_usart.c **** void usart_mute_mode_disable(uint32_t usart_periph)
 399:Drivers/GD32F30x_standard_peripheral/Source/gd32f30x_usart.c **** {
 822              		.loc 1 399 1 is_stmt 1 view -0
 823              		.cfi_startproc
 824              		@ args = 0, pretend = 0, frame = 0
 825              		@ frame_needed = 0, uses_anonymous_args = 0
 826              		@ link register save eliminated.
 400:Drivers/GD32F30x_standard_peripheral/Source/gd32f30x_usart.c ****     USART_CTL0(usart_periph) &= ~(USART_CTL0_RWU);
 827              		.loc 1 400 5 view .LVU179
 828              		.loc 1 400 30 is_stmt 0 view .LVU180
 829 0000 C368     		ldr	r3, [r0, #12]
 830 0002 23F00203 		bic	r3, r3, #2
 831 0006 C360     		str	r3, [r0, #12]
 401:Drivers/GD32F30x_standard_peripheral/Source/gd32f30x_usart.c **** }
 832              		.loc 1 401 1 view .LVU181
 833 0008 7047     		bx	lr
 834              		.cfi_endproc
 835              	.LFE134:
 837              		.section	.text.usart_mute_mode_wakeup_config,"ax",%progbits
 838              		.align	1
 839              		.global	usart_mute_mode_wakeup_config
 840              		.syntax unified
 841              		.thumb
 842              		.thumb_func
 843              		.fpu fpv4-sp-d16
 845              	usart_mute_mode_wakeup_config:
 846              	.LVL74:
 847              	.LFB135:
 402:Drivers/GD32F30x_standard_peripheral/Source/gd32f30x_usart.c **** 
 403:Drivers/GD32F30x_standard_peripheral/Source/gd32f30x_usart.c **** /*!
 404:Drivers/GD32F30x_standard_peripheral/Source/gd32f30x_usart.c ****     \brief      configure wakeup method in mute mode
 405:Drivers/GD32F30x_standard_peripheral/Source/gd32f30x_usart.c ****     \param[in]  usart_periph: USARTx(x=0,1,2)/UARTx(x=3,4)
 406:Drivers/GD32F30x_standard_peripheral/Source/gd32f30x_usart.c ****     \param[in]  wmethod: two methods be used to enter or exit the mute mode
 407:Drivers/GD32F30x_standard_peripheral/Source/gd32f30x_usart.c ****                 only one parameter can be selected which is shown as below:
 408:Drivers/GD32F30x_standard_peripheral/Source/gd32f30x_usart.c ****       \arg        USART_WM_IDLE: idle line
 409:Drivers/GD32F30x_standard_peripheral/Source/gd32f30x_usart.c ****       \arg        USART_WM_ADDR: address mask
 410:Drivers/GD32F30x_standard_peripheral/Source/gd32f30x_usart.c ****     \param[out] none
 411:Drivers/GD32F30x_standard_peripheral/Source/gd32f30x_usart.c ****     \retval     none
 412:Drivers/GD32F30x_standard_peripheral/Source/gd32f30x_usart.c **** */
 413:Drivers/GD32F30x_standard_peripheral/Source/gd32f30x_usart.c **** void usart_mute_mode_wakeup_config(uint32_t usart_periph, uint32_t wmethod)
ARM GAS  C:\Users\Prog\AppData\Local\Temp\ccJHD9tp.s 			page 23


 414:Drivers/GD32F30x_standard_peripheral/Source/gd32f30x_usart.c **** {
 848              		.loc 1 414 1 is_stmt 1 view -0
 849              		.cfi_startproc
 850              		@ args = 0, pretend = 0, frame = 0
 851              		@ frame_needed = 0, uses_anonymous_args = 0
 852              		@ link register save eliminated.
 415:Drivers/GD32F30x_standard_peripheral/Source/gd32f30x_usart.c ****     USART_CTL0(usart_periph) &= ~(USART_CTL0_WM);
 853              		.loc 1 415 5 view .LVU183
 854              		.loc 1 415 30 is_stmt 0 view .LVU184
 855 0000 C368     		ldr	r3, [r0, #12]
 856 0002 23F40063 		bic	r3, r3, #2048
 857 0006 C360     		str	r3, [r0, #12]
 416:Drivers/GD32F30x_standard_peripheral/Source/gd32f30x_usart.c ****     USART_CTL0(usart_periph) |= wmethod;
 858              		.loc 1 416 5 is_stmt 1 view .LVU185
 859              		.loc 1 416 30 is_stmt 0 view .LVU186
 860 0008 C368     		ldr	r3, [r0, #12]
 861 000a 1943     		orrs	r1, r1, r3
 862              	.LVL75:
 863              		.loc 1 416 30 view .LVU187
 864 000c C160     		str	r1, [r0, #12]
 417:Drivers/GD32F30x_standard_peripheral/Source/gd32f30x_usart.c **** }
 865              		.loc 1 417 1 view .LVU188
 866 000e 7047     		bx	lr
 867              		.cfi_endproc
 868              	.LFE135:
 870              		.section	.text.usart_lin_mode_enable,"ax",%progbits
 871              		.align	1
 872              		.global	usart_lin_mode_enable
 873              		.syntax unified
 874              		.thumb
 875              		.thumb_func
 876              		.fpu fpv4-sp-d16
 878              	usart_lin_mode_enable:
 879              	.LVL76:
 880              	.LFB136:
 418:Drivers/GD32F30x_standard_peripheral/Source/gd32f30x_usart.c **** 
 419:Drivers/GD32F30x_standard_peripheral/Source/gd32f30x_usart.c **** /*!
 420:Drivers/GD32F30x_standard_peripheral/Source/gd32f30x_usart.c ****     \brief      enable LIN mode
 421:Drivers/GD32F30x_standard_peripheral/Source/gd32f30x_usart.c ****     \param[in]  usart_periph: USARTx(x=0,1,2)/UARTx(x=3,4)
 422:Drivers/GD32F30x_standard_peripheral/Source/gd32f30x_usart.c ****     \param[out] none
 423:Drivers/GD32F30x_standard_peripheral/Source/gd32f30x_usart.c ****     \retval     none
 424:Drivers/GD32F30x_standard_peripheral/Source/gd32f30x_usart.c **** */
 425:Drivers/GD32F30x_standard_peripheral/Source/gd32f30x_usart.c **** void usart_lin_mode_enable(uint32_t usart_periph)
 426:Drivers/GD32F30x_standard_peripheral/Source/gd32f30x_usart.c **** {   
 881              		.loc 1 426 1 is_stmt 1 view -0
 882              		.cfi_startproc
 883              		@ args = 0, pretend = 0, frame = 0
 884              		@ frame_needed = 0, uses_anonymous_args = 0
 885              		@ link register save eliminated.
 427:Drivers/GD32F30x_standard_peripheral/Source/gd32f30x_usart.c ****     USART_CTL1(usart_periph) |= USART_CTL1_LMEN;
 886              		.loc 1 427 5 view .LVU190
 887              		.loc 1 427 30 is_stmt 0 view .LVU191
 888 0000 0369     		ldr	r3, [r0, #16]
 889 0002 43F48043 		orr	r3, r3, #16384
 890 0006 0361     		str	r3, [r0, #16]
 428:Drivers/GD32F30x_standard_peripheral/Source/gd32f30x_usart.c **** }
 891              		.loc 1 428 1 view .LVU192
ARM GAS  C:\Users\Prog\AppData\Local\Temp\ccJHD9tp.s 			page 24


 892 0008 7047     		bx	lr
 893              		.cfi_endproc
 894              	.LFE136:
 896              		.section	.text.usart_lin_mode_disable,"ax",%progbits
 897              		.align	1
 898              		.global	usart_lin_mode_disable
 899              		.syntax unified
 900              		.thumb
 901              		.thumb_func
 902              		.fpu fpv4-sp-d16
 904              	usart_lin_mode_disable:
 905              	.LVL77:
 906              	.LFB137:
 429:Drivers/GD32F30x_standard_peripheral/Source/gd32f30x_usart.c **** 
 430:Drivers/GD32F30x_standard_peripheral/Source/gd32f30x_usart.c **** /*!
 431:Drivers/GD32F30x_standard_peripheral/Source/gd32f30x_usart.c ****     \brief      disable LIN mode
 432:Drivers/GD32F30x_standard_peripheral/Source/gd32f30x_usart.c ****     \param[in]  usart_periph: USARTx(x=0,1,2)/UARTx(x=3,4)
 433:Drivers/GD32F30x_standard_peripheral/Source/gd32f30x_usart.c ****     \param[out] none
 434:Drivers/GD32F30x_standard_peripheral/Source/gd32f30x_usart.c ****     \retval     none
 435:Drivers/GD32F30x_standard_peripheral/Source/gd32f30x_usart.c **** */
 436:Drivers/GD32F30x_standard_peripheral/Source/gd32f30x_usart.c **** void usart_lin_mode_disable(uint32_t usart_periph)
 437:Drivers/GD32F30x_standard_peripheral/Source/gd32f30x_usart.c **** {   
 907              		.loc 1 437 1 is_stmt 1 view -0
 908              		.cfi_startproc
 909              		@ args = 0, pretend = 0, frame = 0
 910              		@ frame_needed = 0, uses_anonymous_args = 0
 911              		@ link register save eliminated.
 438:Drivers/GD32F30x_standard_peripheral/Source/gd32f30x_usart.c ****     USART_CTL1(usart_periph) &= ~(USART_CTL1_LMEN);
 912              		.loc 1 438 5 view .LVU194
 913              		.loc 1 438 30 is_stmt 0 view .LVU195
 914 0000 0369     		ldr	r3, [r0, #16]
 915 0002 23F48043 		bic	r3, r3, #16384
 916 0006 0361     		str	r3, [r0, #16]
 439:Drivers/GD32F30x_standard_peripheral/Source/gd32f30x_usart.c **** }
 917              		.loc 1 439 1 view .LVU196
 918 0008 7047     		bx	lr
 919              		.cfi_endproc
 920              	.LFE137:
 922              		.section	.text.usart_lin_break_detection_length_config,"ax",%progbits
 923              		.align	1
 924              		.global	usart_lin_break_detection_length_config
 925              		.syntax unified
 926              		.thumb
 927              		.thumb_func
 928              		.fpu fpv4-sp-d16
 930              	usart_lin_break_detection_length_config:
 931              	.LVL78:
 932              	.LFB138:
 440:Drivers/GD32F30x_standard_peripheral/Source/gd32f30x_usart.c **** 
 441:Drivers/GD32F30x_standard_peripheral/Source/gd32f30x_usart.c **** /*!
 442:Drivers/GD32F30x_standard_peripheral/Source/gd32f30x_usart.c ****     \brief      configure lin break frame length
 443:Drivers/GD32F30x_standard_peripheral/Source/gd32f30x_usart.c ****     \param[in]  usart_periph: USARTx(x=0,1,2)/UARTx(x=3,4)
 444:Drivers/GD32F30x_standard_peripheral/Source/gd32f30x_usart.c ****     \param[in]  lblen: lin break frame length
 445:Drivers/GD32F30x_standard_peripheral/Source/gd32f30x_usart.c ****                 only one parameter can be selected which is shown as below:
 446:Drivers/GD32F30x_standard_peripheral/Source/gd32f30x_usart.c ****       \arg        USART_LBLEN_10B: 10 bits
 447:Drivers/GD32F30x_standard_peripheral/Source/gd32f30x_usart.c ****       \arg        USART_LBLEN_11B: 11 bits
 448:Drivers/GD32F30x_standard_peripheral/Source/gd32f30x_usart.c ****     \param[out] none
ARM GAS  C:\Users\Prog\AppData\Local\Temp\ccJHD9tp.s 			page 25


 449:Drivers/GD32F30x_standard_peripheral/Source/gd32f30x_usart.c ****     \retval     none
 450:Drivers/GD32F30x_standard_peripheral/Source/gd32f30x_usart.c **** */
 451:Drivers/GD32F30x_standard_peripheral/Source/gd32f30x_usart.c **** void usart_lin_break_detection_length_config(uint32_t usart_periph, uint32_t lblen)
 452:Drivers/GD32F30x_standard_peripheral/Source/gd32f30x_usart.c **** {
 933              		.loc 1 452 1 is_stmt 1 view -0
 934              		.cfi_startproc
 935              		@ args = 0, pretend = 0, frame = 0
 936              		@ frame_needed = 0, uses_anonymous_args = 0
 937              		@ link register save eliminated.
 453:Drivers/GD32F30x_standard_peripheral/Source/gd32f30x_usart.c ****     USART_CTL1(usart_periph) &= ~(USART_CTL1_LBLEN);
 938              		.loc 1 453 5 view .LVU198
 939              		.loc 1 453 30 is_stmt 0 view .LVU199
 940 0000 0369     		ldr	r3, [r0, #16]
 941 0002 23F02003 		bic	r3, r3, #32
 942 0006 0361     		str	r3, [r0, #16]
 454:Drivers/GD32F30x_standard_peripheral/Source/gd32f30x_usart.c ****     USART_CTL1(usart_periph) |= (USART_CTL1_LBLEN & lblen);
 943              		.loc 1 454 5 is_stmt 1 view .LVU200
 944              		.loc 1 454 30 is_stmt 0 view .LVU201
 945 0008 0369     		ldr	r3, [r0, #16]
 946              		.loc 1 454 51 view .LVU202
 947 000a 01F02001 		and	r1, r1, #32
 948              	.LVL79:
 949              		.loc 1 454 30 view .LVU203
 950 000e 0B43     		orrs	r3, r3, r1
 951 0010 0361     		str	r3, [r0, #16]
 455:Drivers/GD32F30x_standard_peripheral/Source/gd32f30x_usart.c **** }
 952              		.loc 1 455 1 view .LVU204
 953 0012 7047     		bx	lr
 954              		.cfi_endproc
 955              	.LFE138:
 957              		.section	.text.usart_send_break,"ax",%progbits
 958              		.align	1
 959              		.global	usart_send_break
 960              		.syntax unified
 961              		.thumb
 962              		.thumb_func
 963              		.fpu fpv4-sp-d16
 965              	usart_send_break:
 966              	.LVL80:
 967              	.LFB139:
 456:Drivers/GD32F30x_standard_peripheral/Source/gd32f30x_usart.c **** 
 457:Drivers/GD32F30x_standard_peripheral/Source/gd32f30x_usart.c **** /*!
 458:Drivers/GD32F30x_standard_peripheral/Source/gd32f30x_usart.c ****     \brief      send break frame
 459:Drivers/GD32F30x_standard_peripheral/Source/gd32f30x_usart.c ****     \param[in]  usart_periph: USARTx(x=0,1,2)/UARTx(x=3,4)
 460:Drivers/GD32F30x_standard_peripheral/Source/gd32f30x_usart.c ****     \param[out] none
 461:Drivers/GD32F30x_standard_peripheral/Source/gd32f30x_usart.c ****     \retval     none
 462:Drivers/GD32F30x_standard_peripheral/Source/gd32f30x_usart.c **** */
 463:Drivers/GD32F30x_standard_peripheral/Source/gd32f30x_usart.c **** void usart_send_break(uint32_t usart_periph)
 464:Drivers/GD32F30x_standard_peripheral/Source/gd32f30x_usart.c **** {
 968              		.loc 1 464 1 is_stmt 1 view -0
 969              		.cfi_startproc
 970              		@ args = 0, pretend = 0, frame = 0
 971              		@ frame_needed = 0, uses_anonymous_args = 0
 972              		@ link register save eliminated.
 465:Drivers/GD32F30x_standard_peripheral/Source/gd32f30x_usart.c ****     USART_CTL0(usart_periph) |= USART_CTL0_SBKCMD;
 973              		.loc 1 465 5 view .LVU206
 974              		.loc 1 465 30 is_stmt 0 view .LVU207
ARM GAS  C:\Users\Prog\AppData\Local\Temp\ccJHD9tp.s 			page 26


 975 0000 C368     		ldr	r3, [r0, #12]
 976 0002 43F00103 		orr	r3, r3, #1
 977 0006 C360     		str	r3, [r0, #12]
 466:Drivers/GD32F30x_standard_peripheral/Source/gd32f30x_usart.c **** }
 978              		.loc 1 466 1 view .LVU208
 979 0008 7047     		bx	lr
 980              		.cfi_endproc
 981              	.LFE139:
 983              		.section	.text.usart_halfduplex_enable,"ax",%progbits
 984              		.align	1
 985              		.global	usart_halfduplex_enable
 986              		.syntax unified
 987              		.thumb
 988              		.thumb_func
 989              		.fpu fpv4-sp-d16
 991              	usart_halfduplex_enable:
 992              	.LVL81:
 993              	.LFB140:
 467:Drivers/GD32F30x_standard_peripheral/Source/gd32f30x_usart.c **** 
 468:Drivers/GD32F30x_standard_peripheral/Source/gd32f30x_usart.c **** /*!
 469:Drivers/GD32F30x_standard_peripheral/Source/gd32f30x_usart.c ****     \brief      enable half duplex mode
 470:Drivers/GD32F30x_standard_peripheral/Source/gd32f30x_usart.c ****     \param[in]  usart_periph: USARTx(x=0,1,2)/UARTx(x=3,4)
 471:Drivers/GD32F30x_standard_peripheral/Source/gd32f30x_usart.c ****     \param[out] none
 472:Drivers/GD32F30x_standard_peripheral/Source/gd32f30x_usart.c ****     \retval     none
 473:Drivers/GD32F30x_standard_peripheral/Source/gd32f30x_usart.c **** */
 474:Drivers/GD32F30x_standard_peripheral/Source/gd32f30x_usart.c **** void usart_halfduplex_enable(uint32_t usart_periph)
 475:Drivers/GD32F30x_standard_peripheral/Source/gd32f30x_usart.c **** {   
 994              		.loc 1 475 1 is_stmt 1 view -0
 995              		.cfi_startproc
 996              		@ args = 0, pretend = 0, frame = 0
 997              		@ frame_needed = 0, uses_anonymous_args = 0
 998              		@ link register save eliminated.
 476:Drivers/GD32F30x_standard_peripheral/Source/gd32f30x_usart.c ****     USART_CTL2(usart_periph) |= USART_CTL2_HDEN;
 999              		.loc 1 476 5 view .LVU210
 1000              		.loc 1 476 30 is_stmt 0 view .LVU211
 1001 0000 4369     		ldr	r3, [r0, #20]
 1002 0002 43F00803 		orr	r3, r3, #8
 1003 0006 4361     		str	r3, [r0, #20]
 477:Drivers/GD32F30x_standard_peripheral/Source/gd32f30x_usart.c **** }
 1004              		.loc 1 477 1 view .LVU212
 1005 0008 7047     		bx	lr
 1006              		.cfi_endproc
 1007              	.LFE140:
 1009              		.section	.text.usart_halfduplex_disable,"ax",%progbits
 1010              		.align	1
 1011              		.global	usart_halfduplex_disable
 1012              		.syntax unified
 1013              		.thumb
 1014              		.thumb_func
 1015              		.fpu fpv4-sp-d16
 1017              	usart_halfduplex_disable:
 1018              	.LVL82:
 1019              	.LFB141:
 478:Drivers/GD32F30x_standard_peripheral/Source/gd32f30x_usart.c **** 
 479:Drivers/GD32F30x_standard_peripheral/Source/gd32f30x_usart.c **** /*!
 480:Drivers/GD32F30x_standard_peripheral/Source/gd32f30x_usart.c ****     \brief      disable half duplex mode
 481:Drivers/GD32F30x_standard_peripheral/Source/gd32f30x_usart.c ****     \param[in]  usart_periph: USARTx(x=0,1,2)/UARTx(x=3,4)
ARM GAS  C:\Users\Prog\AppData\Local\Temp\ccJHD9tp.s 			page 27


 482:Drivers/GD32F30x_standard_peripheral/Source/gd32f30x_usart.c ****     \param[out] none
 483:Drivers/GD32F30x_standard_peripheral/Source/gd32f30x_usart.c ****     \retval     none
 484:Drivers/GD32F30x_standard_peripheral/Source/gd32f30x_usart.c **** */
 485:Drivers/GD32F30x_standard_peripheral/Source/gd32f30x_usart.c **** void usart_halfduplex_disable(uint32_t usart_periph)
 486:Drivers/GD32F30x_standard_peripheral/Source/gd32f30x_usart.c **** {  
 1020              		.loc 1 486 1 is_stmt 1 view -0
 1021              		.cfi_startproc
 1022              		@ args = 0, pretend = 0, frame = 0
 1023              		@ frame_needed = 0, uses_anonymous_args = 0
 1024              		@ link register save eliminated.
 487:Drivers/GD32F30x_standard_peripheral/Source/gd32f30x_usart.c ****     USART_CTL2(usart_periph) &= ~(USART_CTL2_HDEN);
 1025              		.loc 1 487 5 view .LVU214
 1026              		.loc 1 487 30 is_stmt 0 view .LVU215
 1027 0000 4369     		ldr	r3, [r0, #20]
 1028 0002 23F00803 		bic	r3, r3, #8
 1029 0006 4361     		str	r3, [r0, #20]
 488:Drivers/GD32F30x_standard_peripheral/Source/gd32f30x_usart.c **** }
 1030              		.loc 1 488 1 view .LVU216
 1031 0008 7047     		bx	lr
 1032              		.cfi_endproc
 1033              	.LFE141:
 1035              		.section	.text.usart_synchronous_clock_enable,"ax",%progbits
 1036              		.align	1
 1037              		.global	usart_synchronous_clock_enable
 1038              		.syntax unified
 1039              		.thumb
 1040              		.thumb_func
 1041              		.fpu fpv4-sp-d16
 1043              	usart_synchronous_clock_enable:
 1044              	.LVL83:
 1045              	.LFB142:
 489:Drivers/GD32F30x_standard_peripheral/Source/gd32f30x_usart.c **** 
 490:Drivers/GD32F30x_standard_peripheral/Source/gd32f30x_usart.c **** /*!
 491:Drivers/GD32F30x_standard_peripheral/Source/gd32f30x_usart.c ****     \brief      enable CK pin in synchronous mode
 492:Drivers/GD32F30x_standard_peripheral/Source/gd32f30x_usart.c ****     \param[in]  usart_periph: USARTx(x=0,1,2)
 493:Drivers/GD32F30x_standard_peripheral/Source/gd32f30x_usart.c ****     \param[out] none
 494:Drivers/GD32F30x_standard_peripheral/Source/gd32f30x_usart.c ****     \retval     none
 495:Drivers/GD32F30x_standard_peripheral/Source/gd32f30x_usart.c **** */
 496:Drivers/GD32F30x_standard_peripheral/Source/gd32f30x_usart.c **** void usart_synchronous_clock_enable(uint32_t usart_periph)
 497:Drivers/GD32F30x_standard_peripheral/Source/gd32f30x_usart.c **** {
 1046              		.loc 1 497 1 is_stmt 1 view -0
 1047              		.cfi_startproc
 1048              		@ args = 0, pretend = 0, frame = 0
 1049              		@ frame_needed = 0, uses_anonymous_args = 0
 1050              		@ link register save eliminated.
 498:Drivers/GD32F30x_standard_peripheral/Source/gd32f30x_usart.c ****     USART_CTL1(usart_periph) |= USART_CTL1_CKEN;
 1051              		.loc 1 498 5 view .LVU218
 1052              		.loc 1 498 30 is_stmt 0 view .LVU219
 1053 0000 0369     		ldr	r3, [r0, #16]
 1054 0002 43F40063 		orr	r3, r3, #2048
 1055 0006 0361     		str	r3, [r0, #16]
 499:Drivers/GD32F30x_standard_peripheral/Source/gd32f30x_usart.c **** }
 1056              		.loc 1 499 1 view .LVU220
 1057 0008 7047     		bx	lr
 1058              		.cfi_endproc
 1059              	.LFE142:
 1061              		.section	.text.usart_synchronous_clock_disable,"ax",%progbits
ARM GAS  C:\Users\Prog\AppData\Local\Temp\ccJHD9tp.s 			page 28


 1062              		.align	1
 1063              		.global	usart_synchronous_clock_disable
 1064              		.syntax unified
 1065              		.thumb
 1066              		.thumb_func
 1067              		.fpu fpv4-sp-d16
 1069              	usart_synchronous_clock_disable:
 1070              	.LVL84:
 1071              	.LFB143:
 500:Drivers/GD32F30x_standard_peripheral/Source/gd32f30x_usart.c **** 
 501:Drivers/GD32F30x_standard_peripheral/Source/gd32f30x_usart.c **** /*!
 502:Drivers/GD32F30x_standard_peripheral/Source/gd32f30x_usart.c ****     \brief      disable CK pin in synchronous mode
 503:Drivers/GD32F30x_standard_peripheral/Source/gd32f30x_usart.c ****     \param[in]  usart_periph: USARTx(x=0,1,2)
 504:Drivers/GD32F30x_standard_peripheral/Source/gd32f30x_usart.c ****     \param[out] none
 505:Drivers/GD32F30x_standard_peripheral/Source/gd32f30x_usart.c ****     \retval     none
 506:Drivers/GD32F30x_standard_peripheral/Source/gd32f30x_usart.c **** */
 507:Drivers/GD32F30x_standard_peripheral/Source/gd32f30x_usart.c **** void usart_synchronous_clock_disable(uint32_t usart_periph)
 508:Drivers/GD32F30x_standard_peripheral/Source/gd32f30x_usart.c **** {
 1072              		.loc 1 508 1 is_stmt 1 view -0
 1073              		.cfi_startproc
 1074              		@ args = 0, pretend = 0, frame = 0
 1075              		@ frame_needed = 0, uses_anonymous_args = 0
 1076              		@ link register save eliminated.
 509:Drivers/GD32F30x_standard_peripheral/Source/gd32f30x_usart.c ****     USART_CTL1(usart_periph) &= ~(USART_CTL1_CKEN);
 1077              		.loc 1 509 5 view .LVU222
 1078              		.loc 1 509 30 is_stmt 0 view .LVU223
 1079 0000 0369     		ldr	r3, [r0, #16]
 1080 0002 23F40063 		bic	r3, r3, #2048
 1081 0006 0361     		str	r3, [r0, #16]
 510:Drivers/GD32F30x_standard_peripheral/Source/gd32f30x_usart.c **** }
 1082              		.loc 1 510 1 view .LVU224
 1083 0008 7047     		bx	lr
 1084              		.cfi_endproc
 1085              	.LFE143:
 1087              		.section	.text.usart_synchronous_clock_config,"ax",%progbits
 1088              		.align	1
 1089              		.global	usart_synchronous_clock_config
 1090              		.syntax unified
 1091              		.thumb
 1092              		.thumb_func
 1093              		.fpu fpv4-sp-d16
 1095              	usart_synchronous_clock_config:
 1096              	.LVL85:
 1097              	.LFB144:
 511:Drivers/GD32F30x_standard_peripheral/Source/gd32f30x_usart.c **** 
 512:Drivers/GD32F30x_standard_peripheral/Source/gd32f30x_usart.c **** /*!
 513:Drivers/GD32F30x_standard_peripheral/Source/gd32f30x_usart.c ****     \brief      configure USART synchronous mode parameters
 514:Drivers/GD32F30x_standard_peripheral/Source/gd32f30x_usart.c ****     \param[in]  usart_periph: USARTx(x=0,1,2)
 515:Drivers/GD32F30x_standard_peripheral/Source/gd32f30x_usart.c ****     \param[in]  clen: CK length
 516:Drivers/GD32F30x_standard_peripheral/Source/gd32f30x_usart.c ****                 only one parameter can be selected which is shown as below:
 517:Drivers/GD32F30x_standard_peripheral/Source/gd32f30x_usart.c ****       \arg        USART_CLEN_NONE: there are 7 CK pulses for an 8 bit frame and 8 CK pulses for a 9
 518:Drivers/GD32F30x_standard_peripheral/Source/gd32f30x_usart.c ****       \arg        USART_CLEN_EN:   there are 8 CK pulses for an 8 bit frame and 9 CK pulses for a 9
 519:Drivers/GD32F30x_standard_peripheral/Source/gd32f30x_usart.c ****     \param[in]  cph: clock phase
 520:Drivers/GD32F30x_standard_peripheral/Source/gd32f30x_usart.c ****                 only one parameter can be selected which is shown as below:
 521:Drivers/GD32F30x_standard_peripheral/Source/gd32f30x_usart.c ****       \arg        USART_CPH_1CK: first clock transition is the first data capture edge 
 522:Drivers/GD32F30x_standard_peripheral/Source/gd32f30x_usart.c ****       \arg        USART_CPH_2CK: second clock transition is the first data capture edge
 523:Drivers/GD32F30x_standard_peripheral/Source/gd32f30x_usart.c ****     \param[in]  cpl: clock polarity
ARM GAS  C:\Users\Prog\AppData\Local\Temp\ccJHD9tp.s 			page 29


 524:Drivers/GD32F30x_standard_peripheral/Source/gd32f30x_usart.c ****                 only one parameter can be selected which is shown as below:
 525:Drivers/GD32F30x_standard_peripheral/Source/gd32f30x_usart.c ****       \arg        USART_CPL_LOW:  steady low value on CK pin 
 526:Drivers/GD32F30x_standard_peripheral/Source/gd32f30x_usart.c ****       \arg        USART_CPL_HIGH: steady high value on CK pin
 527:Drivers/GD32F30x_standard_peripheral/Source/gd32f30x_usart.c ****     \param[out] none
 528:Drivers/GD32F30x_standard_peripheral/Source/gd32f30x_usart.c ****     \retval     none
 529:Drivers/GD32F30x_standard_peripheral/Source/gd32f30x_usart.c **** */
 530:Drivers/GD32F30x_standard_peripheral/Source/gd32f30x_usart.c **** void usart_synchronous_clock_config(uint32_t usart_periph, uint32_t clen, uint32_t cph, uint32_t cp
 531:Drivers/GD32F30x_standard_peripheral/Source/gd32f30x_usart.c **** {
 1098              		.loc 1 531 1 is_stmt 1 view -0
 1099              		.cfi_startproc
 1100              		@ args = 0, pretend = 0, frame = 0
 1101              		@ frame_needed = 0, uses_anonymous_args = 0
 1102              		@ link register save eliminated.
 1103              		.loc 1 531 1 is_stmt 0 view .LVU226
 1104 0000 10B4     		push	{r4}
 1105              	.LCFI2:
 1106              		.cfi_def_cfa_offset 4
 1107              		.cfi_offset 4, -4
 532:Drivers/GD32F30x_standard_peripheral/Source/gd32f30x_usart.c ****     uint32_t ctl = 0U;
 1108              		.loc 1 532 5 is_stmt 1 view .LVU227
 1109              	.LVL86:
 533:Drivers/GD32F30x_standard_peripheral/Source/gd32f30x_usart.c ****     
 534:Drivers/GD32F30x_standard_peripheral/Source/gd32f30x_usart.c ****     /* read USART_CTL1 register */
 535:Drivers/GD32F30x_standard_peripheral/Source/gd32f30x_usart.c ****     ctl = USART_CTL1(usart_periph);
 1110              		.loc 1 535 5 view .LVU228
 1111              		.loc 1 535 9 is_stmt 0 view .LVU229
 1112 0002 0469     		ldr	r4, [r0, #16]
 1113              	.LVL87:
 536:Drivers/GD32F30x_standard_peripheral/Source/gd32f30x_usart.c ****     ctl &= ~(USART_CTL1_CLEN | USART_CTL1_CPH | USART_CTL1_CPL);
 1114              		.loc 1 536 5 is_stmt 1 view .LVU230
 1115              		.loc 1 536 9 is_stmt 0 view .LVU231
 1116 0004 24F4E064 		bic	r4, r4, #1792
 1117              	.LVL88:
 537:Drivers/GD32F30x_standard_peripheral/Source/gd32f30x_usart.c ****     /* set CK length, CK phase, CK polarity */
 538:Drivers/GD32F30x_standard_peripheral/Source/gd32f30x_usart.c ****     ctl |= (USART_CTL1_CLEN & clen) | (USART_CTL1_CPH & cph) | (USART_CTL1_CPL & cpl);
 1118              		.loc 1 538 5 is_stmt 1 view .LVU232
 1119              		.loc 1 538 29 is_stmt 0 view .LVU233
 1120 0008 01F48071 		and	r1, r1, #256
 1121              	.LVL89:
 1122              		.loc 1 538 55 view .LVU234
 1123 000c 02F40072 		and	r2, r2, #512
 1124              	.LVL90:
 1125              		.loc 1 538 37 view .LVU235
 1126 0010 1143     		orrs	r1, r1, r2
 1127              		.loc 1 538 80 view .LVU236
 1128 0012 03F48063 		and	r3, r3, #1024
 1129              	.LVL91:
 1130              		.loc 1 538 62 view .LVU237
 1131 0016 1943     		orrs	r1, r1, r3
 1132              		.loc 1 538 9 view .LVU238
 1133 0018 2143     		orrs	r1, r1, r4
 1134              	.LVL92:
 539:Drivers/GD32F30x_standard_peripheral/Source/gd32f30x_usart.c **** 
 540:Drivers/GD32F30x_standard_peripheral/Source/gd32f30x_usart.c ****     USART_CTL1(usart_periph) = ctl;
 1135              		.loc 1 540 5 is_stmt 1 view .LVU239
 1136              		.loc 1 540 30 is_stmt 0 view .LVU240
 1137 001a 0161     		str	r1, [r0, #16]
ARM GAS  C:\Users\Prog\AppData\Local\Temp\ccJHD9tp.s 			page 30


 541:Drivers/GD32F30x_standard_peripheral/Source/gd32f30x_usart.c **** }
 1138              		.loc 1 541 1 view .LVU241
 1139 001c 5DF8044B 		ldr	r4, [sp], #4
 1140              	.LCFI3:
 1141              		.cfi_restore 4
 1142              		.cfi_def_cfa_offset 0
 1143 0020 7047     		bx	lr
 1144              		.cfi_endproc
 1145              	.LFE144:
 1147              		.section	.text.usart_guard_time_config,"ax",%progbits
 1148              		.align	1
 1149              		.global	usart_guard_time_config
 1150              		.syntax unified
 1151              		.thumb
 1152              		.thumb_func
 1153              		.fpu fpv4-sp-d16
 1155              	usart_guard_time_config:
 1156              	.LVL93:
 1157              	.LFB145:
 542:Drivers/GD32F30x_standard_peripheral/Source/gd32f30x_usart.c **** 
 543:Drivers/GD32F30x_standard_peripheral/Source/gd32f30x_usart.c **** /*!
 544:Drivers/GD32F30x_standard_peripheral/Source/gd32f30x_usart.c ****     \brief      configure guard time value in smartcard mode
 545:Drivers/GD32F30x_standard_peripheral/Source/gd32f30x_usart.c ****     \param[in]  usart_periph: USARTx(x=0,1,2)
 546:Drivers/GD32F30x_standard_peripheral/Source/gd32f30x_usart.c ****     \param[in]  guat: guard time value, 0-0xFF
 547:Drivers/GD32F30x_standard_peripheral/Source/gd32f30x_usart.c ****     \param[out] none
 548:Drivers/GD32F30x_standard_peripheral/Source/gd32f30x_usart.c ****     \retval     none
 549:Drivers/GD32F30x_standard_peripheral/Source/gd32f30x_usart.c **** */
 550:Drivers/GD32F30x_standard_peripheral/Source/gd32f30x_usart.c **** void usart_guard_time_config(uint32_t usart_periph,uint32_t guat)
 551:Drivers/GD32F30x_standard_peripheral/Source/gd32f30x_usart.c **** {
 1158              		.loc 1 551 1 is_stmt 1 view -0
 1159              		.cfi_startproc
 1160              		@ args = 0, pretend = 0, frame = 0
 1161              		@ frame_needed = 0, uses_anonymous_args = 0
 1162              		@ link register save eliminated.
 552:Drivers/GD32F30x_standard_peripheral/Source/gd32f30x_usart.c ****     USART_GP(usart_periph) &= ~(USART_GP_GUAT);
 1163              		.loc 1 552 5 view .LVU243
 1164              		.loc 1 552 28 is_stmt 0 view .LVU244
 1165 0000 8369     		ldr	r3, [r0, #24]
 1166 0002 23F47F43 		bic	r3, r3, #65280
 1167 0006 8361     		str	r3, [r0, #24]
 553:Drivers/GD32F30x_standard_peripheral/Source/gd32f30x_usart.c ****     USART_GP(usart_periph) |= (USART_GP_GUAT & ((guat)<<GP_GUAT_OFFSET));
 1168              		.loc 1 553 5 is_stmt 1 view .LVU245
 1169              		.loc 1 553 28 is_stmt 0 view .LVU246
 1170 0008 8369     		ldr	r3, [r0, #24]
 1171              		.loc 1 553 55 view .LVU247
 1172 000a 0902     		lsls	r1, r1, #8
 1173              	.LVL94:
 1174              		.loc 1 553 46 view .LVU248
 1175 000c 89B2     		uxth	r1, r1
 1176              		.loc 1 553 28 view .LVU249
 1177 000e 0B43     		orrs	r3, r3, r1
 1178 0010 8361     		str	r3, [r0, #24]
 554:Drivers/GD32F30x_standard_peripheral/Source/gd32f30x_usart.c **** }
 1179              		.loc 1 554 1 view .LVU250
 1180 0012 7047     		bx	lr
 1181              		.cfi_endproc
 1182              	.LFE145:
ARM GAS  C:\Users\Prog\AppData\Local\Temp\ccJHD9tp.s 			page 31


 1184              		.section	.text.usart_smartcard_mode_enable,"ax",%progbits
 1185              		.align	1
 1186              		.global	usart_smartcard_mode_enable
 1187              		.syntax unified
 1188              		.thumb
 1189              		.thumb_func
 1190              		.fpu fpv4-sp-d16
 1192              	usart_smartcard_mode_enable:
 1193              	.LVL95:
 1194              	.LFB146:
 555:Drivers/GD32F30x_standard_peripheral/Source/gd32f30x_usart.c **** 
 556:Drivers/GD32F30x_standard_peripheral/Source/gd32f30x_usart.c **** /*!
 557:Drivers/GD32F30x_standard_peripheral/Source/gd32f30x_usart.c ****     \brief      enable smartcard mode
 558:Drivers/GD32F30x_standard_peripheral/Source/gd32f30x_usart.c ****     \param[in]  usart_periph: USARTx(x=0,1,2)
 559:Drivers/GD32F30x_standard_peripheral/Source/gd32f30x_usart.c ****     \param[out] none
 560:Drivers/GD32F30x_standard_peripheral/Source/gd32f30x_usart.c ****     \retval     none
 561:Drivers/GD32F30x_standard_peripheral/Source/gd32f30x_usart.c **** */
 562:Drivers/GD32F30x_standard_peripheral/Source/gd32f30x_usart.c **** void usart_smartcard_mode_enable(uint32_t usart_periph)
 563:Drivers/GD32F30x_standard_peripheral/Source/gd32f30x_usart.c **** {
 1195              		.loc 1 563 1 is_stmt 1 view -0
 1196              		.cfi_startproc
 1197              		@ args = 0, pretend = 0, frame = 0
 1198              		@ frame_needed = 0, uses_anonymous_args = 0
 1199              		@ link register save eliminated.
 564:Drivers/GD32F30x_standard_peripheral/Source/gd32f30x_usart.c ****     USART_CTL2(usart_periph) |= USART_CTL2_SCEN;
 1200              		.loc 1 564 5 view .LVU252
 1201              		.loc 1 564 30 is_stmt 0 view .LVU253
 1202 0000 4369     		ldr	r3, [r0, #20]
 1203 0002 43F02003 		orr	r3, r3, #32
 1204 0006 4361     		str	r3, [r0, #20]
 565:Drivers/GD32F30x_standard_peripheral/Source/gd32f30x_usart.c **** }
 1205              		.loc 1 565 1 view .LVU254
 1206 0008 7047     		bx	lr
 1207              		.cfi_endproc
 1208              	.LFE146:
 1210              		.section	.text.usart_smartcard_mode_disable,"ax",%progbits
 1211              		.align	1
 1212              		.global	usart_smartcard_mode_disable
 1213              		.syntax unified
 1214              		.thumb
 1215              		.thumb_func
 1216              		.fpu fpv4-sp-d16
 1218              	usart_smartcard_mode_disable:
 1219              	.LVL96:
 1220              	.LFB147:
 566:Drivers/GD32F30x_standard_peripheral/Source/gd32f30x_usart.c **** 
 567:Drivers/GD32F30x_standard_peripheral/Source/gd32f30x_usart.c **** /*!
 568:Drivers/GD32F30x_standard_peripheral/Source/gd32f30x_usart.c ****     \brief      disable smartcard mode
 569:Drivers/GD32F30x_standard_peripheral/Source/gd32f30x_usart.c ****     \param[in]  usart_periph: USARTx(x=0,1,2)
 570:Drivers/GD32F30x_standard_peripheral/Source/gd32f30x_usart.c ****     \param[out] none
 571:Drivers/GD32F30x_standard_peripheral/Source/gd32f30x_usart.c ****     \retval     none
 572:Drivers/GD32F30x_standard_peripheral/Source/gd32f30x_usart.c **** */
 573:Drivers/GD32F30x_standard_peripheral/Source/gd32f30x_usart.c **** void usart_smartcard_mode_disable(uint32_t usart_periph)
 574:Drivers/GD32F30x_standard_peripheral/Source/gd32f30x_usart.c **** {
 1221              		.loc 1 574 1 is_stmt 1 view -0
 1222              		.cfi_startproc
 1223              		@ args = 0, pretend = 0, frame = 0
ARM GAS  C:\Users\Prog\AppData\Local\Temp\ccJHD9tp.s 			page 32


 1224              		@ frame_needed = 0, uses_anonymous_args = 0
 1225              		@ link register save eliminated.
 575:Drivers/GD32F30x_standard_peripheral/Source/gd32f30x_usart.c ****     USART_CTL2(usart_periph) &= ~(USART_CTL2_SCEN);
 1226              		.loc 1 575 5 view .LVU256
 1227              		.loc 1 575 30 is_stmt 0 view .LVU257
 1228 0000 4369     		ldr	r3, [r0, #20]
 1229 0002 23F02003 		bic	r3, r3, #32
 1230 0006 4361     		str	r3, [r0, #20]
 576:Drivers/GD32F30x_standard_peripheral/Source/gd32f30x_usart.c **** }
 1231              		.loc 1 576 1 view .LVU258
 1232 0008 7047     		bx	lr
 1233              		.cfi_endproc
 1234              	.LFE147:
 1236              		.section	.text.usart_smartcard_mode_nack_enable,"ax",%progbits
 1237              		.align	1
 1238              		.global	usart_smartcard_mode_nack_enable
 1239              		.syntax unified
 1240              		.thumb
 1241              		.thumb_func
 1242              		.fpu fpv4-sp-d16
 1244              	usart_smartcard_mode_nack_enable:
 1245              	.LVL97:
 1246              	.LFB148:
 577:Drivers/GD32F30x_standard_peripheral/Source/gd32f30x_usart.c **** 
 578:Drivers/GD32F30x_standard_peripheral/Source/gd32f30x_usart.c **** /*!
 579:Drivers/GD32F30x_standard_peripheral/Source/gd32f30x_usart.c ****     \brief      enable NACK in smartcard mode
 580:Drivers/GD32F30x_standard_peripheral/Source/gd32f30x_usart.c ****     \param[in]  usart_periph: USARTx(x=0,1,2)
 581:Drivers/GD32F30x_standard_peripheral/Source/gd32f30x_usart.c ****     \param[out] none
 582:Drivers/GD32F30x_standard_peripheral/Source/gd32f30x_usart.c ****     \retval     none
 583:Drivers/GD32F30x_standard_peripheral/Source/gd32f30x_usart.c **** */
 584:Drivers/GD32F30x_standard_peripheral/Source/gd32f30x_usart.c **** void usart_smartcard_mode_nack_enable(uint32_t usart_periph)
 585:Drivers/GD32F30x_standard_peripheral/Source/gd32f30x_usart.c **** {
 1247              		.loc 1 585 1 is_stmt 1 view -0
 1248              		.cfi_startproc
 1249              		@ args = 0, pretend = 0, frame = 0
 1250              		@ frame_needed = 0, uses_anonymous_args = 0
 1251              		@ link register save eliminated.
 586:Drivers/GD32F30x_standard_peripheral/Source/gd32f30x_usart.c ****     USART_CTL2(usart_periph) |= USART_CTL2_NKEN;
 1252              		.loc 1 586 5 view .LVU260
 1253              		.loc 1 586 30 is_stmt 0 view .LVU261
 1254 0000 4369     		ldr	r3, [r0, #20]
 1255 0002 43F01003 		orr	r3, r3, #16
 1256 0006 4361     		str	r3, [r0, #20]
 587:Drivers/GD32F30x_standard_peripheral/Source/gd32f30x_usart.c **** }
 1257              		.loc 1 587 1 view .LVU262
 1258 0008 7047     		bx	lr
 1259              		.cfi_endproc
 1260              	.LFE148:
 1262              		.section	.text.usart_smartcard_mode_nack_disable,"ax",%progbits
 1263              		.align	1
 1264              		.global	usart_smartcard_mode_nack_disable
 1265              		.syntax unified
 1266              		.thumb
 1267              		.thumb_func
 1268              		.fpu fpv4-sp-d16
 1270              	usart_smartcard_mode_nack_disable:
 1271              	.LVL98:
ARM GAS  C:\Users\Prog\AppData\Local\Temp\ccJHD9tp.s 			page 33


 1272              	.LFB149:
 588:Drivers/GD32F30x_standard_peripheral/Source/gd32f30x_usart.c **** 
 589:Drivers/GD32F30x_standard_peripheral/Source/gd32f30x_usart.c **** /*!
 590:Drivers/GD32F30x_standard_peripheral/Source/gd32f30x_usart.c ****     \brief      disable NACK in smartcard mode
 591:Drivers/GD32F30x_standard_peripheral/Source/gd32f30x_usart.c ****     \param[in]  usart_periph: USARTx(x=0,1,2)
 592:Drivers/GD32F30x_standard_peripheral/Source/gd32f30x_usart.c ****     \param[out] none
 593:Drivers/GD32F30x_standard_peripheral/Source/gd32f30x_usart.c ****     \retval     none
 594:Drivers/GD32F30x_standard_peripheral/Source/gd32f30x_usart.c **** */
 595:Drivers/GD32F30x_standard_peripheral/Source/gd32f30x_usart.c **** void usart_smartcard_mode_nack_disable(uint32_t usart_periph)
 596:Drivers/GD32F30x_standard_peripheral/Source/gd32f30x_usart.c **** {
 1273              		.loc 1 596 1 is_stmt 1 view -0
 1274              		.cfi_startproc
 1275              		@ args = 0, pretend = 0, frame = 0
 1276              		@ frame_needed = 0, uses_anonymous_args = 0
 1277              		@ link register save eliminated.
 597:Drivers/GD32F30x_standard_peripheral/Source/gd32f30x_usart.c ****     USART_CTL2(usart_periph) &= ~(USART_CTL2_NKEN);
 1278              		.loc 1 597 5 view .LVU264
 1279              		.loc 1 597 30 is_stmt 0 view .LVU265
 1280 0000 4369     		ldr	r3, [r0, #20]
 1281 0002 23F01003 		bic	r3, r3, #16
 1282 0006 4361     		str	r3, [r0, #20]
 598:Drivers/GD32F30x_standard_peripheral/Source/gd32f30x_usart.c **** }
 1283              		.loc 1 598 1 view .LVU266
 1284 0008 7047     		bx	lr
 1285              		.cfi_endproc
 1286              	.LFE149:
 1288              		.section	.text.usart_smartcard_autoretry_config,"ax",%progbits
 1289              		.align	1
 1290              		.global	usart_smartcard_autoretry_config
 1291              		.syntax unified
 1292              		.thumb
 1293              		.thumb_func
 1294              		.fpu fpv4-sp-d16
 1296              	usart_smartcard_autoretry_config:
 1297              	.LVL99:
 1298              	.LFB150:
 599:Drivers/GD32F30x_standard_peripheral/Source/gd32f30x_usart.c **** 
 600:Drivers/GD32F30x_standard_peripheral/Source/gd32f30x_usart.c **** /*!
 601:Drivers/GD32F30x_standard_peripheral/Source/gd32f30x_usart.c ****     \brief      configure smartcard auto-retry number
 602:Drivers/GD32F30x_standard_peripheral/Source/gd32f30x_usart.c ****     \param[in]  usart_periph: USARTx(x=0,1,2)
 603:Drivers/GD32F30x_standard_peripheral/Source/gd32f30x_usart.c ****     \param[in]  scrtnum: smartcard auto-retry number
 604:Drivers/GD32F30x_standard_peripheral/Source/gd32f30x_usart.c ****     \param[out] none
 605:Drivers/GD32F30x_standard_peripheral/Source/gd32f30x_usart.c ****     \retval     none
 606:Drivers/GD32F30x_standard_peripheral/Source/gd32f30x_usart.c **** */
 607:Drivers/GD32F30x_standard_peripheral/Source/gd32f30x_usart.c **** void usart_smartcard_autoretry_config(uint32_t usart_periph, uint32_t scrtnum)
 608:Drivers/GD32F30x_standard_peripheral/Source/gd32f30x_usart.c **** {
 1299              		.loc 1 608 1 is_stmt 1 view -0
 1300              		.cfi_startproc
 1301              		@ args = 0, pretend = 0, frame = 0
 1302              		@ frame_needed = 0, uses_anonymous_args = 0
 1303              		@ link register save eliminated.
 609:Drivers/GD32F30x_standard_peripheral/Source/gd32f30x_usart.c ****     USART_CTL3(usart_periph) &= ~(USART_CTL3_SCRTNUM);
 1304              		.loc 1 609 5 view .LVU268
 1305              		.loc 1 609 30 is_stmt 0 view .LVU269
 1306 0000 D0F88030 		ldr	r3, [r0, #128]
 1307 0004 23F00E03 		bic	r3, r3, #14
 1308 0008 C0F88030 		str	r3, [r0, #128]
ARM GAS  C:\Users\Prog\AppData\Local\Temp\ccJHD9tp.s 			page 34


 610:Drivers/GD32F30x_standard_peripheral/Source/gd32f30x_usart.c ****     USART_CTL3(usart_periph) |= (USART_CTL3_SCRTNUM & ((scrtnum)<<CTL3_SCRTNUM_OFFSET));
 1309              		.loc 1 610 5 is_stmt 1 view .LVU270
 1310              		.loc 1 610 30 is_stmt 0 view .LVU271
 1311 000c D0F88030 		ldr	r3, [r0, #128]
 1312              		.loc 1 610 65 view .LVU272
 1313 0010 4900     		lsls	r1, r1, #1
 1314              	.LVL100:
 1315              		.loc 1 610 53 view .LVU273
 1316 0012 01F00E01 		and	r1, r1, #14
 1317              		.loc 1 610 30 view .LVU274
 1318 0016 0B43     		orrs	r3, r3, r1
 1319 0018 C0F88030 		str	r3, [r0, #128]
 611:Drivers/GD32F30x_standard_peripheral/Source/gd32f30x_usart.c **** }
 1320              		.loc 1 611 1 view .LVU275
 1321 001c 7047     		bx	lr
 1322              		.cfi_endproc
 1323              	.LFE150:
 1325              		.section	.text.usart_block_length_config,"ax",%progbits
 1326              		.align	1
 1327              		.global	usart_block_length_config
 1328              		.syntax unified
 1329              		.thumb
 1330              		.thumb_func
 1331              		.fpu fpv4-sp-d16
 1333              	usart_block_length_config:
 1334              	.LVL101:
 1335              	.LFB151:
 612:Drivers/GD32F30x_standard_peripheral/Source/gd32f30x_usart.c **** 
 613:Drivers/GD32F30x_standard_peripheral/Source/gd32f30x_usart.c **** /*!
 614:Drivers/GD32F30x_standard_peripheral/Source/gd32f30x_usart.c ****     \brief      configure block length in Smartcard T=1 reception
 615:Drivers/GD32F30x_standard_peripheral/Source/gd32f30x_usart.c ****     \param[in]  usart_periph: USARTx(x=0,1,2)
 616:Drivers/GD32F30x_standard_peripheral/Source/gd32f30x_usart.c ****     \param[in]  bl: block length
 617:Drivers/GD32F30x_standard_peripheral/Source/gd32f30x_usart.c ****     \param[out] none
 618:Drivers/GD32F30x_standard_peripheral/Source/gd32f30x_usart.c ****     \retval     none
 619:Drivers/GD32F30x_standard_peripheral/Source/gd32f30x_usart.c **** */
 620:Drivers/GD32F30x_standard_peripheral/Source/gd32f30x_usart.c **** void usart_block_length_config(uint32_t usart_periph, uint32_t bl)
 621:Drivers/GD32F30x_standard_peripheral/Source/gd32f30x_usart.c **** {
 1336              		.loc 1 621 1 is_stmt 1 view -0
 1337              		.cfi_startproc
 1338              		@ args = 0, pretend = 0, frame = 0
 1339              		@ frame_needed = 0, uses_anonymous_args = 0
 1340              		@ link register save eliminated.
 622:Drivers/GD32F30x_standard_peripheral/Source/gd32f30x_usart.c ****     USART_RT(usart_periph) &= ~(USART_RT_BL);
 1341              		.loc 1 622 5 view .LVU277
 1342              		.loc 1 622 28 is_stmt 0 view .LVU278
 1343 0000 D0F88430 		ldr	r3, [r0, #132]
 1344 0004 23F07F43 		bic	r3, r3, #-16777216
 1345 0008 C0F88430 		str	r3, [r0, #132]
 623:Drivers/GD32F30x_standard_peripheral/Source/gd32f30x_usart.c ****     USART_RT(usart_periph) |= (USART_RT_BL & ((bl)<<RT_BL_OFFSET));
 1346              		.loc 1 623 5 is_stmt 1 view .LVU279
 1347              		.loc 1 623 28 is_stmt 0 view .LVU280
 1348 000c D0F88430 		ldr	r3, [r0, #132]
 1349 0010 43EA0161 		orr	r1, r3, r1, lsl #24
 1350              	.LVL102:
 1351              		.loc 1 623 28 view .LVU281
 1352 0014 C0F88410 		str	r1, [r0, #132]
 624:Drivers/GD32F30x_standard_peripheral/Source/gd32f30x_usart.c **** }
ARM GAS  C:\Users\Prog\AppData\Local\Temp\ccJHD9tp.s 			page 35


 1353              		.loc 1 624 1 view .LVU282
 1354 0018 7047     		bx	lr
 1355              		.cfi_endproc
 1356              	.LFE151:
 1358              		.section	.text.usart_irda_mode_enable,"ax",%progbits
 1359              		.align	1
 1360              		.global	usart_irda_mode_enable
 1361              		.syntax unified
 1362              		.thumb
 1363              		.thumb_func
 1364              		.fpu fpv4-sp-d16
 1366              	usart_irda_mode_enable:
 1367              	.LVL103:
 1368              	.LFB152:
 625:Drivers/GD32F30x_standard_peripheral/Source/gd32f30x_usart.c **** 
 626:Drivers/GD32F30x_standard_peripheral/Source/gd32f30x_usart.c **** /*!
 627:Drivers/GD32F30x_standard_peripheral/Source/gd32f30x_usart.c ****     \brief      enable IrDA mode
 628:Drivers/GD32F30x_standard_peripheral/Source/gd32f30x_usart.c ****     \param[in]  usart_periph: USARTx(x=0,1,2)/UARTx(x=3,4)
 629:Drivers/GD32F30x_standard_peripheral/Source/gd32f30x_usart.c ****     \param[out] none
 630:Drivers/GD32F30x_standard_peripheral/Source/gd32f30x_usart.c ****     \retval     none
 631:Drivers/GD32F30x_standard_peripheral/Source/gd32f30x_usart.c **** */
 632:Drivers/GD32F30x_standard_peripheral/Source/gd32f30x_usart.c **** void usart_irda_mode_enable(uint32_t usart_periph)
 633:Drivers/GD32F30x_standard_peripheral/Source/gd32f30x_usart.c **** {
 1369              		.loc 1 633 1 is_stmt 1 view -0
 1370              		.cfi_startproc
 1371              		@ args = 0, pretend = 0, frame = 0
 1372              		@ frame_needed = 0, uses_anonymous_args = 0
 1373              		@ link register save eliminated.
 634:Drivers/GD32F30x_standard_peripheral/Source/gd32f30x_usart.c ****     USART_CTL2(usart_periph) |= USART_CTL2_IREN;
 1374              		.loc 1 634 5 view .LVU284
 1375              		.loc 1 634 30 is_stmt 0 view .LVU285
 1376 0000 4369     		ldr	r3, [r0, #20]
 1377 0002 43F00203 		orr	r3, r3, #2
 1378 0006 4361     		str	r3, [r0, #20]
 635:Drivers/GD32F30x_standard_peripheral/Source/gd32f30x_usart.c **** }
 1379              		.loc 1 635 1 view .LVU286
 1380 0008 7047     		bx	lr
 1381              		.cfi_endproc
 1382              	.LFE152:
 1384              		.section	.text.usart_irda_mode_disable,"ax",%progbits
 1385              		.align	1
 1386              		.global	usart_irda_mode_disable
 1387              		.syntax unified
 1388              		.thumb
 1389              		.thumb_func
 1390              		.fpu fpv4-sp-d16
 1392              	usart_irda_mode_disable:
 1393              	.LVL104:
 1394              	.LFB153:
 636:Drivers/GD32F30x_standard_peripheral/Source/gd32f30x_usart.c **** 
 637:Drivers/GD32F30x_standard_peripheral/Source/gd32f30x_usart.c **** /*!
 638:Drivers/GD32F30x_standard_peripheral/Source/gd32f30x_usart.c ****     \brief      disable IrDA mode
 639:Drivers/GD32F30x_standard_peripheral/Source/gd32f30x_usart.c ****     \param[in]  usart_periph: USARTx(x=0,1,2)/UARTx(x=3,4)
 640:Drivers/GD32F30x_standard_peripheral/Source/gd32f30x_usart.c ****     \param[out] none
 641:Drivers/GD32F30x_standard_peripheral/Source/gd32f30x_usart.c ****     \retval     none
 642:Drivers/GD32F30x_standard_peripheral/Source/gd32f30x_usart.c **** */
 643:Drivers/GD32F30x_standard_peripheral/Source/gd32f30x_usart.c **** void usart_irda_mode_disable(uint32_t usart_periph)
ARM GAS  C:\Users\Prog\AppData\Local\Temp\ccJHD9tp.s 			page 36


 644:Drivers/GD32F30x_standard_peripheral/Source/gd32f30x_usart.c **** {
 1395              		.loc 1 644 1 is_stmt 1 view -0
 1396              		.cfi_startproc
 1397              		@ args = 0, pretend = 0, frame = 0
 1398              		@ frame_needed = 0, uses_anonymous_args = 0
 1399              		@ link register save eliminated.
 645:Drivers/GD32F30x_standard_peripheral/Source/gd32f30x_usart.c ****     USART_CTL2(usart_periph) &= ~(USART_CTL2_IREN);
 1400              		.loc 1 645 5 view .LVU288
 1401              		.loc 1 645 30 is_stmt 0 view .LVU289
 1402 0000 4369     		ldr	r3, [r0, #20]
 1403 0002 23F00203 		bic	r3, r3, #2
 1404 0006 4361     		str	r3, [r0, #20]
 646:Drivers/GD32F30x_standard_peripheral/Source/gd32f30x_usart.c **** }
 1405              		.loc 1 646 1 view .LVU290
 1406 0008 7047     		bx	lr
 1407              		.cfi_endproc
 1408              	.LFE153:
 1410              		.section	.text.usart_prescaler_config,"ax",%progbits
 1411              		.align	1
 1412              		.global	usart_prescaler_config
 1413              		.syntax unified
 1414              		.thumb
 1415              		.thumb_func
 1416              		.fpu fpv4-sp-d16
 1418              	usart_prescaler_config:
 1419              	.LVL105:
 1420              	.LFB154:
 647:Drivers/GD32F30x_standard_peripheral/Source/gd32f30x_usart.c **** 
 648:Drivers/GD32F30x_standard_peripheral/Source/gd32f30x_usart.c **** /*!
 649:Drivers/GD32F30x_standard_peripheral/Source/gd32f30x_usart.c ****     \brief      configure the peripheral clock prescaler in USART IrDA low-power mode
 650:Drivers/GD32F30x_standard_peripheral/Source/gd32f30x_usart.c ****     \param[in]  usart_periph: USARTx(x=0,1,2)/UARTx(x=3,4)
 651:Drivers/GD32F30x_standard_peripheral/Source/gd32f30x_usart.c ****     \param[in]  psc: 0x00-0xFF
 652:Drivers/GD32F30x_standard_peripheral/Source/gd32f30x_usart.c ****     \param[out] none
 653:Drivers/GD32F30x_standard_peripheral/Source/gd32f30x_usart.c ****     \retval     none
 654:Drivers/GD32F30x_standard_peripheral/Source/gd32f30x_usart.c **** */
 655:Drivers/GD32F30x_standard_peripheral/Source/gd32f30x_usart.c **** void usart_prescaler_config(uint32_t usart_periph, uint8_t psc)
 656:Drivers/GD32F30x_standard_peripheral/Source/gd32f30x_usart.c **** {
 1421              		.loc 1 656 1 is_stmt 1 view -0
 1422              		.cfi_startproc
 1423              		@ args = 0, pretend = 0, frame = 0
 1424              		@ frame_needed = 0, uses_anonymous_args = 0
 1425              		@ link register save eliminated.
 657:Drivers/GD32F30x_standard_peripheral/Source/gd32f30x_usart.c ****     USART_GP(usart_periph) &= ~(USART_GP_PSC);
 1426              		.loc 1 657 5 view .LVU292
 1427              		.loc 1 657 28 is_stmt 0 view .LVU293
 1428 0000 8369     		ldr	r3, [r0, #24]
 1429 0002 23F0FF03 		bic	r3, r3, #255
 1430 0006 8361     		str	r3, [r0, #24]
 658:Drivers/GD32F30x_standard_peripheral/Source/gd32f30x_usart.c ****     USART_GP(usart_periph) |= psc;
 1431              		.loc 1 658 5 is_stmt 1 view .LVU294
 1432              		.loc 1 658 28 is_stmt 0 view .LVU295
 1433 0008 8369     		ldr	r3, [r0, #24]
 1434 000a 1943     		orrs	r1, r1, r3
 1435              	.LVL106:
 1436              		.loc 1 658 28 view .LVU296
 1437 000c 8161     		str	r1, [r0, #24]
 659:Drivers/GD32F30x_standard_peripheral/Source/gd32f30x_usart.c **** }
ARM GAS  C:\Users\Prog\AppData\Local\Temp\ccJHD9tp.s 			page 37


 1438              		.loc 1 659 1 view .LVU297
 1439 000e 7047     		bx	lr
 1440              		.cfi_endproc
 1441              	.LFE154:
 1443              		.section	.text.usart_irda_lowpower_config,"ax",%progbits
 1444              		.align	1
 1445              		.global	usart_irda_lowpower_config
 1446              		.syntax unified
 1447              		.thumb
 1448              		.thumb_func
 1449              		.fpu fpv4-sp-d16
 1451              	usart_irda_lowpower_config:
 1452              	.LVL107:
 1453              	.LFB155:
 660:Drivers/GD32F30x_standard_peripheral/Source/gd32f30x_usart.c **** 
 661:Drivers/GD32F30x_standard_peripheral/Source/gd32f30x_usart.c **** /*!
 662:Drivers/GD32F30x_standard_peripheral/Source/gd32f30x_usart.c ****     \brief      configure IrDA low-power
 663:Drivers/GD32F30x_standard_peripheral/Source/gd32f30x_usart.c ****     \param[in]  usart_periph: USARTx(x=0,1,2)/UARTx(x=3,4)
 664:Drivers/GD32F30x_standard_peripheral/Source/gd32f30x_usart.c ****     \param[in]  irlp: IrDA low-power or normal
 665:Drivers/GD32F30x_standard_peripheral/Source/gd32f30x_usart.c ****                 only one parameter can be selected which is shown as below:
 666:Drivers/GD32F30x_standard_peripheral/Source/gd32f30x_usart.c ****       \arg        USART_IRLP_LOW: low-power
 667:Drivers/GD32F30x_standard_peripheral/Source/gd32f30x_usart.c ****       \arg        USART_IRLP_NORMAL: normal
 668:Drivers/GD32F30x_standard_peripheral/Source/gd32f30x_usart.c ****     \param[out] none
 669:Drivers/GD32F30x_standard_peripheral/Source/gd32f30x_usart.c ****     \retval     none
 670:Drivers/GD32F30x_standard_peripheral/Source/gd32f30x_usart.c **** */
 671:Drivers/GD32F30x_standard_peripheral/Source/gd32f30x_usart.c **** void usart_irda_lowpower_config(uint32_t usart_periph, uint32_t irlp)
 672:Drivers/GD32F30x_standard_peripheral/Source/gd32f30x_usart.c **** {
 1454              		.loc 1 672 1 is_stmt 1 view -0
 1455              		.cfi_startproc
 1456              		@ args = 0, pretend = 0, frame = 0
 1457              		@ frame_needed = 0, uses_anonymous_args = 0
 1458              		@ link register save eliminated.
 673:Drivers/GD32F30x_standard_peripheral/Source/gd32f30x_usart.c ****     USART_CTL2(usart_periph) &= ~(USART_CTL2_IRLP);
 1459              		.loc 1 673 5 view .LVU299
 1460              		.loc 1 673 30 is_stmt 0 view .LVU300
 1461 0000 4369     		ldr	r3, [r0, #20]
 1462 0002 23F00403 		bic	r3, r3, #4
 1463 0006 4361     		str	r3, [r0, #20]
 674:Drivers/GD32F30x_standard_peripheral/Source/gd32f30x_usart.c ****     USART_CTL2(usart_periph) |= (USART_CTL2_IRLP & irlp);
 1464              		.loc 1 674 5 is_stmt 1 view .LVU301
 1465              		.loc 1 674 30 is_stmt 0 view .LVU302
 1466 0008 4369     		ldr	r3, [r0, #20]
 1467              		.loc 1 674 50 view .LVU303
 1468 000a 01F00401 		and	r1, r1, #4
 1469              	.LVL108:
 1470              		.loc 1 674 30 view .LVU304
 1471 000e 0B43     		orrs	r3, r3, r1
 1472 0010 4361     		str	r3, [r0, #20]
 675:Drivers/GD32F30x_standard_peripheral/Source/gd32f30x_usart.c **** }
 1473              		.loc 1 675 1 view .LVU305
 1474 0012 7047     		bx	lr
 1475              		.cfi_endproc
 1476              	.LFE155:
 1478              		.section	.text.usart_hardware_flow_rts_config,"ax",%progbits
 1479              		.align	1
 1480              		.global	usart_hardware_flow_rts_config
 1481              		.syntax unified
ARM GAS  C:\Users\Prog\AppData\Local\Temp\ccJHD9tp.s 			page 38


 1482              		.thumb
 1483              		.thumb_func
 1484              		.fpu fpv4-sp-d16
 1486              	usart_hardware_flow_rts_config:
 1487              	.LVL109:
 1488              	.LFB156:
 676:Drivers/GD32F30x_standard_peripheral/Source/gd32f30x_usart.c **** 
 677:Drivers/GD32F30x_standard_peripheral/Source/gd32f30x_usart.c **** /*!
 678:Drivers/GD32F30x_standard_peripheral/Source/gd32f30x_usart.c ****     \brief      configure hardware flow control RTS
 679:Drivers/GD32F30x_standard_peripheral/Source/gd32f30x_usart.c ****     \param[in]  usart_periph: USARTx(x=0,1,2)
 680:Drivers/GD32F30x_standard_peripheral/Source/gd32f30x_usart.c ****     \param[in]  rtsconfig: enable or disable RTS
 681:Drivers/GD32F30x_standard_peripheral/Source/gd32f30x_usart.c ****                 only one parameter can be selected which is shown as below:
 682:Drivers/GD32F30x_standard_peripheral/Source/gd32f30x_usart.c ****       \arg        USART_RTS_ENABLE:  enable RTS
 683:Drivers/GD32F30x_standard_peripheral/Source/gd32f30x_usart.c ****       \arg        USART_RTS_DISABLE: disable RTS
 684:Drivers/GD32F30x_standard_peripheral/Source/gd32f30x_usart.c ****     \param[out] none
 685:Drivers/GD32F30x_standard_peripheral/Source/gd32f30x_usart.c ****     \retval     none
 686:Drivers/GD32F30x_standard_peripheral/Source/gd32f30x_usart.c **** */
 687:Drivers/GD32F30x_standard_peripheral/Source/gd32f30x_usart.c **** void usart_hardware_flow_rts_config(uint32_t usart_periph, uint32_t rtsconfig)
 688:Drivers/GD32F30x_standard_peripheral/Source/gd32f30x_usart.c **** {
 1489              		.loc 1 688 1 is_stmt 1 view -0
 1490              		.cfi_startproc
 1491              		@ args = 0, pretend = 0, frame = 0
 1492              		@ frame_needed = 0, uses_anonymous_args = 0
 1493              		@ link register save eliminated.
 689:Drivers/GD32F30x_standard_peripheral/Source/gd32f30x_usart.c ****     uint32_t ctl = 0U;
 1494              		.loc 1 689 5 view .LVU307
 690:Drivers/GD32F30x_standard_peripheral/Source/gd32f30x_usart.c ****     
 691:Drivers/GD32F30x_standard_peripheral/Source/gd32f30x_usart.c ****     ctl = USART_CTL2(usart_periph);
 1495              		.loc 1 691 5 view .LVU308
 1496              		.loc 1 691 9 is_stmt 0 view .LVU309
 1497 0000 4369     		ldr	r3, [r0, #20]
 1498              	.LVL110:
 692:Drivers/GD32F30x_standard_peripheral/Source/gd32f30x_usart.c ****     ctl &= ~USART_CTL2_RTSEN;
 1499              		.loc 1 692 5 is_stmt 1 view .LVU310
 1500              		.loc 1 692 9 is_stmt 0 view .LVU311
 1501 0002 23F48073 		bic	r3, r3, #256
 1502              	.LVL111:
 693:Drivers/GD32F30x_standard_peripheral/Source/gd32f30x_usart.c ****     ctl |= rtsconfig;
 1503              		.loc 1 693 5 is_stmt 1 view .LVU312
 1504              		.loc 1 693 9 is_stmt 0 view .LVU313
 1505 0006 1943     		orrs	r1, r1, r3
 1506              	.LVL112:
 694:Drivers/GD32F30x_standard_peripheral/Source/gd32f30x_usart.c ****     /* configure RTS */
 695:Drivers/GD32F30x_standard_peripheral/Source/gd32f30x_usart.c ****     USART_CTL2(usart_periph) = ctl;
 1507              		.loc 1 695 5 is_stmt 1 view .LVU314
 1508              		.loc 1 695 30 is_stmt 0 view .LVU315
 1509 0008 4161     		str	r1, [r0, #20]
 696:Drivers/GD32F30x_standard_peripheral/Source/gd32f30x_usart.c **** }
 1510              		.loc 1 696 1 view .LVU316
 1511 000a 7047     		bx	lr
 1512              		.cfi_endproc
 1513              	.LFE156:
 1515              		.section	.text.usart_hardware_flow_cts_config,"ax",%progbits
 1516              		.align	1
 1517              		.global	usart_hardware_flow_cts_config
 1518              		.syntax unified
 1519              		.thumb
ARM GAS  C:\Users\Prog\AppData\Local\Temp\ccJHD9tp.s 			page 39


 1520              		.thumb_func
 1521              		.fpu fpv4-sp-d16
 1523              	usart_hardware_flow_cts_config:
 1524              	.LVL113:
 1525              	.LFB157:
 697:Drivers/GD32F30x_standard_peripheral/Source/gd32f30x_usart.c **** 
 698:Drivers/GD32F30x_standard_peripheral/Source/gd32f30x_usart.c **** /*!
 699:Drivers/GD32F30x_standard_peripheral/Source/gd32f30x_usart.c ****     \brief      configure hardware flow control CTS
 700:Drivers/GD32F30x_standard_peripheral/Source/gd32f30x_usart.c ****     \param[in]  usart_periph: USARTx(x=0,1,2)
 701:Drivers/GD32F30x_standard_peripheral/Source/gd32f30x_usart.c ****     \param[in]  ctsconfig: enable or disable CTS
 702:Drivers/GD32F30x_standard_peripheral/Source/gd32f30x_usart.c ****                 only one parameter can be selected which is shown as below:
 703:Drivers/GD32F30x_standard_peripheral/Source/gd32f30x_usart.c ****       \arg        USART_CTS_ENABLE:  enable CTS
 704:Drivers/GD32F30x_standard_peripheral/Source/gd32f30x_usart.c ****       \arg        USART_CTS_DISABLE: disable CTS
 705:Drivers/GD32F30x_standard_peripheral/Source/gd32f30x_usart.c ****     \param[out] none
 706:Drivers/GD32F30x_standard_peripheral/Source/gd32f30x_usart.c ****     \retval     none
 707:Drivers/GD32F30x_standard_peripheral/Source/gd32f30x_usart.c **** */
 708:Drivers/GD32F30x_standard_peripheral/Source/gd32f30x_usart.c **** void usart_hardware_flow_cts_config(uint32_t usart_periph, uint32_t ctsconfig)
 709:Drivers/GD32F30x_standard_peripheral/Source/gd32f30x_usart.c **** {
 1526              		.loc 1 709 1 is_stmt 1 view -0
 1527              		.cfi_startproc
 1528              		@ args = 0, pretend = 0, frame = 0
 1529              		@ frame_needed = 0, uses_anonymous_args = 0
 1530              		@ link register save eliminated.
 710:Drivers/GD32F30x_standard_peripheral/Source/gd32f30x_usart.c ****     uint32_t ctl = 0U;
 1531              		.loc 1 710 5 view .LVU318
 711:Drivers/GD32F30x_standard_peripheral/Source/gd32f30x_usart.c ****     
 712:Drivers/GD32F30x_standard_peripheral/Source/gd32f30x_usart.c ****     ctl = USART_CTL2(usart_periph);
 1532              		.loc 1 712 5 view .LVU319
 1533              		.loc 1 712 9 is_stmt 0 view .LVU320
 1534 0000 4369     		ldr	r3, [r0, #20]
 1535              	.LVL114:
 713:Drivers/GD32F30x_standard_peripheral/Source/gd32f30x_usart.c ****     ctl &= ~USART_CTL2_CTSEN;
 1536              		.loc 1 713 5 is_stmt 1 view .LVU321
 1537              		.loc 1 713 9 is_stmt 0 view .LVU322
 1538 0002 23F40073 		bic	r3, r3, #512
 1539              	.LVL115:
 714:Drivers/GD32F30x_standard_peripheral/Source/gd32f30x_usart.c ****     ctl |= ctsconfig;
 1540              		.loc 1 714 5 is_stmt 1 view .LVU323
 1541              		.loc 1 714 9 is_stmt 0 view .LVU324
 1542 0006 1943     		orrs	r1, r1, r3
 1543              	.LVL116:
 715:Drivers/GD32F30x_standard_peripheral/Source/gd32f30x_usart.c ****     /* configure CTS */
 716:Drivers/GD32F30x_standard_peripheral/Source/gd32f30x_usart.c ****     USART_CTL2(usart_periph) = ctl;
 1544              		.loc 1 716 5 is_stmt 1 view .LVU325
 1545              		.loc 1 716 30 is_stmt 0 view .LVU326
 1546 0008 4161     		str	r1, [r0, #20]
 717:Drivers/GD32F30x_standard_peripheral/Source/gd32f30x_usart.c **** }
 1547              		.loc 1 717 1 view .LVU327
 1548 000a 7047     		bx	lr
 1549              		.cfi_endproc
 1550              	.LFE157:
 1552              		.section	.text.usart_dma_receive_config,"ax",%progbits
 1553              		.align	1
 1554              		.global	usart_dma_receive_config
 1555              		.syntax unified
 1556              		.thumb
 1557              		.thumb_func
ARM GAS  C:\Users\Prog\AppData\Local\Temp\ccJHD9tp.s 			page 40


 1558              		.fpu fpv4-sp-d16
 1560              	usart_dma_receive_config:
 1561              	.LVL117:
 1562              	.LFB158:
 718:Drivers/GD32F30x_standard_peripheral/Source/gd32f30x_usart.c **** 
 719:Drivers/GD32F30x_standard_peripheral/Source/gd32f30x_usart.c **** /*!
 720:Drivers/GD32F30x_standard_peripheral/Source/gd32f30x_usart.c ****     \brief      configure USART DMA reception
 721:Drivers/GD32F30x_standard_peripheral/Source/gd32f30x_usart.c ****     \param[in]  usart_periph: USARTx(x=0,1,2)/UARTx(x=3)
 722:Drivers/GD32F30x_standard_peripheral/Source/gd32f30x_usart.c ****     \param[in]  dmacmd: enable or disable DMA for reception
 723:Drivers/GD32F30x_standard_peripheral/Source/gd32f30x_usart.c ****                 only one parameter can be selected which is shown as below:
 724:Drivers/GD32F30x_standard_peripheral/Source/gd32f30x_usart.c ****       \arg        USART_DENR_ENABLE:  DMA enable for reception
 725:Drivers/GD32F30x_standard_peripheral/Source/gd32f30x_usart.c ****       \arg        USART_DENR_DISABLE: DMA disable for reception
 726:Drivers/GD32F30x_standard_peripheral/Source/gd32f30x_usart.c ****     \param[out] none
 727:Drivers/GD32F30x_standard_peripheral/Source/gd32f30x_usart.c ****     \retval     none
 728:Drivers/GD32F30x_standard_peripheral/Source/gd32f30x_usart.c **** */
 729:Drivers/GD32F30x_standard_peripheral/Source/gd32f30x_usart.c **** void usart_dma_receive_config(uint32_t usart_periph, uint32_t dmacmd)
 730:Drivers/GD32F30x_standard_peripheral/Source/gd32f30x_usart.c **** {
 1563              		.loc 1 730 1 is_stmt 1 view -0
 1564              		.cfi_startproc
 1565              		@ args = 0, pretend = 0, frame = 0
 1566              		@ frame_needed = 0, uses_anonymous_args = 0
 1567              		@ link register save eliminated.
 731:Drivers/GD32F30x_standard_peripheral/Source/gd32f30x_usart.c ****     uint32_t ctl = 0U;
 1568              		.loc 1 731 5 view .LVU329
 732:Drivers/GD32F30x_standard_peripheral/Source/gd32f30x_usart.c ****     
 733:Drivers/GD32F30x_standard_peripheral/Source/gd32f30x_usart.c ****     ctl = USART_CTL2(usart_periph);
 1569              		.loc 1 733 5 view .LVU330
 1570              		.loc 1 733 9 is_stmt 0 view .LVU331
 1571 0000 4369     		ldr	r3, [r0, #20]
 1572              	.LVL118:
 734:Drivers/GD32F30x_standard_peripheral/Source/gd32f30x_usart.c ****     ctl &= ~USART_CTL2_DENR;
 1573              		.loc 1 734 5 is_stmt 1 view .LVU332
 1574              		.loc 1 734 9 is_stmt 0 view .LVU333
 1575 0002 23F04003 		bic	r3, r3, #64
 1576              	.LVL119:
 735:Drivers/GD32F30x_standard_peripheral/Source/gd32f30x_usart.c ****     ctl |= dmacmd;
 1577              		.loc 1 735 5 is_stmt 1 view .LVU334
 1578              		.loc 1 735 9 is_stmt 0 view .LVU335
 1579 0006 1943     		orrs	r1, r1, r3
 1580              	.LVL120:
 736:Drivers/GD32F30x_standard_peripheral/Source/gd32f30x_usart.c ****     /* configure DMA reception */
 737:Drivers/GD32F30x_standard_peripheral/Source/gd32f30x_usart.c ****     USART_CTL2(usart_periph) = ctl;
 1581              		.loc 1 737 5 is_stmt 1 view .LVU336
 1582              		.loc 1 737 30 is_stmt 0 view .LVU337
 1583 0008 4161     		str	r1, [r0, #20]
 738:Drivers/GD32F30x_standard_peripheral/Source/gd32f30x_usart.c **** }
 1584              		.loc 1 738 1 view .LVU338
 1585 000a 7047     		bx	lr
 1586              		.cfi_endproc
 1587              	.LFE158:
 1589              		.section	.text.usart_dma_transmit_config,"ax",%progbits
 1590              		.align	1
 1591              		.global	usart_dma_transmit_config
 1592              		.syntax unified
 1593              		.thumb
 1594              		.thumb_func
 1595              		.fpu fpv4-sp-d16
ARM GAS  C:\Users\Prog\AppData\Local\Temp\ccJHD9tp.s 			page 41


 1597              	usart_dma_transmit_config:
 1598              	.LVL121:
 1599              	.LFB159:
 739:Drivers/GD32F30x_standard_peripheral/Source/gd32f30x_usart.c **** 
 740:Drivers/GD32F30x_standard_peripheral/Source/gd32f30x_usart.c **** /*!
 741:Drivers/GD32F30x_standard_peripheral/Source/gd32f30x_usart.c ****     \brief      configure USART DMA transmission
 742:Drivers/GD32F30x_standard_peripheral/Source/gd32f30x_usart.c ****     \param[in]  usart_periph: USARTx(x=0,1,2)/UARTx(x=3)
 743:Drivers/GD32F30x_standard_peripheral/Source/gd32f30x_usart.c ****     \param[in]  dmacmd: enable or disable DMA for transmission
 744:Drivers/GD32F30x_standard_peripheral/Source/gd32f30x_usart.c ****                 only one parameter can be selected which is shown as below:
 745:Drivers/GD32F30x_standard_peripheral/Source/gd32f30x_usart.c ****       \arg        USART_DENT_ENABLE:  DMA enable for transmission
 746:Drivers/GD32F30x_standard_peripheral/Source/gd32f30x_usart.c ****       \arg        USART_DENT_DISABLE: DMA disable for transmission
 747:Drivers/GD32F30x_standard_peripheral/Source/gd32f30x_usart.c ****     \param[out] none
 748:Drivers/GD32F30x_standard_peripheral/Source/gd32f30x_usart.c ****     \retval     none
 749:Drivers/GD32F30x_standard_peripheral/Source/gd32f30x_usart.c **** */
 750:Drivers/GD32F30x_standard_peripheral/Source/gd32f30x_usart.c **** void usart_dma_transmit_config(uint32_t usart_periph, uint32_t dmacmd)
 751:Drivers/GD32F30x_standard_peripheral/Source/gd32f30x_usart.c **** {
 1600              		.loc 1 751 1 is_stmt 1 view -0
 1601              		.cfi_startproc
 1602              		@ args = 0, pretend = 0, frame = 0
 1603              		@ frame_needed = 0, uses_anonymous_args = 0
 1604              		@ link register save eliminated.
 752:Drivers/GD32F30x_standard_peripheral/Source/gd32f30x_usart.c ****     uint32_t ctl = 0U;
 1605              		.loc 1 752 5 view .LVU340
 753:Drivers/GD32F30x_standard_peripheral/Source/gd32f30x_usart.c ****     
 754:Drivers/GD32F30x_standard_peripheral/Source/gd32f30x_usart.c ****     ctl = USART_CTL2(usart_periph);
 1606              		.loc 1 754 5 view .LVU341
 1607              		.loc 1 754 9 is_stmt 0 view .LVU342
 1608 0000 4369     		ldr	r3, [r0, #20]
 1609              	.LVL122:
 755:Drivers/GD32F30x_standard_peripheral/Source/gd32f30x_usart.c ****     ctl &= ~USART_CTL2_DENT;
 1610              		.loc 1 755 5 is_stmt 1 view .LVU343
 1611              		.loc 1 755 9 is_stmt 0 view .LVU344
 1612 0002 23F08003 		bic	r3, r3, #128
 1613              	.LVL123:
 756:Drivers/GD32F30x_standard_peripheral/Source/gd32f30x_usart.c ****     ctl |= dmacmd;
 1614              		.loc 1 756 5 is_stmt 1 view .LVU345
 1615              		.loc 1 756 9 is_stmt 0 view .LVU346
 1616 0006 1943     		orrs	r1, r1, r3
 1617              	.LVL124:
 757:Drivers/GD32F30x_standard_peripheral/Source/gd32f30x_usart.c ****     /* configure DMA transmission */
 758:Drivers/GD32F30x_standard_peripheral/Source/gd32f30x_usart.c ****     USART_CTL2(usart_periph) = ctl;
 1618              		.loc 1 758 5 is_stmt 1 view .LVU347
 1619              		.loc 1 758 30 is_stmt 0 view .LVU348
 1620 0008 4161     		str	r1, [r0, #20]
 759:Drivers/GD32F30x_standard_peripheral/Source/gd32f30x_usart.c **** }
 1621              		.loc 1 759 1 view .LVU349
 1622 000a 7047     		bx	lr
 1623              		.cfi_endproc
 1624              	.LFE159:
 1626              		.section	.text.usart_flag_get,"ax",%progbits
 1627              		.align	1
 1628              		.global	usart_flag_get
 1629              		.syntax unified
 1630              		.thumb
 1631              		.thumb_func
 1632              		.fpu fpv4-sp-d16
 1634              	usart_flag_get:
ARM GAS  C:\Users\Prog\AppData\Local\Temp\ccJHD9tp.s 			page 42


 1635              	.LVL125:
 1636              	.LFB160:
 760:Drivers/GD32F30x_standard_peripheral/Source/gd32f30x_usart.c **** 
 761:Drivers/GD32F30x_standard_peripheral/Source/gd32f30x_usart.c **** /*!
 762:Drivers/GD32F30x_standard_peripheral/Source/gd32f30x_usart.c ****     \brief      get flag in STAT0/STAT1 register
 763:Drivers/GD32F30x_standard_peripheral/Source/gd32f30x_usart.c ****     \param[in]  usart_periph: USARTx(x=0,1,2)/UARTx(x=3,4)
 764:Drivers/GD32F30x_standard_peripheral/Source/gd32f30x_usart.c ****     \param[in]  flag: USART flags, refer to usart_flag_enum
 765:Drivers/GD32F30x_standard_peripheral/Source/gd32f30x_usart.c ****                 only one parameter can be selected which is shown as below:
 766:Drivers/GD32F30x_standard_peripheral/Source/gd32f30x_usart.c ****       \arg        USART_FLAG_CTS: CTS change flag
 767:Drivers/GD32F30x_standard_peripheral/Source/gd32f30x_usart.c ****       \arg        USART_FLAG_LBD: LIN break detected flag 
 768:Drivers/GD32F30x_standard_peripheral/Source/gd32f30x_usart.c ****       \arg        USART_FLAG_TBE: transmit data buffer empty 
 769:Drivers/GD32F30x_standard_peripheral/Source/gd32f30x_usart.c ****       \arg        USART_FLAG_TC: transmission complete 
 770:Drivers/GD32F30x_standard_peripheral/Source/gd32f30x_usart.c ****       \arg        USART_FLAG_RBNE: read data buffer not empty 
 771:Drivers/GD32F30x_standard_peripheral/Source/gd32f30x_usart.c ****       \arg        USART_FLAG_IDLE: IDLE frame detected flag 
 772:Drivers/GD32F30x_standard_peripheral/Source/gd32f30x_usart.c ****       \arg        USART_FLAG_ORERR: overrun error 
 773:Drivers/GD32F30x_standard_peripheral/Source/gd32f30x_usart.c ****       \arg        USART_FLAG_NERR: noise error flag 
 774:Drivers/GD32F30x_standard_peripheral/Source/gd32f30x_usart.c ****       \arg        USART_FLAG_FERR: frame error flag 
 775:Drivers/GD32F30x_standard_peripheral/Source/gd32f30x_usart.c ****       \arg        USART_FLAG_PERR: parity error flag 
 776:Drivers/GD32F30x_standard_peripheral/Source/gd32f30x_usart.c ****       \arg        USART_FLAG_BSY: busy flag 
 777:Drivers/GD32F30x_standard_peripheral/Source/gd32f30x_usart.c ****       \arg        USART_FLAG_EB: end of block flag 
 778:Drivers/GD32F30x_standard_peripheral/Source/gd32f30x_usart.c ****       \arg        USART_FLAG_RT: receiver timeout flag 
 779:Drivers/GD32F30x_standard_peripheral/Source/gd32f30x_usart.c ****     \param[out] none
 780:Drivers/GD32F30x_standard_peripheral/Source/gd32f30x_usart.c ****     \retval     FlagStatus: SET or RESET
 781:Drivers/GD32F30x_standard_peripheral/Source/gd32f30x_usart.c **** */
 782:Drivers/GD32F30x_standard_peripheral/Source/gd32f30x_usart.c **** FlagStatus usart_flag_get(uint32_t usart_periph, usart_flag_enum flag)
 783:Drivers/GD32F30x_standard_peripheral/Source/gd32f30x_usart.c **** {
 1637              		.loc 1 783 1 is_stmt 1 view -0
 1638              		.cfi_startproc
 1639              		@ args = 0, pretend = 0, frame = 0
 1640              		@ frame_needed = 0, uses_anonymous_args = 0
 1641              		@ link register save eliminated.
 784:Drivers/GD32F30x_standard_peripheral/Source/gd32f30x_usart.c ****     if(RESET != (USART_REG_VAL(usart_periph, flag) & BIT(USART_BIT_POS(flag)))){
 1642              		.loc 1 784 5 view .LVU351
 1643              		.loc 1 784 18 is_stmt 0 view .LVU352
 1644 0000 8B09     		lsrs	r3, r1, #6
 1645 0002 1B58     		ldr	r3, [r3, r0]
 1646              		.loc 1 784 54 view .LVU353
 1647 0004 01F01F01 		and	r1, r1, #31
 1648              	.LVL126:
 1649              		.loc 1 784 14 view .LVU354
 1650 0008 23FA01F1 		lsr	r1, r3, r1
 1651              		.loc 1 784 7 view .LVU355
 1652 000c 11F0010F 		tst	r1, #1
 1653 0010 01D0     		beq	.L78
 785:Drivers/GD32F30x_standard_peripheral/Source/gd32f30x_usart.c ****         return SET;
 1654              		.loc 1 785 16 view .LVU356
 1655 0012 0120     		movs	r0, #1
 1656              	.LVL127:
 1657              		.loc 1 785 16 view .LVU357
 1658 0014 7047     		bx	lr
 1659              	.LVL128:
 1660              	.L78:
 786:Drivers/GD32F30x_standard_peripheral/Source/gd32f30x_usart.c ****     }else{
 787:Drivers/GD32F30x_standard_peripheral/Source/gd32f30x_usart.c ****         return RESET;
 1661              		.loc 1 787 16 view .LVU358
 1662 0016 0020     		movs	r0, #0
 1663              	.LVL129:
ARM GAS  C:\Users\Prog\AppData\Local\Temp\ccJHD9tp.s 			page 43


 788:Drivers/GD32F30x_standard_peripheral/Source/gd32f30x_usart.c ****     }
 789:Drivers/GD32F30x_standard_peripheral/Source/gd32f30x_usart.c **** }
 1664              		.loc 1 789 1 view .LVU359
 1665 0018 7047     		bx	lr
 1666              		.cfi_endproc
 1667              	.LFE160:
 1669              		.section	.text.usart_flag_clear,"ax",%progbits
 1670              		.align	1
 1671              		.global	usart_flag_clear
 1672              		.syntax unified
 1673              		.thumb
 1674              		.thumb_func
 1675              		.fpu fpv4-sp-d16
 1677              	usart_flag_clear:
 1678              	.LVL130:
 1679              	.LFB161:
 790:Drivers/GD32F30x_standard_peripheral/Source/gd32f30x_usart.c **** 
 791:Drivers/GD32F30x_standard_peripheral/Source/gd32f30x_usart.c **** /*!
 792:Drivers/GD32F30x_standard_peripheral/Source/gd32f30x_usart.c ****     \brief      clear flag in STAT0/STAT1 register
 793:Drivers/GD32F30x_standard_peripheral/Source/gd32f30x_usart.c ****     \param[in]  usart_periph: USARTx(x=0,1,2)/UARTx(x=3,4)
 794:Drivers/GD32F30x_standard_peripheral/Source/gd32f30x_usart.c ****     \param[in]  flag: USART flags, refer to usart_flag_enum
 795:Drivers/GD32F30x_standard_peripheral/Source/gd32f30x_usart.c ****                 only one parameter can be selected which is shown as below:
 796:Drivers/GD32F30x_standard_peripheral/Source/gd32f30x_usart.c ****       \arg        USART_FLAG_CTS: CTS change flag
 797:Drivers/GD32F30x_standard_peripheral/Source/gd32f30x_usart.c ****       \arg        USART_FLAG_LBD: LIN break detected flag
 798:Drivers/GD32F30x_standard_peripheral/Source/gd32f30x_usart.c ****       \arg        USART_FLAG_TC: transmission complete
 799:Drivers/GD32F30x_standard_peripheral/Source/gd32f30x_usart.c ****       \arg        USART_FLAG_RBNE: read data buffer not empty
 800:Drivers/GD32F30x_standard_peripheral/Source/gd32f30x_usart.c ****       \arg        USART_FLAG_EB: end of block flag
 801:Drivers/GD32F30x_standard_peripheral/Source/gd32f30x_usart.c ****       \arg        USART_FLAG_RT: receiver timeout flag
 802:Drivers/GD32F30x_standard_peripheral/Source/gd32f30x_usart.c ****     \param[out] none
 803:Drivers/GD32F30x_standard_peripheral/Source/gd32f30x_usart.c ****     \retval     none
 804:Drivers/GD32F30x_standard_peripheral/Source/gd32f30x_usart.c **** */
 805:Drivers/GD32F30x_standard_peripheral/Source/gd32f30x_usart.c **** void usart_flag_clear(uint32_t usart_periph, usart_flag_enum flag)
 806:Drivers/GD32F30x_standard_peripheral/Source/gd32f30x_usart.c **** {
 1680              		.loc 1 806 1 is_stmt 1 view -0
 1681              		.cfi_startproc
 1682              		@ args = 0, pretend = 0, frame = 0
 1683              		@ frame_needed = 0, uses_anonymous_args = 0
 1684              		@ link register save eliminated.
 1685              		.loc 1 806 1 is_stmt 0 view .LVU361
 1686 0000 10B4     		push	{r4}
 1687              	.LCFI4:
 1688              		.cfi_def_cfa_offset 4
 1689              		.cfi_offset 4, -4
 807:Drivers/GD32F30x_standard_peripheral/Source/gd32f30x_usart.c ****     USART_REG_VAL(usart_periph, flag) &= ~BIT(USART_BIT_POS(flag));
 1690              		.loc 1 807 5 is_stmt 1 view .LVU362
 1691              		.loc 1 807 39 is_stmt 0 view .LVU363
 1692 0002 8C09     		lsrs	r4, r1, #6
 1693 0004 2358     		ldr	r3, [r4, r0]
 1694              		.loc 1 807 43 view .LVU364
 1695 0006 01F01F01 		and	r1, r1, #31
 1696              	.LVL131:
 1697              		.loc 1 807 43 view .LVU365
 1698 000a 0122     		movs	r2, #1
 1699 000c 02FA01F1 		lsl	r1, r2, r1
 1700              		.loc 1 807 39 view .LVU366
 1701 0010 23EA0103 		bic	r3, r3, r1
 1702 0014 2350     		str	r3, [r4, r0]
ARM GAS  C:\Users\Prog\AppData\Local\Temp\ccJHD9tp.s 			page 44


 808:Drivers/GD32F30x_standard_peripheral/Source/gd32f30x_usart.c **** }
 1703              		.loc 1 808 1 view .LVU367
 1704 0016 5DF8044B 		ldr	r4, [sp], #4
 1705              	.LCFI5:
 1706              		.cfi_restore 4
 1707              		.cfi_def_cfa_offset 0
 1708 001a 7047     		bx	lr
 1709              		.cfi_endproc
 1710              	.LFE161:
 1712              		.section	.text.usart_interrupt_enable,"ax",%progbits
 1713              		.align	1
 1714              		.global	usart_interrupt_enable
 1715              		.syntax unified
 1716              		.thumb
 1717              		.thumb_func
 1718              		.fpu fpv4-sp-d16
 1720              	usart_interrupt_enable:
 1721              	.LVL132:
 1722              	.LFB162:
 809:Drivers/GD32F30x_standard_peripheral/Source/gd32f30x_usart.c **** 
 810:Drivers/GD32F30x_standard_peripheral/Source/gd32f30x_usart.c **** /*!
 811:Drivers/GD32F30x_standard_peripheral/Source/gd32f30x_usart.c ****     \brief      enable USART interrupt
 812:Drivers/GD32F30x_standard_peripheral/Source/gd32f30x_usart.c ****     \param[in]  usart_periph: USARTx(x=0,1,2)/UARTx(x=3,4)
 813:Drivers/GD32F30x_standard_peripheral/Source/gd32f30x_usart.c ****     \param[in]  interrupt: USART interrupts, refer to usart_interrupt_enum
 814:Drivers/GD32F30x_standard_peripheral/Source/gd32f30x_usart.c ****                 only one parameter can be selected which is shown as below:
 815:Drivers/GD32F30x_standard_peripheral/Source/gd32f30x_usart.c ****       \arg        USART_INT_PERR: parity error interrupt
 816:Drivers/GD32F30x_standard_peripheral/Source/gd32f30x_usart.c ****       \arg        USART_INT_TBE: transmitter buffer empty interrupt
 817:Drivers/GD32F30x_standard_peripheral/Source/gd32f30x_usart.c ****       \arg        USART_INT_TC: transmission complete interrupt
 818:Drivers/GD32F30x_standard_peripheral/Source/gd32f30x_usart.c ****       \arg        USART_INT_RBNE: read data buffer not empty interrupt and overrun error interrupt
 819:Drivers/GD32F30x_standard_peripheral/Source/gd32f30x_usart.c ****       \arg        USART_INT_IDLE: IDLE line detected interrupt
 820:Drivers/GD32F30x_standard_peripheral/Source/gd32f30x_usart.c ****       \arg        USART_INT_LBD: LIN break detected interrupt
 821:Drivers/GD32F30x_standard_peripheral/Source/gd32f30x_usart.c ****       \arg        USART_INT_ERR: error interrupt
 822:Drivers/GD32F30x_standard_peripheral/Source/gd32f30x_usart.c ****       \arg        USART_INT_CTS: CTS interrupt
 823:Drivers/GD32F30x_standard_peripheral/Source/gd32f30x_usart.c ****       \arg        USART_INT_RT: interrupt enable bit of receive timeout event
 824:Drivers/GD32F30x_standard_peripheral/Source/gd32f30x_usart.c ****       \arg        USART_INT_EB: interrupt enable bit of end of block event
 825:Drivers/GD32F30x_standard_peripheral/Source/gd32f30x_usart.c ****     \param[out] none
 826:Drivers/GD32F30x_standard_peripheral/Source/gd32f30x_usart.c ****     \retval     none
 827:Drivers/GD32F30x_standard_peripheral/Source/gd32f30x_usart.c **** */
 828:Drivers/GD32F30x_standard_peripheral/Source/gd32f30x_usart.c **** void usart_interrupt_enable(uint32_t usart_periph, usart_interrupt_enum interrupt)
 829:Drivers/GD32F30x_standard_peripheral/Source/gd32f30x_usart.c **** {
 1723              		.loc 1 829 1 is_stmt 1 view -0
 1724              		.cfi_startproc
 1725              		@ args = 0, pretend = 0, frame = 0
 1726              		@ frame_needed = 0, uses_anonymous_args = 0
 1727              		@ link register save eliminated.
 1728              		.loc 1 829 1 is_stmt 0 view .LVU369
 1729 0000 10B4     		push	{r4}
 1730              	.LCFI6:
 1731              		.cfi_def_cfa_offset 4
 1732              		.cfi_offset 4, -4
 830:Drivers/GD32F30x_standard_peripheral/Source/gd32f30x_usart.c ****     USART_REG_VAL(usart_periph, interrupt) |= BIT(USART_BIT_POS(interrupt));
 1733              		.loc 1 830 5 is_stmt 1 view .LVU370
 1734              		.loc 1 830 44 is_stmt 0 view .LVU371
 1735 0002 8C09     		lsrs	r4, r1, #6
 1736 0004 2358     		ldr	r3, [r4, r0]
 1737              		.loc 1 830 47 view .LVU372
 1738 0006 01F01F01 		and	r1, r1, #31
ARM GAS  C:\Users\Prog\AppData\Local\Temp\ccJHD9tp.s 			page 45


 1739              	.LVL133:
 1740              		.loc 1 830 47 view .LVU373
 1741 000a 0122     		movs	r2, #1
 1742 000c 02FA01F1 		lsl	r1, r2, r1
 1743              		.loc 1 830 44 view .LVU374
 1744 0010 0B43     		orrs	r3, r3, r1
 1745 0012 2350     		str	r3, [r4, r0]
 831:Drivers/GD32F30x_standard_peripheral/Source/gd32f30x_usart.c **** }
 1746              		.loc 1 831 1 view .LVU375
 1747 0014 5DF8044B 		ldr	r4, [sp], #4
 1748              	.LCFI7:
 1749              		.cfi_restore 4
 1750              		.cfi_def_cfa_offset 0
 1751 0018 7047     		bx	lr
 1752              		.cfi_endproc
 1753              	.LFE162:
 1755              		.section	.text.usart_interrupt_disable,"ax",%progbits
 1756              		.align	1
 1757              		.global	usart_interrupt_disable
 1758              		.syntax unified
 1759              		.thumb
 1760              		.thumb_func
 1761              		.fpu fpv4-sp-d16
 1763              	usart_interrupt_disable:
 1764              	.LVL134:
 1765              	.LFB163:
 832:Drivers/GD32F30x_standard_peripheral/Source/gd32f30x_usart.c **** 
 833:Drivers/GD32F30x_standard_peripheral/Source/gd32f30x_usart.c **** /*!
 834:Drivers/GD32F30x_standard_peripheral/Source/gd32f30x_usart.c ****     \brief      disable USART interrupt
 835:Drivers/GD32F30x_standard_peripheral/Source/gd32f30x_usart.c ****     \param[in]  usart_periph: USARTx(x=0,1,2)/UARTx(x=3,4)
 836:Drivers/GD32F30x_standard_peripheral/Source/gd32f30x_usart.c ****     \param[in]  interrupt: USART interrupts, refer to usart_interrupt_enum
 837:Drivers/GD32F30x_standard_peripheral/Source/gd32f30x_usart.c ****                 only one parameter can be selected which is shown as below:
 838:Drivers/GD32F30x_standard_peripheral/Source/gd32f30x_usart.c ****       \arg        USART_INT_PERR: parity error interrupt
 839:Drivers/GD32F30x_standard_peripheral/Source/gd32f30x_usart.c ****       \arg        USART_INT_TBE: transmitter buffer empty interrupt
 840:Drivers/GD32F30x_standard_peripheral/Source/gd32f30x_usart.c ****       \arg        USART_INT_TC: transmission complete interrupt
 841:Drivers/GD32F30x_standard_peripheral/Source/gd32f30x_usart.c ****       \arg        USART_INT_RBNE: read data buffer not empty interrupt and overrun error interrupt
 842:Drivers/GD32F30x_standard_peripheral/Source/gd32f30x_usart.c ****       \arg        USART_INT_IDLE: IDLE line detected interrupt
 843:Drivers/GD32F30x_standard_peripheral/Source/gd32f30x_usart.c ****       \arg        USART_INT_LBD: LIN break detected interrupt
 844:Drivers/GD32F30x_standard_peripheral/Source/gd32f30x_usart.c ****       \arg        USART_INT_ERR: error interrupt
 845:Drivers/GD32F30x_standard_peripheral/Source/gd32f30x_usart.c ****       \arg        USART_INT_CTS: CTS interrupt
 846:Drivers/GD32F30x_standard_peripheral/Source/gd32f30x_usart.c ****       \arg        USART_INT_RT: interrupt enable bit of receive timeout event
 847:Drivers/GD32F30x_standard_peripheral/Source/gd32f30x_usart.c ****       \arg        USART_INT_EB: interrupt enable bit of end of block event
 848:Drivers/GD32F30x_standard_peripheral/Source/gd32f30x_usart.c ****     \param[out] none
 849:Drivers/GD32F30x_standard_peripheral/Source/gd32f30x_usart.c ****     \retval     none
 850:Drivers/GD32F30x_standard_peripheral/Source/gd32f30x_usart.c **** */
 851:Drivers/GD32F30x_standard_peripheral/Source/gd32f30x_usart.c **** void usart_interrupt_disable(uint32_t usart_periph, usart_interrupt_enum interrupt)
 852:Drivers/GD32F30x_standard_peripheral/Source/gd32f30x_usart.c **** {
 1766              		.loc 1 852 1 is_stmt 1 view -0
 1767              		.cfi_startproc
 1768              		@ args = 0, pretend = 0, frame = 0
 1769              		@ frame_needed = 0, uses_anonymous_args = 0
 1770              		@ link register save eliminated.
 1771              		.loc 1 852 1 is_stmt 0 view .LVU377
 1772 0000 10B4     		push	{r4}
 1773              	.LCFI8:
 1774              		.cfi_def_cfa_offset 4
 1775              		.cfi_offset 4, -4
ARM GAS  C:\Users\Prog\AppData\Local\Temp\ccJHD9tp.s 			page 46


 853:Drivers/GD32F30x_standard_peripheral/Source/gd32f30x_usart.c ****     USART_REG_VAL(usart_periph, interrupt) &= ~BIT(USART_BIT_POS(interrupt));
 1776              		.loc 1 853 5 is_stmt 1 view .LVU378
 1777              		.loc 1 853 44 is_stmt 0 view .LVU379
 1778 0002 8C09     		lsrs	r4, r1, #6
 1779 0004 2358     		ldr	r3, [r4, r0]
 1780              		.loc 1 853 48 view .LVU380
 1781 0006 01F01F01 		and	r1, r1, #31
 1782              	.LVL135:
 1783              		.loc 1 853 48 view .LVU381
 1784 000a 0122     		movs	r2, #1
 1785 000c 02FA01F1 		lsl	r1, r2, r1
 1786              		.loc 1 853 44 view .LVU382
 1787 0010 23EA0103 		bic	r3, r3, r1
 1788 0014 2350     		str	r3, [r4, r0]
 854:Drivers/GD32F30x_standard_peripheral/Source/gd32f30x_usart.c **** }
 1789              		.loc 1 854 1 view .LVU383
 1790 0016 5DF8044B 		ldr	r4, [sp], #4
 1791              	.LCFI9:
 1792              		.cfi_restore 4
 1793              		.cfi_def_cfa_offset 0
 1794 001a 7047     		bx	lr
 1795              		.cfi_endproc
 1796              	.LFE163:
 1798              		.section	.text.usart_interrupt_flag_get,"ax",%progbits
 1799              		.align	1
 1800              		.global	usart_interrupt_flag_get
 1801              		.syntax unified
 1802              		.thumb
 1803              		.thumb_func
 1804              		.fpu fpv4-sp-d16
 1806              	usart_interrupt_flag_get:
 1807              	.LVL136:
 1808              	.LFB164:
 855:Drivers/GD32F30x_standard_peripheral/Source/gd32f30x_usart.c **** 
 856:Drivers/GD32F30x_standard_peripheral/Source/gd32f30x_usart.c **** /*!
 857:Drivers/GD32F30x_standard_peripheral/Source/gd32f30x_usart.c ****     \brief      get USART interrupt and flag status
 858:Drivers/GD32F30x_standard_peripheral/Source/gd32f30x_usart.c ****     \param[in]  usart_periph: USARTx(x=0,1,2)/UARTx(x=3,4)
 859:Drivers/GD32F30x_standard_peripheral/Source/gd32f30x_usart.c ****     \param[in]  int_flag: USART interrupt flags, refer to usart_interrupt_flag_enum
 860:Drivers/GD32F30x_standard_peripheral/Source/gd32f30x_usart.c ****                 only one parameter can be selected which is shown as below:
 861:Drivers/GD32F30x_standard_peripheral/Source/gd32f30x_usart.c ****       \arg        USART_INT_FLAG_PERR: parity error interrupt and flag
 862:Drivers/GD32F30x_standard_peripheral/Source/gd32f30x_usart.c ****       \arg        USART_INT_FLAG_TBE: transmitter buffer empty interrupt and flag
 863:Drivers/GD32F30x_standard_peripheral/Source/gd32f30x_usart.c ****       \arg        USART_INT_FLAG_TC: transmission complete interrupt and flag
 864:Drivers/GD32F30x_standard_peripheral/Source/gd32f30x_usart.c ****       \arg        USART_INT_FLAG_RBNE: read data buffer not empty interrupt and flag
 865:Drivers/GD32F30x_standard_peripheral/Source/gd32f30x_usart.c ****       \arg        USART_INT_FLAG_RBNE_ORERR: read data buffer not empty interrupt and overrun error
 866:Drivers/GD32F30x_standard_peripheral/Source/gd32f30x_usart.c ****       \arg        USART_INT_FLAG_IDLE: IDLE line detected interrupt and flag
 867:Drivers/GD32F30x_standard_peripheral/Source/gd32f30x_usart.c ****       \arg        USART_INT_FLAG_LBD: LIN break detected interrupt and flag
 868:Drivers/GD32F30x_standard_peripheral/Source/gd32f30x_usart.c ****       \arg        USART_INT_FLAG_CTS: CTS interrupt and flag
 869:Drivers/GD32F30x_standard_peripheral/Source/gd32f30x_usart.c ****       \arg        USART_INT_FLAG_ERR_ORERR: error interrupt and overrun error
 870:Drivers/GD32F30x_standard_peripheral/Source/gd32f30x_usart.c ****       \arg        USART_INT_FLAG_ERR_NERR: error interrupt and noise error flag
 871:Drivers/GD32F30x_standard_peripheral/Source/gd32f30x_usart.c ****       \arg        USART_INT_FLAG_ERR_FERR: error interrupt and frame error flag
 872:Drivers/GD32F30x_standard_peripheral/Source/gd32f30x_usart.c ****       \arg        USART_INT_FLAG_EB: interrupt enable bit of end of block event and flag
 873:Drivers/GD32F30x_standard_peripheral/Source/gd32f30x_usart.c ****       \arg        USART_INT_FLAG_RT: interrupt enable bit of receive timeout event and flag
 874:Drivers/GD32F30x_standard_peripheral/Source/gd32f30x_usart.c ****     \param[out] none
 875:Drivers/GD32F30x_standard_peripheral/Source/gd32f30x_usart.c ****     \retval     FlagStatus: SET or RESET
 876:Drivers/GD32F30x_standard_peripheral/Source/gd32f30x_usart.c **** */
 877:Drivers/GD32F30x_standard_peripheral/Source/gd32f30x_usart.c **** FlagStatus usart_interrupt_flag_get(uint32_t usart_periph, usart_interrupt_flag_enum int_flag)
 878:Drivers/GD32F30x_standard_peripheral/Source/gd32f30x_usart.c **** {
ARM GAS  C:\Users\Prog\AppData\Local\Temp\ccJHD9tp.s 			page 47


 1809              		.loc 1 878 1 is_stmt 1 view -0
 1810              		.cfi_startproc
 1811              		@ args = 0, pretend = 0, frame = 0
 1812              		@ frame_needed = 0, uses_anonymous_args = 0
 1813              		@ link register save eliminated.
 1814              		.loc 1 878 1 is_stmt 0 view .LVU385
 1815 0000 10B4     		push	{r4}
 1816              	.LCFI10:
 1817              		.cfi_def_cfa_offset 4
 1818              		.cfi_offset 4, -4
 879:Drivers/GD32F30x_standard_peripheral/Source/gd32f30x_usart.c ****     uint32_t intenable = 0U, flagstatus = 0U;
 1819              		.loc 1 879 5 is_stmt 1 view .LVU386
 1820              	.LVL137:
 880:Drivers/GD32F30x_standard_peripheral/Source/gd32f30x_usart.c ****     /* get the interrupt enable bit status */
 881:Drivers/GD32F30x_standard_peripheral/Source/gd32f30x_usart.c ****     intenable = (USART_REG_VAL(usart_periph, int_flag) & BIT(USART_BIT_POS(int_flag)));
 1821              		.loc 1 881 5 view .LVU387
 1822              		.loc 1 881 18 is_stmt 0 view .LVU388
 1823 0002 C1F38913 		ubfx	r3, r1, #6, #10
 1824 0006 1C58     		ldr	r4, [r3, r0]
 1825              		.loc 1 881 58 view .LVU389
 1826 0008 01F01F02 		and	r2, r1, #31
 1827 000c 0123     		movs	r3, #1
 1828 000e 03FA02F2 		lsl	r2, r3, r2
 1829              		.loc 1 881 15 view .LVU390
 1830 0012 2240     		ands	r2, r2, r4
 1831              	.LVL138:
 882:Drivers/GD32F30x_standard_peripheral/Source/gd32f30x_usart.c ****     /* get the corresponding flag bit status */
 883:Drivers/GD32F30x_standard_peripheral/Source/gd32f30x_usart.c ****     flagstatus = (USART_REG_VAL2(usart_periph, int_flag) & BIT(USART_BIT_POS2(int_flag)));
 1832              		.loc 1 883 5 is_stmt 1 view .LVU391
 1833              		.loc 1 883 19 is_stmt 0 view .LVU392
 1834 0014 8C0D     		lsrs	r4, r1, #22
 1835 0016 2058     		ldr	r0, [r4, r0]
 1836              	.LVL139:
 1837              		.loc 1 883 60 view .LVU393
 1838 0018 C1F30441 		ubfx	r1, r1, #16, #5
 1839              	.LVL140:
 1840              		.loc 1 883 60 view .LVU394
 1841 001c 03FA01F1 		lsl	r1, r3, r1
 1842              	.LVL141:
 884:Drivers/GD32F30x_standard_peripheral/Source/gd32f30x_usart.c **** 
 885:Drivers/GD32F30x_standard_peripheral/Source/gd32f30x_usart.c ****     if((0U != flagstatus) && (0U != intenable)){
 1843              		.loc 1 885 5 is_stmt 1 view .LVU395
 1844              		.loc 1 885 7 is_stmt 0 view .LVU396
 1845 0020 0842     		tst	r0, r1
 1846 0022 02D0     		beq	.L87
 1847              		.loc 1 885 27 discriminator 1 view .LVU397
 1848 0024 2AB9     		cbnz	r2, .L88
 886:Drivers/GD32F30x_standard_peripheral/Source/gd32f30x_usart.c ****         return SET;
 887:Drivers/GD32F30x_standard_peripheral/Source/gd32f30x_usart.c ****     }else{
 888:Drivers/GD32F30x_standard_peripheral/Source/gd32f30x_usart.c ****         return RESET; 
 1849              		.loc 1 888 16 view .LVU398
 1850 0026 0020     		movs	r0, #0
 1851              	.LVL142:
 1852              		.loc 1 888 16 view .LVU399
 1853 0028 00E0     		b	.L86
 1854              	.LVL143:
 1855              	.L87:
ARM GAS  C:\Users\Prog\AppData\Local\Temp\ccJHD9tp.s 			page 48


 1856              		.loc 1 888 16 view .LVU400
 1857 002a 0020     		movs	r0, #0
 1858              	.LVL144:
 1859              	.L86:
 889:Drivers/GD32F30x_standard_peripheral/Source/gd32f30x_usart.c ****     }
 890:Drivers/GD32F30x_standard_peripheral/Source/gd32f30x_usart.c **** }
 1860              		.loc 1 890 1 view .LVU401
 1861 002c 5DF8044B 		ldr	r4, [sp], #4
 1862              	.LCFI11:
 1863              		.cfi_remember_state
 1864              		.cfi_restore 4
 1865              		.cfi_def_cfa_offset 0
 1866 0030 7047     		bx	lr
 1867              	.LVL145:
 1868              	.L88:
 1869              	.LCFI12:
 1870              		.cfi_restore_state
 886:Drivers/GD32F30x_standard_peripheral/Source/gd32f30x_usart.c ****         return SET;
 1871              		.loc 1 886 16 view .LVU402
 1872 0032 0120     		movs	r0, #1
 1873              	.LVL146:
 886:Drivers/GD32F30x_standard_peripheral/Source/gd32f30x_usart.c ****         return SET;
 1874              		.loc 1 886 16 view .LVU403
 1875 0034 FAE7     		b	.L86
 1876              		.cfi_endproc
 1877              	.LFE164:
 1879              		.section	.text.usart_interrupt_flag_clear,"ax",%progbits
 1880              		.align	1
 1881              		.global	usart_interrupt_flag_clear
 1882              		.syntax unified
 1883              		.thumb
 1884              		.thumb_func
 1885              		.fpu fpv4-sp-d16
 1887              	usart_interrupt_flag_clear:
 1888              	.LVL147:
 1889              	.LFB165:
 891:Drivers/GD32F30x_standard_peripheral/Source/gd32f30x_usart.c **** 
 892:Drivers/GD32F30x_standard_peripheral/Source/gd32f30x_usart.c **** /*!
 893:Drivers/GD32F30x_standard_peripheral/Source/gd32f30x_usart.c ****     \brief      clear USART interrupt flag in STAT0/STAT1 register
 894:Drivers/GD32F30x_standard_peripheral/Source/gd32f30x_usart.c ****     \param[in]  usart_periph: USARTx(x=0,1,2)/UARTx(x=3,4)
 895:Drivers/GD32F30x_standard_peripheral/Source/gd32f30x_usart.c ****     \param[in]  int_flag: USART interrupt flags, refer to usart_interrupt_flag_enum
 896:Drivers/GD32F30x_standard_peripheral/Source/gd32f30x_usart.c ****                 only one parameter can be selected which is shown as below:
 897:Drivers/GD32F30x_standard_peripheral/Source/gd32f30x_usart.c ****       \arg        USART_INT_FLAG_CTS: CTS change flag
 898:Drivers/GD32F30x_standard_peripheral/Source/gd32f30x_usart.c ****       \arg        USART_INT_FLAG_LBD: LIN break detected flag
 899:Drivers/GD32F30x_standard_peripheral/Source/gd32f30x_usart.c ****       \arg        USART_INT_FLAG_TC: transmission complete
 900:Drivers/GD32F30x_standard_peripheral/Source/gd32f30x_usart.c ****       \arg        USART_INT_FLAG_RBNE: read data buffer not empty
 901:Drivers/GD32F30x_standard_peripheral/Source/gd32f30x_usart.c ****       \arg        USART_INT_FLAG_EB: end of block flag
 902:Drivers/GD32F30x_standard_peripheral/Source/gd32f30x_usart.c ****       \arg        USART_INT_FLAG_RT: receiver timeout flag
 903:Drivers/GD32F30x_standard_peripheral/Source/gd32f30x_usart.c ****     \param[out] none
 904:Drivers/GD32F30x_standard_peripheral/Source/gd32f30x_usart.c ****     \retval     none
 905:Drivers/GD32F30x_standard_peripheral/Source/gd32f30x_usart.c **** */
 906:Drivers/GD32F30x_standard_peripheral/Source/gd32f30x_usart.c **** void usart_interrupt_flag_clear(uint32_t usart_periph, usart_interrupt_flag_enum int_flag)
 907:Drivers/GD32F30x_standard_peripheral/Source/gd32f30x_usart.c **** {
 1890              		.loc 1 907 1 is_stmt 1 view -0
 1891              		.cfi_startproc
 1892              		@ args = 0, pretend = 0, frame = 0
 1893              		@ frame_needed = 0, uses_anonymous_args = 0
ARM GAS  C:\Users\Prog\AppData\Local\Temp\ccJHD9tp.s 			page 49


 1894              		@ link register save eliminated.
 1895              		.loc 1 907 1 is_stmt 0 view .LVU405
 1896 0000 10B4     		push	{r4}
 1897              	.LCFI13:
 1898              		.cfi_def_cfa_offset 4
 1899              		.cfi_offset 4, -4
 908:Drivers/GD32F30x_standard_peripheral/Source/gd32f30x_usart.c ****     USART_REG_VAL2(usart_periph, int_flag) &= ~BIT(USART_BIT_POS2(int_flag));
 1900              		.loc 1 908 5 is_stmt 1 view .LVU406
 1901              		.loc 1 908 44 is_stmt 0 view .LVU407
 1902 0002 8C0D     		lsrs	r4, r1, #22
 1903 0004 2358     		ldr	r3, [r4, r0]
 1904              		.loc 1 908 48 view .LVU408
 1905 0006 C1F30441 		ubfx	r1, r1, #16, #5
 1906              	.LVL148:
 1907              		.loc 1 908 48 view .LVU409
 1908 000a 0122     		movs	r2, #1
 1909 000c 02FA01F1 		lsl	r1, r2, r1
 1910              		.loc 1 908 44 view .LVU410
 1911 0010 23EA0103 		bic	r3, r3, r1
 1912 0014 2350     		str	r3, [r4, r0]
 909:Drivers/GD32F30x_standard_peripheral/Source/gd32f30x_usart.c **** }
 1913              		.loc 1 909 1 view .LVU411
 1914 0016 5DF8044B 		ldr	r4, [sp], #4
 1915              	.LCFI14:
 1916              		.cfi_restore 4
 1917              		.cfi_def_cfa_offset 0
 1918 001a 7047     		bx	lr
 1919              		.cfi_endproc
 1920              	.LFE165:
 1922              		.text
 1923              	.Letext0:
 1924              		.file 2 "d:\\embedded_gcc\\arm_gcc\\arm-none-eabi\\include\\machine\\_default_types.h"
 1925              		.file 3 "d:\\embedded_gcc\\arm_gcc\\arm-none-eabi\\include\\sys\\_stdint.h"
 1926              		.file 4 "Drivers/CMSIS/core_cm4.h"
 1927              		.file 5 "Drivers/CMSIS/GD/GD32F30x/Include/system_gd32f30x.h"
 1928              		.file 6 "Drivers/CMSIS/GD/GD32F30x/Include/gd32f30x.h"
 1929              		.file 7 "Drivers/GD32F30x_standard_peripheral/Include/gd32f30x_rcu.h"
 1930              		.file 8 "Drivers/GD32F30x_standard_peripheral/Include/gd32f30x_usart.h"
ARM GAS  C:\Users\Prog\AppData\Local\Temp\ccJHD9tp.s 			page 50

