ARM GAS  C:\Users\Prog\AppData\Local\Temp\cc3LDjGp.s 			page 1


   1              		.cpu cortex-m4
   2              		.eabi_attribute 27, 1
   3              		.eabi_attribute 28, 1
   4              		.eabi_attribute 20, 1
   5              		.eabi_attribute 21, 1
   6              		.eabi_attribute 23, 3
   7              		.eabi_attribute 24, 1
   8              		.eabi_attribute 25, 1
   9              		.eabi_attribute 26, 1
  10              		.eabi_attribute 30, 1
  11              		.eabi_attribute 34, 1
  12              		.eabi_attribute 18, 4
  13              		.file	"gd32f30x_wwdgt.c"
  14              		.text
  15              	.Ltext0:
  16              		.cfi_sections	.debug_frame
  17              		.section	.text.wwdgt_deinit,"ax",%progbits
  18              		.align	1
  19              		.global	wwdgt_deinit
  20              		.arch armv7e-m
  21              		.syntax unified
  22              		.thumb
  23              		.thumb_func
  24              		.fpu fpv4-sp-d16
  26              	wwdgt_deinit:
  27              	.LFB116:
  28              		.file 1 "Drivers/GD32F30x_standard_peripheral/Source/gd32f30x_wwdgt.c"
   1:Drivers/GD32F30x_standard_peripheral/Source/gd32f30x_wwdgt.c **** /*!
   2:Drivers/GD32F30x_standard_peripheral/Source/gd32f30x_wwdgt.c ****     \file    gd32f30x_wwdgt.c
   3:Drivers/GD32F30x_standard_peripheral/Source/gd32f30x_wwdgt.c ****     \brief   WWDGT driver
   4:Drivers/GD32F30x_standard_peripheral/Source/gd32f30x_wwdgt.c **** 
   5:Drivers/GD32F30x_standard_peripheral/Source/gd32f30x_wwdgt.c ****     \version 2017-02-10, V1.0.0, firmware for GD32F30x
   6:Drivers/GD32F30x_standard_peripheral/Source/gd32f30x_wwdgt.c ****     \version 2018-10-10, V1.1.0, firmware for GD32F30x
   7:Drivers/GD32F30x_standard_peripheral/Source/gd32f30x_wwdgt.c ****     \version 2018-12-25, V2.0.0, firmware for GD32F30x
   8:Drivers/GD32F30x_standard_peripheral/Source/gd32f30x_wwdgt.c ****     \version 2020-09-30, V2.1.0, firmware for GD32F30x
   9:Drivers/GD32F30x_standard_peripheral/Source/gd32f30x_wwdgt.c **** */
  10:Drivers/GD32F30x_standard_peripheral/Source/gd32f30x_wwdgt.c **** 
  11:Drivers/GD32F30x_standard_peripheral/Source/gd32f30x_wwdgt.c **** /*
  12:Drivers/GD32F30x_standard_peripheral/Source/gd32f30x_wwdgt.c ****     Copyright (c) 2020, GigaDevice Semiconductor Inc.
  13:Drivers/GD32F30x_standard_peripheral/Source/gd32f30x_wwdgt.c **** 
  14:Drivers/GD32F30x_standard_peripheral/Source/gd32f30x_wwdgt.c ****     Redistribution and use in source and binary forms, with or without modification, 
  15:Drivers/GD32F30x_standard_peripheral/Source/gd32f30x_wwdgt.c **** are permitted provided that the following conditions are met:
  16:Drivers/GD32F30x_standard_peripheral/Source/gd32f30x_wwdgt.c **** 
  17:Drivers/GD32F30x_standard_peripheral/Source/gd32f30x_wwdgt.c ****     1. Redistributions of source code must retain the above copyright notice, this 
  18:Drivers/GD32F30x_standard_peripheral/Source/gd32f30x_wwdgt.c ****        list of conditions and the following disclaimer.
  19:Drivers/GD32F30x_standard_peripheral/Source/gd32f30x_wwdgt.c ****     2. Redistributions in binary form must reproduce the above copyright notice, 
  20:Drivers/GD32F30x_standard_peripheral/Source/gd32f30x_wwdgt.c ****        this list of conditions and the following disclaimer in the documentation 
  21:Drivers/GD32F30x_standard_peripheral/Source/gd32f30x_wwdgt.c ****        and/or other materials provided with the distribution.
  22:Drivers/GD32F30x_standard_peripheral/Source/gd32f30x_wwdgt.c ****     3. Neither the name of the copyright holder nor the names of its contributors 
  23:Drivers/GD32F30x_standard_peripheral/Source/gd32f30x_wwdgt.c ****        may be used to endorse or promote products derived from this software without 
  24:Drivers/GD32F30x_standard_peripheral/Source/gd32f30x_wwdgt.c ****        specific prior written permission.
  25:Drivers/GD32F30x_standard_peripheral/Source/gd32f30x_wwdgt.c **** 
  26:Drivers/GD32F30x_standard_peripheral/Source/gd32f30x_wwdgt.c ****     THIS SOFTWARE IS PROVIDED BY THE COPYRIGHT HOLDERS AND CONTRIBUTORS "AS IS" 
  27:Drivers/GD32F30x_standard_peripheral/Source/gd32f30x_wwdgt.c **** AND ANY EXPRESS OR IMPLIED WARRANTIES, INCLUDING, BUT NOT LIMITED TO, THE IMPLIED 
  28:Drivers/GD32F30x_standard_peripheral/Source/gd32f30x_wwdgt.c **** WARRANTIES OF MERCHANTABILITY AND FITNESS FOR A PARTICULAR PURPOSE ARE DISCLAIMED. 
  29:Drivers/GD32F30x_standard_peripheral/Source/gd32f30x_wwdgt.c **** IN NO EVENT SHALL THE COPYRIGHT HOLDER OR CONTRIBUTORS BE LIABLE FOR ANY DIRECT, 
  30:Drivers/GD32F30x_standard_peripheral/Source/gd32f30x_wwdgt.c **** INDIRECT, INCIDENTAL, SPECIAL, EXEMPLARY, OR CONSEQUENTIAL DAMAGES (INCLUDING, BUT 
ARM GAS  C:\Users\Prog\AppData\Local\Temp\cc3LDjGp.s 			page 2


  31:Drivers/GD32F30x_standard_peripheral/Source/gd32f30x_wwdgt.c **** NOT LIMITED TO, PROCUREMENT OF SUBSTITUTE GOODS OR SERVICES; LOSS OF USE, DATA, OR 
  32:Drivers/GD32F30x_standard_peripheral/Source/gd32f30x_wwdgt.c **** PROFITS; OR BUSINESS INTERRUPTION) HOWEVER CAUSED AND ON ANY THEORY OF LIABILITY, 
  33:Drivers/GD32F30x_standard_peripheral/Source/gd32f30x_wwdgt.c **** WHETHER IN CONTRACT, STRICT LIABILITY, OR TORT (INCLUDING NEGLIGENCE OR OTHERWISE) 
  34:Drivers/GD32F30x_standard_peripheral/Source/gd32f30x_wwdgt.c **** ARISING IN ANY WAY OUT OF THE USE OF THIS SOFTWARE, EVEN IF ADVISED OF THE POSSIBILITY 
  35:Drivers/GD32F30x_standard_peripheral/Source/gd32f30x_wwdgt.c **** OF SUCH DAMAGE.
  36:Drivers/GD32F30x_standard_peripheral/Source/gd32f30x_wwdgt.c **** */
  37:Drivers/GD32F30x_standard_peripheral/Source/gd32f30x_wwdgt.c **** 
  38:Drivers/GD32F30x_standard_peripheral/Source/gd32f30x_wwdgt.c **** #include "gd32f30x_wwdgt.h"
  39:Drivers/GD32F30x_standard_peripheral/Source/gd32f30x_wwdgt.c **** 
  40:Drivers/GD32F30x_standard_peripheral/Source/gd32f30x_wwdgt.c **** /* write value to WWDGT_CTL_CNT bit field */
  41:Drivers/GD32F30x_standard_peripheral/Source/gd32f30x_wwdgt.c **** #define CTL_CNT(regval)             (BITS(0,6) & ((uint32_t)(regval) << 0))
  42:Drivers/GD32F30x_standard_peripheral/Source/gd32f30x_wwdgt.c **** /* write value to WWDGT_CFG_WIN bit field */
  43:Drivers/GD32F30x_standard_peripheral/Source/gd32f30x_wwdgt.c **** #define CFG_WIN(regval)             (BITS(0,6) & ((uint32_t)(regval) << 0))
  44:Drivers/GD32F30x_standard_peripheral/Source/gd32f30x_wwdgt.c **** 
  45:Drivers/GD32F30x_standard_peripheral/Source/gd32f30x_wwdgt.c **** /*!
  46:Drivers/GD32F30x_standard_peripheral/Source/gd32f30x_wwdgt.c ****     \brief      reset the window watchdog timer configuration
  47:Drivers/GD32F30x_standard_peripheral/Source/gd32f30x_wwdgt.c ****     \param[in]  none
  48:Drivers/GD32F30x_standard_peripheral/Source/gd32f30x_wwdgt.c ****     \param[out] none
  49:Drivers/GD32F30x_standard_peripheral/Source/gd32f30x_wwdgt.c ****     \retval     none
  50:Drivers/GD32F30x_standard_peripheral/Source/gd32f30x_wwdgt.c **** */
  51:Drivers/GD32F30x_standard_peripheral/Source/gd32f30x_wwdgt.c **** void wwdgt_deinit(void)
  52:Drivers/GD32F30x_standard_peripheral/Source/gd32f30x_wwdgt.c **** {
  29              		.loc 1 52 1 view -0
  30              		.cfi_startproc
  31              		@ args = 0, pretend = 0, frame = 0
  32              		@ frame_needed = 0, uses_anonymous_args = 0
  33 0000 08B5     		push	{r3, lr}
  34              	.LCFI0:
  35              		.cfi_def_cfa_offset 8
  36              		.cfi_offset 3, -8
  37              		.cfi_offset 14, -4
  53:Drivers/GD32F30x_standard_peripheral/Source/gd32f30x_wwdgt.c ****     rcu_periph_reset_enable(RCU_WWDGTRST);
  38              		.loc 1 53 5 view .LVU1
  39 0002 40F20B40 		movw	r0, #1035
  40 0006 FFF7FEFF 		bl	rcu_periph_reset_enable
  41              	.LVL0:
  54:Drivers/GD32F30x_standard_peripheral/Source/gd32f30x_wwdgt.c ****     rcu_periph_reset_disable(RCU_WWDGTRST);
  42              		.loc 1 54 5 view .LVU2
  43 000a 40F20B40 		movw	r0, #1035
  44 000e FFF7FEFF 		bl	rcu_periph_reset_disable
  45              	.LVL1:
  55:Drivers/GD32F30x_standard_peripheral/Source/gd32f30x_wwdgt.c **** }
  46              		.loc 1 55 1 is_stmt 0 view .LVU3
  47 0012 08BD     		pop	{r3, pc}
  48              		.cfi_endproc
  49              	.LFE116:
  51              		.section	.text.wwdgt_enable,"ax",%progbits
  52              		.align	1
  53              		.global	wwdgt_enable
  54              		.syntax unified
  55              		.thumb
  56              		.thumb_func
  57              		.fpu fpv4-sp-d16
  59              	wwdgt_enable:
  60              	.LFB117:
  56:Drivers/GD32F30x_standard_peripheral/Source/gd32f30x_wwdgt.c **** 
  57:Drivers/GD32F30x_standard_peripheral/Source/gd32f30x_wwdgt.c **** /*!
ARM GAS  C:\Users\Prog\AppData\Local\Temp\cc3LDjGp.s 			page 3


  58:Drivers/GD32F30x_standard_peripheral/Source/gd32f30x_wwdgt.c ****     \brief      start the window watchdog timer counter
  59:Drivers/GD32F30x_standard_peripheral/Source/gd32f30x_wwdgt.c ****     \param[in]  none
  60:Drivers/GD32F30x_standard_peripheral/Source/gd32f30x_wwdgt.c ****     \param[out] none
  61:Drivers/GD32F30x_standard_peripheral/Source/gd32f30x_wwdgt.c ****     \retval     none
  62:Drivers/GD32F30x_standard_peripheral/Source/gd32f30x_wwdgt.c **** */
  63:Drivers/GD32F30x_standard_peripheral/Source/gd32f30x_wwdgt.c **** void wwdgt_enable(void)
  64:Drivers/GD32F30x_standard_peripheral/Source/gd32f30x_wwdgt.c **** {
  61              		.loc 1 64 1 is_stmt 1 view -0
  62              		.cfi_startproc
  63              		@ args = 0, pretend = 0, frame = 0
  64              		@ frame_needed = 0, uses_anonymous_args = 0
  65              		@ link register save eliminated.
  65:Drivers/GD32F30x_standard_peripheral/Source/gd32f30x_wwdgt.c ****     WWDGT_CTL |= WWDGT_CTL_WDGTEN;
  66              		.loc 1 65 5 view .LVU5
  67              		.loc 1 65 15 is_stmt 0 view .LVU6
  68 0000 024A     		ldr	r2, .L4
  69 0002 1368     		ldr	r3, [r2]
  70 0004 43F08003 		orr	r3, r3, #128
  71 0008 1360     		str	r3, [r2]
  66:Drivers/GD32F30x_standard_peripheral/Source/gd32f30x_wwdgt.c **** }
  72              		.loc 1 66 1 view .LVU7
  73 000a 7047     		bx	lr
  74              	.L5:
  75              		.align	2
  76              	.L4:
  77 000c 002C0040 		.word	1073753088
  78              		.cfi_endproc
  79              	.LFE117:
  81              		.section	.text.wwdgt_counter_update,"ax",%progbits
  82              		.align	1
  83              		.global	wwdgt_counter_update
  84              		.syntax unified
  85              		.thumb
  86              		.thumb_func
  87              		.fpu fpv4-sp-d16
  89              	wwdgt_counter_update:
  90              	.LVL2:
  91              	.LFB118:
  67:Drivers/GD32F30x_standard_peripheral/Source/gd32f30x_wwdgt.c **** 
  68:Drivers/GD32F30x_standard_peripheral/Source/gd32f30x_wwdgt.c **** /*!
  69:Drivers/GD32F30x_standard_peripheral/Source/gd32f30x_wwdgt.c ****     \brief      configure the window watchdog timer counter value
  70:Drivers/GD32F30x_standard_peripheral/Source/gd32f30x_wwdgt.c ****     \param[in]  counter_value: 0x00 - 0x7F
  71:Drivers/GD32F30x_standard_peripheral/Source/gd32f30x_wwdgt.c ****     \param[out] none
  72:Drivers/GD32F30x_standard_peripheral/Source/gd32f30x_wwdgt.c ****     \retval     none
  73:Drivers/GD32F30x_standard_peripheral/Source/gd32f30x_wwdgt.c **** */
  74:Drivers/GD32F30x_standard_peripheral/Source/gd32f30x_wwdgt.c **** void wwdgt_counter_update(uint16_t counter_value)
  75:Drivers/GD32F30x_standard_peripheral/Source/gd32f30x_wwdgt.c **** {
  92              		.loc 1 75 1 is_stmt 1 view -0
  93              		.cfi_startproc
  94              		@ args = 0, pretend = 0, frame = 0
  95              		@ frame_needed = 0, uses_anonymous_args = 0
  96              		@ link register save eliminated.
  76:Drivers/GD32F30x_standard_peripheral/Source/gd32f30x_wwdgt.c ****     WWDGT_CTL = (uint32_t)(CTL_CNT(counter_value));
  97              		.loc 1 76 5 view .LVU9
  98              		.loc 1 76 17 is_stmt 0 view .LVU10
  99 0000 00F07F00 		and	r0, r0, #127
 100              	.LVL3:
ARM GAS  C:\Users\Prog\AppData\Local\Temp\cc3LDjGp.s 			page 4


 101              		.loc 1 76 15 view .LVU11
 102 0004 014B     		ldr	r3, .L7
 103 0006 1860     		str	r0, [r3]
  77:Drivers/GD32F30x_standard_peripheral/Source/gd32f30x_wwdgt.c **** }
 104              		.loc 1 77 1 view .LVU12
 105 0008 7047     		bx	lr
 106              	.L8:
 107 000a 00BF     		.align	2
 108              	.L7:
 109 000c 002C0040 		.word	1073753088
 110              		.cfi_endproc
 111              	.LFE118:
 113              		.section	.text.wwdgt_config,"ax",%progbits
 114              		.align	1
 115              		.global	wwdgt_config
 116              		.syntax unified
 117              		.thumb
 118              		.thumb_func
 119              		.fpu fpv4-sp-d16
 121              	wwdgt_config:
 122              	.LVL4:
 123              	.LFB119:
  78:Drivers/GD32F30x_standard_peripheral/Source/gd32f30x_wwdgt.c **** 
  79:Drivers/GD32F30x_standard_peripheral/Source/gd32f30x_wwdgt.c **** /*!
  80:Drivers/GD32F30x_standard_peripheral/Source/gd32f30x_wwdgt.c ****     \brief      configure counter value, window value, and prescaler divider value  
  81:Drivers/GD32F30x_standard_peripheral/Source/gd32f30x_wwdgt.c ****     \param[in]  counter: 0x00 - 0x7F   
  82:Drivers/GD32F30x_standard_peripheral/Source/gd32f30x_wwdgt.c ****     \param[in]  window: 0x00 - 0x7F
  83:Drivers/GD32F30x_standard_peripheral/Source/gd32f30x_wwdgt.c ****     \param[in]  prescaler: wwdgt prescaler value
  84:Drivers/GD32F30x_standard_peripheral/Source/gd32f30x_wwdgt.c ****                 only one parameter can be selected which is shown as below:
  85:Drivers/GD32F30x_standard_peripheral/Source/gd32f30x_wwdgt.c ****       \arg        WWDGT_CFG_PSC_DIV1: the time base of window watchdog counter = (PCLK1/4096)/1
  86:Drivers/GD32F30x_standard_peripheral/Source/gd32f30x_wwdgt.c ****       \arg        WWDGT_CFG_PSC_DIV2: the time base of window watchdog counter = (PCLK1/4096)/2
  87:Drivers/GD32F30x_standard_peripheral/Source/gd32f30x_wwdgt.c ****       \arg        WWDGT_CFG_PSC_DIV4: the time base of window watchdog counter = (PCLK1/4096)/4
  88:Drivers/GD32F30x_standard_peripheral/Source/gd32f30x_wwdgt.c ****       \arg        WWDGT_CFG_PSC_DIV8: the time base of window watchdog counter = (PCLK1/4096)/8
  89:Drivers/GD32F30x_standard_peripheral/Source/gd32f30x_wwdgt.c ****     \param[out] none
  90:Drivers/GD32F30x_standard_peripheral/Source/gd32f30x_wwdgt.c ****     \retval     none
  91:Drivers/GD32F30x_standard_peripheral/Source/gd32f30x_wwdgt.c **** */
  92:Drivers/GD32F30x_standard_peripheral/Source/gd32f30x_wwdgt.c **** void wwdgt_config(uint16_t counter, uint16_t window, uint32_t prescaler)
  93:Drivers/GD32F30x_standard_peripheral/Source/gd32f30x_wwdgt.c **** {
 124              		.loc 1 93 1 is_stmt 1 view -0
 125              		.cfi_startproc
 126              		@ args = 0, pretend = 0, frame = 0
 127              		@ frame_needed = 0, uses_anonymous_args = 0
 128              		@ link register save eliminated.
  94:Drivers/GD32F30x_standard_peripheral/Source/gd32f30x_wwdgt.c ****     WWDGT_CTL = (uint32_t)(CTL_CNT(counter));
 129              		.loc 1 94 5 view .LVU14
 130              		.loc 1 94 17 is_stmt 0 view .LVU15
 131 0000 00F07F00 		and	r0, r0, #127
 132              	.LVL5:
 133              		.loc 1 94 15 view .LVU16
 134 0004 034B     		ldr	r3, .L10
 135 0006 1860     		str	r0, [r3]
  95:Drivers/GD32F30x_standard_peripheral/Source/gd32f30x_wwdgt.c ****     WWDGT_CFG = (uint32_t)(CFG_WIN(window) | prescaler);
 136              		.loc 1 95 5 is_stmt 1 view .LVU17
 137              		.loc 1 95 28 is_stmt 0 view .LVU18
 138 0008 01F07F01 		and	r1, r1, #127
 139              	.LVL6:
 140              		.loc 1 95 17 view .LVU19
ARM GAS  C:\Users\Prog\AppData\Local\Temp\cc3LDjGp.s 			page 5


 141 000c 0A43     		orrs	r2, r2, r1
 142              	.LVL7:
 143              		.loc 1 95 15 view .LVU20
 144 000e 0433     		adds	r3, r3, #4
 145 0010 1A60     		str	r2, [r3]
  96:Drivers/GD32F30x_standard_peripheral/Source/gd32f30x_wwdgt.c **** }
 146              		.loc 1 96 1 view .LVU21
 147 0012 7047     		bx	lr
 148              	.L11:
 149              		.align	2
 150              	.L10:
 151 0014 002C0040 		.word	1073753088
 152              		.cfi_endproc
 153              	.LFE119:
 155              		.section	.text.wwdgt_interrupt_enable,"ax",%progbits
 156              		.align	1
 157              		.global	wwdgt_interrupt_enable
 158              		.syntax unified
 159              		.thumb
 160              		.thumb_func
 161              		.fpu fpv4-sp-d16
 163              	wwdgt_interrupt_enable:
 164              	.LFB120:
  97:Drivers/GD32F30x_standard_peripheral/Source/gd32f30x_wwdgt.c **** 
  98:Drivers/GD32F30x_standard_peripheral/Source/gd32f30x_wwdgt.c **** /*!
  99:Drivers/GD32F30x_standard_peripheral/Source/gd32f30x_wwdgt.c ****     \brief      enable early wakeup interrupt of WWDGT
 100:Drivers/GD32F30x_standard_peripheral/Source/gd32f30x_wwdgt.c ****     \param[in]  none
 101:Drivers/GD32F30x_standard_peripheral/Source/gd32f30x_wwdgt.c ****     \param[out] none
 102:Drivers/GD32F30x_standard_peripheral/Source/gd32f30x_wwdgt.c ****     \retval     none
 103:Drivers/GD32F30x_standard_peripheral/Source/gd32f30x_wwdgt.c **** */
 104:Drivers/GD32F30x_standard_peripheral/Source/gd32f30x_wwdgt.c **** void wwdgt_interrupt_enable(void)
 105:Drivers/GD32F30x_standard_peripheral/Source/gd32f30x_wwdgt.c **** {
 165              		.loc 1 105 1 is_stmt 1 view -0
 166              		.cfi_startproc
 167              		@ args = 0, pretend = 0, frame = 0
 168              		@ frame_needed = 0, uses_anonymous_args = 0
 169              		@ link register save eliminated.
 106:Drivers/GD32F30x_standard_peripheral/Source/gd32f30x_wwdgt.c ****     WWDGT_CFG |= WWDGT_CFG_EWIE;
 170              		.loc 1 106 5 view .LVU23
 171              		.loc 1 106 15 is_stmt 0 view .LVU24
 172 0000 024A     		ldr	r2, .L13
 173 0002 1368     		ldr	r3, [r2]
 174 0004 43F40073 		orr	r3, r3, #512
 175 0008 1360     		str	r3, [r2]
 107:Drivers/GD32F30x_standard_peripheral/Source/gd32f30x_wwdgt.c **** }
 176              		.loc 1 107 1 view .LVU25
 177 000a 7047     		bx	lr
 178              	.L14:
 179              		.align	2
 180              	.L13:
 181 000c 042C0040 		.word	1073753092
 182              		.cfi_endproc
 183              	.LFE120:
 185              		.section	.text.wwdgt_flag_get,"ax",%progbits
 186              		.align	1
 187              		.global	wwdgt_flag_get
 188              		.syntax unified
ARM GAS  C:\Users\Prog\AppData\Local\Temp\cc3LDjGp.s 			page 6


 189              		.thumb
 190              		.thumb_func
 191              		.fpu fpv4-sp-d16
 193              	wwdgt_flag_get:
 194              	.LFB121:
 108:Drivers/GD32F30x_standard_peripheral/Source/gd32f30x_wwdgt.c **** 
 109:Drivers/GD32F30x_standard_peripheral/Source/gd32f30x_wwdgt.c **** /*!
 110:Drivers/GD32F30x_standard_peripheral/Source/gd32f30x_wwdgt.c ****     \brief      check early wakeup interrupt state of WWDGT
 111:Drivers/GD32F30x_standard_peripheral/Source/gd32f30x_wwdgt.c ****     \param[in]  none
 112:Drivers/GD32F30x_standard_peripheral/Source/gd32f30x_wwdgt.c ****     \param[out] none
 113:Drivers/GD32F30x_standard_peripheral/Source/gd32f30x_wwdgt.c ****     \retval     FlagStatus: SET or RESET
 114:Drivers/GD32F30x_standard_peripheral/Source/gd32f30x_wwdgt.c **** */
 115:Drivers/GD32F30x_standard_peripheral/Source/gd32f30x_wwdgt.c **** FlagStatus wwdgt_flag_get(void)
 116:Drivers/GD32F30x_standard_peripheral/Source/gd32f30x_wwdgt.c **** {
 195              		.loc 1 116 1 is_stmt 1 view -0
 196              		.cfi_startproc
 197              		@ args = 0, pretend = 0, frame = 0
 198              		@ frame_needed = 0, uses_anonymous_args = 0
 199              		@ link register save eliminated.
 117:Drivers/GD32F30x_standard_peripheral/Source/gd32f30x_wwdgt.c ****     if(RESET != (WWDGT_STAT & WWDGT_STAT_EWIF)){
 200              		.loc 1 117 5 view .LVU27
 201              		.loc 1 117 18 is_stmt 0 view .LVU28
 202 0000 044B     		ldr	r3, .L18
 203 0002 1B68     		ldr	r3, [r3]
 204              		.loc 1 117 7 view .LVU29
 205 0004 13F0010F 		tst	r3, #1
 206 0008 01D1     		bne	.L17
 118:Drivers/GD32F30x_standard_peripheral/Source/gd32f30x_wwdgt.c ****         return SET;
 119:Drivers/GD32F30x_standard_peripheral/Source/gd32f30x_wwdgt.c ****     }
 120:Drivers/GD32F30x_standard_peripheral/Source/gd32f30x_wwdgt.c **** 
 121:Drivers/GD32F30x_standard_peripheral/Source/gd32f30x_wwdgt.c ****     return RESET;
 207              		.loc 1 121 12 view .LVU30
 208 000a 0020     		movs	r0, #0
 209 000c 7047     		bx	lr
 210              	.L17:
 118:Drivers/GD32F30x_standard_peripheral/Source/gd32f30x_wwdgt.c ****         return SET;
 211              		.loc 1 118 16 view .LVU31
 212 000e 0120     		movs	r0, #1
 122:Drivers/GD32F30x_standard_peripheral/Source/gd32f30x_wwdgt.c **** }
 213              		.loc 1 122 1 view .LVU32
 214 0010 7047     		bx	lr
 215              	.L19:
 216 0012 00BF     		.align	2
 217              	.L18:
 218 0014 082C0040 		.word	1073753096
 219              		.cfi_endproc
 220              	.LFE121:
 222              		.section	.text.wwdgt_flag_clear,"ax",%progbits
 223              		.align	1
 224              		.global	wwdgt_flag_clear
 225              		.syntax unified
 226              		.thumb
 227              		.thumb_func
 228              		.fpu fpv4-sp-d16
 230              	wwdgt_flag_clear:
 231              	.LFB122:
 123:Drivers/GD32F30x_standard_peripheral/Source/gd32f30x_wwdgt.c **** 
ARM GAS  C:\Users\Prog\AppData\Local\Temp\cc3LDjGp.s 			page 7


 124:Drivers/GD32F30x_standard_peripheral/Source/gd32f30x_wwdgt.c **** /*!
 125:Drivers/GD32F30x_standard_peripheral/Source/gd32f30x_wwdgt.c ****     \brief      clear early wakeup interrupt state of WWDGT
 126:Drivers/GD32F30x_standard_peripheral/Source/gd32f30x_wwdgt.c ****     \param[in]  none
 127:Drivers/GD32F30x_standard_peripheral/Source/gd32f30x_wwdgt.c ****     \param[out] none
 128:Drivers/GD32F30x_standard_peripheral/Source/gd32f30x_wwdgt.c ****     \retval     none
 129:Drivers/GD32F30x_standard_peripheral/Source/gd32f30x_wwdgt.c **** */
 130:Drivers/GD32F30x_standard_peripheral/Source/gd32f30x_wwdgt.c **** void wwdgt_flag_clear(void)
 131:Drivers/GD32F30x_standard_peripheral/Source/gd32f30x_wwdgt.c **** {
 232              		.loc 1 131 1 is_stmt 1 view -0
 233              		.cfi_startproc
 234              		@ args = 0, pretend = 0, frame = 0
 235              		@ frame_needed = 0, uses_anonymous_args = 0
 236              		@ link register save eliminated.
 132:Drivers/GD32F30x_standard_peripheral/Source/gd32f30x_wwdgt.c ****     WWDGT_STAT = (uint32_t)(RESET);
 237              		.loc 1 132 5 view .LVU34
 238              		.loc 1 132 16 is_stmt 0 view .LVU35
 239 0000 014B     		ldr	r3, .L21
 240 0002 0022     		movs	r2, #0
 241 0004 1A60     		str	r2, [r3]
 133:Drivers/GD32F30x_standard_peripheral/Source/gd32f30x_wwdgt.c **** }
 242              		.loc 1 133 1 view .LVU36
 243 0006 7047     		bx	lr
 244              	.L22:
 245              		.align	2
 246              	.L21:
 247 0008 082C0040 		.word	1073753096
 248              		.cfi_endproc
 249              	.LFE122:
 251              		.text
 252              	.Letext0:
 253              		.file 2 "d:\\embedded_gcc\\arm_gcc\\arm-none-eabi\\include\\machine\\_default_types.h"
 254              		.file 3 "d:\\embedded_gcc\\arm_gcc\\arm-none-eabi\\include\\sys\\_stdint.h"
 255              		.file 4 "Drivers/CMSIS/core_cm4.h"
 256              		.file 5 "Drivers/CMSIS/GD/GD32F30x/Include/system_gd32f30x.h"
 257              		.file 6 "Drivers/CMSIS/GD/GD32F30x/Include/gd32f30x.h"
 258              		.file 7 "Drivers/GD32F30x_standard_peripheral/Include/gd32f30x_rcu.h"
ARM GAS  C:\Users\Prog\AppData\Local\Temp\cc3LDjGp.s 			page 8

