ARM GAS  C:\Users\Prog\AppData\Local\Temp\ccbpZEwW.s 			page 1


   1              		.cpu cortex-m4
   2              		.eabi_attribute 27, 1
   3              		.eabi_attribute 28, 1
   4              		.eabi_attribute 20, 1
   5              		.eabi_attribute 21, 1
   6              		.eabi_attribute 23, 3
   7              		.eabi_attribute 24, 1
   8              		.eabi_attribute 25, 1
   9              		.eabi_attribute 26, 1
  10              		.eabi_attribute 30, 1
  11              		.eabi_attribute 34, 1
  12              		.eabi_attribute 18, 4
  13              		.file	"gd32f30x_exti.c"
  14              		.text
  15              	.Ltext0:
  16              		.cfi_sections	.debug_frame
  17              		.section	.text.exti_deinit,"ax",%progbits
  18              		.align	1
  19              		.global	exti_deinit
  20              		.arch armv7e-m
  21              		.syntax unified
  22              		.thumb
  23              		.thumb_func
  24              		.fpu fpv4-sp-d16
  26              	exti_deinit:
  27              	.LFB116:
  28              		.file 1 "Drivers/GD32F30x_standard_peripheral/Source/gd32f30x_exti.c"
   1:Drivers/GD32F30x_standard_peripheral/Source/gd32f30x_exti.c **** /*!
   2:Drivers/GD32F30x_standard_peripheral/Source/gd32f30x_exti.c ****     \file    gd32f30x_exti.c
   3:Drivers/GD32F30x_standard_peripheral/Source/gd32f30x_exti.c ****     \brief   EXTI driver
   4:Drivers/GD32F30x_standard_peripheral/Source/gd32f30x_exti.c **** 
   5:Drivers/GD32F30x_standard_peripheral/Source/gd32f30x_exti.c ****     \version 2017-02-10, V1.0.0, firmware for GD32F30x
   6:Drivers/GD32F30x_standard_peripheral/Source/gd32f30x_exti.c ****     \version 2018-10-10, V1.1.0, firmware for GD32F30x
   7:Drivers/GD32F30x_standard_peripheral/Source/gd32f30x_exti.c ****     \version 2018-12-25, V2.0.0, firmware for GD32F30x
   8:Drivers/GD32F30x_standard_peripheral/Source/gd32f30x_exti.c ****     \version 2020-09-30, V2.1.0, firmware for GD32F30x
   9:Drivers/GD32F30x_standard_peripheral/Source/gd32f30x_exti.c **** */
  10:Drivers/GD32F30x_standard_peripheral/Source/gd32f30x_exti.c **** 
  11:Drivers/GD32F30x_standard_peripheral/Source/gd32f30x_exti.c **** /*
  12:Drivers/GD32F30x_standard_peripheral/Source/gd32f30x_exti.c ****     Copyright (c) 2020, GigaDevice Semiconductor Inc.
  13:Drivers/GD32F30x_standard_peripheral/Source/gd32f30x_exti.c **** 
  14:Drivers/GD32F30x_standard_peripheral/Source/gd32f30x_exti.c ****     Redistribution and use in source and binary forms, with or without modification, 
  15:Drivers/GD32F30x_standard_peripheral/Source/gd32f30x_exti.c **** are permitted provided that the following conditions are met:
  16:Drivers/GD32F30x_standard_peripheral/Source/gd32f30x_exti.c **** 
  17:Drivers/GD32F30x_standard_peripheral/Source/gd32f30x_exti.c ****     1. Redistributions of source code must retain the above copyright notice, this 
  18:Drivers/GD32F30x_standard_peripheral/Source/gd32f30x_exti.c ****        list of conditions and the following disclaimer.
  19:Drivers/GD32F30x_standard_peripheral/Source/gd32f30x_exti.c ****     2. Redistributions in binary form must reproduce the above copyright notice, 
  20:Drivers/GD32F30x_standard_peripheral/Source/gd32f30x_exti.c ****        this list of conditions and the following disclaimer in the documentation 
  21:Drivers/GD32F30x_standard_peripheral/Source/gd32f30x_exti.c ****        and/or other materials provided with the distribution.
  22:Drivers/GD32F30x_standard_peripheral/Source/gd32f30x_exti.c ****     3. Neither the name of the copyright holder nor the names of its contributors 
  23:Drivers/GD32F30x_standard_peripheral/Source/gd32f30x_exti.c ****        may be used to endorse or promote products derived from this software without 
  24:Drivers/GD32F30x_standard_peripheral/Source/gd32f30x_exti.c ****        specific prior written permission.
  25:Drivers/GD32F30x_standard_peripheral/Source/gd32f30x_exti.c **** 
  26:Drivers/GD32F30x_standard_peripheral/Source/gd32f30x_exti.c ****     THIS SOFTWARE IS PROVIDED BY THE COPYRIGHT HOLDERS AND CONTRIBUTORS "AS IS" 
  27:Drivers/GD32F30x_standard_peripheral/Source/gd32f30x_exti.c **** AND ANY EXPRESS OR IMPLIED WARRANTIES, INCLUDING, BUT NOT LIMITED TO, THE IMPLIED 
  28:Drivers/GD32F30x_standard_peripheral/Source/gd32f30x_exti.c **** WARRANTIES OF MERCHANTABILITY AND FITNESS FOR A PARTICULAR PURPOSE ARE DISCLAIMED. 
  29:Drivers/GD32F30x_standard_peripheral/Source/gd32f30x_exti.c **** IN NO EVENT SHALL THE COPYRIGHT HOLDER OR CONTRIBUTORS BE LIABLE FOR ANY DIRECT, 
  30:Drivers/GD32F30x_standard_peripheral/Source/gd32f30x_exti.c **** INDIRECT, INCIDENTAL, SPECIAL, EXEMPLARY, OR CONSEQUENTIAL DAMAGES (INCLUDING, BUT 
ARM GAS  C:\Users\Prog\AppData\Local\Temp\ccbpZEwW.s 			page 2


  31:Drivers/GD32F30x_standard_peripheral/Source/gd32f30x_exti.c **** NOT LIMITED TO, PROCUREMENT OF SUBSTITUTE GOODS OR SERVICES; LOSS OF USE, DATA, OR 
  32:Drivers/GD32F30x_standard_peripheral/Source/gd32f30x_exti.c **** PROFITS; OR BUSINESS INTERRUPTION) HOWEVER CAUSED AND ON ANY THEORY OF LIABILITY, 
  33:Drivers/GD32F30x_standard_peripheral/Source/gd32f30x_exti.c **** WHETHER IN CONTRACT, STRICT LIABILITY, OR TORT (INCLUDING NEGLIGENCE OR OTHERWISE) 
  34:Drivers/GD32F30x_standard_peripheral/Source/gd32f30x_exti.c **** ARISING IN ANY WAY OUT OF THE USE OF THIS SOFTWARE, EVEN IF ADVISED OF THE POSSIBILITY 
  35:Drivers/GD32F30x_standard_peripheral/Source/gd32f30x_exti.c **** OF SUCH DAMAGE.
  36:Drivers/GD32F30x_standard_peripheral/Source/gd32f30x_exti.c **** */
  37:Drivers/GD32F30x_standard_peripheral/Source/gd32f30x_exti.c **** 
  38:Drivers/GD32F30x_standard_peripheral/Source/gd32f30x_exti.c **** #include "gd32f30x_exti.h"
  39:Drivers/GD32F30x_standard_peripheral/Source/gd32f30x_exti.c **** 
  40:Drivers/GD32F30x_standard_peripheral/Source/gd32f30x_exti.c **** /*!
  41:Drivers/GD32F30x_standard_peripheral/Source/gd32f30x_exti.c ****     \brief      deinitialize the EXTI
  42:Drivers/GD32F30x_standard_peripheral/Source/gd32f30x_exti.c ****     \param[in]  none
  43:Drivers/GD32F30x_standard_peripheral/Source/gd32f30x_exti.c ****     \param[out] none
  44:Drivers/GD32F30x_standard_peripheral/Source/gd32f30x_exti.c ****     \retval     none
  45:Drivers/GD32F30x_standard_peripheral/Source/gd32f30x_exti.c **** */
  46:Drivers/GD32F30x_standard_peripheral/Source/gd32f30x_exti.c **** void exti_deinit(void)
  47:Drivers/GD32F30x_standard_peripheral/Source/gd32f30x_exti.c **** {
  29              		.loc 1 47 1 view -0
  30              		.cfi_startproc
  31              		@ args = 0, pretend = 0, frame = 0
  32              		@ frame_needed = 0, uses_anonymous_args = 0
  33              		@ link register save eliminated.
  48:Drivers/GD32F30x_standard_peripheral/Source/gd32f30x_exti.c ****     /* reset the value of all the EXTI registers */
  49:Drivers/GD32F30x_standard_peripheral/Source/gd32f30x_exti.c ****     EXTI_INTEN = (uint32_t)0x00000000U;
  34              		.loc 1 49 5 view .LVU1
  35              		.loc 1 49 16 is_stmt 0 view .LVU2
  36 0000 064B     		ldr	r3, .L2
  37 0002 0022     		movs	r2, #0
  38 0004 C3F80024 		str	r2, [r3, #1024]
  50:Drivers/GD32F30x_standard_peripheral/Source/gd32f30x_exti.c ****     EXTI_EVEN  = (uint32_t)0x00000000U;
  39              		.loc 1 50 5 is_stmt 1 view .LVU3
  40              		.loc 1 50 16 is_stmt 0 view .LVU4
  41 0008 C3F80424 		str	r2, [r3, #1028]
  51:Drivers/GD32F30x_standard_peripheral/Source/gd32f30x_exti.c ****     EXTI_RTEN  = (uint32_t)0x00000000U;
  42              		.loc 1 51 5 is_stmt 1 view .LVU5
  43              		.loc 1 51 16 is_stmt 0 view .LVU6
  44 000c C3F80824 		str	r2, [r3, #1032]
  52:Drivers/GD32F30x_standard_peripheral/Source/gd32f30x_exti.c ****     EXTI_FTEN  = (uint32_t)0x00000000U;
  45              		.loc 1 52 5 is_stmt 1 view .LVU7
  46              		.loc 1 52 16 is_stmt 0 view .LVU8
  47 0010 C3F80C24 		str	r2, [r3, #1036]
  53:Drivers/GD32F30x_standard_peripheral/Source/gd32f30x_exti.c ****     EXTI_SWIEV = (uint32_t)0x00000000U;
  48              		.loc 1 53 5 is_stmt 1 view .LVU9
  49              		.loc 1 53 16 is_stmt 0 view .LVU10
  50 0014 C3F81024 		str	r2, [r3, #1040]
  54:Drivers/GD32F30x_standard_peripheral/Source/gd32f30x_exti.c **** }
  51              		.loc 1 54 1 view .LVU11
  52 0018 7047     		bx	lr
  53              	.L3:
  54 001a 00BF     		.align	2
  55              	.L2:
  56 001c 00000140 		.word	1073807360
  57              		.cfi_endproc
  58              	.LFE116:
  60              		.section	.text.exti_init,"ax",%progbits
  61              		.align	1
  62              		.global	exti_init
ARM GAS  C:\Users\Prog\AppData\Local\Temp\ccbpZEwW.s 			page 3


  63              		.syntax unified
  64              		.thumb
  65              		.thumb_func
  66              		.fpu fpv4-sp-d16
  68              	exti_init:
  69              	.LVL0:
  70              	.LFB117:
  55:Drivers/GD32F30x_standard_peripheral/Source/gd32f30x_exti.c **** 
  56:Drivers/GD32F30x_standard_peripheral/Source/gd32f30x_exti.c **** /*!
  57:Drivers/GD32F30x_standard_peripheral/Source/gd32f30x_exti.c ****     \brief      initialize the EXTI
  58:Drivers/GD32F30x_standard_peripheral/Source/gd32f30x_exti.c ****     \param[in]  linex: EXTI line number, refer to exti_line_enum
  59:Drivers/GD32F30x_standard_peripheral/Source/gd32f30x_exti.c ****                 only one parameter can be selected which is shown as below:
  60:Drivers/GD32F30x_standard_peripheral/Source/gd32f30x_exti.c ****       \arg        EXTI_x (x=0..19): EXTI line x
  61:Drivers/GD32F30x_standard_peripheral/Source/gd32f30x_exti.c ****     \param[in]  mode: interrupt or event mode, refer to exti_mode_enum
  62:Drivers/GD32F30x_standard_peripheral/Source/gd32f30x_exti.c ****                 only one parameter can be selected which is shown as below:
  63:Drivers/GD32F30x_standard_peripheral/Source/gd32f30x_exti.c ****       \arg        EXTI_INTERRUPT: interrupt mode
  64:Drivers/GD32F30x_standard_peripheral/Source/gd32f30x_exti.c ****       \arg        EXTI_EVENT: event mode
  65:Drivers/GD32F30x_standard_peripheral/Source/gd32f30x_exti.c ****     \param[in]  trig_type: interrupt trigger type, refer to exti_trig_type_enum
  66:Drivers/GD32F30x_standard_peripheral/Source/gd32f30x_exti.c ****                 only one parameter can be selected which is shown as below:
  67:Drivers/GD32F30x_standard_peripheral/Source/gd32f30x_exti.c ****       \arg        EXTI_TRIG_RISING: rising edge trigger
  68:Drivers/GD32F30x_standard_peripheral/Source/gd32f30x_exti.c ****       \arg        EXTI_TRIG_FALLING: falling trigger
  69:Drivers/GD32F30x_standard_peripheral/Source/gd32f30x_exti.c ****       \arg        EXTI_TRIG_BOTH: rising and falling trigger
  70:Drivers/GD32F30x_standard_peripheral/Source/gd32f30x_exti.c ****     \param[out] none
  71:Drivers/GD32F30x_standard_peripheral/Source/gd32f30x_exti.c ****     \retval     none
  72:Drivers/GD32F30x_standard_peripheral/Source/gd32f30x_exti.c **** */
  73:Drivers/GD32F30x_standard_peripheral/Source/gd32f30x_exti.c **** void exti_init(exti_line_enum linex, exti_mode_enum mode, exti_trig_type_enum trig_type)
  74:Drivers/GD32F30x_standard_peripheral/Source/gd32f30x_exti.c **** {
  71              		.loc 1 74 1 is_stmt 1 view -0
  72              		.cfi_startproc
  73              		@ args = 0, pretend = 0, frame = 0
  74              		@ frame_needed = 0, uses_anonymous_args = 0
  75              		@ link register save eliminated.
  76              		.loc 1 74 1 is_stmt 0 view .LVU13
  77 0000 10B4     		push	{r4}
  78              	.LCFI0:
  79              		.cfi_def_cfa_offset 4
  80              		.cfi_offset 4, -4
  75:Drivers/GD32F30x_standard_peripheral/Source/gd32f30x_exti.c ****     /* reset the EXTI line x */
  76:Drivers/GD32F30x_standard_peripheral/Source/gd32f30x_exti.c ****     EXTI_INTEN &= ~(uint32_t)linex;
  81              		.loc 1 76 5 is_stmt 1 view .LVU14
  82              		.loc 1 76 16 is_stmt 0 view .LVU15
  83 0002 2D4B     		ldr	r3, .L13
  84 0004 D3F80044 		ldr	r4, [r3, #1024]
  85              		.loc 1 76 19 view .LVU16
  86 0008 6FEA000C 		mvn	ip, r0
  87              		.loc 1 76 16 view .LVU17
  88 000c 24EA0004 		bic	r4, r4, r0
  89 0010 C3F80044 		str	r4, [r3, #1024]
  77:Drivers/GD32F30x_standard_peripheral/Source/gd32f30x_exti.c ****     EXTI_EVEN &= ~(uint32_t)linex;
  90              		.loc 1 77 5 is_stmt 1 view .LVU18
  91              		.loc 1 77 15 is_stmt 0 view .LVU19
  92 0014 D3F80444 		ldr	r4, [r3, #1028]
  93 0018 24EA0004 		bic	r4, r4, r0
  94 001c C3F80444 		str	r4, [r3, #1028]
  78:Drivers/GD32F30x_standard_peripheral/Source/gd32f30x_exti.c ****     EXTI_RTEN &= ~(uint32_t)linex;
  95              		.loc 1 78 5 is_stmt 1 view .LVU20
  96              		.loc 1 78 15 is_stmt 0 view .LVU21
ARM GAS  C:\Users\Prog\AppData\Local\Temp\ccbpZEwW.s 			page 4


  97 0020 D3F80844 		ldr	r4, [r3, #1032]
  98 0024 24EA0004 		bic	r4, r4, r0
  99 0028 C3F80844 		str	r4, [r3, #1032]
  79:Drivers/GD32F30x_standard_peripheral/Source/gd32f30x_exti.c ****     EXTI_FTEN &= ~(uint32_t)linex;
 100              		.loc 1 79 5 is_stmt 1 view .LVU22
 101              		.loc 1 79 15 is_stmt 0 view .LVU23
 102 002c D3F80C44 		ldr	r4, [r3, #1036]
 103 0030 24EA0004 		bic	r4, r4, r0
 104 0034 C3F80C44 		str	r4, [r3, #1036]
  80:Drivers/GD32F30x_standard_peripheral/Source/gd32f30x_exti.c ****     
  81:Drivers/GD32F30x_standard_peripheral/Source/gd32f30x_exti.c ****     /* set the EXTI mode and enable the interrupts or events from EXTI line x */
  82:Drivers/GD32F30x_standard_peripheral/Source/gd32f30x_exti.c ****     switch(mode){
 105              		.loc 1 82 5 is_stmt 1 view .LVU24
 106 0038 49B1     		cbz	r1, .L5
 107 003a 0129     		cmp	r1, #1
 108 003c 0ED0     		beq	.L6
 109              	.LVL1:
 110              	.L7:
  83:Drivers/GD32F30x_standard_peripheral/Source/gd32f30x_exti.c ****     case EXTI_INTERRUPT:
  84:Drivers/GD32F30x_standard_peripheral/Source/gd32f30x_exti.c ****         EXTI_INTEN |= (uint32_t)linex;
  85:Drivers/GD32F30x_standard_peripheral/Source/gd32f30x_exti.c ****         break;
  86:Drivers/GD32F30x_standard_peripheral/Source/gd32f30x_exti.c ****     case EXTI_EVENT:
  87:Drivers/GD32F30x_standard_peripheral/Source/gd32f30x_exti.c ****         EXTI_EVEN |= (uint32_t)linex;
  88:Drivers/GD32F30x_standard_peripheral/Source/gd32f30x_exti.c ****         break;
  89:Drivers/GD32F30x_standard_peripheral/Source/gd32f30x_exti.c ****     default:
  90:Drivers/GD32F30x_standard_peripheral/Source/gd32f30x_exti.c ****         break;
  91:Drivers/GD32F30x_standard_peripheral/Source/gd32f30x_exti.c ****     }
  92:Drivers/GD32F30x_standard_peripheral/Source/gd32f30x_exti.c ****     
  93:Drivers/GD32F30x_standard_peripheral/Source/gd32f30x_exti.c ****     /* set the EXTI trigger type */
  94:Drivers/GD32F30x_standard_peripheral/Source/gd32f30x_exti.c ****     switch(trig_type){
 111              		.loc 1 94 5 view .LVU25
 112 003e 012A     		cmp	r2, #1
 113 0040 20D0     		beq	.L8
 114 0042 022A     		cmp	r2, #2
 115 0044 2BD0     		beq	.L9
 116 0046 82B1     		cbz	r2, .L12
 117              	.LVL2:
 118              	.L4:
  95:Drivers/GD32F30x_standard_peripheral/Source/gd32f30x_exti.c ****     case EXTI_TRIG_RISING:
  96:Drivers/GD32F30x_standard_peripheral/Source/gd32f30x_exti.c ****         EXTI_RTEN |= (uint32_t)linex;
  97:Drivers/GD32F30x_standard_peripheral/Source/gd32f30x_exti.c ****         EXTI_FTEN &= ~(uint32_t)linex;
  98:Drivers/GD32F30x_standard_peripheral/Source/gd32f30x_exti.c ****         break;
  99:Drivers/GD32F30x_standard_peripheral/Source/gd32f30x_exti.c ****     case EXTI_TRIG_FALLING:
 100:Drivers/GD32F30x_standard_peripheral/Source/gd32f30x_exti.c ****         EXTI_RTEN &= ~(uint32_t)linex;
 101:Drivers/GD32F30x_standard_peripheral/Source/gd32f30x_exti.c ****         EXTI_FTEN |= (uint32_t)linex;
 102:Drivers/GD32F30x_standard_peripheral/Source/gd32f30x_exti.c ****         break;
 103:Drivers/GD32F30x_standard_peripheral/Source/gd32f30x_exti.c ****     case EXTI_TRIG_BOTH:
 104:Drivers/GD32F30x_standard_peripheral/Source/gd32f30x_exti.c ****         EXTI_RTEN |= (uint32_t)linex;
 105:Drivers/GD32F30x_standard_peripheral/Source/gd32f30x_exti.c ****         EXTI_FTEN |= (uint32_t)linex;
 106:Drivers/GD32F30x_standard_peripheral/Source/gd32f30x_exti.c ****         break;
 107:Drivers/GD32F30x_standard_peripheral/Source/gd32f30x_exti.c ****     default:
 108:Drivers/GD32F30x_standard_peripheral/Source/gd32f30x_exti.c ****         break;
 109:Drivers/GD32F30x_standard_peripheral/Source/gd32f30x_exti.c ****     }
 110:Drivers/GD32F30x_standard_peripheral/Source/gd32f30x_exti.c **** }
 119              		.loc 1 110 1 is_stmt 0 view .LVU26
 120 0048 5DF8044B 		ldr	r4, [sp], #4
 121              	.LCFI1:
ARM GAS  C:\Users\Prog\AppData\Local\Temp\ccbpZEwW.s 			page 5


 122              		.cfi_remember_state
 123              		.cfi_restore 4
 124              		.cfi_def_cfa_offset 0
 125 004c 7047     		bx	lr
 126              	.LVL3:
 127              	.L5:
 128              	.LCFI2:
 129              		.cfi_restore_state
  84:Drivers/GD32F30x_standard_peripheral/Source/gd32f30x_exti.c ****         break;
 130              		.loc 1 84 9 is_stmt 1 view .LVU27
  84:Drivers/GD32F30x_standard_peripheral/Source/gd32f30x_exti.c ****         break;
 131              		.loc 1 84 20 is_stmt 0 view .LVU28
 132 004e 1A49     		ldr	r1, .L13
 133              	.LVL4:
  84:Drivers/GD32F30x_standard_peripheral/Source/gd32f30x_exti.c ****         break;
 134              		.loc 1 84 20 view .LVU29
 135 0050 D1F80034 		ldr	r3, [r1, #1024]
 136 0054 0343     		orrs	r3, r3, r0
 137 0056 C1F80034 		str	r3, [r1, #1024]
  85:Drivers/GD32F30x_standard_peripheral/Source/gd32f30x_exti.c ****     case EXTI_EVENT:
 138              		.loc 1 85 9 is_stmt 1 view .LVU30
 139 005a F0E7     		b	.L7
 140              	.LVL5:
 141              	.L6:
  87:Drivers/GD32F30x_standard_peripheral/Source/gd32f30x_exti.c ****         break;
 142              		.loc 1 87 9 view .LVU31
  87:Drivers/GD32F30x_standard_peripheral/Source/gd32f30x_exti.c ****         break;
 143              		.loc 1 87 19 is_stmt 0 view .LVU32
 144 005c 1649     		ldr	r1, .L13
 145              	.LVL6:
  87:Drivers/GD32F30x_standard_peripheral/Source/gd32f30x_exti.c ****         break;
 146              		.loc 1 87 19 view .LVU33
 147 005e D1F80434 		ldr	r3, [r1, #1028]
 148 0062 0343     		orrs	r3, r3, r0
 149 0064 C1F80434 		str	r3, [r1, #1028]
  88:Drivers/GD32F30x_standard_peripheral/Source/gd32f30x_exti.c ****     default:
 150              		.loc 1 88 9 is_stmt 1 view .LVU34
 151 0068 E9E7     		b	.L7
 152              	.L12:
  96:Drivers/GD32F30x_standard_peripheral/Source/gd32f30x_exti.c ****         EXTI_FTEN &= ~(uint32_t)linex;
 153              		.loc 1 96 9 view .LVU35
  96:Drivers/GD32F30x_standard_peripheral/Source/gd32f30x_exti.c ****         EXTI_FTEN &= ~(uint32_t)linex;
 154              		.loc 1 96 19 is_stmt 0 view .LVU36
 155 006a 134B     		ldr	r3, .L13
 156 006c D3F80824 		ldr	r2, [r3, #1032]
 157              	.LVL7:
  96:Drivers/GD32F30x_standard_peripheral/Source/gd32f30x_exti.c ****         EXTI_FTEN &= ~(uint32_t)linex;
 158              		.loc 1 96 19 view .LVU37
 159 0070 1043     		orrs	r0, r0, r2
 160              	.LVL8:
  96:Drivers/GD32F30x_standard_peripheral/Source/gd32f30x_exti.c ****         EXTI_FTEN &= ~(uint32_t)linex;
 161              		.loc 1 96 19 view .LVU38
 162 0072 C3F80804 		str	r0, [r3, #1032]
  97:Drivers/GD32F30x_standard_peripheral/Source/gd32f30x_exti.c ****         break;
 163              		.loc 1 97 9 is_stmt 1 view .LVU39
  97:Drivers/GD32F30x_standard_peripheral/Source/gd32f30x_exti.c ****         break;
 164              		.loc 1 97 19 is_stmt 0 view .LVU40
ARM GAS  C:\Users\Prog\AppData\Local\Temp\ccbpZEwW.s 			page 6


 165 0076 D3F80C24 		ldr	r2, [r3, #1036]
 166 007a 0CEA0202 		and	r2, ip, r2
 167 007e C3F80C24 		str	r2, [r3, #1036]
  98:Drivers/GD32F30x_standard_peripheral/Source/gd32f30x_exti.c ****     case EXTI_TRIG_FALLING:
 168              		.loc 1 98 9 is_stmt 1 view .LVU41
 169 0082 E1E7     		b	.L4
 170              	.LVL9:
 171              	.L8:
 100:Drivers/GD32F30x_standard_peripheral/Source/gd32f30x_exti.c ****         EXTI_FTEN |= (uint32_t)linex;
 172              		.loc 1 100 9 view .LVU42
 100:Drivers/GD32F30x_standard_peripheral/Source/gd32f30x_exti.c ****         EXTI_FTEN |= (uint32_t)linex;
 173              		.loc 1 100 19 is_stmt 0 view .LVU43
 174 0084 0C4A     		ldr	r2, .L13
 175              	.LVL10:
 100:Drivers/GD32F30x_standard_peripheral/Source/gd32f30x_exti.c ****         EXTI_FTEN |= (uint32_t)linex;
 176              		.loc 1 100 19 view .LVU44
 177 0086 D2F80834 		ldr	r3, [r2, #1032]
 178 008a 0CEA0303 		and	r3, ip, r3
 179 008e C2F80834 		str	r3, [r2, #1032]
 101:Drivers/GD32F30x_standard_peripheral/Source/gd32f30x_exti.c ****         break;
 180              		.loc 1 101 9 is_stmt 1 view .LVU45
 101:Drivers/GD32F30x_standard_peripheral/Source/gd32f30x_exti.c ****         break;
 181              		.loc 1 101 19 is_stmt 0 view .LVU46
 182 0092 D2F80C34 		ldr	r3, [r2, #1036]
 183 0096 1843     		orrs	r0, r0, r3
 184              	.LVL11:
 101:Drivers/GD32F30x_standard_peripheral/Source/gd32f30x_exti.c ****         break;
 185              		.loc 1 101 19 view .LVU47
 186 0098 C2F80C04 		str	r0, [r2, #1036]
 102:Drivers/GD32F30x_standard_peripheral/Source/gd32f30x_exti.c ****     case EXTI_TRIG_BOTH:
 187              		.loc 1 102 9 is_stmt 1 view .LVU48
 188 009c D4E7     		b	.L4
 189              	.LVL12:
 190              	.L9:
 104:Drivers/GD32F30x_standard_peripheral/Source/gd32f30x_exti.c ****         EXTI_FTEN |= (uint32_t)linex;
 191              		.loc 1 104 9 view .LVU49
 104:Drivers/GD32F30x_standard_peripheral/Source/gd32f30x_exti.c ****         EXTI_FTEN |= (uint32_t)linex;
 192              		.loc 1 104 19 is_stmt 0 view .LVU50
 193 009e 064B     		ldr	r3, .L13
 194 00a0 D3F80824 		ldr	r2, [r3, #1032]
 195              	.LVL13:
 104:Drivers/GD32F30x_standard_peripheral/Source/gd32f30x_exti.c ****         EXTI_FTEN |= (uint32_t)linex;
 196              		.loc 1 104 19 view .LVU51
 197 00a4 0243     		orrs	r2, r2, r0
 198 00a6 C3F80824 		str	r2, [r3, #1032]
 105:Drivers/GD32F30x_standard_peripheral/Source/gd32f30x_exti.c ****         break;
 199              		.loc 1 105 9 is_stmt 1 view .LVU52
 105:Drivers/GD32F30x_standard_peripheral/Source/gd32f30x_exti.c ****         break;
 200              		.loc 1 105 19 is_stmt 0 view .LVU53
 201 00aa D3F80C24 		ldr	r2, [r3, #1036]
 202 00ae 1043     		orrs	r0, r0, r2
 203              	.LVL14:
 105:Drivers/GD32F30x_standard_peripheral/Source/gd32f30x_exti.c ****         break;
 204              		.loc 1 105 19 view .LVU54
 205 00b0 C3F80C04 		str	r0, [r3, #1036]
 106:Drivers/GD32F30x_standard_peripheral/Source/gd32f30x_exti.c ****     default:
 206              		.loc 1 106 9 is_stmt 1 view .LVU55
ARM GAS  C:\Users\Prog\AppData\Local\Temp\ccbpZEwW.s 			page 7


 207              		.loc 1 110 1 is_stmt 0 view .LVU56
 208 00b4 C8E7     		b	.L4
 209              	.L14:
 210 00b6 00BF     		.align	2
 211              	.L13:
 212 00b8 00000140 		.word	1073807360
 213              		.cfi_endproc
 214              	.LFE117:
 216              		.section	.text.exti_interrupt_enable,"ax",%progbits
 217              		.align	1
 218              		.global	exti_interrupt_enable
 219              		.syntax unified
 220              		.thumb
 221              		.thumb_func
 222              		.fpu fpv4-sp-d16
 224              	exti_interrupt_enable:
 225              	.LVL15:
 226              	.LFB118:
 111:Drivers/GD32F30x_standard_peripheral/Source/gd32f30x_exti.c **** 
 112:Drivers/GD32F30x_standard_peripheral/Source/gd32f30x_exti.c **** /*!
 113:Drivers/GD32F30x_standard_peripheral/Source/gd32f30x_exti.c ****     \brief      enable the interrupts from EXTI line x
 114:Drivers/GD32F30x_standard_peripheral/Source/gd32f30x_exti.c ****     \param[in]  linex: EXTI line number, refer to exti_line_enum
 115:Drivers/GD32F30x_standard_peripheral/Source/gd32f30x_exti.c ****                 only one parameter can be selected which is shown as below:
 116:Drivers/GD32F30x_standard_peripheral/Source/gd32f30x_exti.c ****       \arg        EXTI_x (x=0..19): EXTI line x
 117:Drivers/GD32F30x_standard_peripheral/Source/gd32f30x_exti.c ****     \param[out] none
 118:Drivers/GD32F30x_standard_peripheral/Source/gd32f30x_exti.c ****     \retval     none
 119:Drivers/GD32F30x_standard_peripheral/Source/gd32f30x_exti.c **** */
 120:Drivers/GD32F30x_standard_peripheral/Source/gd32f30x_exti.c **** void exti_interrupt_enable(exti_line_enum linex)
 121:Drivers/GD32F30x_standard_peripheral/Source/gd32f30x_exti.c **** {
 227              		.loc 1 121 1 is_stmt 1 view -0
 228              		.cfi_startproc
 229              		@ args = 0, pretend = 0, frame = 0
 230              		@ frame_needed = 0, uses_anonymous_args = 0
 231              		@ link register save eliminated.
 122:Drivers/GD32F30x_standard_peripheral/Source/gd32f30x_exti.c ****     EXTI_INTEN |= (uint32_t)linex;
 232              		.loc 1 122 5 view .LVU58
 233              		.loc 1 122 16 is_stmt 0 view .LVU59
 234 0000 034A     		ldr	r2, .L16
 235 0002 D2F80034 		ldr	r3, [r2, #1024]
 236 0006 0343     		orrs	r3, r3, r0
 237 0008 C2F80034 		str	r3, [r2, #1024]
 123:Drivers/GD32F30x_standard_peripheral/Source/gd32f30x_exti.c **** }
 238              		.loc 1 123 1 view .LVU60
 239 000c 7047     		bx	lr
 240              	.L17:
 241 000e 00BF     		.align	2
 242              	.L16:
 243 0010 00000140 		.word	1073807360
 244              		.cfi_endproc
 245              	.LFE118:
 247              		.section	.text.exti_event_enable,"ax",%progbits
 248              		.align	1
 249              		.global	exti_event_enable
 250              		.syntax unified
 251              		.thumb
 252              		.thumb_func
 253              		.fpu fpv4-sp-d16
ARM GAS  C:\Users\Prog\AppData\Local\Temp\ccbpZEwW.s 			page 8


 255              	exti_event_enable:
 256              	.LVL16:
 257              	.LFB119:
 124:Drivers/GD32F30x_standard_peripheral/Source/gd32f30x_exti.c **** 
 125:Drivers/GD32F30x_standard_peripheral/Source/gd32f30x_exti.c **** /*!
 126:Drivers/GD32F30x_standard_peripheral/Source/gd32f30x_exti.c ****     \brief      enable the events from EXTI line x
 127:Drivers/GD32F30x_standard_peripheral/Source/gd32f30x_exti.c ****     \param[in]  linex: EXTI line number, refer to exti_line_enum
 128:Drivers/GD32F30x_standard_peripheral/Source/gd32f30x_exti.c ****                 only one parameter can be selected which is shown as below:
 129:Drivers/GD32F30x_standard_peripheral/Source/gd32f30x_exti.c ****       \arg        EXTI_x (x=0..19): EXTI line x
 130:Drivers/GD32F30x_standard_peripheral/Source/gd32f30x_exti.c ****     \param[out] none
 131:Drivers/GD32F30x_standard_peripheral/Source/gd32f30x_exti.c ****     \retval     none
 132:Drivers/GD32F30x_standard_peripheral/Source/gd32f30x_exti.c **** */
 133:Drivers/GD32F30x_standard_peripheral/Source/gd32f30x_exti.c **** void exti_event_enable(exti_line_enum linex)
 134:Drivers/GD32F30x_standard_peripheral/Source/gd32f30x_exti.c **** {
 258              		.loc 1 134 1 is_stmt 1 view -0
 259              		.cfi_startproc
 260              		@ args = 0, pretend = 0, frame = 0
 261              		@ frame_needed = 0, uses_anonymous_args = 0
 262              		@ link register save eliminated.
 135:Drivers/GD32F30x_standard_peripheral/Source/gd32f30x_exti.c ****     EXTI_EVEN |= (uint32_t)linex;
 263              		.loc 1 135 5 view .LVU62
 264              		.loc 1 135 15 is_stmt 0 view .LVU63
 265 0000 034A     		ldr	r2, .L19
 266 0002 D2F80434 		ldr	r3, [r2, #1028]
 267 0006 0343     		orrs	r3, r3, r0
 268 0008 C2F80434 		str	r3, [r2, #1028]
 136:Drivers/GD32F30x_standard_peripheral/Source/gd32f30x_exti.c **** }
 269              		.loc 1 136 1 view .LVU64
 270 000c 7047     		bx	lr
 271              	.L20:
 272 000e 00BF     		.align	2
 273              	.L19:
 274 0010 00000140 		.word	1073807360
 275              		.cfi_endproc
 276              	.LFE119:
 278              		.section	.text.exti_interrupt_disable,"ax",%progbits
 279              		.align	1
 280              		.global	exti_interrupt_disable
 281              		.syntax unified
 282              		.thumb
 283              		.thumb_func
 284              		.fpu fpv4-sp-d16
 286              	exti_interrupt_disable:
 287              	.LVL17:
 288              	.LFB120:
 137:Drivers/GD32F30x_standard_peripheral/Source/gd32f30x_exti.c **** 
 138:Drivers/GD32F30x_standard_peripheral/Source/gd32f30x_exti.c **** /*!
 139:Drivers/GD32F30x_standard_peripheral/Source/gd32f30x_exti.c ****     \brief      disable the interrupt from EXTI line x
 140:Drivers/GD32F30x_standard_peripheral/Source/gd32f30x_exti.c ****     \param[in]  linex: EXTI line number, refer to exti_line_enum
 141:Drivers/GD32F30x_standard_peripheral/Source/gd32f30x_exti.c ****                 only one parameter can be selected which is shown as below:
 142:Drivers/GD32F30x_standard_peripheral/Source/gd32f30x_exti.c ****       \arg        EXTI_x (x=0..19): EXTI line x
 143:Drivers/GD32F30x_standard_peripheral/Source/gd32f30x_exti.c ****     \param[out] none
 144:Drivers/GD32F30x_standard_peripheral/Source/gd32f30x_exti.c ****     \retval     none
 145:Drivers/GD32F30x_standard_peripheral/Source/gd32f30x_exti.c **** */
 146:Drivers/GD32F30x_standard_peripheral/Source/gd32f30x_exti.c **** void exti_interrupt_disable(exti_line_enum linex)
 147:Drivers/GD32F30x_standard_peripheral/Source/gd32f30x_exti.c **** {
 289              		.loc 1 147 1 is_stmt 1 view -0
ARM GAS  C:\Users\Prog\AppData\Local\Temp\ccbpZEwW.s 			page 9


 290              		.cfi_startproc
 291              		@ args = 0, pretend = 0, frame = 0
 292              		@ frame_needed = 0, uses_anonymous_args = 0
 293              		@ link register save eliminated.
 148:Drivers/GD32F30x_standard_peripheral/Source/gd32f30x_exti.c ****     EXTI_INTEN &= ~(uint32_t)linex;
 294              		.loc 1 148 5 view .LVU66
 295              		.loc 1 148 16 is_stmt 0 view .LVU67
 296 0000 034A     		ldr	r2, .L22
 297 0002 D2F80034 		ldr	r3, [r2, #1024]
 298 0006 23EA0003 		bic	r3, r3, r0
 299 000a C2F80034 		str	r3, [r2, #1024]
 149:Drivers/GD32F30x_standard_peripheral/Source/gd32f30x_exti.c **** }
 300              		.loc 1 149 1 view .LVU68
 301 000e 7047     		bx	lr
 302              	.L23:
 303              		.align	2
 304              	.L22:
 305 0010 00000140 		.word	1073807360
 306              		.cfi_endproc
 307              	.LFE120:
 309              		.section	.text.exti_event_disable,"ax",%progbits
 310              		.align	1
 311              		.global	exti_event_disable
 312              		.syntax unified
 313              		.thumb
 314              		.thumb_func
 315              		.fpu fpv4-sp-d16
 317              	exti_event_disable:
 318              	.LVL18:
 319              	.LFB121:
 150:Drivers/GD32F30x_standard_peripheral/Source/gd32f30x_exti.c **** 
 151:Drivers/GD32F30x_standard_peripheral/Source/gd32f30x_exti.c **** /*!
 152:Drivers/GD32F30x_standard_peripheral/Source/gd32f30x_exti.c ****     \brief      disable the events from EXTI line x
 153:Drivers/GD32F30x_standard_peripheral/Source/gd32f30x_exti.c ****     \param[in]  linex: EXTI line number, refer to exti_line_enum
 154:Drivers/GD32F30x_standard_peripheral/Source/gd32f30x_exti.c ****                 only one parameter can be selected which is shown as below:
 155:Drivers/GD32F30x_standard_peripheral/Source/gd32f30x_exti.c ****       \arg        EXTI_x (x=0..19): EXTI line x
 156:Drivers/GD32F30x_standard_peripheral/Source/gd32f30x_exti.c ****     \param[out] none
 157:Drivers/GD32F30x_standard_peripheral/Source/gd32f30x_exti.c ****     \retval     none
 158:Drivers/GD32F30x_standard_peripheral/Source/gd32f30x_exti.c **** */
 159:Drivers/GD32F30x_standard_peripheral/Source/gd32f30x_exti.c **** void exti_event_disable(exti_line_enum linex)
 160:Drivers/GD32F30x_standard_peripheral/Source/gd32f30x_exti.c **** {
 320              		.loc 1 160 1 is_stmt 1 view -0
 321              		.cfi_startproc
 322              		@ args = 0, pretend = 0, frame = 0
 323              		@ frame_needed = 0, uses_anonymous_args = 0
 324              		@ link register save eliminated.
 161:Drivers/GD32F30x_standard_peripheral/Source/gd32f30x_exti.c ****     EXTI_EVEN &= ~(uint32_t)linex;
 325              		.loc 1 161 5 view .LVU70
 326              		.loc 1 161 15 is_stmt 0 view .LVU71
 327 0000 034A     		ldr	r2, .L25
 328 0002 D2F80434 		ldr	r3, [r2, #1028]
 329 0006 23EA0003 		bic	r3, r3, r0
 330 000a C2F80434 		str	r3, [r2, #1028]
 162:Drivers/GD32F30x_standard_peripheral/Source/gd32f30x_exti.c **** }
 331              		.loc 1 162 1 view .LVU72
 332 000e 7047     		bx	lr
 333              	.L26:
ARM GAS  C:\Users\Prog\AppData\Local\Temp\ccbpZEwW.s 			page 10


 334              		.align	2
 335              	.L25:
 336 0010 00000140 		.word	1073807360
 337              		.cfi_endproc
 338              	.LFE121:
 340              		.section	.text.exti_flag_get,"ax",%progbits
 341              		.align	1
 342              		.global	exti_flag_get
 343              		.syntax unified
 344              		.thumb
 345              		.thumb_func
 346              		.fpu fpv4-sp-d16
 348              	exti_flag_get:
 349              	.LVL19:
 350              	.LFB122:
 163:Drivers/GD32F30x_standard_peripheral/Source/gd32f30x_exti.c **** 
 164:Drivers/GD32F30x_standard_peripheral/Source/gd32f30x_exti.c **** /*!
 165:Drivers/GD32F30x_standard_peripheral/Source/gd32f30x_exti.c ****     \brief      get EXTI lines flag
 166:Drivers/GD32F30x_standard_peripheral/Source/gd32f30x_exti.c ****     \param[in]  linex: EXTI line number, refer to exti_line_enum
 167:Drivers/GD32F30x_standard_peripheral/Source/gd32f30x_exti.c ****                 only one parameter can be selected which is shown as below:
 168:Drivers/GD32F30x_standard_peripheral/Source/gd32f30x_exti.c ****       \arg        EXTI_x (x=0..19): EXTI line x
 169:Drivers/GD32F30x_standard_peripheral/Source/gd32f30x_exti.c ****     \param[out] none
 170:Drivers/GD32F30x_standard_peripheral/Source/gd32f30x_exti.c ****     \retval     FlagStatus: status of flag (RESET or SET)
 171:Drivers/GD32F30x_standard_peripheral/Source/gd32f30x_exti.c **** */
 172:Drivers/GD32F30x_standard_peripheral/Source/gd32f30x_exti.c **** FlagStatus exti_flag_get(exti_line_enum linex)
 173:Drivers/GD32F30x_standard_peripheral/Source/gd32f30x_exti.c **** {
 351              		.loc 1 173 1 is_stmt 1 view -0
 352              		.cfi_startproc
 353              		@ args = 0, pretend = 0, frame = 0
 354              		@ frame_needed = 0, uses_anonymous_args = 0
 355              		@ link register save eliminated.
 174:Drivers/GD32F30x_standard_peripheral/Source/gd32f30x_exti.c ****     if(RESET != (EXTI_PD & (uint32_t)linex)){
 356              		.loc 1 174 5 view .LVU74
 357              		.loc 1 174 18 is_stmt 0 view .LVU75
 358 0000 044B     		ldr	r3, .L30
 359 0002 D3F81434 		ldr	r3, [r3, #1044]
 360              		.loc 1 174 7 view .LVU76
 361 0006 0342     		tst	r3, r0
 362 0008 01D0     		beq	.L29
 175:Drivers/GD32F30x_standard_peripheral/Source/gd32f30x_exti.c ****         return SET;
 363              		.loc 1 175 16 view .LVU77
 364 000a 0120     		movs	r0, #1
 365              	.LVL20:
 366              		.loc 1 175 16 view .LVU78
 367 000c 7047     		bx	lr
 368              	.LVL21:
 369              	.L29:
 176:Drivers/GD32F30x_standard_peripheral/Source/gd32f30x_exti.c ****     }else{
 177:Drivers/GD32F30x_standard_peripheral/Source/gd32f30x_exti.c ****         return RESET;
 370              		.loc 1 177 16 view .LVU79
 371 000e 0020     		movs	r0, #0
 372              	.LVL22:
 178:Drivers/GD32F30x_standard_peripheral/Source/gd32f30x_exti.c ****     } 
 179:Drivers/GD32F30x_standard_peripheral/Source/gd32f30x_exti.c **** }
 373              		.loc 1 179 1 view .LVU80
 374 0010 7047     		bx	lr
 375              	.L31:
ARM GAS  C:\Users\Prog\AppData\Local\Temp\ccbpZEwW.s 			page 11


 376 0012 00BF     		.align	2
 377              	.L30:
 378 0014 00000140 		.word	1073807360
 379              		.cfi_endproc
 380              	.LFE122:
 382              		.section	.text.exti_flag_clear,"ax",%progbits
 383              		.align	1
 384              		.global	exti_flag_clear
 385              		.syntax unified
 386              		.thumb
 387              		.thumb_func
 388              		.fpu fpv4-sp-d16
 390              	exti_flag_clear:
 391              	.LVL23:
 392              	.LFB123:
 180:Drivers/GD32F30x_standard_peripheral/Source/gd32f30x_exti.c **** 
 181:Drivers/GD32F30x_standard_peripheral/Source/gd32f30x_exti.c **** /*!
 182:Drivers/GD32F30x_standard_peripheral/Source/gd32f30x_exti.c ****     \brief      clear EXTI lines pending flag
 183:Drivers/GD32F30x_standard_peripheral/Source/gd32f30x_exti.c ****     \param[in]  linex: EXTI line number, refer to exti_line_enum
 184:Drivers/GD32F30x_standard_peripheral/Source/gd32f30x_exti.c ****                 only one parameter can be selected which is shown as below:
 185:Drivers/GD32F30x_standard_peripheral/Source/gd32f30x_exti.c ****       \arg        EXTI_x (x=0..19): EXTI line x
 186:Drivers/GD32F30x_standard_peripheral/Source/gd32f30x_exti.c ****     \param[out] none
 187:Drivers/GD32F30x_standard_peripheral/Source/gd32f30x_exti.c ****     \retval     none
 188:Drivers/GD32F30x_standard_peripheral/Source/gd32f30x_exti.c **** */
 189:Drivers/GD32F30x_standard_peripheral/Source/gd32f30x_exti.c **** void exti_flag_clear(exti_line_enum linex)
 190:Drivers/GD32F30x_standard_peripheral/Source/gd32f30x_exti.c **** {
 393              		.loc 1 190 1 is_stmt 1 view -0
 394              		.cfi_startproc
 395              		@ args = 0, pretend = 0, frame = 0
 396              		@ frame_needed = 0, uses_anonymous_args = 0
 397              		@ link register save eliminated.
 191:Drivers/GD32F30x_standard_peripheral/Source/gd32f30x_exti.c ****     EXTI_PD = (uint32_t)linex;
 398              		.loc 1 191 5 view .LVU82
 399              		.loc 1 191 13 is_stmt 0 view .LVU83
 400 0000 014B     		ldr	r3, .L33
 401 0002 C3F81404 		str	r0, [r3, #1044]
 192:Drivers/GD32F30x_standard_peripheral/Source/gd32f30x_exti.c **** }
 402              		.loc 1 192 1 view .LVU84
 403 0006 7047     		bx	lr
 404              	.L34:
 405              		.align	2
 406              	.L33:
 407 0008 00000140 		.word	1073807360
 408              		.cfi_endproc
 409              	.LFE123:
 411              		.section	.text.exti_interrupt_flag_get,"ax",%progbits
 412              		.align	1
 413              		.global	exti_interrupt_flag_get
 414              		.syntax unified
 415              		.thumb
 416              		.thumb_func
 417              		.fpu fpv4-sp-d16
 419              	exti_interrupt_flag_get:
 420              	.LVL24:
 421              	.LFB124:
 193:Drivers/GD32F30x_standard_peripheral/Source/gd32f30x_exti.c **** 
 194:Drivers/GD32F30x_standard_peripheral/Source/gd32f30x_exti.c **** /*!
ARM GAS  C:\Users\Prog\AppData\Local\Temp\ccbpZEwW.s 			page 12


 195:Drivers/GD32F30x_standard_peripheral/Source/gd32f30x_exti.c ****     \brief      get EXTI lines flag when the interrupt flag is set
 196:Drivers/GD32F30x_standard_peripheral/Source/gd32f30x_exti.c ****     \param[in]  linex: EXTI line number, refer to exti_line_enum
 197:Drivers/GD32F30x_standard_peripheral/Source/gd32f30x_exti.c ****                 only one parameter can be selected which is shown as below:
 198:Drivers/GD32F30x_standard_peripheral/Source/gd32f30x_exti.c ****       \arg        EXTI_x (x=0..19): EXTI line x
 199:Drivers/GD32F30x_standard_peripheral/Source/gd32f30x_exti.c ****     \param[out] none
 200:Drivers/GD32F30x_standard_peripheral/Source/gd32f30x_exti.c ****     \retval     FlagStatus: status of flag (RESET or SET)
 201:Drivers/GD32F30x_standard_peripheral/Source/gd32f30x_exti.c **** */
 202:Drivers/GD32F30x_standard_peripheral/Source/gd32f30x_exti.c **** FlagStatus exti_interrupt_flag_get(exti_line_enum linex)
 203:Drivers/GD32F30x_standard_peripheral/Source/gd32f30x_exti.c **** {
 422              		.loc 1 203 1 is_stmt 1 view -0
 423              		.cfi_startproc
 424              		@ args = 0, pretend = 0, frame = 0
 425              		@ frame_needed = 0, uses_anonymous_args = 0
 426              		@ link register save eliminated.
 204:Drivers/GD32F30x_standard_peripheral/Source/gd32f30x_exti.c ****     uint32_t flag_left, flag_right;
 427              		.loc 1 204 5 view .LVU86
 205:Drivers/GD32F30x_standard_peripheral/Source/gd32f30x_exti.c ****     
 206:Drivers/GD32F30x_standard_peripheral/Source/gd32f30x_exti.c ****     flag_left = EXTI_PD & (uint32_t)linex;
 428              		.loc 1 206 5 view .LVU87
 429              		.loc 1 206 17 is_stmt 0 view .LVU88
 430 0000 074B     		ldr	r3, .L39
 431 0002 D3F81424 		ldr	r2, [r3, #1044]
 432              	.LVL25:
 207:Drivers/GD32F30x_standard_peripheral/Source/gd32f30x_exti.c ****     flag_right = EXTI_INTEN & (uint32_t)linex;
 433              		.loc 1 207 5 is_stmt 1 view .LVU89
 434              		.loc 1 207 18 is_stmt 0 view .LVU90
 435 0006 D3F80034 		ldr	r3, [r3, #1024]
 436              		.loc 1 207 16 view .LVU91
 437 000a 0340     		ands	r3, r3, r0
 438              	.LVL26:
 208:Drivers/GD32F30x_standard_peripheral/Source/gd32f30x_exti.c ****     
 209:Drivers/GD32F30x_standard_peripheral/Source/gd32f30x_exti.c ****     if((RESET != flag_left) && (RESET != flag_right)){
 439              		.loc 1 209 5 is_stmt 1 view .LVU92
 440              		.loc 1 209 7 is_stmt 0 view .LVU93
 441 000c 0242     		tst	r2, r0
 442 000e 02D0     		beq	.L37
 443              		.loc 1 209 29 discriminator 1 view .LVU94
 444 0010 1BB9     		cbnz	r3, .L38
 210:Drivers/GD32F30x_standard_peripheral/Source/gd32f30x_exti.c ****         return SET;
 211:Drivers/GD32F30x_standard_peripheral/Source/gd32f30x_exti.c ****     }else{
 212:Drivers/GD32F30x_standard_peripheral/Source/gd32f30x_exti.c ****         return RESET;
 445              		.loc 1 212 16 view .LVU95
 446 0012 0020     		movs	r0, #0
 447              	.LVL27:
 448              		.loc 1 212 16 view .LVU96
 449 0014 7047     		bx	lr
 450              	.LVL28:
 451              	.L37:
 452              		.loc 1 212 16 view .LVU97
 453 0016 0020     		movs	r0, #0
 454              	.LVL29:
 455              		.loc 1 212 16 view .LVU98
 456 0018 7047     		bx	lr
 457              	.LVL30:
 458              	.L38:
 210:Drivers/GD32F30x_standard_peripheral/Source/gd32f30x_exti.c ****         return SET;
 459              		.loc 1 210 16 view .LVU99
ARM GAS  C:\Users\Prog\AppData\Local\Temp\ccbpZEwW.s 			page 13


 460 001a 0120     		movs	r0, #1
 461              	.LVL31:
 213:Drivers/GD32F30x_standard_peripheral/Source/gd32f30x_exti.c ****     }
 214:Drivers/GD32F30x_standard_peripheral/Source/gd32f30x_exti.c **** }
 462              		.loc 1 214 1 view .LVU100
 463 001c 7047     		bx	lr
 464              	.L40:
 465 001e 00BF     		.align	2
 466              	.L39:
 467 0020 00000140 		.word	1073807360
 468              		.cfi_endproc
 469              	.LFE124:
 471              		.section	.text.exti_interrupt_flag_clear,"ax",%progbits
 472              		.align	1
 473              		.global	exti_interrupt_flag_clear
 474              		.syntax unified
 475              		.thumb
 476              		.thumb_func
 477              		.fpu fpv4-sp-d16
 479              	exti_interrupt_flag_clear:
 480              	.LVL32:
 481              	.LFB125:
 215:Drivers/GD32F30x_standard_peripheral/Source/gd32f30x_exti.c **** 
 216:Drivers/GD32F30x_standard_peripheral/Source/gd32f30x_exti.c **** /*!
 217:Drivers/GD32F30x_standard_peripheral/Source/gd32f30x_exti.c ****     \brief      clear EXTI lines pending flag
 218:Drivers/GD32F30x_standard_peripheral/Source/gd32f30x_exti.c ****     \param[in]  linex: EXTI line number, refer to exti_line_enum
 219:Drivers/GD32F30x_standard_peripheral/Source/gd32f30x_exti.c ****                 only one parameter can be selected which is shown as below:
 220:Drivers/GD32F30x_standard_peripheral/Source/gd32f30x_exti.c ****       \arg        EXTI_x (x=0..19): EXTI line x
 221:Drivers/GD32F30x_standard_peripheral/Source/gd32f30x_exti.c ****     \param[out] none
 222:Drivers/GD32F30x_standard_peripheral/Source/gd32f30x_exti.c ****     \retval     none
 223:Drivers/GD32F30x_standard_peripheral/Source/gd32f30x_exti.c **** */
 224:Drivers/GD32F30x_standard_peripheral/Source/gd32f30x_exti.c **** void exti_interrupt_flag_clear(exti_line_enum linex)
 225:Drivers/GD32F30x_standard_peripheral/Source/gd32f30x_exti.c **** {
 482              		.loc 1 225 1 is_stmt 1 view -0
 483              		.cfi_startproc
 484              		@ args = 0, pretend = 0, frame = 0
 485              		@ frame_needed = 0, uses_anonymous_args = 0
 486              		@ link register save eliminated.
 226:Drivers/GD32F30x_standard_peripheral/Source/gd32f30x_exti.c ****     EXTI_PD = (uint32_t)linex;
 487              		.loc 1 226 5 view .LVU102
 488              		.loc 1 226 13 is_stmt 0 view .LVU103
 489 0000 014B     		ldr	r3, .L42
 490 0002 C3F81404 		str	r0, [r3, #1044]
 227:Drivers/GD32F30x_standard_peripheral/Source/gd32f30x_exti.c **** }
 491              		.loc 1 227 1 view .LVU104
 492 0006 7047     		bx	lr
 493              	.L43:
 494              		.align	2
 495              	.L42:
 496 0008 00000140 		.word	1073807360
 497              		.cfi_endproc
 498              	.LFE125:
 500              		.section	.text.exti_software_interrupt_enable,"ax",%progbits
 501              		.align	1
 502              		.global	exti_software_interrupt_enable
 503              		.syntax unified
 504              		.thumb
ARM GAS  C:\Users\Prog\AppData\Local\Temp\ccbpZEwW.s 			page 14


 505              		.thumb_func
 506              		.fpu fpv4-sp-d16
 508              	exti_software_interrupt_enable:
 509              	.LVL33:
 510              	.LFB126:
 228:Drivers/GD32F30x_standard_peripheral/Source/gd32f30x_exti.c **** 
 229:Drivers/GD32F30x_standard_peripheral/Source/gd32f30x_exti.c **** /*!
 230:Drivers/GD32F30x_standard_peripheral/Source/gd32f30x_exti.c ****     \brief      enable EXTI software interrupt event
 231:Drivers/GD32F30x_standard_peripheral/Source/gd32f30x_exti.c ****     \param[in]  linex: EXTI line number, refer to exti_line_enum
 232:Drivers/GD32F30x_standard_peripheral/Source/gd32f30x_exti.c ****                 only one parameter can be selected which is shown as below:
 233:Drivers/GD32F30x_standard_peripheral/Source/gd32f30x_exti.c ****       \arg        EXTI_x (x=0..19): EXTI line x
 234:Drivers/GD32F30x_standard_peripheral/Source/gd32f30x_exti.c ****     \param[out] none
 235:Drivers/GD32F30x_standard_peripheral/Source/gd32f30x_exti.c ****     \retval     none
 236:Drivers/GD32F30x_standard_peripheral/Source/gd32f30x_exti.c **** */
 237:Drivers/GD32F30x_standard_peripheral/Source/gd32f30x_exti.c **** void exti_software_interrupt_enable(exti_line_enum linex)
 238:Drivers/GD32F30x_standard_peripheral/Source/gd32f30x_exti.c **** {
 511              		.loc 1 238 1 is_stmt 1 view -0
 512              		.cfi_startproc
 513              		@ args = 0, pretend = 0, frame = 0
 514              		@ frame_needed = 0, uses_anonymous_args = 0
 515              		@ link register save eliminated.
 239:Drivers/GD32F30x_standard_peripheral/Source/gd32f30x_exti.c ****     EXTI_SWIEV |= (uint32_t)linex;
 516              		.loc 1 239 5 view .LVU106
 517              		.loc 1 239 16 is_stmt 0 view .LVU107
 518 0000 034A     		ldr	r2, .L45
 519 0002 D2F81034 		ldr	r3, [r2, #1040]
 520 0006 0343     		orrs	r3, r3, r0
 521 0008 C2F81034 		str	r3, [r2, #1040]
 240:Drivers/GD32F30x_standard_peripheral/Source/gd32f30x_exti.c **** }
 522              		.loc 1 240 1 view .LVU108
 523 000c 7047     		bx	lr
 524              	.L46:
 525 000e 00BF     		.align	2
 526              	.L45:
 527 0010 00000140 		.word	1073807360
 528              		.cfi_endproc
 529              	.LFE126:
 531              		.section	.text.exti_software_interrupt_disable,"ax",%progbits
 532              		.align	1
 533              		.global	exti_software_interrupt_disable
 534              		.syntax unified
 535              		.thumb
 536              		.thumb_func
 537              		.fpu fpv4-sp-d16
 539              	exti_software_interrupt_disable:
 540              	.LVL34:
 541              	.LFB127:
 241:Drivers/GD32F30x_standard_peripheral/Source/gd32f30x_exti.c **** 
 242:Drivers/GD32F30x_standard_peripheral/Source/gd32f30x_exti.c **** /*!
 243:Drivers/GD32F30x_standard_peripheral/Source/gd32f30x_exti.c ****     \brief      disable EXTI software interrupt event
 244:Drivers/GD32F30x_standard_peripheral/Source/gd32f30x_exti.c ****     \param[in]  linex: EXTI line number, refer to exti_line_enum
 245:Drivers/GD32F30x_standard_peripheral/Source/gd32f30x_exti.c ****                 only one parameter can be selected which is shown as below:
 246:Drivers/GD32F30x_standard_peripheral/Source/gd32f30x_exti.c ****       \arg        EXTI_x (x=0..19): EXTI line x
 247:Drivers/GD32F30x_standard_peripheral/Source/gd32f30x_exti.c ****     \param[out] none
 248:Drivers/GD32F30x_standard_peripheral/Source/gd32f30x_exti.c ****     \retval     none
 249:Drivers/GD32F30x_standard_peripheral/Source/gd32f30x_exti.c **** */
 250:Drivers/GD32F30x_standard_peripheral/Source/gd32f30x_exti.c **** void exti_software_interrupt_disable(exti_line_enum linex)
ARM GAS  C:\Users\Prog\AppData\Local\Temp\ccbpZEwW.s 			page 15


 251:Drivers/GD32F30x_standard_peripheral/Source/gd32f30x_exti.c **** {
 542              		.loc 1 251 1 is_stmt 1 view -0
 543              		.cfi_startproc
 544              		@ args = 0, pretend = 0, frame = 0
 545              		@ frame_needed = 0, uses_anonymous_args = 0
 546              		@ link register save eliminated.
 252:Drivers/GD32F30x_standard_peripheral/Source/gd32f30x_exti.c ****     EXTI_SWIEV &= ~(uint32_t)linex;
 547              		.loc 1 252 5 view .LVU110
 548              		.loc 1 252 16 is_stmt 0 view .LVU111
 549 0000 034A     		ldr	r2, .L48
 550 0002 D2F81034 		ldr	r3, [r2, #1040]
 551 0006 23EA0003 		bic	r3, r3, r0
 552 000a C2F81034 		str	r3, [r2, #1040]
 253:Drivers/GD32F30x_standard_peripheral/Source/gd32f30x_exti.c **** }
 553              		.loc 1 253 1 view .LVU112
 554 000e 7047     		bx	lr
 555              	.L49:
 556              		.align	2
 557              	.L48:
 558 0010 00000140 		.word	1073807360
 559              		.cfi_endproc
 560              	.LFE127:
 562              		.text
 563              	.Letext0:
 564              		.file 2 "c:\\programdata\\chocolatey\\lib\\gcc-arm-embedded\\tools\\gcc-arm-none-eabi-10-2020-q4-m
 565              		.file 3 "c:\\programdata\\chocolatey\\lib\\gcc-arm-embedded\\tools\\gcc-arm-none-eabi-10-2020-q4-m
 566              		.file 4 "Drivers/CMSIS/GD/GD32F30x/Include/gd32f30x.h"
 567              		.file 5 "Drivers/GD32F30x_standard_peripheral/Include/gd32f30x_exti.h"
ARM GAS  C:\Users\Prog\AppData\Local\Temp\ccbpZEwW.s 			page 16


DEFINED SYMBOLS
                            *ABS*:00000000 gd32f30x_exti.c
C:\Users\Prog\AppData\Local\Temp\ccbpZEwW.s:18     .text.exti_deinit:00000000 $t
C:\Users\Prog\AppData\Local\Temp\ccbpZEwW.s:26     .text.exti_deinit:00000000 exti_deinit
C:\Users\Prog\AppData\Local\Temp\ccbpZEwW.s:56     .text.exti_deinit:0000001c $d
C:\Users\Prog\AppData\Local\Temp\ccbpZEwW.s:61     .text.exti_init:00000000 $t
C:\Users\Prog\AppData\Local\Temp\ccbpZEwW.s:68     .text.exti_init:00000000 exti_init
C:\Users\Prog\AppData\Local\Temp\ccbpZEwW.s:212    .text.exti_init:000000b8 $d
C:\Users\Prog\AppData\Local\Temp\ccbpZEwW.s:217    .text.exti_interrupt_enable:00000000 $t
C:\Users\Prog\AppData\Local\Temp\ccbpZEwW.s:224    .text.exti_interrupt_enable:00000000 exti_interrupt_enable
C:\Users\Prog\AppData\Local\Temp\ccbpZEwW.s:243    .text.exti_interrupt_enable:00000010 $d
C:\Users\Prog\AppData\Local\Temp\ccbpZEwW.s:248    .text.exti_event_enable:00000000 $t
C:\Users\Prog\AppData\Local\Temp\ccbpZEwW.s:255    .text.exti_event_enable:00000000 exti_event_enable
C:\Users\Prog\AppData\Local\Temp\ccbpZEwW.s:274    .text.exti_event_enable:00000010 $d
C:\Users\Prog\AppData\Local\Temp\ccbpZEwW.s:279    .text.exti_interrupt_disable:00000000 $t
C:\Users\Prog\AppData\Local\Temp\ccbpZEwW.s:286    .text.exti_interrupt_disable:00000000 exti_interrupt_disable
C:\Users\Prog\AppData\Local\Temp\ccbpZEwW.s:305    .text.exti_interrupt_disable:00000010 $d
C:\Users\Prog\AppData\Local\Temp\ccbpZEwW.s:310    .text.exti_event_disable:00000000 $t
C:\Users\Prog\AppData\Local\Temp\ccbpZEwW.s:317    .text.exti_event_disable:00000000 exti_event_disable
C:\Users\Prog\AppData\Local\Temp\ccbpZEwW.s:336    .text.exti_event_disable:00000010 $d
C:\Users\Prog\AppData\Local\Temp\ccbpZEwW.s:341    .text.exti_flag_get:00000000 $t
C:\Users\Prog\AppData\Local\Temp\ccbpZEwW.s:348    .text.exti_flag_get:00000000 exti_flag_get
C:\Users\Prog\AppData\Local\Temp\ccbpZEwW.s:378    .text.exti_flag_get:00000014 $d
C:\Users\Prog\AppData\Local\Temp\ccbpZEwW.s:383    .text.exti_flag_clear:00000000 $t
C:\Users\Prog\AppData\Local\Temp\ccbpZEwW.s:390    .text.exti_flag_clear:00000000 exti_flag_clear
C:\Users\Prog\AppData\Local\Temp\ccbpZEwW.s:407    .text.exti_flag_clear:00000008 $d
C:\Users\Prog\AppData\Local\Temp\ccbpZEwW.s:412    .text.exti_interrupt_flag_get:00000000 $t
C:\Users\Prog\AppData\Local\Temp\ccbpZEwW.s:419    .text.exti_interrupt_flag_get:00000000 exti_interrupt_flag_get
C:\Users\Prog\AppData\Local\Temp\ccbpZEwW.s:467    .text.exti_interrupt_flag_get:00000020 $d
C:\Users\Prog\AppData\Local\Temp\ccbpZEwW.s:472    .text.exti_interrupt_flag_clear:00000000 $t
C:\Users\Prog\AppData\Local\Temp\ccbpZEwW.s:479    .text.exti_interrupt_flag_clear:00000000 exti_interrupt_flag_clear
C:\Users\Prog\AppData\Local\Temp\ccbpZEwW.s:496    .text.exti_interrupt_flag_clear:00000008 $d
C:\Users\Prog\AppData\Local\Temp\ccbpZEwW.s:501    .text.exti_software_interrupt_enable:00000000 $t
C:\Users\Prog\AppData\Local\Temp\ccbpZEwW.s:508    .text.exti_software_interrupt_enable:00000000 exti_software_interrupt_enable
C:\Users\Prog\AppData\Local\Temp\ccbpZEwW.s:527    .text.exti_software_interrupt_enable:00000010 $d
C:\Users\Prog\AppData\Local\Temp\ccbpZEwW.s:532    .text.exti_software_interrupt_disable:00000000 $t
C:\Users\Prog\AppData\Local\Temp\ccbpZEwW.s:539    .text.exti_software_interrupt_disable:00000000 exti_software_interrupt_disable
C:\Users\Prog\AppData\Local\Temp\ccbpZEwW.s:558    .text.exti_software_interrupt_disable:00000010 $d

NO UNDEFINED SYMBOLS
