ARM GAS  C:\Users\Prog\AppData\Local\Temp\ccnDNAys.s 			page 1


   1              		.cpu cortex-m4
   2              		.eabi_attribute 27, 1
   3              		.eabi_attribute 28, 1
   4              		.eabi_attribute 20, 1
   5              		.eabi_attribute 21, 1
   6              		.eabi_attribute 23, 3
   7              		.eabi_attribute 24, 1
   8              		.eabi_attribute 25, 1
   9              		.eabi_attribute 26, 1
  10              		.eabi_attribute 30, 1
  11              		.eabi_attribute 34, 1
  12              		.eabi_attribute 18, 4
  13              		.file	"gd32f30x_bkp.c"
  14              		.text
  15              	.Ltext0:
  16              		.cfi_sections	.debug_frame
  17              		.section	.text.bkp_deinit,"ax",%progbits
  18              		.align	1
  19              		.global	bkp_deinit
  20              		.arch armv7e-m
  21              		.syntax unified
  22              		.thumb
  23              		.thumb_func
  24              		.fpu fpv4-sp-d16
  26              	bkp_deinit:
  27              	.LFB116:
  28              		.file 1 "Drivers/GD32F30x_standard_peripheral/Source/gd32f30x_bkp.c"
   1:Drivers/GD32F30x_standard_peripheral/Source/gd32f30x_bkp.c **** /*!
   2:Drivers/GD32F30x_standard_peripheral/Source/gd32f30x_bkp.c ****     \file    gd32f30x_bkp.c
   3:Drivers/GD32F30x_standard_peripheral/Source/gd32f30x_bkp.c ****     \brief   BKP driver
   4:Drivers/GD32F30x_standard_peripheral/Source/gd32f30x_bkp.c **** 
   5:Drivers/GD32F30x_standard_peripheral/Source/gd32f30x_bkp.c ****     \version 2017-02-10, V1.0.0, firmware for GD32F30x
   6:Drivers/GD32F30x_standard_peripheral/Source/gd32f30x_bkp.c ****     \version 2018-10-10, V1.1.0, firmware for GD32F30x
   7:Drivers/GD32F30x_standard_peripheral/Source/gd32f30x_bkp.c ****     \version 2018-12-25, V2.0.0, firmware for GD32F30x
   8:Drivers/GD32F30x_standard_peripheral/Source/gd32f30x_bkp.c ****     \version 2020-09-30, V2.1.0, firmware for GD32F30x
   9:Drivers/GD32F30x_standard_peripheral/Source/gd32f30x_bkp.c **** */
  10:Drivers/GD32F30x_standard_peripheral/Source/gd32f30x_bkp.c **** 
  11:Drivers/GD32F30x_standard_peripheral/Source/gd32f30x_bkp.c **** /*
  12:Drivers/GD32F30x_standard_peripheral/Source/gd32f30x_bkp.c ****     Copyright (c) 2020, GigaDevice Semiconductor Inc.
  13:Drivers/GD32F30x_standard_peripheral/Source/gd32f30x_bkp.c **** 
  14:Drivers/GD32F30x_standard_peripheral/Source/gd32f30x_bkp.c ****     Redistribution and use in source and binary forms, with or without modification, 
  15:Drivers/GD32F30x_standard_peripheral/Source/gd32f30x_bkp.c **** are permitted provided that the following conditions are met:
  16:Drivers/GD32F30x_standard_peripheral/Source/gd32f30x_bkp.c **** 
  17:Drivers/GD32F30x_standard_peripheral/Source/gd32f30x_bkp.c ****     1. Redistributions of source code must retain the above copyright notice, this 
  18:Drivers/GD32F30x_standard_peripheral/Source/gd32f30x_bkp.c ****        list of conditions and the following disclaimer.
  19:Drivers/GD32F30x_standard_peripheral/Source/gd32f30x_bkp.c ****     2. Redistributions in binary form must reproduce the above copyright notice, 
  20:Drivers/GD32F30x_standard_peripheral/Source/gd32f30x_bkp.c ****        this list of conditions and the following disclaimer in the documentation 
  21:Drivers/GD32F30x_standard_peripheral/Source/gd32f30x_bkp.c ****        and/or other materials provided with the distribution.
  22:Drivers/GD32F30x_standard_peripheral/Source/gd32f30x_bkp.c ****     3. Neither the name of the copyright holder nor the names of its contributors 
  23:Drivers/GD32F30x_standard_peripheral/Source/gd32f30x_bkp.c ****        may be used to endorse or promote products derived from this software without 
  24:Drivers/GD32F30x_standard_peripheral/Source/gd32f30x_bkp.c ****        specific prior written permission.
  25:Drivers/GD32F30x_standard_peripheral/Source/gd32f30x_bkp.c **** 
  26:Drivers/GD32F30x_standard_peripheral/Source/gd32f30x_bkp.c ****     THIS SOFTWARE IS PROVIDED BY THE COPYRIGHT HOLDERS AND CONTRIBUTORS "AS IS" 
  27:Drivers/GD32F30x_standard_peripheral/Source/gd32f30x_bkp.c **** AND ANY EXPRESS OR IMPLIED WARRANTIES, INCLUDING, BUT NOT LIMITED TO, THE IMPLIED 
  28:Drivers/GD32F30x_standard_peripheral/Source/gd32f30x_bkp.c **** WARRANTIES OF MERCHANTABILITY AND FITNESS FOR A PARTICULAR PURPOSE ARE DISCLAIMED. 
  29:Drivers/GD32F30x_standard_peripheral/Source/gd32f30x_bkp.c **** IN NO EVENT SHALL THE COPYRIGHT HOLDER OR CONTRIBUTORS BE LIABLE FOR ANY DIRECT, 
  30:Drivers/GD32F30x_standard_peripheral/Source/gd32f30x_bkp.c **** INDIRECT, INCIDENTAL, SPECIAL, EXEMPLARY, OR CONSEQUENTIAL DAMAGES (INCLUDING, BUT 
ARM GAS  C:\Users\Prog\AppData\Local\Temp\ccnDNAys.s 			page 2


  31:Drivers/GD32F30x_standard_peripheral/Source/gd32f30x_bkp.c **** NOT LIMITED TO, PROCUREMENT OF SUBSTITUTE GOODS OR SERVICES; LOSS OF USE, DATA, OR 
  32:Drivers/GD32F30x_standard_peripheral/Source/gd32f30x_bkp.c **** PROFITS; OR BUSINESS INTERRUPTION) HOWEVER CAUSED AND ON ANY THEORY OF LIABILITY, 
  33:Drivers/GD32F30x_standard_peripheral/Source/gd32f30x_bkp.c **** WHETHER IN CONTRACT, STRICT LIABILITY, OR TORT (INCLUDING NEGLIGENCE OR OTHERWISE) 
  34:Drivers/GD32F30x_standard_peripheral/Source/gd32f30x_bkp.c **** ARISING IN ANY WAY OUT OF THE USE OF THIS SOFTWARE, EVEN IF ADVISED OF THE POSSIBILITY 
  35:Drivers/GD32F30x_standard_peripheral/Source/gd32f30x_bkp.c **** OF SUCH DAMAGE.
  36:Drivers/GD32F30x_standard_peripheral/Source/gd32f30x_bkp.c **** */
  37:Drivers/GD32F30x_standard_peripheral/Source/gd32f30x_bkp.c **** 
  38:Drivers/GD32F30x_standard_peripheral/Source/gd32f30x_bkp.c **** #include "gd32f30x_bkp.h"
  39:Drivers/GD32F30x_standard_peripheral/Source/gd32f30x_bkp.c **** 
  40:Drivers/GD32F30x_standard_peripheral/Source/gd32f30x_bkp.c **** #define TAMPER_FLAG_SHIFT          ((uint8_t)8U)
  41:Drivers/GD32F30x_standard_peripheral/Source/gd32f30x_bkp.c **** 
  42:Drivers/GD32F30x_standard_peripheral/Source/gd32f30x_bkp.c **** /*!
  43:Drivers/GD32F30x_standard_peripheral/Source/gd32f30x_bkp.c ****     \brief      reset BKP registers
  44:Drivers/GD32F30x_standard_peripheral/Source/gd32f30x_bkp.c ****     \param[in]  none
  45:Drivers/GD32F30x_standard_peripheral/Source/gd32f30x_bkp.c ****     \param[out] none
  46:Drivers/GD32F30x_standard_peripheral/Source/gd32f30x_bkp.c ****     \retval     none
  47:Drivers/GD32F30x_standard_peripheral/Source/gd32f30x_bkp.c **** */
  48:Drivers/GD32F30x_standard_peripheral/Source/gd32f30x_bkp.c **** void bkp_deinit(void)
  49:Drivers/GD32F30x_standard_peripheral/Source/gd32f30x_bkp.c **** {
  29              		.loc 1 49 1 view -0
  30              		.cfi_startproc
  31              		@ args = 0, pretend = 0, frame = 0
  32              		@ frame_needed = 0, uses_anonymous_args = 0
  33 0000 08B5     		push	{r3, lr}
  34              	.LCFI0:
  35              		.cfi_def_cfa_offset 8
  36              		.cfi_offset 3, -8
  37              		.cfi_offset 14, -4
  50:Drivers/GD32F30x_standard_peripheral/Source/gd32f30x_bkp.c ****     /* reset BKP domain register*/
  51:Drivers/GD32F30x_standard_peripheral/Source/gd32f30x_bkp.c ****     rcu_bkp_reset_enable();
  38              		.loc 1 51 5 view .LVU1
  39 0002 FFF7FEFF 		bl	rcu_bkp_reset_enable
  40              	.LVL0:
  52:Drivers/GD32F30x_standard_peripheral/Source/gd32f30x_bkp.c ****     rcu_bkp_reset_disable();
  41              		.loc 1 52 5 view .LVU2
  42 0006 FFF7FEFF 		bl	rcu_bkp_reset_disable
  43              	.LVL1:
  53:Drivers/GD32F30x_standard_peripheral/Source/gd32f30x_bkp.c **** }
  44              		.loc 1 53 1 is_stmt 0 view .LVU3
  45 000a 08BD     		pop	{r3, pc}
  46              		.cfi_endproc
  47              	.LFE116:
  49              		.section	.text.bkp_write_data,"ax",%progbits
  50              		.align	1
  51              		.global	bkp_write_data
  52              		.syntax unified
  53              		.thumb
  54              		.thumb_func
  55              		.fpu fpv4-sp-d16
  57              	bkp_write_data:
  58              	.LVL2:
  59              	.LFB117:
  54:Drivers/GD32F30x_standard_peripheral/Source/gd32f30x_bkp.c **** 
  55:Drivers/GD32F30x_standard_peripheral/Source/gd32f30x_bkp.c **** /*!
  56:Drivers/GD32F30x_standard_peripheral/Source/gd32f30x_bkp.c ****     \brief      write BKP data register
  57:Drivers/GD32F30x_standard_peripheral/Source/gd32f30x_bkp.c ****     \param[in]  register_number: refer to bkp_data_register_enum, only one parameter can be selecte
  58:Drivers/GD32F30x_standard_peripheral/Source/gd32f30x_bkp.c ****       \arg        BKP_DATA_x(x = 0..41): bkp data register number x
ARM GAS  C:\Users\Prog\AppData\Local\Temp\ccnDNAys.s 			page 3


  59:Drivers/GD32F30x_standard_peripheral/Source/gd32f30x_bkp.c ****     \param[in]  data: the data to be write in BKP data register
  60:Drivers/GD32F30x_standard_peripheral/Source/gd32f30x_bkp.c ****     \param[out] none
  61:Drivers/GD32F30x_standard_peripheral/Source/gd32f30x_bkp.c ****     \retval     none
  62:Drivers/GD32F30x_standard_peripheral/Source/gd32f30x_bkp.c **** */
  63:Drivers/GD32F30x_standard_peripheral/Source/gd32f30x_bkp.c **** void bkp_write_data(bkp_data_register_enum register_number, uint16_t data)
  64:Drivers/GD32F30x_standard_peripheral/Source/gd32f30x_bkp.c **** {
  60              		.loc 1 64 1 is_stmt 1 view -0
  61              		.cfi_startproc
  62              		@ args = 0, pretend = 0, frame = 0
  63              		@ frame_needed = 0, uses_anonymous_args = 0
  64              		@ link register save eliminated.
  65:Drivers/GD32F30x_standard_peripheral/Source/gd32f30x_bkp.c ****     if((register_number >= BKP_DATA_10) && (register_number <= BKP_DATA_41)){
  65              		.loc 1 65 5 view .LVU5
  66              		.loc 1 65 41 is_stmt 0 view .LVU6
  67 0000 A0F10B03 		sub	r3, r0, #11
  68 0004 DBB2     		uxtb	r3, r3
  69              		.loc 1 65 7 view .LVU7
  70 0006 1F2B     		cmp	r3, #31
  71 0008 04D8     		bhi	.L4
  66:Drivers/GD32F30x_standard_peripheral/Source/gd32f30x_bkp.c ****         BKP_DATA10_41(register_number-1U) = data;
  72              		.loc 1 66 9 is_stmt 1 view .LVU8
  73 000a 084B     		ldr	r3, .L6
  74 000c 0344     		add	r3, r3, r0
  75 000e 9B00     		lsls	r3, r3, #2
  76              		.loc 1 66 43 is_stmt 0 view .LVU9
  77 0010 1980     		strh	r1, [r3]	@ movhi
  78 0012 7047     		bx	lr
  79              	.L4:
  67:Drivers/GD32F30x_standard_peripheral/Source/gd32f30x_bkp.c ****     }else if((register_number >= BKP_DATA_0) && (register_number <= BKP_DATA_9)){
  80              		.loc 1 67 11 is_stmt 1 view .LVU10
  81              		.loc 1 67 46 is_stmt 0 view .LVU11
  82 0014 431E     		subs	r3, r0, #1
  83 0016 DBB2     		uxtb	r3, r3
  84              		.loc 1 67 13 view .LVU12
  85 0018 092B     		cmp	r3, #9
  86 001a 05D8     		bhi	.L3
  68:Drivers/GD32F30x_standard_peripheral/Source/gd32f30x_bkp.c ****         BKP_DATA0_9(register_number-1U) = data;
  87              		.loc 1 68 9 is_stmt 1 view .LVU13
  88 001c 00F18050 		add	r0, r0, #268435456
  89              	.LVL3:
  90              		.loc 1 68 9 is_stmt 0 view .LVU14
  91 0020 00F5D850 		add	r0, r0, #6912
  92 0024 8000     		lsls	r0, r0, #2
  93              		.loc 1 68 41 view .LVU15
  94 0026 0180     		strh	r1, [r0]	@ movhi
  69:Drivers/GD32F30x_standard_peripheral/Source/gd32f30x_bkp.c ****     }else{
  70:Drivers/GD32F30x_standard_peripheral/Source/gd32f30x_bkp.c ****         /* illegal parameters */
  71:Drivers/GD32F30x_standard_peripheral/Source/gd32f30x_bkp.c ****     }
  95              		.loc 1 71 5 is_stmt 1 view .LVU16
  96              	.L3:
  72:Drivers/GD32F30x_standard_peripheral/Source/gd32f30x_bkp.c **** }
  97              		.loc 1 72 1 is_stmt 0 view .LVU17
  98 0028 7047     		bx	lr
  99              	.L7:
 100 002a 00BF     		.align	2
 101              	.L6:
 102 002c 051B0010 		.word	268442373
ARM GAS  C:\Users\Prog\AppData\Local\Temp\ccnDNAys.s 			page 4


 103              		.cfi_endproc
 104              	.LFE117:
 106              		.section	.text.bkp_read_data,"ax",%progbits
 107              		.align	1
 108              		.global	bkp_read_data
 109              		.syntax unified
 110              		.thumb
 111              		.thumb_func
 112              		.fpu fpv4-sp-d16
 114              	bkp_read_data:
 115              	.LVL4:
 116              	.LFB118:
  73:Drivers/GD32F30x_standard_peripheral/Source/gd32f30x_bkp.c **** 
  74:Drivers/GD32F30x_standard_peripheral/Source/gd32f30x_bkp.c **** /*!
  75:Drivers/GD32F30x_standard_peripheral/Source/gd32f30x_bkp.c ****     \brief      read BKP data register
  76:Drivers/GD32F30x_standard_peripheral/Source/gd32f30x_bkp.c ****     \param[in]  register_number: refer to bkp_data_register_enum, only one parameter can be selecte
  77:Drivers/GD32F30x_standard_peripheral/Source/gd32f30x_bkp.c ****       \arg        BKP_DATA_x(x = 0..41): bkp data register number x
  78:Drivers/GD32F30x_standard_peripheral/Source/gd32f30x_bkp.c ****     \param[out] none
  79:Drivers/GD32F30x_standard_peripheral/Source/gd32f30x_bkp.c ****     \retval     data of BKP data register
  80:Drivers/GD32F30x_standard_peripheral/Source/gd32f30x_bkp.c **** */
  81:Drivers/GD32F30x_standard_peripheral/Source/gd32f30x_bkp.c **** uint16_t bkp_read_data(bkp_data_register_enum register_number)
  82:Drivers/GD32F30x_standard_peripheral/Source/gd32f30x_bkp.c **** {
 117              		.loc 1 82 1 is_stmt 1 view -0
 118              		.cfi_startproc
 119              		@ args = 0, pretend = 0, frame = 0
 120              		@ frame_needed = 0, uses_anonymous_args = 0
 121              		@ link register save eliminated.
  83:Drivers/GD32F30x_standard_peripheral/Source/gd32f30x_bkp.c ****     uint16_t data = 0U;
 122              		.loc 1 83 5 view .LVU19
  84:Drivers/GD32F30x_standard_peripheral/Source/gd32f30x_bkp.c ****     
  85:Drivers/GD32F30x_standard_peripheral/Source/gd32f30x_bkp.c ****     /* get the data from the BKP data register */
  86:Drivers/GD32F30x_standard_peripheral/Source/gd32f30x_bkp.c ****     if((register_number >= BKP_DATA_10) && (register_number <= BKP_DATA_41)){
 123              		.loc 1 86 5 view .LVU20
 124              		.loc 1 86 41 is_stmt 0 view .LVU21
 125 0000 A0F10B03 		sub	r3, r0, #11
 126 0004 DBB2     		uxtb	r3, r3
 127              		.loc 1 86 7 view .LVU22
 128 0006 1F2B     		cmp	r3, #31
 129 0008 05D8     		bhi	.L9
  87:Drivers/GD32F30x_standard_peripheral/Source/gd32f30x_bkp.c ****         data = BKP_DATA10_41(register_number-1U);
 130              		.loc 1 87 9 is_stmt 1 view .LVU23
 131              		.loc 1 87 16 is_stmt 0 view .LVU24
 132 000a 0A4B     		ldr	r3, .L12
 133 000c 0344     		add	r3, r3, r0
 134 000e 9B00     		lsls	r3, r3, #2
 135              		.loc 1 87 14 view .LVU25
 136 0010 1888     		ldrh	r0, [r3]
 137              	.LVL5:
 138              		.loc 1 87 14 view .LVU26
 139 0012 80B2     		uxth	r0, r0
 140              	.LVL6:
 141              		.loc 1 87 14 view .LVU27
 142 0014 7047     		bx	lr
 143              	.LVL7:
 144              	.L9:
  88:Drivers/GD32F30x_standard_peripheral/Source/gd32f30x_bkp.c ****     }else if((register_number >= BKP_DATA_0) && (register_number <= BKP_DATA_9)){
 145              		.loc 1 88 11 is_stmt 1 view .LVU28
ARM GAS  C:\Users\Prog\AppData\Local\Temp\ccnDNAys.s 			page 5


 146              		.loc 1 88 46 is_stmt 0 view .LVU29
 147 0016 431E     		subs	r3, r0, #1
 148 0018 DBB2     		uxtb	r3, r3
 149              		.loc 1 88 13 view .LVU30
 150 001a 092B     		cmp	r3, #9
 151 001c 07D8     		bhi	.L11
  89:Drivers/GD32F30x_standard_peripheral/Source/gd32f30x_bkp.c ****         data = BKP_DATA0_9(register_number-1U);
 152              		.loc 1 89 9 is_stmt 1 view .LVU31
 153              		.loc 1 89 16 is_stmt 0 view .LVU32
 154 001e 00F18050 		add	r0, r0, #268435456
 155              	.LVL8:
 156              		.loc 1 89 16 view .LVU33
 157 0022 00F5D850 		add	r0, r0, #6912
 158 0026 8000     		lsls	r0, r0, #2
 159              		.loc 1 89 14 view .LVU34
 160 0028 0088     		ldrh	r0, [r0]
 161 002a 80B2     		uxth	r0, r0
 162              	.LVL9:
 163              		.loc 1 89 14 view .LVU35
 164 002c 7047     		bx	lr
 165              	.LVL10:
 166              	.L11:
  83:Drivers/GD32F30x_standard_peripheral/Source/gd32f30x_bkp.c ****     
 167              		.loc 1 83 14 view .LVU36
 168 002e 0020     		movs	r0, #0
 169              	.LVL11:
  90:Drivers/GD32F30x_standard_peripheral/Source/gd32f30x_bkp.c ****     }else{
  91:Drivers/GD32F30x_standard_peripheral/Source/gd32f30x_bkp.c ****         /* illegal parameters */
  92:Drivers/GD32F30x_standard_peripheral/Source/gd32f30x_bkp.c ****     }
 170              		.loc 1 92 5 is_stmt 1 view .LVU37
  93:Drivers/GD32F30x_standard_peripheral/Source/gd32f30x_bkp.c ****     return data;
 171              		.loc 1 93 5 view .LVU38
  94:Drivers/GD32F30x_standard_peripheral/Source/gd32f30x_bkp.c **** }
 172              		.loc 1 94 1 is_stmt 0 view .LVU39
 173 0030 7047     		bx	lr
 174              	.L13:
 175 0032 00BF     		.align	2
 176              	.L12:
 177 0034 051B0010 		.word	268442373
 178              		.cfi_endproc
 179              	.LFE118:
 181              		.section	.text.bkp_rtc_calibration_output_enable,"ax",%progbits
 182              		.align	1
 183              		.global	bkp_rtc_calibration_output_enable
 184              		.syntax unified
 185              		.thumb
 186              		.thumb_func
 187              		.fpu fpv4-sp-d16
 189              	bkp_rtc_calibration_output_enable:
 190              	.LFB119:
  95:Drivers/GD32F30x_standard_peripheral/Source/gd32f30x_bkp.c **** 
  96:Drivers/GD32F30x_standard_peripheral/Source/gd32f30x_bkp.c **** /*!
  97:Drivers/GD32F30x_standard_peripheral/Source/gd32f30x_bkp.c ****     \brief      enable RTC clock calibration output
  98:Drivers/GD32F30x_standard_peripheral/Source/gd32f30x_bkp.c ****     \param[in]  none
  99:Drivers/GD32F30x_standard_peripheral/Source/gd32f30x_bkp.c ****     \param[out] none
 100:Drivers/GD32F30x_standard_peripheral/Source/gd32f30x_bkp.c ****     \retval     none
 101:Drivers/GD32F30x_standard_peripheral/Source/gd32f30x_bkp.c **** */
ARM GAS  C:\Users\Prog\AppData\Local\Temp\ccnDNAys.s 			page 6


 102:Drivers/GD32F30x_standard_peripheral/Source/gd32f30x_bkp.c **** void bkp_rtc_calibration_output_enable(void)
 103:Drivers/GD32F30x_standard_peripheral/Source/gd32f30x_bkp.c **** {
 191              		.loc 1 103 1 is_stmt 1 view -0
 192              		.cfi_startproc
 193              		@ args = 0, pretend = 0, frame = 0
 194              		@ frame_needed = 0, uses_anonymous_args = 0
 195              		@ link register save eliminated.
 104:Drivers/GD32F30x_standard_peripheral/Source/gd32f30x_bkp.c ****     BKP_OCTL |= (uint16_t)BKP_OCTL_COEN;
 196              		.loc 1 104 5 view .LVU41
 197              		.loc 1 104 14 is_stmt 0 view .LVU42
 198 0000 024A     		ldr	r2, .L15
 199 0002 1388     		ldrh	r3, [r2]
 200 0004 43F08003 		orr	r3, r3, #128
 201 0008 1380     		strh	r3, [r2]	@ movhi
 105:Drivers/GD32F30x_standard_peripheral/Source/gd32f30x_bkp.c **** }
 202              		.loc 1 105 1 view .LVU43
 203 000a 7047     		bx	lr
 204              	.L16:
 205              		.align	2
 206              	.L15:
 207 000c 2C6C0040 		.word	1073769516
 208              		.cfi_endproc
 209              	.LFE119:
 211              		.section	.text.bkp_rtc_calibration_output_disable,"ax",%progbits
 212              		.align	1
 213              		.global	bkp_rtc_calibration_output_disable
 214              		.syntax unified
 215              		.thumb
 216              		.thumb_func
 217              		.fpu fpv4-sp-d16
 219              	bkp_rtc_calibration_output_disable:
 220              	.LFB120:
 106:Drivers/GD32F30x_standard_peripheral/Source/gd32f30x_bkp.c **** 
 107:Drivers/GD32F30x_standard_peripheral/Source/gd32f30x_bkp.c **** /*!
 108:Drivers/GD32F30x_standard_peripheral/Source/gd32f30x_bkp.c ****     \brief      disable RTC clock calibration output
 109:Drivers/GD32F30x_standard_peripheral/Source/gd32f30x_bkp.c ****     \param[in]  none
 110:Drivers/GD32F30x_standard_peripheral/Source/gd32f30x_bkp.c ****     \param[out] none
 111:Drivers/GD32F30x_standard_peripheral/Source/gd32f30x_bkp.c ****     \retval     none
 112:Drivers/GD32F30x_standard_peripheral/Source/gd32f30x_bkp.c **** */
 113:Drivers/GD32F30x_standard_peripheral/Source/gd32f30x_bkp.c **** void bkp_rtc_calibration_output_disable(void)
 114:Drivers/GD32F30x_standard_peripheral/Source/gd32f30x_bkp.c **** {
 221              		.loc 1 114 1 is_stmt 1 view -0
 222              		.cfi_startproc
 223              		@ args = 0, pretend = 0, frame = 0
 224              		@ frame_needed = 0, uses_anonymous_args = 0
 225              		@ link register save eliminated.
 115:Drivers/GD32F30x_standard_peripheral/Source/gd32f30x_bkp.c ****     BKP_OCTL &= (uint16_t)~BKP_OCTL_COEN;
 226              		.loc 1 115 5 view .LVU45
 227              		.loc 1 115 14 is_stmt 0 view .LVU46
 228 0000 034A     		ldr	r2, .L18
 229 0002 1388     		ldrh	r3, [r2]
 230 0004 9BB2     		uxth	r3, r3
 231 0006 23F08003 		bic	r3, r3, #128
 232 000a 9BB2     		uxth	r3, r3
 233 000c 1380     		strh	r3, [r2]	@ movhi
 116:Drivers/GD32F30x_standard_peripheral/Source/gd32f30x_bkp.c **** }
 234              		.loc 1 116 1 view .LVU47
ARM GAS  C:\Users\Prog\AppData\Local\Temp\ccnDNAys.s 			page 7


 235 000e 7047     		bx	lr
 236              	.L19:
 237              		.align	2
 238              	.L18:
 239 0010 2C6C0040 		.word	1073769516
 240              		.cfi_endproc
 241              	.LFE120:
 243              		.section	.text.bkp_rtc_signal_output_enable,"ax",%progbits
 244              		.align	1
 245              		.global	bkp_rtc_signal_output_enable
 246              		.syntax unified
 247              		.thumb
 248              		.thumb_func
 249              		.fpu fpv4-sp-d16
 251              	bkp_rtc_signal_output_enable:
 252              	.LFB121:
 117:Drivers/GD32F30x_standard_peripheral/Source/gd32f30x_bkp.c **** 
 118:Drivers/GD32F30x_standard_peripheral/Source/gd32f30x_bkp.c **** /*!
 119:Drivers/GD32F30x_standard_peripheral/Source/gd32f30x_bkp.c ****     \brief      enable RTC alarm or second signal output
 120:Drivers/GD32F30x_standard_peripheral/Source/gd32f30x_bkp.c ****     \param[in]  none
 121:Drivers/GD32F30x_standard_peripheral/Source/gd32f30x_bkp.c ****     \param[out] none
 122:Drivers/GD32F30x_standard_peripheral/Source/gd32f30x_bkp.c ****     \retval     none
 123:Drivers/GD32F30x_standard_peripheral/Source/gd32f30x_bkp.c **** */
 124:Drivers/GD32F30x_standard_peripheral/Source/gd32f30x_bkp.c **** void bkp_rtc_signal_output_enable(void)
 125:Drivers/GD32F30x_standard_peripheral/Source/gd32f30x_bkp.c **** {
 253              		.loc 1 125 1 is_stmt 1 view -0
 254              		.cfi_startproc
 255              		@ args = 0, pretend = 0, frame = 0
 256              		@ frame_needed = 0, uses_anonymous_args = 0
 257              		@ link register save eliminated.
 126:Drivers/GD32F30x_standard_peripheral/Source/gd32f30x_bkp.c ****     BKP_OCTL |= (uint16_t)BKP_OCTL_ASOEN;
 258              		.loc 1 126 5 view .LVU49
 259              		.loc 1 126 14 is_stmt 0 view .LVU50
 260 0000 024A     		ldr	r2, .L21
 261 0002 1388     		ldrh	r3, [r2]
 262 0004 43F48073 		orr	r3, r3, #256
 263 0008 1380     		strh	r3, [r2]	@ movhi
 127:Drivers/GD32F30x_standard_peripheral/Source/gd32f30x_bkp.c **** }
 264              		.loc 1 127 1 view .LVU51
 265 000a 7047     		bx	lr
 266              	.L22:
 267              		.align	2
 268              	.L21:
 269 000c 2C6C0040 		.word	1073769516
 270              		.cfi_endproc
 271              	.LFE121:
 273              		.section	.text.bkp_rtc_signal_output_disable,"ax",%progbits
 274              		.align	1
 275              		.global	bkp_rtc_signal_output_disable
 276              		.syntax unified
 277              		.thumb
 278              		.thumb_func
 279              		.fpu fpv4-sp-d16
 281              	bkp_rtc_signal_output_disable:
 282              	.LFB122:
 128:Drivers/GD32F30x_standard_peripheral/Source/gd32f30x_bkp.c **** 
 129:Drivers/GD32F30x_standard_peripheral/Source/gd32f30x_bkp.c **** /*!
ARM GAS  C:\Users\Prog\AppData\Local\Temp\ccnDNAys.s 			page 8


 130:Drivers/GD32F30x_standard_peripheral/Source/gd32f30x_bkp.c ****     \brief      disable RTC alarm or second signal output
 131:Drivers/GD32F30x_standard_peripheral/Source/gd32f30x_bkp.c ****     \param[in]  none
 132:Drivers/GD32F30x_standard_peripheral/Source/gd32f30x_bkp.c ****     \param[out] none
 133:Drivers/GD32F30x_standard_peripheral/Source/gd32f30x_bkp.c ****     \retval     none
 134:Drivers/GD32F30x_standard_peripheral/Source/gd32f30x_bkp.c **** */
 135:Drivers/GD32F30x_standard_peripheral/Source/gd32f30x_bkp.c **** void bkp_rtc_signal_output_disable(void)
 136:Drivers/GD32F30x_standard_peripheral/Source/gd32f30x_bkp.c **** {
 283              		.loc 1 136 1 is_stmt 1 view -0
 284              		.cfi_startproc
 285              		@ args = 0, pretend = 0, frame = 0
 286              		@ frame_needed = 0, uses_anonymous_args = 0
 287              		@ link register save eliminated.
 137:Drivers/GD32F30x_standard_peripheral/Source/gd32f30x_bkp.c ****     BKP_OCTL &= (uint16_t)~BKP_OCTL_ASOEN;
 288              		.loc 1 137 5 view .LVU53
 289              		.loc 1 137 14 is_stmt 0 view .LVU54
 290 0000 034A     		ldr	r2, .L24
 291 0002 1388     		ldrh	r3, [r2]
 292 0004 9BB2     		uxth	r3, r3
 293 0006 23F48073 		bic	r3, r3, #256
 294 000a 9BB2     		uxth	r3, r3
 295 000c 1380     		strh	r3, [r2]	@ movhi
 138:Drivers/GD32F30x_standard_peripheral/Source/gd32f30x_bkp.c **** }
 296              		.loc 1 138 1 view .LVU55
 297 000e 7047     		bx	lr
 298              	.L25:
 299              		.align	2
 300              	.L24:
 301 0010 2C6C0040 		.word	1073769516
 302              		.cfi_endproc
 303              	.LFE122:
 305              		.section	.text.bkp_rtc_output_select,"ax",%progbits
 306              		.align	1
 307              		.global	bkp_rtc_output_select
 308              		.syntax unified
 309              		.thumb
 310              		.thumb_func
 311              		.fpu fpv4-sp-d16
 313              	bkp_rtc_output_select:
 314              	.LVL12:
 315              	.LFB123:
 139:Drivers/GD32F30x_standard_peripheral/Source/gd32f30x_bkp.c **** 
 140:Drivers/GD32F30x_standard_peripheral/Source/gd32f30x_bkp.c **** /*!
 141:Drivers/GD32F30x_standard_peripheral/Source/gd32f30x_bkp.c ****     \brief      select RTC output
 142:Drivers/GD32F30x_standard_peripheral/Source/gd32f30x_bkp.c ****     \param[in]  outputsel: RTC output selection
 143:Drivers/GD32F30x_standard_peripheral/Source/gd32f30x_bkp.c ****       \arg        RTC_OUTPUT_ALARM_PULSE: RTC alarm pulse is selected as the RTC output
 144:Drivers/GD32F30x_standard_peripheral/Source/gd32f30x_bkp.c ****       \arg        RTC_OUTPUT_SECOND_PULSE: RTC second pulse is selected as the RTC output
 145:Drivers/GD32F30x_standard_peripheral/Source/gd32f30x_bkp.c ****     \param[out] none
 146:Drivers/GD32F30x_standard_peripheral/Source/gd32f30x_bkp.c ****     \retval     none
 147:Drivers/GD32F30x_standard_peripheral/Source/gd32f30x_bkp.c **** */
 148:Drivers/GD32F30x_standard_peripheral/Source/gd32f30x_bkp.c **** void bkp_rtc_output_select(uint16_t outputsel)
 149:Drivers/GD32F30x_standard_peripheral/Source/gd32f30x_bkp.c **** {
 316              		.loc 1 149 1 is_stmt 1 view -0
 317              		.cfi_startproc
 318              		@ args = 0, pretend = 0, frame = 0
 319              		@ frame_needed = 0, uses_anonymous_args = 0
 320              		@ link register save eliminated.
 150:Drivers/GD32F30x_standard_peripheral/Source/gd32f30x_bkp.c ****     uint16_t ctl = 0U;
ARM GAS  C:\Users\Prog\AppData\Local\Temp\ccnDNAys.s 			page 9


 321              		.loc 1 150 5 view .LVU57
 151:Drivers/GD32F30x_standard_peripheral/Source/gd32f30x_bkp.c ****     
 152:Drivers/GD32F30x_standard_peripheral/Source/gd32f30x_bkp.c ****     ctl = BKP_OCTL;
 322              		.loc 1 152 5 view .LVU58
 323              		.loc 1 152 9 is_stmt 0 view .LVU59
 324 0000 034A     		ldr	r2, .L27
 325 0002 1388     		ldrh	r3, [r2]
 326 0004 9BB2     		uxth	r3, r3
 327              	.LVL13:
 153:Drivers/GD32F30x_standard_peripheral/Source/gd32f30x_bkp.c ****     ctl &= (uint16_t)~BKP_OCTL_ROSEL;
 328              		.loc 1 153 5 is_stmt 1 view .LVU60
 329              		.loc 1 153 9 is_stmt 0 view .LVU61
 330 0006 23F40073 		bic	r3, r3, #512
 331              	.LVL14:
 154:Drivers/GD32F30x_standard_peripheral/Source/gd32f30x_bkp.c ****     ctl |= outputsel;
 332              		.loc 1 154 5 is_stmt 1 view .LVU62
 333              		.loc 1 154 9 is_stmt 0 view .LVU63
 334 000a 1843     		orrs	r0, r0, r3
 335              	.LVL15:
 155:Drivers/GD32F30x_standard_peripheral/Source/gd32f30x_bkp.c ****     BKP_OCTL = ctl;
 336              		.loc 1 155 5 is_stmt 1 view .LVU64
 337              		.loc 1 155 14 is_stmt 0 view .LVU65
 338 000c 1080     		strh	r0, [r2]	@ movhi
 156:Drivers/GD32F30x_standard_peripheral/Source/gd32f30x_bkp.c **** }
 339              		.loc 1 156 1 view .LVU66
 340 000e 7047     		bx	lr
 341              	.L28:
 342              		.align	2
 343              	.L27:
 344 0010 2C6C0040 		.word	1073769516
 345              		.cfi_endproc
 346              	.LFE123:
 348              		.section	.text.bkp_rtc_clock_output_select,"ax",%progbits
 349              		.align	1
 350              		.global	bkp_rtc_clock_output_select
 351              		.syntax unified
 352              		.thumb
 353              		.thumb_func
 354              		.fpu fpv4-sp-d16
 356              	bkp_rtc_clock_output_select:
 357              	.LVL16:
 358              	.LFB124:
 157:Drivers/GD32F30x_standard_peripheral/Source/gd32f30x_bkp.c **** 
 158:Drivers/GD32F30x_standard_peripheral/Source/gd32f30x_bkp.c **** /*!
 159:Drivers/GD32F30x_standard_peripheral/Source/gd32f30x_bkp.c ****     \brief      select RTC clock output
 160:Drivers/GD32F30x_standard_peripheral/Source/gd32f30x_bkp.c ****     \param[in]  clocksel: RTC clock output selection
 161:Drivers/GD32F30x_standard_peripheral/Source/gd32f30x_bkp.c ****       \arg        RTC_CLOCK_DIV_64: RTC clock div 64
 162:Drivers/GD32F30x_standard_peripheral/Source/gd32f30x_bkp.c ****       \arg        RTC_CLOCK_DIV_1: RTC clock
 163:Drivers/GD32F30x_standard_peripheral/Source/gd32f30x_bkp.c ****     \param[out] none
 164:Drivers/GD32F30x_standard_peripheral/Source/gd32f30x_bkp.c ****     \retval     none
 165:Drivers/GD32F30x_standard_peripheral/Source/gd32f30x_bkp.c **** */
 166:Drivers/GD32F30x_standard_peripheral/Source/gd32f30x_bkp.c **** void bkp_rtc_clock_output_select(uint16_t clocksel)
 167:Drivers/GD32F30x_standard_peripheral/Source/gd32f30x_bkp.c **** {
 359              		.loc 1 167 1 is_stmt 1 view -0
 360              		.cfi_startproc
 361              		@ args = 0, pretend = 0, frame = 0
 362              		@ frame_needed = 0, uses_anonymous_args = 0
ARM GAS  C:\Users\Prog\AppData\Local\Temp\ccnDNAys.s 			page 10


 363              		@ link register save eliminated.
 168:Drivers/GD32F30x_standard_peripheral/Source/gd32f30x_bkp.c ****     uint16_t ctl = 0U;
 364              		.loc 1 168 5 view .LVU68
 169:Drivers/GD32F30x_standard_peripheral/Source/gd32f30x_bkp.c ****     
 170:Drivers/GD32F30x_standard_peripheral/Source/gd32f30x_bkp.c ****     ctl = BKP_OCTL;
 365              		.loc 1 170 5 view .LVU69
 366              		.loc 1 170 9 is_stmt 0 view .LVU70
 367 0000 034A     		ldr	r2, .L30
 368 0002 1388     		ldrh	r3, [r2]
 369 0004 9BB2     		uxth	r3, r3
 370              	.LVL17:
 171:Drivers/GD32F30x_standard_peripheral/Source/gd32f30x_bkp.c ****     ctl &= (uint16_t)~BKP_OCTL_CCOSEL;
 371              		.loc 1 171 5 is_stmt 1 view .LVU71
 372              		.loc 1 171 9 is_stmt 0 view .LVU72
 373 0006 23F48043 		bic	r3, r3, #16384
 374              	.LVL18:
 172:Drivers/GD32F30x_standard_peripheral/Source/gd32f30x_bkp.c ****     ctl |= clocksel;
 375              		.loc 1 172 5 is_stmt 1 view .LVU73
 376              		.loc 1 172 9 is_stmt 0 view .LVU74
 377 000a 1843     		orrs	r0, r0, r3
 378              	.LVL19:
 173:Drivers/GD32F30x_standard_peripheral/Source/gd32f30x_bkp.c ****     BKP_OCTL = ctl;
 379              		.loc 1 173 5 is_stmt 1 view .LVU75
 380              		.loc 1 173 14 is_stmt 0 view .LVU76
 381 000c 1080     		strh	r0, [r2]	@ movhi
 174:Drivers/GD32F30x_standard_peripheral/Source/gd32f30x_bkp.c **** }
 382              		.loc 1 174 1 view .LVU77
 383 000e 7047     		bx	lr
 384              	.L31:
 385              		.align	2
 386              	.L30:
 387 0010 2C6C0040 		.word	1073769516
 388              		.cfi_endproc
 389              	.LFE124:
 391              		.section	.text.bkp_rtc_clock_calibration_direction,"ax",%progbits
 392              		.align	1
 393              		.global	bkp_rtc_clock_calibration_direction
 394              		.syntax unified
 395              		.thumb
 396              		.thumb_func
 397              		.fpu fpv4-sp-d16
 399              	bkp_rtc_clock_calibration_direction:
 400              	.LVL20:
 401              	.LFB125:
 175:Drivers/GD32F30x_standard_peripheral/Source/gd32f30x_bkp.c **** 
 176:Drivers/GD32F30x_standard_peripheral/Source/gd32f30x_bkp.c **** /*!
 177:Drivers/GD32F30x_standard_peripheral/Source/gd32f30x_bkp.c ****     \brief      RTC clock calibration direction
 178:Drivers/GD32F30x_standard_peripheral/Source/gd32f30x_bkp.c ****     \param[in]  direction: RTC clock calibration direction
 179:Drivers/GD32F30x_standard_peripheral/Source/gd32f30x_bkp.c ****       \arg        RTC_CLOCK_SLOWED_DOWN: RTC clock slow down
 180:Drivers/GD32F30x_standard_peripheral/Source/gd32f30x_bkp.c ****       \arg        RTC_CLOCK_SPEED_UP: RTC clock speed up
 181:Drivers/GD32F30x_standard_peripheral/Source/gd32f30x_bkp.c ****     \param[out] none
 182:Drivers/GD32F30x_standard_peripheral/Source/gd32f30x_bkp.c ****     \retval     none
 183:Drivers/GD32F30x_standard_peripheral/Source/gd32f30x_bkp.c **** */
 184:Drivers/GD32F30x_standard_peripheral/Source/gd32f30x_bkp.c **** void bkp_rtc_clock_calibration_direction(uint16_t direction)
 185:Drivers/GD32F30x_standard_peripheral/Source/gd32f30x_bkp.c **** {
 402              		.loc 1 185 1 is_stmt 1 view -0
 403              		.cfi_startproc
ARM GAS  C:\Users\Prog\AppData\Local\Temp\ccnDNAys.s 			page 11


 404              		@ args = 0, pretend = 0, frame = 0
 405              		@ frame_needed = 0, uses_anonymous_args = 0
 406              		@ link register save eliminated.
 186:Drivers/GD32F30x_standard_peripheral/Source/gd32f30x_bkp.c ****     uint16_t ctl = 0U;
 407              		.loc 1 186 5 view .LVU79
 187:Drivers/GD32F30x_standard_peripheral/Source/gd32f30x_bkp.c ****     
 188:Drivers/GD32F30x_standard_peripheral/Source/gd32f30x_bkp.c ****     ctl = BKP_OCTL;
 408              		.loc 1 188 5 view .LVU80
 409              		.loc 1 188 9 is_stmt 0 view .LVU81
 410 0000 034A     		ldr	r2, .L33
 411 0002 1388     		ldrh	r3, [r2]
 412              	.LVL21:
 189:Drivers/GD32F30x_standard_peripheral/Source/gd32f30x_bkp.c ****     ctl &= (uint16_t)~BKP_OCTL_CALDIR;
 413              		.loc 1 189 5 is_stmt 1 view .LVU82
 414              		.loc 1 189 9 is_stmt 0 view .LVU83
 415 0004 C3F30E03 		ubfx	r3, r3, #0, #15
 416              	.LVL22:
 190:Drivers/GD32F30x_standard_peripheral/Source/gd32f30x_bkp.c ****     ctl |= direction;
 417              		.loc 1 190 5 is_stmt 1 view .LVU84
 418              		.loc 1 190 9 is_stmt 0 view .LVU85
 419 0008 1843     		orrs	r0, r0, r3
 420              	.LVL23:
 191:Drivers/GD32F30x_standard_peripheral/Source/gd32f30x_bkp.c ****     BKP_OCTL = ctl;
 421              		.loc 1 191 5 is_stmt 1 view .LVU86
 422              		.loc 1 191 14 is_stmt 0 view .LVU87
 423 000a 1080     		strh	r0, [r2]	@ movhi
 192:Drivers/GD32F30x_standard_peripheral/Source/gd32f30x_bkp.c **** }
 424              		.loc 1 192 1 view .LVU88
 425 000c 7047     		bx	lr
 426              	.L34:
 427 000e 00BF     		.align	2
 428              	.L33:
 429 0010 2C6C0040 		.word	1073769516
 430              		.cfi_endproc
 431              	.LFE125:
 433              		.section	.text.bkp_rtc_calibration_value_set,"ax",%progbits
 434              		.align	1
 435              		.global	bkp_rtc_calibration_value_set
 436              		.syntax unified
 437              		.thumb
 438              		.thumb_func
 439              		.fpu fpv4-sp-d16
 441              	bkp_rtc_calibration_value_set:
 442              	.LVL24:
 443              	.LFB126:
 193:Drivers/GD32F30x_standard_peripheral/Source/gd32f30x_bkp.c **** 
 194:Drivers/GD32F30x_standard_peripheral/Source/gd32f30x_bkp.c **** /*!
 195:Drivers/GD32F30x_standard_peripheral/Source/gd32f30x_bkp.c ****     \brief      set RTC clock calibration value 
 196:Drivers/GD32F30x_standard_peripheral/Source/gd32f30x_bkp.c ****     \param[in]  value: RTC clock calibration value
 197:Drivers/GD32F30x_standard_peripheral/Source/gd32f30x_bkp.c ****       \arg        0x00 - 0x7F
 198:Drivers/GD32F30x_standard_peripheral/Source/gd32f30x_bkp.c ****     \param[out] none
 199:Drivers/GD32F30x_standard_peripheral/Source/gd32f30x_bkp.c ****     \retval     none
 200:Drivers/GD32F30x_standard_peripheral/Source/gd32f30x_bkp.c **** */
 201:Drivers/GD32F30x_standard_peripheral/Source/gd32f30x_bkp.c **** void bkp_rtc_calibration_value_set(uint8_t value)
 202:Drivers/GD32F30x_standard_peripheral/Source/gd32f30x_bkp.c **** {
 444              		.loc 1 202 1 is_stmt 1 view -0
 445              		.cfi_startproc
ARM GAS  C:\Users\Prog\AppData\Local\Temp\ccnDNAys.s 			page 12


 446              		@ args = 0, pretend = 0, frame = 0
 447              		@ frame_needed = 0, uses_anonymous_args = 0
 448              		@ link register save eliminated.
 203:Drivers/GD32F30x_standard_peripheral/Source/gd32f30x_bkp.c ****     uint16_t ctl;
 449              		.loc 1 203 5 view .LVU90
 204:Drivers/GD32F30x_standard_peripheral/Source/gd32f30x_bkp.c ****     
 205:Drivers/GD32F30x_standard_peripheral/Source/gd32f30x_bkp.c ****     ctl = BKP_OCTL;
 450              		.loc 1 205 5 view .LVU91
 451              		.loc 1 205 9 is_stmt 0 view .LVU92
 452 0000 044A     		ldr	r2, .L36
 453 0002 1388     		ldrh	r3, [r2]
 454 0004 9BB2     		uxth	r3, r3
 455              	.LVL25:
 206:Drivers/GD32F30x_standard_peripheral/Source/gd32f30x_bkp.c ****     ctl &= ~(uint16_t)BKP_OCTL_RCCV;
 456              		.loc 1 206 5 is_stmt 1 view .LVU93
 457              		.loc 1 206 9 is_stmt 0 view .LVU94
 458 0006 23F07F03 		bic	r3, r3, #127
 459              	.LVL26:
 207:Drivers/GD32F30x_standard_peripheral/Source/gd32f30x_bkp.c ****     ctl |= (uint16_t)OCTL_RCCV(value);
 460              		.loc 1 207 5 is_stmt 1 view .LVU95
 461              		.loc 1 207 12 is_stmt 0 view .LVU96
 462 000a 00F07F00 		and	r0, r0, #127
 463              	.LVL27:
 464              		.loc 1 207 9 view .LVU97
 465 000e 0343     		orrs	r3, r3, r0
 466              	.LVL28:
 208:Drivers/GD32F30x_standard_peripheral/Source/gd32f30x_bkp.c ****     BKP_OCTL = ctl;
 467              		.loc 1 208 5 is_stmt 1 view .LVU98
 468              		.loc 1 208 14 is_stmt 0 view .LVU99
 469 0010 1380     		strh	r3, [r2]	@ movhi
 209:Drivers/GD32F30x_standard_peripheral/Source/gd32f30x_bkp.c **** }
 470              		.loc 1 209 1 view .LVU100
 471 0012 7047     		bx	lr
 472              	.L37:
 473              		.align	2
 474              	.L36:
 475 0014 2C6C0040 		.word	1073769516
 476              		.cfi_endproc
 477              	.LFE126:
 479              		.section	.text.bkp_tamper_detection_enable,"ax",%progbits
 480              		.align	1
 481              		.global	bkp_tamper_detection_enable
 482              		.syntax unified
 483              		.thumb
 484              		.thumb_func
 485              		.fpu fpv4-sp-d16
 487              	bkp_tamper_detection_enable:
 488              	.LFB127:
 210:Drivers/GD32F30x_standard_peripheral/Source/gd32f30x_bkp.c **** 
 211:Drivers/GD32F30x_standard_peripheral/Source/gd32f30x_bkp.c **** /*!
 212:Drivers/GD32F30x_standard_peripheral/Source/gd32f30x_bkp.c ****     \brief      enable tamper detection
 213:Drivers/GD32F30x_standard_peripheral/Source/gd32f30x_bkp.c ****     \param[in]  none
 214:Drivers/GD32F30x_standard_peripheral/Source/gd32f30x_bkp.c ****     \param[out] none
 215:Drivers/GD32F30x_standard_peripheral/Source/gd32f30x_bkp.c ****     \retval     none
 216:Drivers/GD32F30x_standard_peripheral/Source/gd32f30x_bkp.c **** */
 217:Drivers/GD32F30x_standard_peripheral/Source/gd32f30x_bkp.c **** void bkp_tamper_detection_enable(void)
 218:Drivers/GD32F30x_standard_peripheral/Source/gd32f30x_bkp.c **** {
ARM GAS  C:\Users\Prog\AppData\Local\Temp\ccnDNAys.s 			page 13


 489              		.loc 1 218 1 is_stmt 1 view -0
 490              		.cfi_startproc
 491              		@ args = 0, pretend = 0, frame = 0
 492              		@ frame_needed = 0, uses_anonymous_args = 0
 493              		@ link register save eliminated.
 219:Drivers/GD32F30x_standard_peripheral/Source/gd32f30x_bkp.c ****     BKP_TPCTL |= (uint16_t)BKP_TPCTL_TPEN;
 494              		.loc 1 219 5 view .LVU102
 495              		.loc 1 219 15 is_stmt 0 view .LVU103
 496 0000 024A     		ldr	r2, .L39
 497 0002 1388     		ldrh	r3, [r2]
 498 0004 43F00103 		orr	r3, r3, #1
 499 0008 1380     		strh	r3, [r2]	@ movhi
 220:Drivers/GD32F30x_standard_peripheral/Source/gd32f30x_bkp.c **** }
 500              		.loc 1 220 1 view .LVU104
 501 000a 7047     		bx	lr
 502              	.L40:
 503              		.align	2
 504              	.L39:
 505 000c 306C0040 		.word	1073769520
 506              		.cfi_endproc
 507              	.LFE127:
 509              		.section	.text.bkp_tamper_detection_disable,"ax",%progbits
 510              		.align	1
 511              		.global	bkp_tamper_detection_disable
 512              		.syntax unified
 513              		.thumb
 514              		.thumb_func
 515              		.fpu fpv4-sp-d16
 517              	bkp_tamper_detection_disable:
 518              	.LFB128:
 221:Drivers/GD32F30x_standard_peripheral/Source/gd32f30x_bkp.c **** 
 222:Drivers/GD32F30x_standard_peripheral/Source/gd32f30x_bkp.c **** /*!
 223:Drivers/GD32F30x_standard_peripheral/Source/gd32f30x_bkp.c ****     \brief      disable tamper detection
 224:Drivers/GD32F30x_standard_peripheral/Source/gd32f30x_bkp.c ****     \param[in]  none
 225:Drivers/GD32F30x_standard_peripheral/Source/gd32f30x_bkp.c ****     \param[out] none
 226:Drivers/GD32F30x_standard_peripheral/Source/gd32f30x_bkp.c ****     \retval     none
 227:Drivers/GD32F30x_standard_peripheral/Source/gd32f30x_bkp.c **** */
 228:Drivers/GD32F30x_standard_peripheral/Source/gd32f30x_bkp.c **** void bkp_tamper_detection_disable(void)
 229:Drivers/GD32F30x_standard_peripheral/Source/gd32f30x_bkp.c **** {
 519              		.loc 1 229 1 is_stmt 1 view -0
 520              		.cfi_startproc
 521              		@ args = 0, pretend = 0, frame = 0
 522              		@ frame_needed = 0, uses_anonymous_args = 0
 523              		@ link register save eliminated.
 230:Drivers/GD32F30x_standard_peripheral/Source/gd32f30x_bkp.c ****     BKP_TPCTL &= (uint16_t)~BKP_TPCTL_TPEN;
 524              		.loc 1 230 5 view .LVU106
 525              		.loc 1 230 15 is_stmt 0 view .LVU107
 526 0000 034A     		ldr	r2, .L42
 527 0002 1388     		ldrh	r3, [r2]
 528 0004 9BB2     		uxth	r3, r3
 529 0006 23F00103 		bic	r3, r3, #1
 530 000a 9BB2     		uxth	r3, r3
 531 000c 1380     		strh	r3, [r2]	@ movhi
 231:Drivers/GD32F30x_standard_peripheral/Source/gd32f30x_bkp.c **** }
 532              		.loc 1 231 1 view .LVU108
 533 000e 7047     		bx	lr
 534              	.L43:
ARM GAS  C:\Users\Prog\AppData\Local\Temp\ccnDNAys.s 			page 14


 535              		.align	2
 536              	.L42:
 537 0010 306C0040 		.word	1073769520
 538              		.cfi_endproc
 539              	.LFE128:
 541              		.section	.text.bkp_tamper_active_level_set,"ax",%progbits
 542              		.align	1
 543              		.global	bkp_tamper_active_level_set
 544              		.syntax unified
 545              		.thumb
 546              		.thumb_func
 547              		.fpu fpv4-sp-d16
 549              	bkp_tamper_active_level_set:
 550              	.LVL29:
 551              	.LFB129:
 232:Drivers/GD32F30x_standard_peripheral/Source/gd32f30x_bkp.c **** 
 233:Drivers/GD32F30x_standard_peripheral/Source/gd32f30x_bkp.c **** /*!
 234:Drivers/GD32F30x_standard_peripheral/Source/gd32f30x_bkp.c ****     \brief      set tamper pin active level
 235:Drivers/GD32F30x_standard_peripheral/Source/gd32f30x_bkp.c ****     \param[in]  level: tamper active level
 236:Drivers/GD32F30x_standard_peripheral/Source/gd32f30x_bkp.c ****       \arg        TAMPER_PIN_ACTIVE_HIGH: the tamper pin is active high
 237:Drivers/GD32F30x_standard_peripheral/Source/gd32f30x_bkp.c ****       \arg        TAMPER_PIN_ACTIVE_LOW: the tamper pin is active low
 238:Drivers/GD32F30x_standard_peripheral/Source/gd32f30x_bkp.c ****     \param[out] none
 239:Drivers/GD32F30x_standard_peripheral/Source/gd32f30x_bkp.c ****     \retval     none
 240:Drivers/GD32F30x_standard_peripheral/Source/gd32f30x_bkp.c **** */
 241:Drivers/GD32F30x_standard_peripheral/Source/gd32f30x_bkp.c **** void bkp_tamper_active_level_set(uint16_t level)
 242:Drivers/GD32F30x_standard_peripheral/Source/gd32f30x_bkp.c **** {
 552              		.loc 1 242 1 is_stmt 1 view -0
 553              		.cfi_startproc
 554              		@ args = 0, pretend = 0, frame = 0
 555              		@ frame_needed = 0, uses_anonymous_args = 0
 556              		@ link register save eliminated.
 243:Drivers/GD32F30x_standard_peripheral/Source/gd32f30x_bkp.c ****     uint16_t ctl = 0U;
 557              		.loc 1 243 5 view .LVU110
 244:Drivers/GD32F30x_standard_peripheral/Source/gd32f30x_bkp.c ****     
 245:Drivers/GD32F30x_standard_peripheral/Source/gd32f30x_bkp.c ****     ctl = BKP_TPCTL;
 558              		.loc 1 245 5 view .LVU111
 559              		.loc 1 245 9 is_stmt 0 view .LVU112
 560 0000 034A     		ldr	r2, .L45
 561 0002 1388     		ldrh	r3, [r2]
 562 0004 9BB2     		uxth	r3, r3
 563              	.LVL30:
 246:Drivers/GD32F30x_standard_peripheral/Source/gd32f30x_bkp.c ****     ctl &= (uint16_t)~BKP_TPCTL_TPAL;
 564              		.loc 1 246 5 is_stmt 1 view .LVU113
 565              		.loc 1 246 9 is_stmt 0 view .LVU114
 566 0006 23F00203 		bic	r3, r3, #2
 567              	.LVL31:
 247:Drivers/GD32F30x_standard_peripheral/Source/gd32f30x_bkp.c ****     ctl |= level;
 568              		.loc 1 247 5 is_stmt 1 view .LVU115
 569              		.loc 1 247 9 is_stmt 0 view .LVU116
 570 000a 1843     		orrs	r0, r0, r3
 571              	.LVL32:
 248:Drivers/GD32F30x_standard_peripheral/Source/gd32f30x_bkp.c ****     BKP_TPCTL = ctl;
 572              		.loc 1 248 5 is_stmt 1 view .LVU117
 573              		.loc 1 248 15 is_stmt 0 view .LVU118
 574 000c 1080     		strh	r0, [r2]	@ movhi
 249:Drivers/GD32F30x_standard_peripheral/Source/gd32f30x_bkp.c **** }
 575              		.loc 1 249 1 view .LVU119
ARM GAS  C:\Users\Prog\AppData\Local\Temp\ccnDNAys.s 			page 15


 576 000e 7047     		bx	lr
 577              	.L46:
 578              		.align	2
 579              	.L45:
 580 0010 306C0040 		.word	1073769520
 581              		.cfi_endproc
 582              	.LFE129:
 584              		.section	.text.bkp_tamper_interrupt_enable,"ax",%progbits
 585              		.align	1
 586              		.global	bkp_tamper_interrupt_enable
 587              		.syntax unified
 588              		.thumb
 589              		.thumb_func
 590              		.fpu fpv4-sp-d16
 592              	bkp_tamper_interrupt_enable:
 593              	.LFB130:
 250:Drivers/GD32F30x_standard_peripheral/Source/gd32f30x_bkp.c **** 
 251:Drivers/GD32F30x_standard_peripheral/Source/gd32f30x_bkp.c **** /*!
 252:Drivers/GD32F30x_standard_peripheral/Source/gd32f30x_bkp.c ****     \brief      enable tamper interrupt
 253:Drivers/GD32F30x_standard_peripheral/Source/gd32f30x_bkp.c ****     \param[in]  none
 254:Drivers/GD32F30x_standard_peripheral/Source/gd32f30x_bkp.c ****     \param[out] none
 255:Drivers/GD32F30x_standard_peripheral/Source/gd32f30x_bkp.c ****     \retval     none
 256:Drivers/GD32F30x_standard_peripheral/Source/gd32f30x_bkp.c **** */
 257:Drivers/GD32F30x_standard_peripheral/Source/gd32f30x_bkp.c **** void bkp_tamper_interrupt_enable(void)
 258:Drivers/GD32F30x_standard_peripheral/Source/gd32f30x_bkp.c **** {
 594              		.loc 1 258 1 is_stmt 1 view -0
 595              		.cfi_startproc
 596              		@ args = 0, pretend = 0, frame = 0
 597              		@ frame_needed = 0, uses_anonymous_args = 0
 598              		@ link register save eliminated.
 259:Drivers/GD32F30x_standard_peripheral/Source/gd32f30x_bkp.c ****     BKP_TPCS |= (uint16_t)BKP_TPCS_TPIE;
 599              		.loc 1 259 5 view .LVU121
 600              		.loc 1 259 14 is_stmt 0 view .LVU122
 601 0000 024A     		ldr	r2, .L48
 602 0002 1388     		ldrh	r3, [r2]
 603 0004 43F00403 		orr	r3, r3, #4
 604 0008 1380     		strh	r3, [r2]	@ movhi
 260:Drivers/GD32F30x_standard_peripheral/Source/gd32f30x_bkp.c **** }
 605              		.loc 1 260 1 view .LVU123
 606 000a 7047     		bx	lr
 607              	.L49:
 608              		.align	2
 609              	.L48:
 610 000c 346C0040 		.word	1073769524
 611              		.cfi_endproc
 612              	.LFE130:
 614              		.section	.text.bkp_tamper_interrupt_disable,"ax",%progbits
 615              		.align	1
 616              		.global	bkp_tamper_interrupt_disable
 617              		.syntax unified
 618              		.thumb
 619              		.thumb_func
 620              		.fpu fpv4-sp-d16
 622              	bkp_tamper_interrupt_disable:
 623              	.LFB131:
 261:Drivers/GD32F30x_standard_peripheral/Source/gd32f30x_bkp.c **** 
 262:Drivers/GD32F30x_standard_peripheral/Source/gd32f30x_bkp.c **** /*!
ARM GAS  C:\Users\Prog\AppData\Local\Temp\ccnDNAys.s 			page 16


 263:Drivers/GD32F30x_standard_peripheral/Source/gd32f30x_bkp.c ****     \brief      disable tamper interrupt
 264:Drivers/GD32F30x_standard_peripheral/Source/gd32f30x_bkp.c ****     \param[in]  none
 265:Drivers/GD32F30x_standard_peripheral/Source/gd32f30x_bkp.c ****     \param[out] none
 266:Drivers/GD32F30x_standard_peripheral/Source/gd32f30x_bkp.c ****     \retval     none
 267:Drivers/GD32F30x_standard_peripheral/Source/gd32f30x_bkp.c **** */
 268:Drivers/GD32F30x_standard_peripheral/Source/gd32f30x_bkp.c **** void bkp_tamper_interrupt_disable(void)
 269:Drivers/GD32F30x_standard_peripheral/Source/gd32f30x_bkp.c **** {
 624              		.loc 1 269 1 is_stmt 1 view -0
 625              		.cfi_startproc
 626              		@ args = 0, pretend = 0, frame = 0
 627              		@ frame_needed = 0, uses_anonymous_args = 0
 628              		@ link register save eliminated.
 270:Drivers/GD32F30x_standard_peripheral/Source/gd32f30x_bkp.c ****     BKP_TPCS &= (uint16_t)~BKP_TPCS_TPIE;
 629              		.loc 1 270 5 view .LVU125
 630              		.loc 1 270 14 is_stmt 0 view .LVU126
 631 0000 034A     		ldr	r2, .L51
 632 0002 1388     		ldrh	r3, [r2]
 633 0004 9BB2     		uxth	r3, r3
 634 0006 23F00403 		bic	r3, r3, #4
 635 000a 9BB2     		uxth	r3, r3
 636 000c 1380     		strh	r3, [r2]	@ movhi
 271:Drivers/GD32F30x_standard_peripheral/Source/gd32f30x_bkp.c **** }
 637              		.loc 1 271 1 view .LVU127
 638 000e 7047     		bx	lr
 639              	.L52:
 640              		.align	2
 641              	.L51:
 642 0010 346C0040 		.word	1073769524
 643              		.cfi_endproc
 644              	.LFE131:
 646              		.section	.text.bkp_flag_get,"ax",%progbits
 647              		.align	1
 648              		.global	bkp_flag_get
 649              		.syntax unified
 650              		.thumb
 651              		.thumb_func
 652              		.fpu fpv4-sp-d16
 654              	bkp_flag_get:
 655              	.LVL33:
 656              	.LFB132:
 272:Drivers/GD32F30x_standard_peripheral/Source/gd32f30x_bkp.c **** 
 273:Drivers/GD32F30x_standard_peripheral/Source/gd32f30x_bkp.c **** /*!
 274:Drivers/GD32F30x_standard_peripheral/Source/gd32f30x_bkp.c ****     \brief      get bkp flag state
 275:Drivers/GD32F30x_standard_peripheral/Source/gd32f30x_bkp.c ****     \param[in]  flag
 276:Drivers/GD32F30x_standard_peripheral/Source/gd32f30x_bkp.c ****       \arg        BKP_FLAG_TAMPER: tamper event flag
 277:Drivers/GD32F30x_standard_peripheral/Source/gd32f30x_bkp.c ****     \param[out] none
 278:Drivers/GD32F30x_standard_peripheral/Source/gd32f30x_bkp.c ****     \retval     FlagStatus: SET or RESET
 279:Drivers/GD32F30x_standard_peripheral/Source/gd32f30x_bkp.c **** */
 280:Drivers/GD32F30x_standard_peripheral/Source/gd32f30x_bkp.c **** FlagStatus bkp_flag_get(uint16_t flag)
 281:Drivers/GD32F30x_standard_peripheral/Source/gd32f30x_bkp.c **** {
 657              		.loc 1 281 1 is_stmt 1 view -0
 658              		.cfi_startproc
 659              		@ args = 0, pretend = 0, frame = 0
 660              		@ frame_needed = 0, uses_anonymous_args = 0
 661              		@ link register save eliminated.
 282:Drivers/GD32F30x_standard_peripheral/Source/gd32f30x_bkp.c ****     if(RESET != (BKP_TPCS & flag)){
 662              		.loc 1 282 5 view .LVU129
ARM GAS  C:\Users\Prog\AppData\Local\Temp\ccnDNAys.s 			page 17


 663              		.loc 1 282 18 is_stmt 0 view .LVU130
 664 0000 034B     		ldr	r3, .L56
 665 0002 1B88     		ldrh	r3, [r3]
 666              		.loc 1 282 7 view .LVU131
 667 0004 1842     		tst	r0, r3
 668 0006 01D0     		beq	.L55
 283:Drivers/GD32F30x_standard_peripheral/Source/gd32f30x_bkp.c ****         return SET;
 669              		.loc 1 283 16 view .LVU132
 670 0008 0120     		movs	r0, #1
 671              	.LVL34:
 672              		.loc 1 283 16 view .LVU133
 673 000a 7047     		bx	lr
 674              	.LVL35:
 675              	.L55:
 284:Drivers/GD32F30x_standard_peripheral/Source/gd32f30x_bkp.c ****     }else{
 285:Drivers/GD32F30x_standard_peripheral/Source/gd32f30x_bkp.c ****         return RESET;
 676              		.loc 1 285 16 view .LVU134
 677 000c 0020     		movs	r0, #0
 678              	.LVL36:
 286:Drivers/GD32F30x_standard_peripheral/Source/gd32f30x_bkp.c ****     }
 287:Drivers/GD32F30x_standard_peripheral/Source/gd32f30x_bkp.c **** }
 679              		.loc 1 287 1 view .LVU135
 680 000e 7047     		bx	lr
 681              	.L57:
 682              		.align	2
 683              	.L56:
 684 0010 346C0040 		.word	1073769524
 685              		.cfi_endproc
 686              	.LFE132:
 688              		.section	.text.bkp_flag_clear,"ax",%progbits
 689              		.align	1
 690              		.global	bkp_flag_clear
 691              		.syntax unified
 692              		.thumb
 693              		.thumb_func
 694              		.fpu fpv4-sp-d16
 696              	bkp_flag_clear:
 697              	.LVL37:
 698              	.LFB133:
 288:Drivers/GD32F30x_standard_peripheral/Source/gd32f30x_bkp.c **** 
 289:Drivers/GD32F30x_standard_peripheral/Source/gd32f30x_bkp.c **** /*!
 290:Drivers/GD32F30x_standard_peripheral/Source/gd32f30x_bkp.c ****     \brief      clear bkp flag state
 291:Drivers/GD32F30x_standard_peripheral/Source/gd32f30x_bkp.c ****     \param[in]  flag
 292:Drivers/GD32F30x_standard_peripheral/Source/gd32f30x_bkp.c ****       \arg        BKP_FLAG_TAMPER: tamper event flag
 293:Drivers/GD32F30x_standard_peripheral/Source/gd32f30x_bkp.c ****     \param[out] none
 294:Drivers/GD32F30x_standard_peripheral/Source/gd32f30x_bkp.c ****     \retval     none
 295:Drivers/GD32F30x_standard_peripheral/Source/gd32f30x_bkp.c **** */
 296:Drivers/GD32F30x_standard_peripheral/Source/gd32f30x_bkp.c **** void bkp_flag_clear(uint16_t flag)
 297:Drivers/GD32F30x_standard_peripheral/Source/gd32f30x_bkp.c **** {
 699              		.loc 1 297 1 is_stmt 1 view -0
 700              		.cfi_startproc
 701              		@ args = 0, pretend = 0, frame = 0
 702              		@ frame_needed = 0, uses_anonymous_args = 0
 703              		@ link register save eliminated.
 298:Drivers/GD32F30x_standard_peripheral/Source/gd32f30x_bkp.c ****         BKP_TPCS |= (uint16_t)(flag >> TAMPER_FLAG_SHIFT);
 704              		.loc 1 298 9 view .LVU137
 705              		.loc 1 298 18 is_stmt 0 view .LVU138
ARM GAS  C:\Users\Prog\AppData\Local\Temp\ccnDNAys.s 			page 18


 706 0000 024A     		ldr	r2, .L59
 707 0002 1388     		ldrh	r3, [r2]
 708 0004 43EA1020 		orr	r0, r3, r0, lsr #8
 709              	.LVL38:
 710              		.loc 1 298 18 view .LVU139
 711 0008 1080     		strh	r0, [r2]	@ movhi
 299:Drivers/GD32F30x_standard_peripheral/Source/gd32f30x_bkp.c **** }
 712              		.loc 1 299 1 view .LVU140
 713 000a 7047     		bx	lr
 714              	.L60:
 715              		.align	2
 716              	.L59:
 717 000c 346C0040 		.word	1073769524
 718              		.cfi_endproc
 719              	.LFE133:
 721              		.section	.text.bkp_interrupt_flag_get,"ax",%progbits
 722              		.align	1
 723              		.global	bkp_interrupt_flag_get
 724              		.syntax unified
 725              		.thumb
 726              		.thumb_func
 727              		.fpu fpv4-sp-d16
 729              	bkp_interrupt_flag_get:
 730              	.LVL39:
 731              	.LFB134:
 300:Drivers/GD32F30x_standard_peripheral/Source/gd32f30x_bkp.c **** 
 301:Drivers/GD32F30x_standard_peripheral/Source/gd32f30x_bkp.c **** /*!
 302:Drivers/GD32F30x_standard_peripheral/Source/gd32f30x_bkp.c ****     \brief      get bkp interrupt flag state
 303:Drivers/GD32F30x_standard_peripheral/Source/gd32f30x_bkp.c ****     \param[in]  flag
 304:Drivers/GD32F30x_standard_peripheral/Source/gd32f30x_bkp.c ****       \arg        BKP_INT_FLAG_TAMPER: tamper interrupt flag
 305:Drivers/GD32F30x_standard_peripheral/Source/gd32f30x_bkp.c ****     \param[out] none
 306:Drivers/GD32F30x_standard_peripheral/Source/gd32f30x_bkp.c ****     \retval     FlagStatus: SET or RESET
 307:Drivers/GD32F30x_standard_peripheral/Source/gd32f30x_bkp.c **** */
 308:Drivers/GD32F30x_standard_peripheral/Source/gd32f30x_bkp.c **** FlagStatus bkp_interrupt_flag_get(uint16_t flag)
 309:Drivers/GD32F30x_standard_peripheral/Source/gd32f30x_bkp.c **** {
 732              		.loc 1 309 1 is_stmt 1 view -0
 733              		.cfi_startproc
 734              		@ args = 0, pretend = 0, frame = 0
 735              		@ frame_needed = 0, uses_anonymous_args = 0
 736              		@ link register save eliminated.
 310:Drivers/GD32F30x_standard_peripheral/Source/gd32f30x_bkp.c ****     if(RESET != (BKP_TPCS & flag)){
 737              		.loc 1 310 5 view .LVU142
 738              		.loc 1 310 18 is_stmt 0 view .LVU143
 739 0000 034B     		ldr	r3, .L64
 740 0002 1B88     		ldrh	r3, [r3]
 741              		.loc 1 310 7 view .LVU144
 742 0004 1842     		tst	r0, r3
 743 0006 01D0     		beq	.L63
 311:Drivers/GD32F30x_standard_peripheral/Source/gd32f30x_bkp.c ****         return SET;
 744              		.loc 1 311 16 view .LVU145
 745 0008 0120     		movs	r0, #1
 746              	.LVL40:
 747              		.loc 1 311 16 view .LVU146
 748 000a 7047     		bx	lr
 749              	.LVL41:
 750              	.L63:
 312:Drivers/GD32F30x_standard_peripheral/Source/gd32f30x_bkp.c ****     }else{
ARM GAS  C:\Users\Prog\AppData\Local\Temp\ccnDNAys.s 			page 19


 313:Drivers/GD32F30x_standard_peripheral/Source/gd32f30x_bkp.c ****         return RESET;
 751              		.loc 1 313 16 view .LVU147
 752 000c 0020     		movs	r0, #0
 753              	.LVL42:
 314:Drivers/GD32F30x_standard_peripheral/Source/gd32f30x_bkp.c ****     }
 315:Drivers/GD32F30x_standard_peripheral/Source/gd32f30x_bkp.c **** }
 754              		.loc 1 315 1 view .LVU148
 755 000e 7047     		bx	lr
 756              	.L65:
 757              		.align	2
 758              	.L64:
 759 0010 346C0040 		.word	1073769524
 760              		.cfi_endproc
 761              	.LFE134:
 763              		.section	.text.bkp_interrupt_flag_clear,"ax",%progbits
 764              		.align	1
 765              		.global	bkp_interrupt_flag_clear
 766              		.syntax unified
 767              		.thumb
 768              		.thumb_func
 769              		.fpu fpv4-sp-d16
 771              	bkp_interrupt_flag_clear:
 772              	.LVL43:
 773              	.LFB135:
 316:Drivers/GD32F30x_standard_peripheral/Source/gd32f30x_bkp.c **** 
 317:Drivers/GD32F30x_standard_peripheral/Source/gd32f30x_bkp.c **** /*!
 318:Drivers/GD32F30x_standard_peripheral/Source/gd32f30x_bkp.c ****     \brief      clear bkp interrupt flag state
 319:Drivers/GD32F30x_standard_peripheral/Source/gd32f30x_bkp.c ****     \param[in]  flag
 320:Drivers/GD32F30x_standard_peripheral/Source/gd32f30x_bkp.c ****       \arg        BKP_INT_FLAG_TAMPER: tamper interrupt flag
 321:Drivers/GD32F30x_standard_peripheral/Source/gd32f30x_bkp.c ****     \param[out] none
 322:Drivers/GD32F30x_standard_peripheral/Source/gd32f30x_bkp.c ****     \retval     none
 323:Drivers/GD32F30x_standard_peripheral/Source/gd32f30x_bkp.c **** */
 324:Drivers/GD32F30x_standard_peripheral/Source/gd32f30x_bkp.c **** void bkp_interrupt_flag_clear(uint16_t flag)
 325:Drivers/GD32F30x_standard_peripheral/Source/gd32f30x_bkp.c **** {
 774              		.loc 1 325 1 is_stmt 1 view -0
 775              		.cfi_startproc
 776              		@ args = 0, pretend = 0, frame = 0
 777              		@ frame_needed = 0, uses_anonymous_args = 0
 778              		@ link register save eliminated.
 326:Drivers/GD32F30x_standard_peripheral/Source/gd32f30x_bkp.c ****     BKP_TPCS |= (uint16_t)(flag >> TAMPER_FLAG_SHIFT);
 779              		.loc 1 326 5 view .LVU150
 780              		.loc 1 326 14 is_stmt 0 view .LVU151
 781 0000 024A     		ldr	r2, .L67
 782 0002 1388     		ldrh	r3, [r2]
 783 0004 43EA1020 		orr	r0, r3, r0, lsr #8
 784              	.LVL44:
 785              		.loc 1 326 14 view .LVU152
 786 0008 1080     		strh	r0, [r2]	@ movhi
 327:Drivers/GD32F30x_standard_peripheral/Source/gd32f30x_bkp.c **** }
 787              		.loc 1 327 1 view .LVU153
 788 000a 7047     		bx	lr
 789              	.L68:
 790              		.align	2
 791              	.L67:
 792 000c 346C0040 		.word	1073769524
 793              		.cfi_endproc
 794              	.LFE135:
ARM GAS  C:\Users\Prog\AppData\Local\Temp\ccnDNAys.s 			page 20


 796              		.text
 797              	.Letext0:
 798              		.file 2 "d:\\embedded_gcc\\arm_gcc\\arm-none-eabi\\include\\machine\\_default_types.h"
 799              		.file 3 "d:\\embedded_gcc\\arm_gcc\\arm-none-eabi\\include\\sys\\_stdint.h"
 800              		.file 4 "Drivers/CMSIS/core_cm4.h"
 801              		.file 5 "Drivers/CMSIS/GD/GD32F30x/Include/system_gd32f30x.h"
 802              		.file 6 "Drivers/CMSIS/GD/GD32F30x/Include/gd32f30x.h"
 803              		.file 7 "Drivers/GD32F30x_standard_peripheral/Include/gd32f30x_bkp.h"
 804              		.file 8 "Drivers/GD32F30x_standard_peripheral/Include/gd32f30x_rcu.h"
ARM GAS  C:\Users\Prog\AppData\Local\Temp\ccnDNAys.s 			page 21

