ARM GAS  C:\Users\Prog\AppData\Local\Temp\ccBCnbcK.s 			page 1


   1              		.cpu cortex-m4
   2              		.eabi_attribute 27, 1
   3              		.eabi_attribute 28, 1
   4              		.eabi_attribute 20, 1
   5              		.eabi_attribute 21, 1
   6              		.eabi_attribute 23, 3
   7              		.eabi_attribute 24, 1
   8              		.eabi_attribute 25, 1
   9              		.eabi_attribute 26, 1
  10              		.eabi_attribute 30, 1
  11              		.eabi_attribute 34, 1
  12              		.eabi_attribute 18, 4
  13              		.file	"gd32f30x_dma.c"
  14              		.text
  15              	.Ltext0:
  16              		.cfi_sections	.debug_frame
  17              		.section	.text.dma_periph_and_channel_check,"ax",%progbits
  18              		.align	1
  19              		.arch armv7e-m
  20              		.syntax unified
  21              		.thumb
  22              		.thumb_func
  23              		.fpu fpv4-sp-d16
  25              	dma_periph_and_channel_check:
  26              	.LVL0:
  27              	.LFB143:
  28              		.file 1 "Drivers/GD32F30x_standard_peripheral/Source/gd32f30x_dma.c"
   1:Drivers/GD32F30x_standard_peripheral/Source/gd32f30x_dma.c **** /*!
   2:Drivers/GD32F30x_standard_peripheral/Source/gd32f30x_dma.c ****     \file    gd32f30x_dma.c
   3:Drivers/GD32F30x_standard_peripheral/Source/gd32f30x_dma.c ****     \brief   DMA driver
   4:Drivers/GD32F30x_standard_peripheral/Source/gd32f30x_dma.c **** 
   5:Drivers/GD32F30x_standard_peripheral/Source/gd32f30x_dma.c ****     \version 2017-02-10, V1.0.0, firmware for GD32F30x
   6:Drivers/GD32F30x_standard_peripheral/Source/gd32f30x_dma.c ****     \version 2018-10-10, V1.1.0, firmware for GD32F30x
   7:Drivers/GD32F30x_standard_peripheral/Source/gd32f30x_dma.c ****     \version 2018-12-25, V2.0.0, firmware for GD32F30x
   8:Drivers/GD32F30x_standard_peripheral/Source/gd32f30x_dma.c ****     \version 2020-09-30, V2.1.0, firmware for GD32F30x
   9:Drivers/GD32F30x_standard_peripheral/Source/gd32f30x_dma.c **** */
  10:Drivers/GD32F30x_standard_peripheral/Source/gd32f30x_dma.c **** 
  11:Drivers/GD32F30x_standard_peripheral/Source/gd32f30x_dma.c **** /*
  12:Drivers/GD32F30x_standard_peripheral/Source/gd32f30x_dma.c ****     Copyright (c) 2020, GigaDevice Semiconductor Inc.
  13:Drivers/GD32F30x_standard_peripheral/Source/gd32f30x_dma.c **** 
  14:Drivers/GD32F30x_standard_peripheral/Source/gd32f30x_dma.c ****     Redistribution and use in source and binary forms, with or without modification, 
  15:Drivers/GD32F30x_standard_peripheral/Source/gd32f30x_dma.c **** are permitted provided that the following conditions are met:
  16:Drivers/GD32F30x_standard_peripheral/Source/gd32f30x_dma.c **** 
  17:Drivers/GD32F30x_standard_peripheral/Source/gd32f30x_dma.c ****     1. Redistributions of source code must retain the above copyright notice, this 
  18:Drivers/GD32F30x_standard_peripheral/Source/gd32f30x_dma.c ****        list of conditions and the following disclaimer.
  19:Drivers/GD32F30x_standard_peripheral/Source/gd32f30x_dma.c ****     2. Redistributions in binary form must reproduce the above copyright notice, 
  20:Drivers/GD32F30x_standard_peripheral/Source/gd32f30x_dma.c ****        this list of conditions and the following disclaimer in the documentation 
  21:Drivers/GD32F30x_standard_peripheral/Source/gd32f30x_dma.c ****        and/or other materials provided with the distribution.
  22:Drivers/GD32F30x_standard_peripheral/Source/gd32f30x_dma.c ****     3. Neither the name of the copyright holder nor the names of its contributors 
  23:Drivers/GD32F30x_standard_peripheral/Source/gd32f30x_dma.c ****        may be used to endorse or promote products derived from this software without 
  24:Drivers/GD32F30x_standard_peripheral/Source/gd32f30x_dma.c ****        specific prior written permission.
  25:Drivers/GD32F30x_standard_peripheral/Source/gd32f30x_dma.c **** 
  26:Drivers/GD32F30x_standard_peripheral/Source/gd32f30x_dma.c ****     THIS SOFTWARE IS PROVIDED BY THE COPYRIGHT HOLDERS AND CONTRIBUTORS "AS IS" 
  27:Drivers/GD32F30x_standard_peripheral/Source/gd32f30x_dma.c **** AND ANY EXPRESS OR IMPLIED WARRANTIES, INCLUDING, BUT NOT LIMITED TO, THE IMPLIED 
  28:Drivers/GD32F30x_standard_peripheral/Source/gd32f30x_dma.c **** WARRANTIES OF MERCHANTABILITY AND FITNESS FOR A PARTICULAR PURPOSE ARE DISCLAIMED. 
  29:Drivers/GD32F30x_standard_peripheral/Source/gd32f30x_dma.c **** IN NO EVENT SHALL THE COPYRIGHT HOLDER OR CONTRIBUTORS BE LIABLE FOR ANY DIRECT, 
  30:Drivers/GD32F30x_standard_peripheral/Source/gd32f30x_dma.c **** INDIRECT, INCIDENTAL, SPECIAL, EXEMPLARY, OR CONSEQUENTIAL DAMAGES (INCLUDING, BUT 
ARM GAS  C:\Users\Prog\AppData\Local\Temp\ccBCnbcK.s 			page 2


  31:Drivers/GD32F30x_standard_peripheral/Source/gd32f30x_dma.c **** NOT LIMITED TO, PROCUREMENT OF SUBSTITUTE GOODS OR SERVICES; LOSS OF USE, DATA, OR 
  32:Drivers/GD32F30x_standard_peripheral/Source/gd32f30x_dma.c **** PROFITS; OR BUSINESS INTERRUPTION) HOWEVER CAUSED AND ON ANY THEORY OF LIABILITY, 
  33:Drivers/GD32F30x_standard_peripheral/Source/gd32f30x_dma.c **** WHETHER IN CONTRACT, STRICT LIABILITY, OR TORT (INCLUDING NEGLIGENCE OR OTHERWISE) 
  34:Drivers/GD32F30x_standard_peripheral/Source/gd32f30x_dma.c **** ARISING IN ANY WAY OUT OF THE USE OF THIS SOFTWARE, EVEN IF ADVISED OF THE POSSIBILITY 
  35:Drivers/GD32F30x_standard_peripheral/Source/gd32f30x_dma.c **** OF SUCH DAMAGE.
  36:Drivers/GD32F30x_standard_peripheral/Source/gd32f30x_dma.c **** */
  37:Drivers/GD32F30x_standard_peripheral/Source/gd32f30x_dma.c **** 
  38:Drivers/GD32F30x_standard_peripheral/Source/gd32f30x_dma.c **** #include "gd32f30x_dma.h"
  39:Drivers/GD32F30x_standard_peripheral/Source/gd32f30x_dma.c **** #include <stdlib.h>
  40:Drivers/GD32F30x_standard_peripheral/Source/gd32f30x_dma.c **** 
  41:Drivers/GD32F30x_standard_peripheral/Source/gd32f30x_dma.c **** #define DMA_WRONG_HANDLE        while(1){}
  42:Drivers/GD32F30x_standard_peripheral/Source/gd32f30x_dma.c **** 
  43:Drivers/GD32F30x_standard_peripheral/Source/gd32f30x_dma.c **** /* check whether peripheral matches channels or not */
  44:Drivers/GD32F30x_standard_peripheral/Source/gd32f30x_dma.c **** static ErrStatus dma_periph_and_channel_check(uint32_t dma_periph, dma_channel_enum channelx);
  45:Drivers/GD32F30x_standard_peripheral/Source/gd32f30x_dma.c **** 
  46:Drivers/GD32F30x_standard_peripheral/Source/gd32f30x_dma.c **** /*!
  47:Drivers/GD32F30x_standard_peripheral/Source/gd32f30x_dma.c ****     \brief      deinitialize DMA a channel registers 
  48:Drivers/GD32F30x_standard_peripheral/Source/gd32f30x_dma.c ****     \param[in]  dma_periph: DMAx(x=0,1)
  49:Drivers/GD32F30x_standard_peripheral/Source/gd32f30x_dma.c ****       \arg        DMAx(x=0,1)
  50:Drivers/GD32F30x_standard_peripheral/Source/gd32f30x_dma.c ****     \param[in]  channelx: specify which DMA channel is deinitialized
  51:Drivers/GD32F30x_standard_peripheral/Source/gd32f30x_dma.c ****                 only one parameter can be selected which is shown as below:
  52:Drivers/GD32F30x_standard_peripheral/Source/gd32f30x_dma.c ****       \arg        DMA0: DMA_CHx(x=0..6), DMA1: DMA_CHx(x=0..4)
  53:Drivers/GD32F30x_standard_peripheral/Source/gd32f30x_dma.c ****     \param[out] none
  54:Drivers/GD32F30x_standard_peripheral/Source/gd32f30x_dma.c ****     \retval     none
  55:Drivers/GD32F30x_standard_peripheral/Source/gd32f30x_dma.c **** */
  56:Drivers/GD32F30x_standard_peripheral/Source/gd32f30x_dma.c **** void dma_deinit(uint32_t dma_periph, dma_channel_enum channelx)
  57:Drivers/GD32F30x_standard_peripheral/Source/gd32f30x_dma.c **** {
  58:Drivers/GD32F30x_standard_peripheral/Source/gd32f30x_dma.c ****     if(ERROR == dma_periph_and_channel_check(dma_periph, channelx)){
  59:Drivers/GD32F30x_standard_peripheral/Source/gd32f30x_dma.c ****         DMA_WRONG_HANDLE
  60:Drivers/GD32F30x_standard_peripheral/Source/gd32f30x_dma.c ****     }
  61:Drivers/GD32F30x_standard_peripheral/Source/gd32f30x_dma.c **** 
  62:Drivers/GD32F30x_standard_peripheral/Source/gd32f30x_dma.c ****     /* disable DMA a channel */
  63:Drivers/GD32F30x_standard_peripheral/Source/gd32f30x_dma.c ****     DMA_CHCTL(dma_periph, channelx) &= ~DMA_CHXCTL_CHEN;
  64:Drivers/GD32F30x_standard_peripheral/Source/gd32f30x_dma.c ****     /* reset DMA channel registers */
  65:Drivers/GD32F30x_standard_peripheral/Source/gd32f30x_dma.c ****     DMA_CHCTL(dma_periph, channelx) = DMA_CHCTL_RESET_VALUE;
  66:Drivers/GD32F30x_standard_peripheral/Source/gd32f30x_dma.c ****     DMA_CHCNT(dma_periph, channelx) = DMA_CHCNT_RESET_VALUE;
  67:Drivers/GD32F30x_standard_peripheral/Source/gd32f30x_dma.c ****     DMA_CHPADDR(dma_periph, channelx) = DMA_CHPADDR_RESET_VALUE;
  68:Drivers/GD32F30x_standard_peripheral/Source/gd32f30x_dma.c ****     DMA_CHMADDR(dma_periph, channelx) = DMA_CHMADDR_RESET_VALUE;
  69:Drivers/GD32F30x_standard_peripheral/Source/gd32f30x_dma.c ****     DMA_INTC(dma_periph) |= DMA_FLAG_ADD(DMA_CHINTF_RESET_VALUE, channelx);
  70:Drivers/GD32F30x_standard_peripheral/Source/gd32f30x_dma.c **** }
  71:Drivers/GD32F30x_standard_peripheral/Source/gd32f30x_dma.c **** 
  72:Drivers/GD32F30x_standard_peripheral/Source/gd32f30x_dma.c **** /*!
  73:Drivers/GD32F30x_standard_peripheral/Source/gd32f30x_dma.c ****     \brief      initialize the parameters of DMA struct with the default values
  74:Drivers/GD32F30x_standard_peripheral/Source/gd32f30x_dma.c ****     \param[in]  init_struct: the initialization data needed to initialize DMA channel
  75:Drivers/GD32F30x_standard_peripheral/Source/gd32f30x_dma.c ****     \param[out] none
  76:Drivers/GD32F30x_standard_peripheral/Source/gd32f30x_dma.c ****     \retval     none
  77:Drivers/GD32F30x_standard_peripheral/Source/gd32f30x_dma.c **** */
  78:Drivers/GD32F30x_standard_peripheral/Source/gd32f30x_dma.c **** void dma_struct_para_init(dma_parameter_struct* init_struct)
  79:Drivers/GD32F30x_standard_peripheral/Source/gd32f30x_dma.c **** {
  80:Drivers/GD32F30x_standard_peripheral/Source/gd32f30x_dma.c ****     if(NULL == init_struct){
  81:Drivers/GD32F30x_standard_peripheral/Source/gd32f30x_dma.c ****         DMA_WRONG_HANDLE
  82:Drivers/GD32F30x_standard_peripheral/Source/gd32f30x_dma.c ****     }
  83:Drivers/GD32F30x_standard_peripheral/Source/gd32f30x_dma.c **** 
  84:Drivers/GD32F30x_standard_peripheral/Source/gd32f30x_dma.c ****     /* set the DMA struct with the default values */
  85:Drivers/GD32F30x_standard_peripheral/Source/gd32f30x_dma.c ****     init_struct->periph_addr  = 0U;
  86:Drivers/GD32F30x_standard_peripheral/Source/gd32f30x_dma.c ****     init_struct->periph_width = 0U; 
  87:Drivers/GD32F30x_standard_peripheral/Source/gd32f30x_dma.c ****     init_struct->periph_inc   = DMA_PERIPH_INCREASE_DISABLE;
ARM GAS  C:\Users\Prog\AppData\Local\Temp\ccBCnbcK.s 			page 3


  88:Drivers/GD32F30x_standard_peripheral/Source/gd32f30x_dma.c ****     init_struct->memory_addr  = 0U;
  89:Drivers/GD32F30x_standard_peripheral/Source/gd32f30x_dma.c ****     init_struct->memory_width = 0U;
  90:Drivers/GD32F30x_standard_peripheral/Source/gd32f30x_dma.c ****     init_struct->memory_inc   = DMA_MEMORY_INCREASE_DISABLE;
  91:Drivers/GD32F30x_standard_peripheral/Source/gd32f30x_dma.c ****     init_struct->number       = 0U;
  92:Drivers/GD32F30x_standard_peripheral/Source/gd32f30x_dma.c ****     init_struct->direction    = DMA_PERIPHERAL_TO_MEMORY;
  93:Drivers/GD32F30x_standard_peripheral/Source/gd32f30x_dma.c ****     init_struct->priority     = DMA_PRIORITY_LOW;
  94:Drivers/GD32F30x_standard_peripheral/Source/gd32f30x_dma.c **** }
  95:Drivers/GD32F30x_standard_peripheral/Source/gd32f30x_dma.c **** 
  96:Drivers/GD32F30x_standard_peripheral/Source/gd32f30x_dma.c **** /*!
  97:Drivers/GD32F30x_standard_peripheral/Source/gd32f30x_dma.c ****     \brief      initialize DMA channel
  98:Drivers/GD32F30x_standard_peripheral/Source/gd32f30x_dma.c ****     \param[in]  dma_periph: DMAx(x=0,1)
  99:Drivers/GD32F30x_standard_peripheral/Source/gd32f30x_dma.c ****       \arg        DMAx(x=0,1)
 100:Drivers/GD32F30x_standard_peripheral/Source/gd32f30x_dma.c ****     \param[in]  channelx: specify which DMA channel is initialized
 101:Drivers/GD32F30x_standard_peripheral/Source/gd32f30x_dma.c ****                 only one parameter can be selected which is shown as below:
 102:Drivers/GD32F30x_standard_peripheral/Source/gd32f30x_dma.c ****       \arg        DMA0: DMA_CHx(x=0..6), DMA1: DMA_CHx(x=0..4)
 103:Drivers/GD32F30x_standard_peripheral/Source/gd32f30x_dma.c ****     \param[in]  init_struct: the data needed to initialize DMA channel
 104:Drivers/GD32F30x_standard_peripheral/Source/gd32f30x_dma.c ****                   periph_addr: peripheral base address
 105:Drivers/GD32F30x_standard_peripheral/Source/gd32f30x_dma.c ****                   periph_width: DMA_PERIPHERAL_WIDTH_8BIT, DMA_PERIPHERAL_WIDTH_16BIT, DMA_PERIPHER
 106:Drivers/GD32F30x_standard_peripheral/Source/gd32f30x_dma.c ****                   periph_inc: DMA_PERIPH_INCREASE_ENABLE, DMA_PERIPH_INCREASE_DISABLE 
 107:Drivers/GD32F30x_standard_peripheral/Source/gd32f30x_dma.c ****                   memory_addr: memory base address
 108:Drivers/GD32F30x_standard_peripheral/Source/gd32f30x_dma.c ****                   memory_width: DMA_MEMORY_WIDTH_8BIT, DMA_MEMORY_WIDTH_16BIT, DMA_MEMORY_WIDTH_32B
 109:Drivers/GD32F30x_standard_peripheral/Source/gd32f30x_dma.c ****                   memory_inc: DMA_MEMORY_INCREASE_ENABLE, DMA_MEMORY_INCREASE_DISABLE
 110:Drivers/GD32F30x_standard_peripheral/Source/gd32f30x_dma.c ****                   direction: DMA_PERIPHERAL_TO_MEMORY, DMA_MEMORY_TO_PERIPHERAL
 111:Drivers/GD32F30x_standard_peripheral/Source/gd32f30x_dma.c ****                   number: the number of remaining data to be transferred by the DMA
 112:Drivers/GD32F30x_standard_peripheral/Source/gd32f30x_dma.c ****                   priority: DMA_PRIORITY_LOW, DMA_PRIORITY_MEDIUM, DMA_PRIORITY_HIGH, DMA_PRIORITY_
 113:Drivers/GD32F30x_standard_peripheral/Source/gd32f30x_dma.c ****     \param[out] none
 114:Drivers/GD32F30x_standard_peripheral/Source/gd32f30x_dma.c ****     \retval     none
 115:Drivers/GD32F30x_standard_peripheral/Source/gd32f30x_dma.c **** */
 116:Drivers/GD32F30x_standard_peripheral/Source/gd32f30x_dma.c **** void dma_init(uint32_t dma_periph, dma_channel_enum channelx, dma_parameter_struct* init_struct)
 117:Drivers/GD32F30x_standard_peripheral/Source/gd32f30x_dma.c **** {
 118:Drivers/GD32F30x_standard_peripheral/Source/gd32f30x_dma.c ****     uint32_t ctl;
 119:Drivers/GD32F30x_standard_peripheral/Source/gd32f30x_dma.c **** 
 120:Drivers/GD32F30x_standard_peripheral/Source/gd32f30x_dma.c ****     if(ERROR == dma_periph_and_channel_check(dma_periph, channelx)){
 121:Drivers/GD32F30x_standard_peripheral/Source/gd32f30x_dma.c ****         DMA_WRONG_HANDLE
 122:Drivers/GD32F30x_standard_peripheral/Source/gd32f30x_dma.c ****     }
 123:Drivers/GD32F30x_standard_peripheral/Source/gd32f30x_dma.c **** 
 124:Drivers/GD32F30x_standard_peripheral/Source/gd32f30x_dma.c ****     /* configure peripheral base address */
 125:Drivers/GD32F30x_standard_peripheral/Source/gd32f30x_dma.c ****     DMA_CHPADDR(dma_periph, channelx) = init_struct->periph_addr;
 126:Drivers/GD32F30x_standard_peripheral/Source/gd32f30x_dma.c **** 
 127:Drivers/GD32F30x_standard_peripheral/Source/gd32f30x_dma.c ****     /* configure memory base address */
 128:Drivers/GD32F30x_standard_peripheral/Source/gd32f30x_dma.c ****     DMA_CHMADDR(dma_periph, channelx) = init_struct->memory_addr;
 129:Drivers/GD32F30x_standard_peripheral/Source/gd32f30x_dma.c ****     
 130:Drivers/GD32F30x_standard_peripheral/Source/gd32f30x_dma.c ****     /* configure the number of remaining data to be transferred */
 131:Drivers/GD32F30x_standard_peripheral/Source/gd32f30x_dma.c ****     DMA_CHCNT(dma_periph, channelx) = (init_struct->number & DMA_CHANNEL_CNT_MASK);
 132:Drivers/GD32F30x_standard_peripheral/Source/gd32f30x_dma.c **** 
 133:Drivers/GD32F30x_standard_peripheral/Source/gd32f30x_dma.c ****     /* configure peripheral transfer width,memory transfer width and priority */
 134:Drivers/GD32F30x_standard_peripheral/Source/gd32f30x_dma.c ****     ctl = DMA_CHCTL(dma_periph, channelx);
 135:Drivers/GD32F30x_standard_peripheral/Source/gd32f30x_dma.c ****     ctl &= ~(DMA_CHXCTL_PWIDTH | DMA_CHXCTL_MWIDTH | DMA_CHXCTL_PRIO);
 136:Drivers/GD32F30x_standard_peripheral/Source/gd32f30x_dma.c ****     ctl |= (init_struct->periph_width | init_struct->memory_width | init_struct->priority);
 137:Drivers/GD32F30x_standard_peripheral/Source/gd32f30x_dma.c ****     DMA_CHCTL(dma_periph, channelx) = ctl;
 138:Drivers/GD32F30x_standard_peripheral/Source/gd32f30x_dma.c **** 
 139:Drivers/GD32F30x_standard_peripheral/Source/gd32f30x_dma.c ****     /* configure peripheral increasing mode */
 140:Drivers/GD32F30x_standard_peripheral/Source/gd32f30x_dma.c ****     if(DMA_PERIPH_INCREASE_ENABLE == init_struct->periph_inc){
 141:Drivers/GD32F30x_standard_peripheral/Source/gd32f30x_dma.c ****         DMA_CHCTL(dma_periph, channelx) |= DMA_CHXCTL_PNAGA;
 142:Drivers/GD32F30x_standard_peripheral/Source/gd32f30x_dma.c ****     }else{
 143:Drivers/GD32F30x_standard_peripheral/Source/gd32f30x_dma.c ****         DMA_CHCTL(dma_periph, channelx) &= ~DMA_CHXCTL_PNAGA;
 144:Drivers/GD32F30x_standard_peripheral/Source/gd32f30x_dma.c ****     }
ARM GAS  C:\Users\Prog\AppData\Local\Temp\ccBCnbcK.s 			page 4


 145:Drivers/GD32F30x_standard_peripheral/Source/gd32f30x_dma.c **** 
 146:Drivers/GD32F30x_standard_peripheral/Source/gd32f30x_dma.c ****     /* configure memory increasing mode */
 147:Drivers/GD32F30x_standard_peripheral/Source/gd32f30x_dma.c ****     if(DMA_MEMORY_INCREASE_ENABLE == init_struct->memory_inc){
 148:Drivers/GD32F30x_standard_peripheral/Source/gd32f30x_dma.c ****         DMA_CHCTL(dma_periph, channelx) |= DMA_CHXCTL_MNAGA;
 149:Drivers/GD32F30x_standard_peripheral/Source/gd32f30x_dma.c ****     }else{
 150:Drivers/GD32F30x_standard_peripheral/Source/gd32f30x_dma.c ****         DMA_CHCTL(dma_periph, channelx) &= ~DMA_CHXCTL_MNAGA;
 151:Drivers/GD32F30x_standard_peripheral/Source/gd32f30x_dma.c ****     }
 152:Drivers/GD32F30x_standard_peripheral/Source/gd32f30x_dma.c **** 
 153:Drivers/GD32F30x_standard_peripheral/Source/gd32f30x_dma.c ****     /* configure the direction of data transfer */
 154:Drivers/GD32F30x_standard_peripheral/Source/gd32f30x_dma.c ****     if(DMA_PERIPHERAL_TO_MEMORY == init_struct->direction){
 155:Drivers/GD32F30x_standard_peripheral/Source/gd32f30x_dma.c ****         DMA_CHCTL(dma_periph, channelx) &= ~DMA_CHXCTL_DIR;
 156:Drivers/GD32F30x_standard_peripheral/Source/gd32f30x_dma.c ****     }else{
 157:Drivers/GD32F30x_standard_peripheral/Source/gd32f30x_dma.c ****         DMA_CHCTL(dma_periph, channelx) |= DMA_CHXCTL_DIR;
 158:Drivers/GD32F30x_standard_peripheral/Source/gd32f30x_dma.c ****     }
 159:Drivers/GD32F30x_standard_peripheral/Source/gd32f30x_dma.c **** }
 160:Drivers/GD32F30x_standard_peripheral/Source/gd32f30x_dma.c **** 
 161:Drivers/GD32F30x_standard_peripheral/Source/gd32f30x_dma.c **** /*!
 162:Drivers/GD32F30x_standard_peripheral/Source/gd32f30x_dma.c ****     \brief      enable DMA circulation mode  
 163:Drivers/GD32F30x_standard_peripheral/Source/gd32f30x_dma.c ****     \param[in]  dma_periph: DMAx(x=0,1)
 164:Drivers/GD32F30x_standard_peripheral/Source/gd32f30x_dma.c ****       \arg        DMAx(x=0,1)
 165:Drivers/GD32F30x_standard_peripheral/Source/gd32f30x_dma.c ****     \param[in]  channelx: specify which DMA channel 
 166:Drivers/GD32F30x_standard_peripheral/Source/gd32f30x_dma.c ****                 only one parameter can be selected which is shown as below:
 167:Drivers/GD32F30x_standard_peripheral/Source/gd32f30x_dma.c ****       \arg        DMA0: DMA_CHx(x=0..6), DMA1: DMA_CHx(x=0..4)
 168:Drivers/GD32F30x_standard_peripheral/Source/gd32f30x_dma.c ****     \param[out] none
 169:Drivers/GD32F30x_standard_peripheral/Source/gd32f30x_dma.c ****     \retval     none 
 170:Drivers/GD32F30x_standard_peripheral/Source/gd32f30x_dma.c **** */
 171:Drivers/GD32F30x_standard_peripheral/Source/gd32f30x_dma.c **** void dma_circulation_enable(uint32_t dma_periph, dma_channel_enum channelx)
 172:Drivers/GD32F30x_standard_peripheral/Source/gd32f30x_dma.c **** {
 173:Drivers/GD32F30x_standard_peripheral/Source/gd32f30x_dma.c ****     if(ERROR == dma_periph_and_channel_check(dma_periph, channelx)){
 174:Drivers/GD32F30x_standard_peripheral/Source/gd32f30x_dma.c ****         DMA_WRONG_HANDLE
 175:Drivers/GD32F30x_standard_peripheral/Source/gd32f30x_dma.c ****     }
 176:Drivers/GD32F30x_standard_peripheral/Source/gd32f30x_dma.c **** 
 177:Drivers/GD32F30x_standard_peripheral/Source/gd32f30x_dma.c ****     DMA_CHCTL(dma_periph, channelx) |= DMA_CHXCTL_CMEN;
 178:Drivers/GD32F30x_standard_peripheral/Source/gd32f30x_dma.c **** }
 179:Drivers/GD32F30x_standard_peripheral/Source/gd32f30x_dma.c **** 
 180:Drivers/GD32F30x_standard_peripheral/Source/gd32f30x_dma.c **** /*!
 181:Drivers/GD32F30x_standard_peripheral/Source/gd32f30x_dma.c ****     \brief      disable DMA circulation mode  
 182:Drivers/GD32F30x_standard_peripheral/Source/gd32f30x_dma.c ****     \param[in]  dma_periph: DMAx(x=0,1)
 183:Drivers/GD32F30x_standard_peripheral/Source/gd32f30x_dma.c ****       \arg        DMAx(x=0,1)
 184:Drivers/GD32F30x_standard_peripheral/Source/gd32f30x_dma.c ****     \param[in]  channelx: specify which DMA channel 
 185:Drivers/GD32F30x_standard_peripheral/Source/gd32f30x_dma.c ****                 only one parameter can be selected which is shown as below:
 186:Drivers/GD32F30x_standard_peripheral/Source/gd32f30x_dma.c ****       \arg        DMA0: DMA_CHx(x=0..6), DMA1: DMA_CHx(x=0..4)
 187:Drivers/GD32F30x_standard_peripheral/Source/gd32f30x_dma.c ****     \param[out] none
 188:Drivers/GD32F30x_standard_peripheral/Source/gd32f30x_dma.c ****     \retval     none 
 189:Drivers/GD32F30x_standard_peripheral/Source/gd32f30x_dma.c **** */
 190:Drivers/GD32F30x_standard_peripheral/Source/gd32f30x_dma.c **** void dma_circulation_disable(uint32_t dma_periph, dma_channel_enum channelx)
 191:Drivers/GD32F30x_standard_peripheral/Source/gd32f30x_dma.c **** {
 192:Drivers/GD32F30x_standard_peripheral/Source/gd32f30x_dma.c ****     if(ERROR == dma_periph_and_channel_check(dma_periph, channelx)){
 193:Drivers/GD32F30x_standard_peripheral/Source/gd32f30x_dma.c ****         DMA_WRONG_HANDLE
 194:Drivers/GD32F30x_standard_peripheral/Source/gd32f30x_dma.c ****     }
 195:Drivers/GD32F30x_standard_peripheral/Source/gd32f30x_dma.c **** 
 196:Drivers/GD32F30x_standard_peripheral/Source/gd32f30x_dma.c ****     DMA_CHCTL(dma_periph, channelx) &= ~DMA_CHXCTL_CMEN;
 197:Drivers/GD32F30x_standard_peripheral/Source/gd32f30x_dma.c **** }
 198:Drivers/GD32F30x_standard_peripheral/Source/gd32f30x_dma.c **** 
 199:Drivers/GD32F30x_standard_peripheral/Source/gd32f30x_dma.c **** /*!
 200:Drivers/GD32F30x_standard_peripheral/Source/gd32f30x_dma.c ****     \brief      enable memory to memory mode
 201:Drivers/GD32F30x_standard_peripheral/Source/gd32f30x_dma.c ****     \param[in]  dma_periph: DMAx(x=0,1)
ARM GAS  C:\Users\Prog\AppData\Local\Temp\ccBCnbcK.s 			page 5


 202:Drivers/GD32F30x_standard_peripheral/Source/gd32f30x_dma.c ****       \arg        DMAx(x=0,1)
 203:Drivers/GD32F30x_standard_peripheral/Source/gd32f30x_dma.c ****     \param[in]  channelx: specify which DMA channel 
 204:Drivers/GD32F30x_standard_peripheral/Source/gd32f30x_dma.c ****                 only one parameter can be selected which is shown as below:
 205:Drivers/GD32F30x_standard_peripheral/Source/gd32f30x_dma.c ****       \arg        DMA0: DMA_CHx(x=0..6), DMA1: DMA_CHx(x=0..4)
 206:Drivers/GD32F30x_standard_peripheral/Source/gd32f30x_dma.c ****     \param[out] none
 207:Drivers/GD32F30x_standard_peripheral/Source/gd32f30x_dma.c ****     \retval     none
 208:Drivers/GD32F30x_standard_peripheral/Source/gd32f30x_dma.c **** */
 209:Drivers/GD32F30x_standard_peripheral/Source/gd32f30x_dma.c **** void dma_memory_to_memory_enable(uint32_t dma_periph, dma_channel_enum channelx)
 210:Drivers/GD32F30x_standard_peripheral/Source/gd32f30x_dma.c **** {
 211:Drivers/GD32F30x_standard_peripheral/Source/gd32f30x_dma.c ****     if(ERROR == dma_periph_and_channel_check(dma_periph, channelx)){
 212:Drivers/GD32F30x_standard_peripheral/Source/gd32f30x_dma.c ****         DMA_WRONG_HANDLE
 213:Drivers/GD32F30x_standard_peripheral/Source/gd32f30x_dma.c ****     }
 214:Drivers/GD32F30x_standard_peripheral/Source/gd32f30x_dma.c **** 
 215:Drivers/GD32F30x_standard_peripheral/Source/gd32f30x_dma.c ****     DMA_CHCTL(dma_periph, channelx) |= DMA_CHXCTL_M2M;
 216:Drivers/GD32F30x_standard_peripheral/Source/gd32f30x_dma.c **** }
 217:Drivers/GD32F30x_standard_peripheral/Source/gd32f30x_dma.c **** 
 218:Drivers/GD32F30x_standard_peripheral/Source/gd32f30x_dma.c **** /*!
 219:Drivers/GD32F30x_standard_peripheral/Source/gd32f30x_dma.c ****     \brief      disable memory to memory mode
 220:Drivers/GD32F30x_standard_peripheral/Source/gd32f30x_dma.c ****     \param[in]  dma_periph: DMAx(x=0,1)
 221:Drivers/GD32F30x_standard_peripheral/Source/gd32f30x_dma.c ****       \arg        DMAx(x=0,1)
 222:Drivers/GD32F30x_standard_peripheral/Source/gd32f30x_dma.c ****     \param[in]  channelx: specify which DMA channel 
 223:Drivers/GD32F30x_standard_peripheral/Source/gd32f30x_dma.c ****                 only one parameter can be selected which is shown as below:
 224:Drivers/GD32F30x_standard_peripheral/Source/gd32f30x_dma.c ****       \arg        DMA0: DMA_CHx(x=0..6), DMA1: DMA_CHx(x=0..4)
 225:Drivers/GD32F30x_standard_peripheral/Source/gd32f30x_dma.c ****     \param[out] none
 226:Drivers/GD32F30x_standard_peripheral/Source/gd32f30x_dma.c ****     \retval     none
 227:Drivers/GD32F30x_standard_peripheral/Source/gd32f30x_dma.c **** */
 228:Drivers/GD32F30x_standard_peripheral/Source/gd32f30x_dma.c **** void dma_memory_to_memory_disable(uint32_t dma_periph, dma_channel_enum channelx)
 229:Drivers/GD32F30x_standard_peripheral/Source/gd32f30x_dma.c **** {
 230:Drivers/GD32F30x_standard_peripheral/Source/gd32f30x_dma.c ****     if(ERROR == dma_periph_and_channel_check(dma_periph, channelx)){
 231:Drivers/GD32F30x_standard_peripheral/Source/gd32f30x_dma.c ****         DMA_WRONG_HANDLE
 232:Drivers/GD32F30x_standard_peripheral/Source/gd32f30x_dma.c ****     }
 233:Drivers/GD32F30x_standard_peripheral/Source/gd32f30x_dma.c **** 
 234:Drivers/GD32F30x_standard_peripheral/Source/gd32f30x_dma.c ****     DMA_CHCTL(dma_periph, channelx) &= ~DMA_CHXCTL_M2M;
 235:Drivers/GD32F30x_standard_peripheral/Source/gd32f30x_dma.c **** }
 236:Drivers/GD32F30x_standard_peripheral/Source/gd32f30x_dma.c **** 
 237:Drivers/GD32F30x_standard_peripheral/Source/gd32f30x_dma.c **** /*!
 238:Drivers/GD32F30x_standard_peripheral/Source/gd32f30x_dma.c ****     \brief      enable DMA channel 
 239:Drivers/GD32F30x_standard_peripheral/Source/gd32f30x_dma.c ****     \param[in]  dma_periph: DMAx(x=0,1)
 240:Drivers/GD32F30x_standard_peripheral/Source/gd32f30x_dma.c ****       \arg        DMAx(x=0,1)
 241:Drivers/GD32F30x_standard_peripheral/Source/gd32f30x_dma.c ****     \param[in]  channelx: specify which DMA channel 
 242:Drivers/GD32F30x_standard_peripheral/Source/gd32f30x_dma.c ****                 only one parameter can be selected which is shown as below:
 243:Drivers/GD32F30x_standard_peripheral/Source/gd32f30x_dma.c ****       \arg        DMA0: DMA_CHx(x=0..6), DMA1: DMA_CHx(x=0..4)
 244:Drivers/GD32F30x_standard_peripheral/Source/gd32f30x_dma.c ****     \param[out] none
 245:Drivers/GD32F30x_standard_peripheral/Source/gd32f30x_dma.c ****     \retval     none 
 246:Drivers/GD32F30x_standard_peripheral/Source/gd32f30x_dma.c **** */
 247:Drivers/GD32F30x_standard_peripheral/Source/gd32f30x_dma.c **** void dma_channel_enable(uint32_t dma_periph, dma_channel_enum channelx)
 248:Drivers/GD32F30x_standard_peripheral/Source/gd32f30x_dma.c **** {
 249:Drivers/GD32F30x_standard_peripheral/Source/gd32f30x_dma.c ****     if(ERROR == dma_periph_and_channel_check(dma_periph, channelx)){
 250:Drivers/GD32F30x_standard_peripheral/Source/gd32f30x_dma.c ****         DMA_WRONG_HANDLE
 251:Drivers/GD32F30x_standard_peripheral/Source/gd32f30x_dma.c ****     }
 252:Drivers/GD32F30x_standard_peripheral/Source/gd32f30x_dma.c **** 
 253:Drivers/GD32F30x_standard_peripheral/Source/gd32f30x_dma.c ****     DMA_CHCTL(dma_periph, channelx) |= DMA_CHXCTL_CHEN;
 254:Drivers/GD32F30x_standard_peripheral/Source/gd32f30x_dma.c **** }
 255:Drivers/GD32F30x_standard_peripheral/Source/gd32f30x_dma.c **** 
 256:Drivers/GD32F30x_standard_peripheral/Source/gd32f30x_dma.c **** /*!
 257:Drivers/GD32F30x_standard_peripheral/Source/gd32f30x_dma.c ****     \brief      disable DMA channel 
 258:Drivers/GD32F30x_standard_peripheral/Source/gd32f30x_dma.c ****     \param[in]  dma_periph: DMAx(x=0,1)
ARM GAS  C:\Users\Prog\AppData\Local\Temp\ccBCnbcK.s 			page 6


 259:Drivers/GD32F30x_standard_peripheral/Source/gd32f30x_dma.c ****       \arg        DMAx(x=0,1)
 260:Drivers/GD32F30x_standard_peripheral/Source/gd32f30x_dma.c ****     \param[in]  channelx: specify which DMA channel 
 261:Drivers/GD32F30x_standard_peripheral/Source/gd32f30x_dma.c ****                 only one parameter can be selected which is shown as below:
 262:Drivers/GD32F30x_standard_peripheral/Source/gd32f30x_dma.c ****       \arg        DMA0: DMA_CHx(x=0..6), DMA1: DMA_CHx(x=0..4)
 263:Drivers/GD32F30x_standard_peripheral/Source/gd32f30x_dma.c ****     \param[out] none
 264:Drivers/GD32F30x_standard_peripheral/Source/gd32f30x_dma.c ****     \retval     none 
 265:Drivers/GD32F30x_standard_peripheral/Source/gd32f30x_dma.c **** */
 266:Drivers/GD32F30x_standard_peripheral/Source/gd32f30x_dma.c **** void dma_channel_disable(uint32_t dma_periph, dma_channel_enum channelx)
 267:Drivers/GD32F30x_standard_peripheral/Source/gd32f30x_dma.c **** {
 268:Drivers/GD32F30x_standard_peripheral/Source/gd32f30x_dma.c ****     if(ERROR == dma_periph_and_channel_check(dma_periph, channelx)){
 269:Drivers/GD32F30x_standard_peripheral/Source/gd32f30x_dma.c ****         DMA_WRONG_HANDLE
 270:Drivers/GD32F30x_standard_peripheral/Source/gd32f30x_dma.c ****     }
 271:Drivers/GD32F30x_standard_peripheral/Source/gd32f30x_dma.c **** 
 272:Drivers/GD32F30x_standard_peripheral/Source/gd32f30x_dma.c ****     DMA_CHCTL(dma_periph, channelx) &= ~DMA_CHXCTL_CHEN;
 273:Drivers/GD32F30x_standard_peripheral/Source/gd32f30x_dma.c **** }
 274:Drivers/GD32F30x_standard_peripheral/Source/gd32f30x_dma.c **** 
 275:Drivers/GD32F30x_standard_peripheral/Source/gd32f30x_dma.c **** /*!
 276:Drivers/GD32F30x_standard_peripheral/Source/gd32f30x_dma.c ****     \brief      set DMA peripheral base address  
 277:Drivers/GD32F30x_standard_peripheral/Source/gd32f30x_dma.c ****     \param[in]  dma_periph: DMAx(x=0,1)
 278:Drivers/GD32F30x_standard_peripheral/Source/gd32f30x_dma.c ****       \arg        DMAx(x=0,1)
 279:Drivers/GD32F30x_standard_peripheral/Source/gd32f30x_dma.c ****     \param[in]  channelx: specify which DMA channel to set peripheral base address 
 280:Drivers/GD32F30x_standard_peripheral/Source/gd32f30x_dma.c ****                 only one parameter can be selected which is shown as below:
 281:Drivers/GD32F30x_standard_peripheral/Source/gd32f30x_dma.c ****       \arg        DMA0: DMA_CHx(x=0..6), DMA1: DMA_CHx(x=0..4)
 282:Drivers/GD32F30x_standard_peripheral/Source/gd32f30x_dma.c ****     \param[in]  address: peripheral base address
 283:Drivers/GD32F30x_standard_peripheral/Source/gd32f30x_dma.c ****     \param[out] none
 284:Drivers/GD32F30x_standard_peripheral/Source/gd32f30x_dma.c ****     \retval     none 
 285:Drivers/GD32F30x_standard_peripheral/Source/gd32f30x_dma.c **** */
 286:Drivers/GD32F30x_standard_peripheral/Source/gd32f30x_dma.c **** void dma_periph_address_config(uint32_t dma_periph, dma_channel_enum channelx, uint32_t address)
 287:Drivers/GD32F30x_standard_peripheral/Source/gd32f30x_dma.c **** {
 288:Drivers/GD32F30x_standard_peripheral/Source/gd32f30x_dma.c ****     if(ERROR == dma_periph_and_channel_check(dma_periph, channelx)){
 289:Drivers/GD32F30x_standard_peripheral/Source/gd32f30x_dma.c ****         DMA_WRONG_HANDLE
 290:Drivers/GD32F30x_standard_peripheral/Source/gd32f30x_dma.c ****     }
 291:Drivers/GD32F30x_standard_peripheral/Source/gd32f30x_dma.c **** 
 292:Drivers/GD32F30x_standard_peripheral/Source/gd32f30x_dma.c ****     DMA_CHPADDR(dma_periph, channelx) = address;
 293:Drivers/GD32F30x_standard_peripheral/Source/gd32f30x_dma.c **** }
 294:Drivers/GD32F30x_standard_peripheral/Source/gd32f30x_dma.c **** 
 295:Drivers/GD32F30x_standard_peripheral/Source/gd32f30x_dma.c **** /*!
 296:Drivers/GD32F30x_standard_peripheral/Source/gd32f30x_dma.c ****     \brief      set DMA memory base address  
 297:Drivers/GD32F30x_standard_peripheral/Source/gd32f30x_dma.c ****     \param[in]  dma_periph: DMAx(x=0,1)
 298:Drivers/GD32F30x_standard_peripheral/Source/gd32f30x_dma.c ****       \arg        DMAx(x=0,1)
 299:Drivers/GD32F30x_standard_peripheral/Source/gd32f30x_dma.c ****     \param[in]  channelx: specify which DMA channel to set memory base address 
 300:Drivers/GD32F30x_standard_peripheral/Source/gd32f30x_dma.c ****                 only one parameter can be selected which is shown as below:
 301:Drivers/GD32F30x_standard_peripheral/Source/gd32f30x_dma.c ****       \arg        DMA0: DMA_CHx(x=0..6), DMA1: DMA_CHx(x=0..4)
 302:Drivers/GD32F30x_standard_peripheral/Source/gd32f30x_dma.c ****     \param[in]  address: memory base address
 303:Drivers/GD32F30x_standard_peripheral/Source/gd32f30x_dma.c ****     \param[out] none
 304:Drivers/GD32F30x_standard_peripheral/Source/gd32f30x_dma.c ****     \retval     none
 305:Drivers/GD32F30x_standard_peripheral/Source/gd32f30x_dma.c **** */
 306:Drivers/GD32F30x_standard_peripheral/Source/gd32f30x_dma.c **** void dma_memory_address_config(uint32_t dma_periph, dma_channel_enum channelx, uint32_t address)
 307:Drivers/GD32F30x_standard_peripheral/Source/gd32f30x_dma.c **** {
 308:Drivers/GD32F30x_standard_peripheral/Source/gd32f30x_dma.c ****     if(ERROR == dma_periph_and_channel_check(dma_periph, channelx)){
 309:Drivers/GD32F30x_standard_peripheral/Source/gd32f30x_dma.c ****         DMA_WRONG_HANDLE
 310:Drivers/GD32F30x_standard_peripheral/Source/gd32f30x_dma.c ****     }
 311:Drivers/GD32F30x_standard_peripheral/Source/gd32f30x_dma.c **** 
 312:Drivers/GD32F30x_standard_peripheral/Source/gd32f30x_dma.c ****     DMA_CHMADDR(dma_periph, channelx) = address;
 313:Drivers/GD32F30x_standard_peripheral/Source/gd32f30x_dma.c **** }
 314:Drivers/GD32F30x_standard_peripheral/Source/gd32f30x_dma.c **** 
 315:Drivers/GD32F30x_standard_peripheral/Source/gd32f30x_dma.c **** /*!
ARM GAS  C:\Users\Prog\AppData\Local\Temp\ccBCnbcK.s 			page 7


 316:Drivers/GD32F30x_standard_peripheral/Source/gd32f30x_dma.c ****     \brief      set the number of remaining data to be transferred by the DMA 
 317:Drivers/GD32F30x_standard_peripheral/Source/gd32f30x_dma.c ****     \param[in]  dma_periph: DMAx(x=0,1)
 318:Drivers/GD32F30x_standard_peripheral/Source/gd32f30x_dma.c ****       \arg        DMAx(x=0,1)
 319:Drivers/GD32F30x_standard_peripheral/Source/gd32f30x_dma.c ****     \param[in]  channelx: specify which DMA channel to set number 
 320:Drivers/GD32F30x_standard_peripheral/Source/gd32f30x_dma.c ****                 only one parameter can be selected which is shown as below:
 321:Drivers/GD32F30x_standard_peripheral/Source/gd32f30x_dma.c ****       \arg        DMA0: DMA_CHx(x=0..6), DMA1: DMA_CHx(x=0..4)
 322:Drivers/GD32F30x_standard_peripheral/Source/gd32f30x_dma.c ****     \param[in]  number: the number of remaining data to be transferred by the DMA
 323:Drivers/GD32F30x_standard_peripheral/Source/gd32f30x_dma.c ****     \param[out] none
 324:Drivers/GD32F30x_standard_peripheral/Source/gd32f30x_dma.c ****     \retval     none
 325:Drivers/GD32F30x_standard_peripheral/Source/gd32f30x_dma.c **** */
 326:Drivers/GD32F30x_standard_peripheral/Source/gd32f30x_dma.c **** void dma_transfer_number_config(uint32_t dma_periph, dma_channel_enum channelx, uint32_t number)
 327:Drivers/GD32F30x_standard_peripheral/Source/gd32f30x_dma.c **** {
 328:Drivers/GD32F30x_standard_peripheral/Source/gd32f30x_dma.c ****     if(ERROR == dma_periph_and_channel_check(dma_periph, channelx)){
 329:Drivers/GD32F30x_standard_peripheral/Source/gd32f30x_dma.c ****         DMA_WRONG_HANDLE
 330:Drivers/GD32F30x_standard_peripheral/Source/gd32f30x_dma.c ****     }
 331:Drivers/GD32F30x_standard_peripheral/Source/gd32f30x_dma.c ****     
 332:Drivers/GD32F30x_standard_peripheral/Source/gd32f30x_dma.c ****     DMA_CHCNT(dma_periph, channelx) = (number & DMA_CHANNEL_CNT_MASK);
 333:Drivers/GD32F30x_standard_peripheral/Source/gd32f30x_dma.c **** }
 334:Drivers/GD32F30x_standard_peripheral/Source/gd32f30x_dma.c **** 
 335:Drivers/GD32F30x_standard_peripheral/Source/gd32f30x_dma.c **** /*!
 336:Drivers/GD32F30x_standard_peripheral/Source/gd32f30x_dma.c ****     \brief      get the number of remaining data to be transferred by the DMA  
 337:Drivers/GD32F30x_standard_peripheral/Source/gd32f30x_dma.c ****     \param[in]  dma_periph: DMAx(x=0,1)
 338:Drivers/GD32F30x_standard_peripheral/Source/gd32f30x_dma.c ****       \arg        DMAx(x=0,1)
 339:Drivers/GD32F30x_standard_peripheral/Source/gd32f30x_dma.c ****     \param[in]  channelx: specify which DMA channel to set number 
 340:Drivers/GD32F30x_standard_peripheral/Source/gd32f30x_dma.c ****                 only one parameter can be selected which is shown as below:
 341:Drivers/GD32F30x_standard_peripheral/Source/gd32f30x_dma.c ****       \arg        DMA0: DMA_CHx(x=0..6), DMA1: DMA_CHx(x=0..4)
 342:Drivers/GD32F30x_standard_peripheral/Source/gd32f30x_dma.c ****     \param[out] none
 343:Drivers/GD32F30x_standard_peripheral/Source/gd32f30x_dma.c ****     \retval     uint32_t: the number of remaining data to be transferred by the DMA
 344:Drivers/GD32F30x_standard_peripheral/Source/gd32f30x_dma.c **** */
 345:Drivers/GD32F30x_standard_peripheral/Source/gd32f30x_dma.c **** uint32_t dma_transfer_number_get(uint32_t dma_periph, dma_channel_enum channelx)
 346:Drivers/GD32F30x_standard_peripheral/Source/gd32f30x_dma.c **** {
 347:Drivers/GD32F30x_standard_peripheral/Source/gd32f30x_dma.c ****     if(ERROR == dma_periph_and_channel_check(dma_periph, channelx)){
 348:Drivers/GD32F30x_standard_peripheral/Source/gd32f30x_dma.c ****         DMA_WRONG_HANDLE
 349:Drivers/GD32F30x_standard_peripheral/Source/gd32f30x_dma.c ****     }
 350:Drivers/GD32F30x_standard_peripheral/Source/gd32f30x_dma.c **** 
 351:Drivers/GD32F30x_standard_peripheral/Source/gd32f30x_dma.c ****     return (uint32_t)DMA_CHCNT(dma_periph, channelx);
 352:Drivers/GD32F30x_standard_peripheral/Source/gd32f30x_dma.c **** }
 353:Drivers/GD32F30x_standard_peripheral/Source/gd32f30x_dma.c **** 
 354:Drivers/GD32F30x_standard_peripheral/Source/gd32f30x_dma.c **** /*!
 355:Drivers/GD32F30x_standard_peripheral/Source/gd32f30x_dma.c ****     \brief      configure priority level of DMA channel 
 356:Drivers/GD32F30x_standard_peripheral/Source/gd32f30x_dma.c ****     \param[in]  dma_periph: DMAx(x=0,1)
 357:Drivers/GD32F30x_standard_peripheral/Source/gd32f30x_dma.c ****       \arg        DMAx(x=0,1)
 358:Drivers/GD32F30x_standard_peripheral/Source/gd32f30x_dma.c ****     \param[in]  channelx: specify which DMA channel 
 359:Drivers/GD32F30x_standard_peripheral/Source/gd32f30x_dma.c ****                 only one parameter can be selected which is shown as below:
 360:Drivers/GD32F30x_standard_peripheral/Source/gd32f30x_dma.c ****       \arg        DMA0: DMA_CHx(x=0..6), DMA1: DMA_CHx(x=0..4)
 361:Drivers/GD32F30x_standard_peripheral/Source/gd32f30x_dma.c ****     \param[in]  priority: priority Level of this channel
 362:Drivers/GD32F30x_standard_peripheral/Source/gd32f30x_dma.c ****                 only one parameter can be selected which is shown as below:
 363:Drivers/GD32F30x_standard_peripheral/Source/gd32f30x_dma.c ****       \arg        DMA_PRIORITY_LOW: low priority
 364:Drivers/GD32F30x_standard_peripheral/Source/gd32f30x_dma.c ****       \arg        DMA_PRIORITY_MEDIUM: medium priority
 365:Drivers/GD32F30x_standard_peripheral/Source/gd32f30x_dma.c ****       \arg        DMA_PRIORITY_HIGH: high priority
 366:Drivers/GD32F30x_standard_peripheral/Source/gd32f30x_dma.c ****       \arg        DMA_PRIORITY_ULTRA_HIGH: ultra high priority
 367:Drivers/GD32F30x_standard_peripheral/Source/gd32f30x_dma.c ****     \param[out] none
 368:Drivers/GD32F30x_standard_peripheral/Source/gd32f30x_dma.c ****     \retval     none
 369:Drivers/GD32F30x_standard_peripheral/Source/gd32f30x_dma.c **** */
 370:Drivers/GD32F30x_standard_peripheral/Source/gd32f30x_dma.c **** void dma_priority_config(uint32_t dma_periph, dma_channel_enum channelx, uint32_t priority)
 371:Drivers/GD32F30x_standard_peripheral/Source/gd32f30x_dma.c **** {
 372:Drivers/GD32F30x_standard_peripheral/Source/gd32f30x_dma.c ****     uint32_t ctl;
ARM GAS  C:\Users\Prog\AppData\Local\Temp\ccBCnbcK.s 			page 8


 373:Drivers/GD32F30x_standard_peripheral/Source/gd32f30x_dma.c **** 
 374:Drivers/GD32F30x_standard_peripheral/Source/gd32f30x_dma.c ****     if(ERROR == dma_periph_and_channel_check(dma_periph, channelx)){
 375:Drivers/GD32F30x_standard_peripheral/Source/gd32f30x_dma.c ****         DMA_WRONG_HANDLE
 376:Drivers/GD32F30x_standard_peripheral/Source/gd32f30x_dma.c ****     }
 377:Drivers/GD32F30x_standard_peripheral/Source/gd32f30x_dma.c **** 
 378:Drivers/GD32F30x_standard_peripheral/Source/gd32f30x_dma.c ****     /* acquire DMA_CHxCTL register */
 379:Drivers/GD32F30x_standard_peripheral/Source/gd32f30x_dma.c ****     ctl = DMA_CHCTL(dma_periph, channelx);
 380:Drivers/GD32F30x_standard_peripheral/Source/gd32f30x_dma.c ****     /* assign regiser */
 381:Drivers/GD32F30x_standard_peripheral/Source/gd32f30x_dma.c ****     ctl &= ~DMA_CHXCTL_PRIO;
 382:Drivers/GD32F30x_standard_peripheral/Source/gd32f30x_dma.c ****     ctl |= priority;
 383:Drivers/GD32F30x_standard_peripheral/Source/gd32f30x_dma.c ****     DMA_CHCTL(dma_periph, channelx) = ctl;
 384:Drivers/GD32F30x_standard_peripheral/Source/gd32f30x_dma.c **** }
 385:Drivers/GD32F30x_standard_peripheral/Source/gd32f30x_dma.c **** 
 386:Drivers/GD32F30x_standard_peripheral/Source/gd32f30x_dma.c **** /*!
 387:Drivers/GD32F30x_standard_peripheral/Source/gd32f30x_dma.c ****     \brief      configure transfer data size of memory 
 388:Drivers/GD32F30x_standard_peripheral/Source/gd32f30x_dma.c ****     \param[in]  dma_periph: DMAx(x=0,1)
 389:Drivers/GD32F30x_standard_peripheral/Source/gd32f30x_dma.c ****       \arg        DMAx(x=0,1)
 390:Drivers/GD32F30x_standard_peripheral/Source/gd32f30x_dma.c ****     \param[in]  channelx: specify which DMA channel 
 391:Drivers/GD32F30x_standard_peripheral/Source/gd32f30x_dma.c ****                 only one parameter can be selected which is shown as below:
 392:Drivers/GD32F30x_standard_peripheral/Source/gd32f30x_dma.c ****       \arg        DMA0: DMA_CHx(x=0..6), DMA1: DMA_CHx(x=0..4)
 393:Drivers/GD32F30x_standard_peripheral/Source/gd32f30x_dma.c ****     \param[in]  mwidth: transfer data width of memory
 394:Drivers/GD32F30x_standard_peripheral/Source/gd32f30x_dma.c ****                 only one parameter can be selected which is shown as below:
 395:Drivers/GD32F30x_standard_peripheral/Source/gd32f30x_dma.c ****       \arg        DMA_MEMORY_WIDTH_8BIT: transfer data width of memory is 8-bit
 396:Drivers/GD32F30x_standard_peripheral/Source/gd32f30x_dma.c ****       \arg        DMA_MEMORY_WIDTH_16BIT: transfer data width of memory is 16-bit
 397:Drivers/GD32F30x_standard_peripheral/Source/gd32f30x_dma.c ****       \arg        DMA_MEMORY_WIDTH_32BIT: transfer data width of memory is 32-bit
 398:Drivers/GD32F30x_standard_peripheral/Source/gd32f30x_dma.c ****     \param[out] none
 399:Drivers/GD32F30x_standard_peripheral/Source/gd32f30x_dma.c ****     \retval     none
 400:Drivers/GD32F30x_standard_peripheral/Source/gd32f30x_dma.c **** */
 401:Drivers/GD32F30x_standard_peripheral/Source/gd32f30x_dma.c **** void dma_memory_width_config(uint32_t dma_periph, dma_channel_enum channelx, uint32_t mwidth)
 402:Drivers/GD32F30x_standard_peripheral/Source/gd32f30x_dma.c **** {
 403:Drivers/GD32F30x_standard_peripheral/Source/gd32f30x_dma.c ****     uint32_t ctl;
 404:Drivers/GD32F30x_standard_peripheral/Source/gd32f30x_dma.c **** 
 405:Drivers/GD32F30x_standard_peripheral/Source/gd32f30x_dma.c ****     if(ERROR == dma_periph_and_channel_check(dma_periph, channelx)){
 406:Drivers/GD32F30x_standard_peripheral/Source/gd32f30x_dma.c ****         DMA_WRONG_HANDLE
 407:Drivers/GD32F30x_standard_peripheral/Source/gd32f30x_dma.c ****     }
 408:Drivers/GD32F30x_standard_peripheral/Source/gd32f30x_dma.c **** 
 409:Drivers/GD32F30x_standard_peripheral/Source/gd32f30x_dma.c ****     /* acquire DMA_CHxCTL register */
 410:Drivers/GD32F30x_standard_peripheral/Source/gd32f30x_dma.c ****     ctl = DMA_CHCTL(dma_periph, channelx);
 411:Drivers/GD32F30x_standard_peripheral/Source/gd32f30x_dma.c ****     /* assign regiser */
 412:Drivers/GD32F30x_standard_peripheral/Source/gd32f30x_dma.c ****     ctl &= ~DMA_CHXCTL_MWIDTH;
 413:Drivers/GD32F30x_standard_peripheral/Source/gd32f30x_dma.c ****     ctl |= mwidth;
 414:Drivers/GD32F30x_standard_peripheral/Source/gd32f30x_dma.c ****     DMA_CHCTL(dma_periph, channelx) = ctl;
 415:Drivers/GD32F30x_standard_peripheral/Source/gd32f30x_dma.c **** }
 416:Drivers/GD32F30x_standard_peripheral/Source/gd32f30x_dma.c **** 
 417:Drivers/GD32F30x_standard_peripheral/Source/gd32f30x_dma.c **** /*!
 418:Drivers/GD32F30x_standard_peripheral/Source/gd32f30x_dma.c ****     \brief      configure transfer data size of peripheral 
 419:Drivers/GD32F30x_standard_peripheral/Source/gd32f30x_dma.c ****     \param[in]  dma_periph: DMAx(x=0,1)
 420:Drivers/GD32F30x_standard_peripheral/Source/gd32f30x_dma.c ****       \arg        DMAx(x=0,1)
 421:Drivers/GD32F30x_standard_peripheral/Source/gd32f30x_dma.c ****     \param[in]  channelx: specify which DMA channel 
 422:Drivers/GD32F30x_standard_peripheral/Source/gd32f30x_dma.c ****                 only one parameter can be selected which is shown as below:
 423:Drivers/GD32F30x_standard_peripheral/Source/gd32f30x_dma.c ****       \arg        DMA0: DMA_CHx(x=0..6), DMA1: DMA_CHx(x=0..4)
 424:Drivers/GD32F30x_standard_peripheral/Source/gd32f30x_dma.c ****     \param[in]  pwidth: transfer data width of peripheral
 425:Drivers/GD32F30x_standard_peripheral/Source/gd32f30x_dma.c ****                 only one parameter can be selected which is shown as below:
 426:Drivers/GD32F30x_standard_peripheral/Source/gd32f30x_dma.c ****       \arg        DMA_PERIPHERAL_WIDTH_8BIT: transfer data width of peripheral is 8-bit
 427:Drivers/GD32F30x_standard_peripheral/Source/gd32f30x_dma.c ****       \arg        DMA_PERIPHERAL_WIDTH_16BIT: transfer data width of peripheral is 16-bit
 428:Drivers/GD32F30x_standard_peripheral/Source/gd32f30x_dma.c ****       \arg        DMA_PERIPHERAL_WIDTH_32BIT: transfer data width of peripheral is 32-bit
 429:Drivers/GD32F30x_standard_peripheral/Source/gd32f30x_dma.c ****     \param[out] none
ARM GAS  C:\Users\Prog\AppData\Local\Temp\ccBCnbcK.s 			page 9


 430:Drivers/GD32F30x_standard_peripheral/Source/gd32f30x_dma.c ****     \retval     none
 431:Drivers/GD32F30x_standard_peripheral/Source/gd32f30x_dma.c **** */
 432:Drivers/GD32F30x_standard_peripheral/Source/gd32f30x_dma.c **** void dma_periph_width_config (uint32_t dma_periph, dma_channel_enum channelx, uint32_t pwidth)
 433:Drivers/GD32F30x_standard_peripheral/Source/gd32f30x_dma.c **** {
 434:Drivers/GD32F30x_standard_peripheral/Source/gd32f30x_dma.c ****     uint32_t ctl;
 435:Drivers/GD32F30x_standard_peripheral/Source/gd32f30x_dma.c **** 
 436:Drivers/GD32F30x_standard_peripheral/Source/gd32f30x_dma.c ****     if(ERROR == dma_periph_and_channel_check(dma_periph, channelx)){
 437:Drivers/GD32F30x_standard_peripheral/Source/gd32f30x_dma.c ****         DMA_WRONG_HANDLE
 438:Drivers/GD32F30x_standard_peripheral/Source/gd32f30x_dma.c ****     }
 439:Drivers/GD32F30x_standard_peripheral/Source/gd32f30x_dma.c **** 
 440:Drivers/GD32F30x_standard_peripheral/Source/gd32f30x_dma.c ****     /* acquire DMA_CHxCTL register */
 441:Drivers/GD32F30x_standard_peripheral/Source/gd32f30x_dma.c ****     ctl = DMA_CHCTL(dma_periph, channelx);
 442:Drivers/GD32F30x_standard_peripheral/Source/gd32f30x_dma.c ****     /* assign regiser */
 443:Drivers/GD32F30x_standard_peripheral/Source/gd32f30x_dma.c ****     ctl &= ~DMA_CHXCTL_PWIDTH;
 444:Drivers/GD32F30x_standard_peripheral/Source/gd32f30x_dma.c ****     ctl |= pwidth;
 445:Drivers/GD32F30x_standard_peripheral/Source/gd32f30x_dma.c ****     DMA_CHCTL(dma_periph, channelx) = ctl;
 446:Drivers/GD32F30x_standard_peripheral/Source/gd32f30x_dma.c **** }
 447:Drivers/GD32F30x_standard_peripheral/Source/gd32f30x_dma.c **** 
 448:Drivers/GD32F30x_standard_peripheral/Source/gd32f30x_dma.c **** /*!
 449:Drivers/GD32F30x_standard_peripheral/Source/gd32f30x_dma.c ****     \brief      enable next address increasement algorithm of memory  
 450:Drivers/GD32F30x_standard_peripheral/Source/gd32f30x_dma.c ****     \param[in]  dma_periph: DMAx(x=0,1)
 451:Drivers/GD32F30x_standard_peripheral/Source/gd32f30x_dma.c ****       \arg        DMAx(x=0,1)
 452:Drivers/GD32F30x_standard_peripheral/Source/gd32f30x_dma.c ****     \param[in]  channelx: specify which DMA channel 
 453:Drivers/GD32F30x_standard_peripheral/Source/gd32f30x_dma.c ****                 only one parameter can be selected which is shown as below:
 454:Drivers/GD32F30x_standard_peripheral/Source/gd32f30x_dma.c ****       \arg        DMA0: DMA_CHx(x=0..6), DMA1: DMA_CHx(x=0..4)
 455:Drivers/GD32F30x_standard_peripheral/Source/gd32f30x_dma.c ****     \param[out] none
 456:Drivers/GD32F30x_standard_peripheral/Source/gd32f30x_dma.c ****     \retval     none
 457:Drivers/GD32F30x_standard_peripheral/Source/gd32f30x_dma.c **** */
 458:Drivers/GD32F30x_standard_peripheral/Source/gd32f30x_dma.c **** void dma_memory_increase_enable(uint32_t dma_periph, dma_channel_enum channelx)
 459:Drivers/GD32F30x_standard_peripheral/Source/gd32f30x_dma.c **** {
 460:Drivers/GD32F30x_standard_peripheral/Source/gd32f30x_dma.c ****     if(ERROR == dma_periph_and_channel_check(dma_periph, channelx)){
 461:Drivers/GD32F30x_standard_peripheral/Source/gd32f30x_dma.c ****         DMA_WRONG_HANDLE
 462:Drivers/GD32F30x_standard_peripheral/Source/gd32f30x_dma.c ****     }
 463:Drivers/GD32F30x_standard_peripheral/Source/gd32f30x_dma.c **** 
 464:Drivers/GD32F30x_standard_peripheral/Source/gd32f30x_dma.c ****     DMA_CHCTL(dma_periph, channelx) |= DMA_CHXCTL_MNAGA;
 465:Drivers/GD32F30x_standard_peripheral/Source/gd32f30x_dma.c **** }
 466:Drivers/GD32F30x_standard_peripheral/Source/gd32f30x_dma.c **** 
 467:Drivers/GD32F30x_standard_peripheral/Source/gd32f30x_dma.c **** /*!
 468:Drivers/GD32F30x_standard_peripheral/Source/gd32f30x_dma.c ****     \brief      disable next address increasement algorithm of memory  
 469:Drivers/GD32F30x_standard_peripheral/Source/gd32f30x_dma.c ****     \param[in]  dma_periph: DMAx(x=0,1)
 470:Drivers/GD32F30x_standard_peripheral/Source/gd32f30x_dma.c ****       \arg        DMAx(x=0,1)
 471:Drivers/GD32F30x_standard_peripheral/Source/gd32f30x_dma.c ****     \param[in]  channelx: specify which DMA channel 
 472:Drivers/GD32F30x_standard_peripheral/Source/gd32f30x_dma.c ****                 only one parameter can be selected which is shown as below:
 473:Drivers/GD32F30x_standard_peripheral/Source/gd32f30x_dma.c ****       \arg        DMA0: DMA_CHx(x=0..6), DMA1: DMA_CHx(x=0..4)
 474:Drivers/GD32F30x_standard_peripheral/Source/gd32f30x_dma.c ****     \param[out] none
 475:Drivers/GD32F30x_standard_peripheral/Source/gd32f30x_dma.c ****     \retval     none
 476:Drivers/GD32F30x_standard_peripheral/Source/gd32f30x_dma.c **** */
 477:Drivers/GD32F30x_standard_peripheral/Source/gd32f30x_dma.c **** void dma_memory_increase_disable(uint32_t dma_periph, dma_channel_enum channelx)
 478:Drivers/GD32F30x_standard_peripheral/Source/gd32f30x_dma.c **** {
 479:Drivers/GD32F30x_standard_peripheral/Source/gd32f30x_dma.c ****     if(ERROR == dma_periph_and_channel_check(dma_periph, channelx)){
 480:Drivers/GD32F30x_standard_peripheral/Source/gd32f30x_dma.c ****         DMA_WRONG_HANDLE
 481:Drivers/GD32F30x_standard_peripheral/Source/gd32f30x_dma.c ****     }
 482:Drivers/GD32F30x_standard_peripheral/Source/gd32f30x_dma.c **** 
 483:Drivers/GD32F30x_standard_peripheral/Source/gd32f30x_dma.c ****     DMA_CHCTL(dma_periph, channelx) &= ~DMA_CHXCTL_MNAGA;
 484:Drivers/GD32F30x_standard_peripheral/Source/gd32f30x_dma.c **** }
 485:Drivers/GD32F30x_standard_peripheral/Source/gd32f30x_dma.c **** 
 486:Drivers/GD32F30x_standard_peripheral/Source/gd32f30x_dma.c **** /*!
ARM GAS  C:\Users\Prog\AppData\Local\Temp\ccBCnbcK.s 			page 10


 487:Drivers/GD32F30x_standard_peripheral/Source/gd32f30x_dma.c ****     \brief      enable next address increasement algorithm of peripheral
 488:Drivers/GD32F30x_standard_peripheral/Source/gd32f30x_dma.c ****     \param[in]  dma_periph: DMAx(x=0,1)
 489:Drivers/GD32F30x_standard_peripheral/Source/gd32f30x_dma.c ****       \arg        DMAx(x=0,1)
 490:Drivers/GD32F30x_standard_peripheral/Source/gd32f30x_dma.c ****     \param[in]  channelx: specify which DMA channel 
 491:Drivers/GD32F30x_standard_peripheral/Source/gd32f30x_dma.c ****                 only one parameter can be selected which is shown as below:
 492:Drivers/GD32F30x_standard_peripheral/Source/gd32f30x_dma.c ****       \arg        DMA0: DMA_CHx(x=0..6), DMA1: DMA_CHx(x=0..4)
 493:Drivers/GD32F30x_standard_peripheral/Source/gd32f30x_dma.c ****     \param[out] none
 494:Drivers/GD32F30x_standard_peripheral/Source/gd32f30x_dma.c ****     \retval     none
 495:Drivers/GD32F30x_standard_peripheral/Source/gd32f30x_dma.c **** */
 496:Drivers/GD32F30x_standard_peripheral/Source/gd32f30x_dma.c **** void dma_periph_increase_enable(uint32_t dma_periph, dma_channel_enum channelx)
 497:Drivers/GD32F30x_standard_peripheral/Source/gd32f30x_dma.c **** {
 498:Drivers/GD32F30x_standard_peripheral/Source/gd32f30x_dma.c ****     if(ERROR == dma_periph_and_channel_check(dma_periph, channelx)){
 499:Drivers/GD32F30x_standard_peripheral/Source/gd32f30x_dma.c ****         DMA_WRONG_HANDLE
 500:Drivers/GD32F30x_standard_peripheral/Source/gd32f30x_dma.c ****     }
 501:Drivers/GD32F30x_standard_peripheral/Source/gd32f30x_dma.c **** 
 502:Drivers/GD32F30x_standard_peripheral/Source/gd32f30x_dma.c ****     DMA_CHCTL(dma_periph, channelx) |= DMA_CHXCTL_PNAGA;
 503:Drivers/GD32F30x_standard_peripheral/Source/gd32f30x_dma.c **** }
 504:Drivers/GD32F30x_standard_peripheral/Source/gd32f30x_dma.c **** 
 505:Drivers/GD32F30x_standard_peripheral/Source/gd32f30x_dma.c **** /*!
 506:Drivers/GD32F30x_standard_peripheral/Source/gd32f30x_dma.c ****     \brief      disable next address increasement algorithm of peripheral 
 507:Drivers/GD32F30x_standard_peripheral/Source/gd32f30x_dma.c ****     \param[in]  dma_periph: DMAx(x=0,1)
 508:Drivers/GD32F30x_standard_peripheral/Source/gd32f30x_dma.c ****       \arg        DMAx(x=0,1)
 509:Drivers/GD32F30x_standard_peripheral/Source/gd32f30x_dma.c ****     \param[in]  channelx: specify which DMA channel 
 510:Drivers/GD32F30x_standard_peripheral/Source/gd32f30x_dma.c ****                 only one parameter can be selected which is shown as below:
 511:Drivers/GD32F30x_standard_peripheral/Source/gd32f30x_dma.c ****       \arg        DMA0: DMA_CHx(x=0..6), DMA1: DMA_CHx(x=0..4)
 512:Drivers/GD32F30x_standard_peripheral/Source/gd32f30x_dma.c ****     \param[out] none
 513:Drivers/GD32F30x_standard_peripheral/Source/gd32f30x_dma.c ****     \retval     none
 514:Drivers/GD32F30x_standard_peripheral/Source/gd32f30x_dma.c **** */
 515:Drivers/GD32F30x_standard_peripheral/Source/gd32f30x_dma.c **** void dma_periph_increase_disable(uint32_t dma_periph, dma_channel_enum channelx)
 516:Drivers/GD32F30x_standard_peripheral/Source/gd32f30x_dma.c **** {
 517:Drivers/GD32F30x_standard_peripheral/Source/gd32f30x_dma.c ****     if(ERROR == dma_periph_and_channel_check(dma_periph, channelx)){
 518:Drivers/GD32F30x_standard_peripheral/Source/gd32f30x_dma.c ****         DMA_WRONG_HANDLE
 519:Drivers/GD32F30x_standard_peripheral/Source/gd32f30x_dma.c ****     }
 520:Drivers/GD32F30x_standard_peripheral/Source/gd32f30x_dma.c **** 
 521:Drivers/GD32F30x_standard_peripheral/Source/gd32f30x_dma.c ****     DMA_CHCTL(dma_periph, channelx) &= ~DMA_CHXCTL_PNAGA;
 522:Drivers/GD32F30x_standard_peripheral/Source/gd32f30x_dma.c **** }
 523:Drivers/GD32F30x_standard_peripheral/Source/gd32f30x_dma.c **** 
 524:Drivers/GD32F30x_standard_peripheral/Source/gd32f30x_dma.c **** /*!
 525:Drivers/GD32F30x_standard_peripheral/Source/gd32f30x_dma.c ****     \brief      configure the direction of data transfer on the channel  
 526:Drivers/GD32F30x_standard_peripheral/Source/gd32f30x_dma.c ****     \param[in]  dma_periph: DMAx(x=0,1)
 527:Drivers/GD32F30x_standard_peripheral/Source/gd32f30x_dma.c ****       \arg        DMAx(x=0,1)
 528:Drivers/GD32F30x_standard_peripheral/Source/gd32f30x_dma.c ****     \param[in]  channelx: specify which DMA channel 
 529:Drivers/GD32F30x_standard_peripheral/Source/gd32f30x_dma.c ****                 only one parameter can be selected which is shown as below:
 530:Drivers/GD32F30x_standard_peripheral/Source/gd32f30x_dma.c ****       \arg        DMA0: DMA_CHx(x=0..6), DMA1: DMA_CHx(x=0..4)
 531:Drivers/GD32F30x_standard_peripheral/Source/gd32f30x_dma.c ****     \param[in]  direction: specify the direction of data transfer
 532:Drivers/GD32F30x_standard_peripheral/Source/gd32f30x_dma.c ****                 only one parameter can be selected which is shown as below:
 533:Drivers/GD32F30x_standard_peripheral/Source/gd32f30x_dma.c ****       \arg        DMA_PERIPHERAL_TO_MEMORY: read from peripheral and write to memory
 534:Drivers/GD32F30x_standard_peripheral/Source/gd32f30x_dma.c ****       \arg        DMA_MEMORY_TO_PERIPHERAL: read from memory and write to peripheral
 535:Drivers/GD32F30x_standard_peripheral/Source/gd32f30x_dma.c ****     \param[out] none
 536:Drivers/GD32F30x_standard_peripheral/Source/gd32f30x_dma.c ****     \retval     none
 537:Drivers/GD32F30x_standard_peripheral/Source/gd32f30x_dma.c **** */
 538:Drivers/GD32F30x_standard_peripheral/Source/gd32f30x_dma.c **** void dma_transfer_direction_config(uint32_t dma_periph, dma_channel_enum channelx, uint32_t directi
 539:Drivers/GD32F30x_standard_peripheral/Source/gd32f30x_dma.c **** {
 540:Drivers/GD32F30x_standard_peripheral/Source/gd32f30x_dma.c ****     if(ERROR == dma_periph_and_channel_check(dma_periph, channelx)){
 541:Drivers/GD32F30x_standard_peripheral/Source/gd32f30x_dma.c ****         DMA_WRONG_HANDLE
 542:Drivers/GD32F30x_standard_peripheral/Source/gd32f30x_dma.c ****     }
 543:Drivers/GD32F30x_standard_peripheral/Source/gd32f30x_dma.c **** 
ARM GAS  C:\Users\Prog\AppData\Local\Temp\ccBCnbcK.s 			page 11


 544:Drivers/GD32F30x_standard_peripheral/Source/gd32f30x_dma.c ****     if(DMA_PERIPHERAL_TO_MEMORY == direction){
 545:Drivers/GD32F30x_standard_peripheral/Source/gd32f30x_dma.c ****         DMA_CHCTL(dma_periph, channelx) &= ~DMA_CHXCTL_DIR;
 546:Drivers/GD32F30x_standard_peripheral/Source/gd32f30x_dma.c ****     } else {
 547:Drivers/GD32F30x_standard_peripheral/Source/gd32f30x_dma.c ****         DMA_CHCTL(dma_periph, channelx) |= DMA_CHXCTL_DIR;
 548:Drivers/GD32F30x_standard_peripheral/Source/gd32f30x_dma.c ****     }
 549:Drivers/GD32F30x_standard_peripheral/Source/gd32f30x_dma.c **** }
 550:Drivers/GD32F30x_standard_peripheral/Source/gd32f30x_dma.c **** 
 551:Drivers/GD32F30x_standard_peripheral/Source/gd32f30x_dma.c **** /*!
 552:Drivers/GD32F30x_standard_peripheral/Source/gd32f30x_dma.c ****     \brief      check DMA flag is set or not 
 553:Drivers/GD32F30x_standard_peripheral/Source/gd32f30x_dma.c ****     \param[in]  dma_periph: DMAx(x=0,1)
 554:Drivers/GD32F30x_standard_peripheral/Source/gd32f30x_dma.c ****       \arg        DMAx(x=0,1)
 555:Drivers/GD32F30x_standard_peripheral/Source/gd32f30x_dma.c ****     \param[in]  channelx: specify which DMA channel to get flag
 556:Drivers/GD32F30x_standard_peripheral/Source/gd32f30x_dma.c ****                 only one parameter can be selected which is shown as below:
 557:Drivers/GD32F30x_standard_peripheral/Source/gd32f30x_dma.c ****       \arg        DMA0: DMA_CHx(x=0..6), DMA1: DMA_CHx(x=0..4)
 558:Drivers/GD32F30x_standard_peripheral/Source/gd32f30x_dma.c ****     \param[in]  flag: specify get which flag
 559:Drivers/GD32F30x_standard_peripheral/Source/gd32f30x_dma.c ****                 only one parameter can be selected which is shown as below:
 560:Drivers/GD32F30x_standard_peripheral/Source/gd32f30x_dma.c ****       \arg        DMA_FLAG_G: global interrupt flag of channel
 561:Drivers/GD32F30x_standard_peripheral/Source/gd32f30x_dma.c ****       \arg        DMA_FLAG_FTF: full transfer finish flag of channel
 562:Drivers/GD32F30x_standard_peripheral/Source/gd32f30x_dma.c ****       \arg        DMA_FLAG_HTF: half transfer finish flag of channel
 563:Drivers/GD32F30x_standard_peripheral/Source/gd32f30x_dma.c ****       \arg        DMA_FLAG_ERR: error flag of channel
 564:Drivers/GD32F30x_standard_peripheral/Source/gd32f30x_dma.c ****     \param[out] none
 565:Drivers/GD32F30x_standard_peripheral/Source/gd32f30x_dma.c ****     \retval     FlagStatus: SET or RESET
 566:Drivers/GD32F30x_standard_peripheral/Source/gd32f30x_dma.c **** */
 567:Drivers/GD32F30x_standard_peripheral/Source/gd32f30x_dma.c **** FlagStatus dma_flag_get(uint32_t dma_periph, dma_channel_enum channelx, uint32_t flag)
 568:Drivers/GD32F30x_standard_peripheral/Source/gd32f30x_dma.c **** {
 569:Drivers/GD32F30x_standard_peripheral/Source/gd32f30x_dma.c ****     FlagStatus reval;
 570:Drivers/GD32F30x_standard_peripheral/Source/gd32f30x_dma.c **** 
 571:Drivers/GD32F30x_standard_peripheral/Source/gd32f30x_dma.c ****     if(RESET != (DMA_INTF(dma_periph) & DMA_FLAG_ADD(flag, channelx))){
 572:Drivers/GD32F30x_standard_peripheral/Source/gd32f30x_dma.c ****         reval = SET;
 573:Drivers/GD32F30x_standard_peripheral/Source/gd32f30x_dma.c ****     }else{
 574:Drivers/GD32F30x_standard_peripheral/Source/gd32f30x_dma.c ****         reval = RESET;
 575:Drivers/GD32F30x_standard_peripheral/Source/gd32f30x_dma.c ****     }
 576:Drivers/GD32F30x_standard_peripheral/Source/gd32f30x_dma.c **** 
 577:Drivers/GD32F30x_standard_peripheral/Source/gd32f30x_dma.c ****     return reval;
 578:Drivers/GD32F30x_standard_peripheral/Source/gd32f30x_dma.c **** }
 579:Drivers/GD32F30x_standard_peripheral/Source/gd32f30x_dma.c **** 
 580:Drivers/GD32F30x_standard_peripheral/Source/gd32f30x_dma.c **** /*!
 581:Drivers/GD32F30x_standard_peripheral/Source/gd32f30x_dma.c ****     \brief      clear DMA a channel flag
 582:Drivers/GD32F30x_standard_peripheral/Source/gd32f30x_dma.c ****     \param[in]  dma_periph: DMAx(x=0,1)
 583:Drivers/GD32F30x_standard_peripheral/Source/gd32f30x_dma.c ****       \arg        DMAx(x=0,1)
 584:Drivers/GD32F30x_standard_peripheral/Source/gd32f30x_dma.c ****     \param[in]  channelx: specify which DMA channel to clear flag
 585:Drivers/GD32F30x_standard_peripheral/Source/gd32f30x_dma.c ****                 only one parameter can be selected which is shown as below:
 586:Drivers/GD32F30x_standard_peripheral/Source/gd32f30x_dma.c ****       \arg        DMA0: DMA_CHx(x=0..6), DMA1: DMA_CHx(x=0..4)
 587:Drivers/GD32F30x_standard_peripheral/Source/gd32f30x_dma.c ****     \param[in]  flag: specify get which flag
 588:Drivers/GD32F30x_standard_peripheral/Source/gd32f30x_dma.c ****                 only one parameter can be selected which is shown as below:
 589:Drivers/GD32F30x_standard_peripheral/Source/gd32f30x_dma.c ****       \arg        DMA_FLAG_G: global interrupt flag of channel
 590:Drivers/GD32F30x_standard_peripheral/Source/gd32f30x_dma.c ****       \arg        DMA_FLAG_FTF: full transfer finish flag of channel
 591:Drivers/GD32F30x_standard_peripheral/Source/gd32f30x_dma.c ****       \arg        DMA_FLAG_HTF: half transfer finish flag of channel
 592:Drivers/GD32F30x_standard_peripheral/Source/gd32f30x_dma.c ****       \arg        DMA_FLAG_ERR: error flag of channel
 593:Drivers/GD32F30x_standard_peripheral/Source/gd32f30x_dma.c ****     \param[out] none
 594:Drivers/GD32F30x_standard_peripheral/Source/gd32f30x_dma.c ****     \retval     none
 595:Drivers/GD32F30x_standard_peripheral/Source/gd32f30x_dma.c **** */
 596:Drivers/GD32F30x_standard_peripheral/Source/gd32f30x_dma.c **** void dma_flag_clear(uint32_t dma_periph, dma_channel_enum channelx, uint32_t flag)
 597:Drivers/GD32F30x_standard_peripheral/Source/gd32f30x_dma.c **** {
 598:Drivers/GD32F30x_standard_peripheral/Source/gd32f30x_dma.c ****     DMA_INTC(dma_periph) |= DMA_FLAG_ADD(flag, channelx);
 599:Drivers/GD32F30x_standard_peripheral/Source/gd32f30x_dma.c **** }
 600:Drivers/GD32F30x_standard_peripheral/Source/gd32f30x_dma.c **** 
ARM GAS  C:\Users\Prog\AppData\Local\Temp\ccBCnbcK.s 			page 12


 601:Drivers/GD32F30x_standard_peripheral/Source/gd32f30x_dma.c **** /*!
 602:Drivers/GD32F30x_standard_peripheral/Source/gd32f30x_dma.c ****     \brief      check DMA flag and interrupt enable bit is set or not 
 603:Drivers/GD32F30x_standard_peripheral/Source/gd32f30x_dma.c ****     \param[in]  dma_periph: DMAx(x=0,1)
 604:Drivers/GD32F30x_standard_peripheral/Source/gd32f30x_dma.c ****       \arg        DMAx(x=0,1)
 605:Drivers/GD32F30x_standard_peripheral/Source/gd32f30x_dma.c ****     \param[in]  channelx: specify which DMA channel to get flag
 606:Drivers/GD32F30x_standard_peripheral/Source/gd32f30x_dma.c ****                 only one parameter can be selected which is shown as below:
 607:Drivers/GD32F30x_standard_peripheral/Source/gd32f30x_dma.c ****       \arg        DMA0: DMA_CHx(x=0..6), DMA1: DMA_CHx(x=0..4)
 608:Drivers/GD32F30x_standard_peripheral/Source/gd32f30x_dma.c ****     \param[in]  flag: specify get which flag
 609:Drivers/GD32F30x_standard_peripheral/Source/gd32f30x_dma.c ****                 only one parameter can be selected which is shown as below:
 610:Drivers/GD32F30x_standard_peripheral/Source/gd32f30x_dma.c ****       \arg        DMA_INT_FLAG_FTF: full transfer finish interrupt flag of channel
 611:Drivers/GD32F30x_standard_peripheral/Source/gd32f30x_dma.c ****       \arg        DMA_INT_FLAG_HTF: half transfer finish interrupt flag of channel
 612:Drivers/GD32F30x_standard_peripheral/Source/gd32f30x_dma.c ****       \arg        DMA_INT_FLAG_ERR: error interrupt flag of channel
 613:Drivers/GD32F30x_standard_peripheral/Source/gd32f30x_dma.c ****     \param[out] none
 614:Drivers/GD32F30x_standard_peripheral/Source/gd32f30x_dma.c ****     \retval     FlagStatus: SET or RESET
 615:Drivers/GD32F30x_standard_peripheral/Source/gd32f30x_dma.c **** */
 616:Drivers/GD32F30x_standard_peripheral/Source/gd32f30x_dma.c **** FlagStatus dma_interrupt_flag_get(uint32_t dma_periph, dma_channel_enum channelx, uint32_t flag)
 617:Drivers/GD32F30x_standard_peripheral/Source/gd32f30x_dma.c **** {
 618:Drivers/GD32F30x_standard_peripheral/Source/gd32f30x_dma.c ****     uint32_t interrupt_enable = 0U, interrupt_flag = 0U;
 619:Drivers/GD32F30x_standard_peripheral/Source/gd32f30x_dma.c **** 
 620:Drivers/GD32F30x_standard_peripheral/Source/gd32f30x_dma.c ****     switch(flag){
 621:Drivers/GD32F30x_standard_peripheral/Source/gd32f30x_dma.c ****         case DMA_INT_FLAG_FTF:
 622:Drivers/GD32F30x_standard_peripheral/Source/gd32f30x_dma.c ****             interrupt_flag = DMA_INTF(dma_periph) & DMA_FLAG_ADD(flag, channelx);
 623:Drivers/GD32F30x_standard_peripheral/Source/gd32f30x_dma.c ****             interrupt_enable = DMA_CHCTL(dma_periph, channelx) & DMA_CHXCTL_FTFIE;
 624:Drivers/GD32F30x_standard_peripheral/Source/gd32f30x_dma.c ****             break;
 625:Drivers/GD32F30x_standard_peripheral/Source/gd32f30x_dma.c ****         case DMA_INT_FLAG_HTF:
 626:Drivers/GD32F30x_standard_peripheral/Source/gd32f30x_dma.c ****             interrupt_flag = DMA_INTF(dma_periph) & DMA_FLAG_ADD(flag, channelx);
 627:Drivers/GD32F30x_standard_peripheral/Source/gd32f30x_dma.c ****             interrupt_enable = DMA_CHCTL(dma_periph, channelx) & DMA_CHXCTL_HTFIE;
 628:Drivers/GD32F30x_standard_peripheral/Source/gd32f30x_dma.c ****             break;
 629:Drivers/GD32F30x_standard_peripheral/Source/gd32f30x_dma.c ****         case DMA_INT_FLAG_ERR:
 630:Drivers/GD32F30x_standard_peripheral/Source/gd32f30x_dma.c ****             interrupt_flag = DMA_INTF(dma_periph) & DMA_FLAG_ADD(flag, channelx);
 631:Drivers/GD32F30x_standard_peripheral/Source/gd32f30x_dma.c ****             interrupt_enable = DMA_CHCTL(dma_periph, channelx) & DMA_CHXCTL_ERRIE;
 632:Drivers/GD32F30x_standard_peripheral/Source/gd32f30x_dma.c ****             break;
 633:Drivers/GD32F30x_standard_peripheral/Source/gd32f30x_dma.c ****         default:
 634:Drivers/GD32F30x_standard_peripheral/Source/gd32f30x_dma.c ****             DMA_WRONG_HANDLE
 635:Drivers/GD32F30x_standard_peripheral/Source/gd32f30x_dma.c ****         }
 636:Drivers/GD32F30x_standard_peripheral/Source/gd32f30x_dma.c **** 
 637:Drivers/GD32F30x_standard_peripheral/Source/gd32f30x_dma.c ****     if(interrupt_flag && interrupt_enable){
 638:Drivers/GD32F30x_standard_peripheral/Source/gd32f30x_dma.c ****         return SET;
 639:Drivers/GD32F30x_standard_peripheral/Source/gd32f30x_dma.c ****     }else{
 640:Drivers/GD32F30x_standard_peripheral/Source/gd32f30x_dma.c ****         return RESET;
 641:Drivers/GD32F30x_standard_peripheral/Source/gd32f30x_dma.c ****     }
 642:Drivers/GD32F30x_standard_peripheral/Source/gd32f30x_dma.c **** }
 643:Drivers/GD32F30x_standard_peripheral/Source/gd32f30x_dma.c **** 
 644:Drivers/GD32F30x_standard_peripheral/Source/gd32f30x_dma.c **** /*!
 645:Drivers/GD32F30x_standard_peripheral/Source/gd32f30x_dma.c ****     \brief      clear DMA a channel flag
 646:Drivers/GD32F30x_standard_peripheral/Source/gd32f30x_dma.c ****     \param[in]  dma_periph: DMAx(x=0,1)
 647:Drivers/GD32F30x_standard_peripheral/Source/gd32f30x_dma.c ****       \arg        DMAx(x=0,1)
 648:Drivers/GD32F30x_standard_peripheral/Source/gd32f30x_dma.c ****     \param[in]  channelx: specify which DMA channel to clear flag
 649:Drivers/GD32F30x_standard_peripheral/Source/gd32f30x_dma.c ****                 only one parameter can be selected which is shown as below:
 650:Drivers/GD32F30x_standard_peripheral/Source/gd32f30x_dma.c ****       \arg        DMA0: DMA_CHx(x=0..6), DMA1: DMA_CHx(x=0..4)
 651:Drivers/GD32F30x_standard_peripheral/Source/gd32f30x_dma.c ****     \param[in]  flag: specify get which flag
 652:Drivers/GD32F30x_standard_peripheral/Source/gd32f30x_dma.c ****                 only one parameter can be selected which is shown as below:
 653:Drivers/GD32F30x_standard_peripheral/Source/gd32f30x_dma.c ****       \arg        DMA_INT_FLAG_G: global interrupt flag of channel
 654:Drivers/GD32F30x_standard_peripheral/Source/gd32f30x_dma.c ****       \arg        DMA_INT_FLAG_FTF: full transfer finish interrupt flag of channel
 655:Drivers/GD32F30x_standard_peripheral/Source/gd32f30x_dma.c ****       \arg        DMA_INT_FLAG_HTF: half transfer finish interrupt flag of channel
 656:Drivers/GD32F30x_standard_peripheral/Source/gd32f30x_dma.c ****       \arg        DMA_INT_FLAG_ERR: error interrupt flag of channel
 657:Drivers/GD32F30x_standard_peripheral/Source/gd32f30x_dma.c ****     \param[out] none
ARM GAS  C:\Users\Prog\AppData\Local\Temp\ccBCnbcK.s 			page 13


 658:Drivers/GD32F30x_standard_peripheral/Source/gd32f30x_dma.c ****     \retval     none
 659:Drivers/GD32F30x_standard_peripheral/Source/gd32f30x_dma.c **** */
 660:Drivers/GD32F30x_standard_peripheral/Source/gd32f30x_dma.c **** void dma_interrupt_flag_clear(uint32_t dma_periph, dma_channel_enum channelx, uint32_t flag)
 661:Drivers/GD32F30x_standard_peripheral/Source/gd32f30x_dma.c **** {
 662:Drivers/GD32F30x_standard_peripheral/Source/gd32f30x_dma.c ****     DMA_INTC(dma_periph) |= DMA_FLAG_ADD(flag, channelx);
 663:Drivers/GD32F30x_standard_peripheral/Source/gd32f30x_dma.c **** }
 664:Drivers/GD32F30x_standard_peripheral/Source/gd32f30x_dma.c **** 
 665:Drivers/GD32F30x_standard_peripheral/Source/gd32f30x_dma.c **** /*!
 666:Drivers/GD32F30x_standard_peripheral/Source/gd32f30x_dma.c ****     \brief      enable DMA interrupt
 667:Drivers/GD32F30x_standard_peripheral/Source/gd32f30x_dma.c ****     \param[in]  dma_periph: DMAx(x=0,1)
 668:Drivers/GD32F30x_standard_peripheral/Source/gd32f30x_dma.c ****       \arg        DMAx(x=0,1)
 669:Drivers/GD32F30x_standard_peripheral/Source/gd32f30x_dma.c ****     \param[in]  channelx: specify which DMA channel 
 670:Drivers/GD32F30x_standard_peripheral/Source/gd32f30x_dma.c ****                 only one parameter can be selected which is shown as below:
 671:Drivers/GD32F30x_standard_peripheral/Source/gd32f30x_dma.c ****       \arg        DMA0: DMA_CHx(x=0..6), DMA1: DMA_CHx(x=0..4)
 672:Drivers/GD32F30x_standard_peripheral/Source/gd32f30x_dma.c ****     \param[in]  source: specify which interrupt to enbale
 673:Drivers/GD32F30x_standard_peripheral/Source/gd32f30x_dma.c ****                 one or more parameters can be selected which are shown as below
 674:Drivers/GD32F30x_standard_peripheral/Source/gd32f30x_dma.c ****       \arg        DMA_INT_FTF: channel full transfer finish interrupt
 675:Drivers/GD32F30x_standard_peripheral/Source/gd32f30x_dma.c ****       \arg        DMA_INT_HTF: channel half transfer finish interrupt
 676:Drivers/GD32F30x_standard_peripheral/Source/gd32f30x_dma.c ****       \arg        DMA_INT_ERR: channel error interrupt
 677:Drivers/GD32F30x_standard_peripheral/Source/gd32f30x_dma.c ****     \param[out] none
 678:Drivers/GD32F30x_standard_peripheral/Source/gd32f30x_dma.c ****     \retval     none
 679:Drivers/GD32F30x_standard_peripheral/Source/gd32f30x_dma.c **** */
 680:Drivers/GD32F30x_standard_peripheral/Source/gd32f30x_dma.c **** void dma_interrupt_enable(uint32_t dma_periph, dma_channel_enum channelx, uint32_t source)
 681:Drivers/GD32F30x_standard_peripheral/Source/gd32f30x_dma.c **** {
 682:Drivers/GD32F30x_standard_peripheral/Source/gd32f30x_dma.c ****     if(ERROR == dma_periph_and_channel_check(dma_periph, channelx)){
 683:Drivers/GD32F30x_standard_peripheral/Source/gd32f30x_dma.c ****         DMA_WRONG_HANDLE
 684:Drivers/GD32F30x_standard_peripheral/Source/gd32f30x_dma.c ****     }
 685:Drivers/GD32F30x_standard_peripheral/Source/gd32f30x_dma.c **** 
 686:Drivers/GD32F30x_standard_peripheral/Source/gd32f30x_dma.c ****     DMA_CHCTL(dma_periph, channelx) |= source;
 687:Drivers/GD32F30x_standard_peripheral/Source/gd32f30x_dma.c **** }
 688:Drivers/GD32F30x_standard_peripheral/Source/gd32f30x_dma.c **** 
 689:Drivers/GD32F30x_standard_peripheral/Source/gd32f30x_dma.c **** /*!
 690:Drivers/GD32F30x_standard_peripheral/Source/gd32f30x_dma.c ****     \brief      disable DMA interrupt
 691:Drivers/GD32F30x_standard_peripheral/Source/gd32f30x_dma.c ****     \param[in]  dma_periph: DMAx(x=0,1)
 692:Drivers/GD32F30x_standard_peripheral/Source/gd32f30x_dma.c ****       \arg        DMAx(x=0,1)
 693:Drivers/GD32F30x_standard_peripheral/Source/gd32f30x_dma.c ****     \param[in]  channelx: specify which DMA channel 
 694:Drivers/GD32F30x_standard_peripheral/Source/gd32f30x_dma.c ****                 only one parameter can be selected which is shown as below:
 695:Drivers/GD32F30x_standard_peripheral/Source/gd32f30x_dma.c ****       \arg        DMA0: DMA_CHx(x=0..6), DMA1: DMA_CHx(x=0..4)
 696:Drivers/GD32F30x_standard_peripheral/Source/gd32f30x_dma.c ****     \param[in]  source: specify which interrupt to disbale
 697:Drivers/GD32F30x_standard_peripheral/Source/gd32f30x_dma.c ****                 one or more parameters can be selected which are shown as below
 698:Drivers/GD32F30x_standard_peripheral/Source/gd32f30x_dma.c ****       \arg        DMA_INT_FTF: channel full transfer finish interrupt
 699:Drivers/GD32F30x_standard_peripheral/Source/gd32f30x_dma.c ****       \arg        DMA_INT_HTF: channel half transfer finish interrupt
 700:Drivers/GD32F30x_standard_peripheral/Source/gd32f30x_dma.c ****       \arg        DMA_INT_ERR: channel error interrupt
 701:Drivers/GD32F30x_standard_peripheral/Source/gd32f30x_dma.c ****     \param[out] none
 702:Drivers/GD32F30x_standard_peripheral/Source/gd32f30x_dma.c ****     \retval     none
 703:Drivers/GD32F30x_standard_peripheral/Source/gd32f30x_dma.c **** */
 704:Drivers/GD32F30x_standard_peripheral/Source/gd32f30x_dma.c **** void dma_interrupt_disable(uint32_t dma_periph, dma_channel_enum channelx, uint32_t source)
 705:Drivers/GD32F30x_standard_peripheral/Source/gd32f30x_dma.c **** {
 706:Drivers/GD32F30x_standard_peripheral/Source/gd32f30x_dma.c ****     if(ERROR == dma_periph_and_channel_check(dma_periph, channelx)){
 707:Drivers/GD32F30x_standard_peripheral/Source/gd32f30x_dma.c ****         DMA_WRONG_HANDLE
 708:Drivers/GD32F30x_standard_peripheral/Source/gd32f30x_dma.c ****     }
 709:Drivers/GD32F30x_standard_peripheral/Source/gd32f30x_dma.c ****     
 710:Drivers/GD32F30x_standard_peripheral/Source/gd32f30x_dma.c ****     DMA_CHCTL(dma_periph, channelx) &= ~source;
 711:Drivers/GD32F30x_standard_peripheral/Source/gd32f30x_dma.c **** }
 712:Drivers/GD32F30x_standard_peripheral/Source/gd32f30x_dma.c **** 
 713:Drivers/GD32F30x_standard_peripheral/Source/gd32f30x_dma.c **** /*!
 714:Drivers/GD32F30x_standard_peripheral/Source/gd32f30x_dma.c ****     \brief      check whether peripheral and channels match
ARM GAS  C:\Users\Prog\AppData\Local\Temp\ccBCnbcK.s 			page 14


 715:Drivers/GD32F30x_standard_peripheral/Source/gd32f30x_dma.c ****     \param[in]  dma_periph: DMAx(x=0,1)
 716:Drivers/GD32F30x_standard_peripheral/Source/gd32f30x_dma.c ****       \arg        DMAx(x=0,1)
 717:Drivers/GD32F30x_standard_peripheral/Source/gd32f30x_dma.c ****     \param[in]  channelx: specify which DMA channel 
 718:Drivers/GD32F30x_standard_peripheral/Source/gd32f30x_dma.c ****                 only one parameter can be selected which is shown as below:
 719:Drivers/GD32F30x_standard_peripheral/Source/gd32f30x_dma.c ****       \arg        DMA_CHx(x=0..6)
 720:Drivers/GD32F30x_standard_peripheral/Source/gd32f30x_dma.c ****     \param[out] none
 721:Drivers/GD32F30x_standard_peripheral/Source/gd32f30x_dma.c ****     \retval     none
 722:Drivers/GD32F30x_standard_peripheral/Source/gd32f30x_dma.c **** */
 723:Drivers/GD32F30x_standard_peripheral/Source/gd32f30x_dma.c **** static ErrStatus dma_periph_and_channel_check(uint32_t dma_periph, dma_channel_enum channelx)
 724:Drivers/GD32F30x_standard_peripheral/Source/gd32f30x_dma.c **** {
  29              		.loc 1 724 1 view -0
  30              		.cfi_startproc
  31              		@ args = 0, pretend = 0, frame = 0
  32              		@ frame_needed = 0, uses_anonymous_args = 0
  33              		@ link register save eliminated.
 725:Drivers/GD32F30x_standard_peripheral/Source/gd32f30x_dma.c ****     ErrStatus val = SUCCESS;
  34              		.loc 1 725 5 view .LVU1
 726:Drivers/GD32F30x_standard_peripheral/Source/gd32f30x_dma.c ****     
 727:Drivers/GD32F30x_standard_peripheral/Source/gd32f30x_dma.c ****     if(DMA1 == dma_periph){
  35              		.loc 1 727 5 view .LVU2
  36              		.loc 1 727 7 is_stmt 0 view .LVU3
  37 0000 054B     		ldr	r3, .L6
  38 0002 9842     		cmp	r0, r3
  39 0004 01D0     		beq	.L5
 725:Drivers/GD32F30x_standard_peripheral/Source/gd32f30x_dma.c ****     ErrStatus val = SUCCESS;
  40              		.loc 1 725 15 view .LVU4
  41 0006 0120     		movs	r0, #1
  42              	.LVL1:
 725:Drivers/GD32F30x_standard_peripheral/Source/gd32f30x_dma.c ****     ErrStatus val = SUCCESS;
  43              		.loc 1 725 15 view .LVU5
  44 0008 7047     		bx	lr
  45              	.LVL2:
  46              	.L5:
 728:Drivers/GD32F30x_standard_peripheral/Source/gd32f30x_dma.c ****         /* for DMA1, the channel is from DMA_CH0 to DMA_CH4 */
 729:Drivers/GD32F30x_standard_peripheral/Source/gd32f30x_dma.c ****         if(channelx > DMA_CH4){
  47              		.loc 1 729 9 is_stmt 1 view .LVU6
  48              		.loc 1 729 11 is_stmt 0 view .LVU7
  49 000a 0429     		cmp	r1, #4
  50 000c 01D8     		bhi	.L4
 725:Drivers/GD32F30x_standard_peripheral/Source/gd32f30x_dma.c ****     
  51              		.loc 1 725 15 view .LVU8
  52 000e 0120     		movs	r0, #1
  53              	.LVL3:
 725:Drivers/GD32F30x_standard_peripheral/Source/gd32f30x_dma.c ****     
  54              		.loc 1 725 15 view .LVU9
  55 0010 7047     		bx	lr
  56              	.LVL4:
  57              	.L4:
 730:Drivers/GD32F30x_standard_peripheral/Source/gd32f30x_dma.c ****             val = ERROR;
  58              		.loc 1 730 17 view .LVU10
  59 0012 0020     		movs	r0, #0
  60              	.LVL5:
 731:Drivers/GD32F30x_standard_peripheral/Source/gd32f30x_dma.c ****         }
 732:Drivers/GD32F30x_standard_peripheral/Source/gd32f30x_dma.c ****     }
 733:Drivers/GD32F30x_standard_peripheral/Source/gd32f30x_dma.c **** 
 734:Drivers/GD32F30x_standard_peripheral/Source/gd32f30x_dma.c ****     return val;
  61              		.loc 1 734 5 is_stmt 1 view .LVU11
ARM GAS  C:\Users\Prog\AppData\Local\Temp\ccBCnbcK.s 			page 15


 735:Drivers/GD32F30x_standard_peripheral/Source/gd32f30x_dma.c **** }
  62              		.loc 1 735 1 is_stmt 0 view .LVU12
  63 0014 7047     		bx	lr
  64              	.L7:
  65 0016 00BF     		.align	2
  66              	.L6:
  67 0018 00040240 		.word	1073873920
  68              		.cfi_endproc
  69              	.LFE143:
  71              		.section	.text.dma_deinit,"ax",%progbits
  72              		.align	1
  73              		.global	dma_deinit
  74              		.syntax unified
  75              		.thumb
  76              		.thumb_func
  77              		.fpu fpv4-sp-d16
  79              	dma_deinit:
  80              	.LVL6:
  81              	.LFB116:
  57:Drivers/GD32F30x_standard_peripheral/Source/gd32f30x_dma.c ****     if(ERROR == dma_periph_and_channel_check(dma_periph, channelx)){
  82              		.loc 1 57 1 is_stmt 1 view -0
  83              		.cfi_startproc
  84              		@ args = 0, pretend = 0, frame = 0
  85              		@ frame_needed = 0, uses_anonymous_args = 0
  57:Drivers/GD32F30x_standard_peripheral/Source/gd32f30x_dma.c ****     if(ERROR == dma_periph_and_channel_check(dma_periph, channelx)){
  86              		.loc 1 57 1 is_stmt 0 view .LVU14
  87 0000 38B5     		push	{r3, r4, r5, lr}
  88              	.LCFI0:
  89              		.cfi_def_cfa_offset 16
  90              		.cfi_offset 3, -16
  91              		.cfi_offset 4, -12
  92              		.cfi_offset 5, -8
  93              		.cfi_offset 14, -4
  94 0002 0546     		mov	r5, r0
  95 0004 0C46     		mov	r4, r1
  58:Drivers/GD32F30x_standard_peripheral/Source/gd32f30x_dma.c ****         DMA_WRONG_HANDLE
  96              		.loc 1 58 5 is_stmt 1 view .LVU15
  58:Drivers/GD32F30x_standard_peripheral/Source/gd32f30x_dma.c ****         DMA_WRONG_HANDLE
  97              		.loc 1 58 17 is_stmt 0 view .LVU16
  98 0006 FFF7FEFF 		bl	dma_periph_and_channel_check
  99              	.LVL7:
  58:Drivers/GD32F30x_standard_peripheral/Source/gd32f30x_dma.c ****         DMA_WRONG_HANDLE
 100              		.loc 1 58 7 view .LVU17
 101 000a 00B9     		cbnz	r0, .L9
 102              	.L10:
  59:Drivers/GD32F30x_standard_peripheral/Source/gd32f30x_dma.c ****     }
 103              		.loc 1 59 9 is_stmt 1 discriminator 1 view .LVU18
  59:Drivers/GD32F30x_standard_peripheral/Source/gd32f30x_dma.c ****     }
 104              		.loc 1 59 9 discriminator 1 view .LVU19
  59:Drivers/GD32F30x_standard_peripheral/Source/gd32f30x_dma.c ****     }
 105              		.loc 1 59 9 discriminator 1 view .LVU20
 106 000c FEE7     		b	.L10
 107              	.L9:
  63:Drivers/GD32F30x_standard_peripheral/Source/gd32f30x_dma.c ****     /* reset DMA channel registers */
 108              		.loc 1 63 5 view .LVU21
  63:Drivers/GD32F30x_standard_peripheral/Source/gd32f30x_dma.c ****     /* reset DMA channel registers */
 109              		.loc 1 63 37 is_stmt 0 view .LVU22
ARM GAS  C:\Users\Prog\AppData\Local\Temp\ccBCnbcK.s 			page 16


 110 000e A100     		lsls	r1, r4, #2
 111 0010 04EB8404 		add	r4, r4, r4, lsl #2
 112 0014 05EB8403 		add	r3, r5, r4, lsl #2
 113 0018 9A68     		ldr	r2, [r3, #8]
 114 001a 22F00102 		bic	r2, r2, #1
 115 001e 9A60     		str	r2, [r3, #8]
  65:Drivers/GD32F30x_standard_peripheral/Source/gd32f30x_dma.c ****     DMA_CHCNT(dma_periph, channelx) = DMA_CHCNT_RESET_VALUE;
 116              		.loc 1 65 5 is_stmt 1 view .LVU23
  65:Drivers/GD32F30x_standard_peripheral/Source/gd32f30x_dma.c ****     DMA_CHCNT(dma_periph, channelx) = DMA_CHCNT_RESET_VALUE;
 117              		.loc 1 65 37 is_stmt 0 view .LVU24
 118 0020 0022     		movs	r2, #0
 119 0022 9A60     		str	r2, [r3, #8]
  66:Drivers/GD32F30x_standard_peripheral/Source/gd32f30x_dma.c ****     DMA_CHPADDR(dma_periph, channelx) = DMA_CHPADDR_RESET_VALUE;
 120              		.loc 1 66 5 is_stmt 1 view .LVU25
  66:Drivers/GD32F30x_standard_peripheral/Source/gd32f30x_dma.c ****     DMA_CHPADDR(dma_periph, channelx) = DMA_CHPADDR_RESET_VALUE;
 121              		.loc 1 66 37 is_stmt 0 view .LVU26
 122 0024 DA60     		str	r2, [r3, #12]
  67:Drivers/GD32F30x_standard_peripheral/Source/gd32f30x_dma.c ****     DMA_CHMADDR(dma_periph, channelx) = DMA_CHMADDR_RESET_VALUE;
 123              		.loc 1 67 5 is_stmt 1 view .LVU27
  67:Drivers/GD32F30x_standard_peripheral/Source/gd32f30x_dma.c ****     DMA_CHMADDR(dma_periph, channelx) = DMA_CHMADDR_RESET_VALUE;
 124              		.loc 1 67 39 is_stmt 0 view .LVU28
 125 0026 1A61     		str	r2, [r3, #16]
  68:Drivers/GD32F30x_standard_peripheral/Source/gd32f30x_dma.c ****     DMA_INTC(dma_periph) |= DMA_FLAG_ADD(DMA_CHINTF_RESET_VALUE, channelx);
 126              		.loc 1 68 5 is_stmt 1 view .LVU29
  68:Drivers/GD32F30x_standard_peripheral/Source/gd32f30x_dma.c ****     DMA_INTC(dma_periph) |= DMA_FLAG_ADD(DMA_CHINTF_RESET_VALUE, channelx);
 127              		.loc 1 68 39 is_stmt 0 view .LVU30
 128 0028 5A61     		str	r2, [r3, #20]
  69:Drivers/GD32F30x_standard_peripheral/Source/gd32f30x_dma.c **** }
 129              		.loc 1 69 5 is_stmt 1 view .LVU31
  69:Drivers/GD32F30x_standard_peripheral/Source/gd32f30x_dma.c **** }
 130              		.loc 1 69 26 is_stmt 0 view .LVU32
 131 002a 6B68     		ldr	r3, [r5, #4]
  69:Drivers/GD32F30x_standard_peripheral/Source/gd32f30x_dma.c **** }
 132              		.loc 1 69 29 view .LVU33
 133 002c 0F22     		movs	r2, #15
 134 002e 8A40     		lsls	r2, r2, r1
  69:Drivers/GD32F30x_standard_peripheral/Source/gd32f30x_dma.c **** }
 135              		.loc 1 69 26 view .LVU34
 136 0030 1343     		orrs	r3, r3, r2
 137 0032 6B60     		str	r3, [r5, #4]
  70:Drivers/GD32F30x_standard_peripheral/Source/gd32f30x_dma.c **** 
 138              		.loc 1 70 1 view .LVU35
 139 0034 38BD     		pop	{r3, r4, r5, pc}
  70:Drivers/GD32F30x_standard_peripheral/Source/gd32f30x_dma.c **** 
 140              		.loc 1 70 1 view .LVU36
 141              		.cfi_endproc
 142              	.LFE116:
 144              		.section	.text.dma_struct_para_init,"ax",%progbits
 145              		.align	1
 146              		.global	dma_struct_para_init
 147              		.syntax unified
 148              		.thumb
 149              		.thumb_func
 150              		.fpu fpv4-sp-d16
 152              	dma_struct_para_init:
 153              	.LVL8:
 154              	.LFB117:
ARM GAS  C:\Users\Prog\AppData\Local\Temp\ccBCnbcK.s 			page 17


  79:Drivers/GD32F30x_standard_peripheral/Source/gd32f30x_dma.c ****     if(NULL == init_struct){
 155              		.loc 1 79 1 is_stmt 1 view -0
 156              		.cfi_startproc
 157              		@ args = 0, pretend = 0, frame = 0
 158              		@ frame_needed = 0, uses_anonymous_args = 0
 159              		@ link register save eliminated.
  80:Drivers/GD32F30x_standard_peripheral/Source/gd32f30x_dma.c ****         DMA_WRONG_HANDLE
 160              		.loc 1 80 5 view .LVU38
  80:Drivers/GD32F30x_standard_peripheral/Source/gd32f30x_dma.c ****         DMA_WRONG_HANDLE
 161              		.loc 1 80 7 is_stmt 0 view .LVU39
 162 0000 50B1     		cbz	r0, .L14
  85:Drivers/GD32F30x_standard_peripheral/Source/gd32f30x_dma.c ****     init_struct->periph_width = 0U; 
 163              		.loc 1 85 5 is_stmt 1 view .LVU40
  85:Drivers/GD32F30x_standard_peripheral/Source/gd32f30x_dma.c ****     init_struct->periph_width = 0U; 
 164              		.loc 1 85 31 is_stmt 0 view .LVU41
 165 0002 0022     		movs	r2, #0
 166 0004 0260     		str	r2, [r0]
  86:Drivers/GD32F30x_standard_peripheral/Source/gd32f30x_dma.c ****     init_struct->periph_inc   = DMA_PERIPH_INCREASE_DISABLE;
 167              		.loc 1 86 5 is_stmt 1 view .LVU42
  86:Drivers/GD32F30x_standard_peripheral/Source/gd32f30x_dma.c ****     init_struct->periph_inc   = DMA_PERIPH_INCREASE_DISABLE;
 168              		.loc 1 86 31 is_stmt 0 view .LVU43
 169 0006 4260     		str	r2, [r0, #4]
  87:Drivers/GD32F30x_standard_peripheral/Source/gd32f30x_dma.c ****     init_struct->memory_addr  = 0U;
 170              		.loc 1 87 5 is_stmt 1 view .LVU44
  87:Drivers/GD32F30x_standard_peripheral/Source/gd32f30x_dma.c ****     init_struct->memory_addr  = 0U;
 171              		.loc 1 87 31 is_stmt 0 view .LVU45
 172 0008 0276     		strb	r2, [r0, #24]
  88:Drivers/GD32F30x_standard_peripheral/Source/gd32f30x_dma.c ****     init_struct->memory_width = 0U;
 173              		.loc 1 88 5 is_stmt 1 view .LVU46
  88:Drivers/GD32F30x_standard_peripheral/Source/gd32f30x_dma.c ****     init_struct->memory_width = 0U;
 174              		.loc 1 88 31 is_stmt 0 view .LVU47
 175 000a 8260     		str	r2, [r0, #8]
  89:Drivers/GD32F30x_standard_peripheral/Source/gd32f30x_dma.c ****     init_struct->memory_inc   = DMA_MEMORY_INCREASE_DISABLE;
 176              		.loc 1 89 5 is_stmt 1 view .LVU48
  89:Drivers/GD32F30x_standard_peripheral/Source/gd32f30x_dma.c ****     init_struct->memory_inc   = DMA_MEMORY_INCREASE_DISABLE;
 177              		.loc 1 89 31 is_stmt 0 view .LVU49
 178 000c C260     		str	r2, [r0, #12]
  90:Drivers/GD32F30x_standard_peripheral/Source/gd32f30x_dma.c ****     init_struct->number       = 0U;
 179              		.loc 1 90 5 is_stmt 1 view .LVU50
  90:Drivers/GD32F30x_standard_peripheral/Source/gd32f30x_dma.c ****     init_struct->number       = 0U;
 180              		.loc 1 90 31 is_stmt 0 view .LVU51
 181 000e 4276     		strb	r2, [r0, #25]
  91:Drivers/GD32F30x_standard_peripheral/Source/gd32f30x_dma.c ****     init_struct->direction    = DMA_PERIPHERAL_TO_MEMORY;
 182              		.loc 1 91 5 is_stmt 1 view .LVU52
  91:Drivers/GD32F30x_standard_peripheral/Source/gd32f30x_dma.c ****     init_struct->direction    = DMA_PERIPHERAL_TO_MEMORY;
 183              		.loc 1 91 31 is_stmt 0 view .LVU53
 184 0010 0261     		str	r2, [r0, #16]
  92:Drivers/GD32F30x_standard_peripheral/Source/gd32f30x_dma.c ****     init_struct->priority     = DMA_PRIORITY_LOW;
 185              		.loc 1 92 5 is_stmt 1 view .LVU54
  92:Drivers/GD32F30x_standard_peripheral/Source/gd32f30x_dma.c ****     init_struct->priority     = DMA_PRIORITY_LOW;
 186              		.loc 1 92 31 is_stmt 0 view .LVU55
 187 0012 8276     		strb	r2, [r0, #26]
  93:Drivers/GD32F30x_standard_peripheral/Source/gd32f30x_dma.c **** }
 188              		.loc 1 93 5 is_stmt 1 view .LVU56
  93:Drivers/GD32F30x_standard_peripheral/Source/gd32f30x_dma.c **** }
 189              		.loc 1 93 31 is_stmt 0 view .LVU57
 190 0014 4261     		str	r2, [r0, #20]
ARM GAS  C:\Users\Prog\AppData\Local\Temp\ccBCnbcK.s 			page 18


  94:Drivers/GD32F30x_standard_peripheral/Source/gd32f30x_dma.c **** 
 191              		.loc 1 94 1 view .LVU58
 192 0016 7047     		bx	lr
 193              	.L14:
  81:Drivers/GD32F30x_standard_peripheral/Source/gd32f30x_dma.c ****     }
 194              		.loc 1 81 9 is_stmt 1 discriminator 1 view .LVU59
  81:Drivers/GD32F30x_standard_peripheral/Source/gd32f30x_dma.c ****     }
 195              		.loc 1 81 9 discriminator 1 view .LVU60
  81:Drivers/GD32F30x_standard_peripheral/Source/gd32f30x_dma.c ****     }
 196              		.loc 1 81 9 discriminator 1 view .LVU61
 197 0018 FEE7     		b	.L14
 198              		.cfi_endproc
 199              	.LFE117:
 201              		.section	.text.dma_init,"ax",%progbits
 202              		.align	1
 203              		.global	dma_init
 204              		.syntax unified
 205              		.thumb
 206              		.thumb_func
 207              		.fpu fpv4-sp-d16
 209              	dma_init:
 210              	.LVL9:
 211              	.LFB118:
 117:Drivers/GD32F30x_standard_peripheral/Source/gd32f30x_dma.c ****     uint32_t ctl;
 212              		.loc 1 117 1 view -0
 213              		.cfi_startproc
 214              		@ args = 0, pretend = 0, frame = 0
 215              		@ frame_needed = 0, uses_anonymous_args = 0
 117:Drivers/GD32F30x_standard_peripheral/Source/gd32f30x_dma.c ****     uint32_t ctl;
 216              		.loc 1 117 1 is_stmt 0 view .LVU63
 217 0000 70B5     		push	{r4, r5, r6, lr}
 218              	.LCFI1:
 219              		.cfi_def_cfa_offset 16
 220              		.cfi_offset 4, -16
 221              		.cfi_offset 5, -12
 222              		.cfi_offset 6, -8
 223              		.cfi_offset 14, -4
 224 0002 0646     		mov	r6, r0
 225 0004 0C46     		mov	r4, r1
 226 0006 1546     		mov	r5, r2
 118:Drivers/GD32F30x_standard_peripheral/Source/gd32f30x_dma.c **** 
 227              		.loc 1 118 5 is_stmt 1 view .LVU64
 120:Drivers/GD32F30x_standard_peripheral/Source/gd32f30x_dma.c ****         DMA_WRONG_HANDLE
 228              		.loc 1 120 5 view .LVU65
 120:Drivers/GD32F30x_standard_peripheral/Source/gd32f30x_dma.c ****         DMA_WRONG_HANDLE
 229              		.loc 1 120 17 is_stmt 0 view .LVU66
 230 0008 FFF7FEFF 		bl	dma_periph_and_channel_check
 231              	.LVL10:
 120:Drivers/GD32F30x_standard_peripheral/Source/gd32f30x_dma.c ****         DMA_WRONG_HANDLE
 232              		.loc 1 120 7 view .LVU67
 233 000c 00B9     		cbnz	r0, .L16
 234              	.L17:
 121:Drivers/GD32F30x_standard_peripheral/Source/gd32f30x_dma.c ****     }
 235              		.loc 1 121 9 is_stmt 1 discriminator 1 view .LVU68
 121:Drivers/GD32F30x_standard_peripheral/Source/gd32f30x_dma.c ****     }
 236              		.loc 1 121 9 discriminator 1 view .LVU69
 121:Drivers/GD32F30x_standard_peripheral/Source/gd32f30x_dma.c ****     }
ARM GAS  C:\Users\Prog\AppData\Local\Temp\ccBCnbcK.s 			page 19


 237              		.loc 1 121 9 discriminator 1 view .LVU70
 238 000e FEE7     		b	.L17
 239              	.L16:
 125:Drivers/GD32F30x_standard_peripheral/Source/gd32f30x_dma.c **** 
 240              		.loc 1 125 5 view .LVU71
 241 0010 04EB8401 		add	r1, r4, r4, lsl #2
 242 0014 06EB8103 		add	r3, r6, r1, lsl #2
 125:Drivers/GD32F30x_standard_peripheral/Source/gd32f30x_dma.c **** 
 243              		.loc 1 125 52 is_stmt 0 view .LVU72
 244 0018 2A68     		ldr	r2, [r5]
 125:Drivers/GD32F30x_standard_peripheral/Source/gd32f30x_dma.c **** 
 245              		.loc 1 125 39 view .LVU73
 246 001a 1A61     		str	r2, [r3, #16]
 128:Drivers/GD32F30x_standard_peripheral/Source/gd32f30x_dma.c ****     
 247              		.loc 1 128 5 is_stmt 1 view .LVU74
 128:Drivers/GD32F30x_standard_peripheral/Source/gd32f30x_dma.c ****     
 248              		.loc 1 128 52 is_stmt 0 view .LVU75
 249 001c AA68     		ldr	r2, [r5, #8]
 128:Drivers/GD32F30x_standard_peripheral/Source/gd32f30x_dma.c ****     
 250              		.loc 1 128 39 view .LVU76
 251 001e 5A61     		str	r2, [r3, #20]
 131:Drivers/GD32F30x_standard_peripheral/Source/gd32f30x_dma.c **** 
 252              		.loc 1 131 5 is_stmt 1 view .LVU77
 131:Drivers/GD32F30x_standard_peripheral/Source/gd32f30x_dma.c **** 
 253              		.loc 1 131 60 is_stmt 0 view .LVU78
 254 0020 2A8A     		ldrh	r2, [r5, #16]
 131:Drivers/GD32F30x_standard_peripheral/Source/gd32f30x_dma.c **** 
 255              		.loc 1 131 37 view .LVU79
 256 0022 DA60     		str	r2, [r3, #12]
 134:Drivers/GD32F30x_standard_peripheral/Source/gd32f30x_dma.c ****     ctl &= ~(DMA_CHXCTL_PWIDTH | DMA_CHXCTL_MWIDTH | DMA_CHXCTL_PRIO);
 257              		.loc 1 134 5 is_stmt 1 view .LVU80
 134:Drivers/GD32F30x_standard_peripheral/Source/gd32f30x_dma.c ****     ctl &= ~(DMA_CHXCTL_PWIDTH | DMA_CHXCTL_MWIDTH | DMA_CHXCTL_PRIO);
 258              		.loc 1 134 9 is_stmt 0 view .LVU81
 259 0024 9A68     		ldr	r2, [r3, #8]
 260              	.LVL11:
 135:Drivers/GD32F30x_standard_peripheral/Source/gd32f30x_dma.c ****     ctl |= (init_struct->periph_width | init_struct->memory_width | init_struct->priority);
 261              		.loc 1 135 5 is_stmt 1 view .LVU82
 135:Drivers/GD32F30x_standard_peripheral/Source/gd32f30x_dma.c ****     ctl |= (init_struct->periph_width | init_struct->memory_width | init_struct->priority);
 262              		.loc 1 135 9 is_stmt 0 view .LVU83
 263 0026 22F47C52 		bic	r2, r2, #16128
 264              	.LVL12:
 136:Drivers/GD32F30x_standard_peripheral/Source/gd32f30x_dma.c ****     DMA_CHCTL(dma_periph, channelx) = ctl;
 265              		.loc 1 136 5 is_stmt 1 view .LVU84
 136:Drivers/GD32F30x_standard_peripheral/Source/gd32f30x_dma.c ****     DMA_CHCTL(dma_periph, channelx) = ctl;
 266              		.loc 1 136 24 is_stmt 0 view .LVU85
 267 002a 6968     		ldr	r1, [r5, #4]
 136:Drivers/GD32F30x_standard_peripheral/Source/gd32f30x_dma.c ****     DMA_CHCTL(dma_periph, channelx) = ctl;
 268              		.loc 1 136 52 view .LVU86
 269 002c E868     		ldr	r0, [r5, #12]
 136:Drivers/GD32F30x_standard_peripheral/Source/gd32f30x_dma.c ****     DMA_CHCTL(dma_periph, channelx) = ctl;
 270              		.loc 1 136 39 view .LVU87
 271 002e 0143     		orrs	r1, r1, r0
 136:Drivers/GD32F30x_standard_peripheral/Source/gd32f30x_dma.c ****     DMA_CHCTL(dma_periph, channelx) = ctl;
 272              		.loc 1 136 80 view .LVU88
 273 0030 6869     		ldr	r0, [r5, #20]
 136:Drivers/GD32F30x_standard_peripheral/Source/gd32f30x_dma.c ****     DMA_CHCTL(dma_periph, channelx) = ctl;
 274              		.loc 1 136 67 view .LVU89
ARM GAS  C:\Users\Prog\AppData\Local\Temp\ccBCnbcK.s 			page 20


 275 0032 0143     		orrs	r1, r1, r0
 136:Drivers/GD32F30x_standard_peripheral/Source/gd32f30x_dma.c ****     DMA_CHCTL(dma_periph, channelx) = ctl;
 276              		.loc 1 136 9 view .LVU90
 277 0034 1143     		orrs	r1, r1, r2
 278              	.LVL13:
 137:Drivers/GD32F30x_standard_peripheral/Source/gd32f30x_dma.c **** 
 279              		.loc 1 137 5 is_stmt 1 view .LVU91
 137:Drivers/GD32F30x_standard_peripheral/Source/gd32f30x_dma.c **** 
 280              		.loc 1 137 37 is_stmt 0 view .LVU92
 281 0036 9960     		str	r1, [r3, #8]
 140:Drivers/GD32F30x_standard_peripheral/Source/gd32f30x_dma.c ****         DMA_CHCTL(dma_periph, channelx) |= DMA_CHXCTL_PNAGA;
 282              		.loc 1 140 5 is_stmt 1 view .LVU93
 140:Drivers/GD32F30x_standard_peripheral/Source/gd32f30x_dma.c ****         DMA_CHCTL(dma_periph, channelx) |= DMA_CHXCTL_PNAGA;
 283              		.loc 1 140 49 is_stmt 0 view .LVU94
 284 0038 2A7E     		ldrb	r2, [r5, #24]	@ zero_extendqisi2
 140:Drivers/GD32F30x_standard_peripheral/Source/gd32f30x_dma.c ****         DMA_CHCTL(dma_periph, channelx) |= DMA_CHXCTL_PNAGA;
 285              		.loc 1 140 7 view .LVU95
 286 003a 012A     		cmp	r2, #1
 287 003c 11D0     		beq	.L25
 143:Drivers/GD32F30x_standard_peripheral/Source/gd32f30x_dma.c ****     }
 288              		.loc 1 143 9 is_stmt 1 view .LVU96
 143:Drivers/GD32F30x_standard_peripheral/Source/gd32f30x_dma.c ****     }
 289              		.loc 1 143 41 is_stmt 0 view .LVU97
 290 003e 9A68     		ldr	r2, [r3, #8]
 291 0040 22F04002 		bic	r2, r2, #64
 292 0044 9A60     		str	r2, [r3, #8]
 293              	.L19:
 147:Drivers/GD32F30x_standard_peripheral/Source/gd32f30x_dma.c ****         DMA_CHCTL(dma_periph, channelx) |= DMA_CHXCTL_MNAGA;
 294              		.loc 1 147 5 is_stmt 1 view .LVU98
 147:Drivers/GD32F30x_standard_peripheral/Source/gd32f30x_dma.c ****         DMA_CHCTL(dma_periph, channelx) |= DMA_CHXCTL_MNAGA;
 295              		.loc 1 147 49 is_stmt 0 view .LVU99
 296 0046 6A7E     		ldrb	r2, [r5, #25]	@ zero_extendqisi2
 147:Drivers/GD32F30x_standard_peripheral/Source/gd32f30x_dma.c ****         DMA_CHCTL(dma_periph, channelx) |= DMA_CHXCTL_MNAGA;
 297              		.loc 1 147 7 view .LVU100
 298 0048 012A     		cmp	r2, #1
 299 004a 0FD0     		beq	.L26
 150:Drivers/GD32F30x_standard_peripheral/Source/gd32f30x_dma.c ****     }
 300              		.loc 1 150 9 is_stmt 1 view .LVU101
 150:Drivers/GD32F30x_standard_peripheral/Source/gd32f30x_dma.c ****     }
 301              		.loc 1 150 41 is_stmt 0 view .LVU102
 302 004c 9A68     		ldr	r2, [r3, #8]
 303 004e 22F08002 		bic	r2, r2, #128
 304 0052 9A60     		str	r2, [r3, #8]
 305              	.L21:
 154:Drivers/GD32F30x_standard_peripheral/Source/gd32f30x_dma.c ****         DMA_CHCTL(dma_periph, channelx) &= ~DMA_CHXCTL_DIR;
 306              		.loc 1 154 5 is_stmt 1 view .LVU103
 154:Drivers/GD32F30x_standard_peripheral/Source/gd32f30x_dma.c ****         DMA_CHCTL(dma_periph, channelx) &= ~DMA_CHXCTL_DIR;
 307              		.loc 1 154 47 is_stmt 0 view .LVU104
 308 0054 AA7E     		ldrb	r2, [r5, #26]	@ zero_extendqisi2
 154:Drivers/GD32F30x_standard_peripheral/Source/gd32f30x_dma.c ****         DMA_CHCTL(dma_periph, channelx) &= ~DMA_CHXCTL_DIR;
 309              		.loc 1 154 7 view .LVU105
 310 0056 72B9     		cbnz	r2, .L22
 155:Drivers/GD32F30x_standard_peripheral/Source/gd32f30x_dma.c ****     }else{
 311              		.loc 1 155 9 is_stmt 1 view .LVU106
 155:Drivers/GD32F30x_standard_peripheral/Source/gd32f30x_dma.c ****     }else{
 312              		.loc 1 155 41 is_stmt 0 view .LVU107
 313 0058 9A68     		ldr	r2, [r3, #8]
ARM GAS  C:\Users\Prog\AppData\Local\Temp\ccBCnbcK.s 			page 21


 314 005a 22F01002 		bic	r2, r2, #16
 315 005e 9A60     		str	r2, [r3, #8]
 316              	.L15:
 159:Drivers/GD32F30x_standard_peripheral/Source/gd32f30x_dma.c **** 
 317              		.loc 1 159 1 view .LVU108
 318 0060 70BD     		pop	{r4, r5, r6, pc}
 319              	.LVL14:
 320              	.L25:
 141:Drivers/GD32F30x_standard_peripheral/Source/gd32f30x_dma.c ****     }else{
 321              		.loc 1 141 9 is_stmt 1 view .LVU109
 141:Drivers/GD32F30x_standard_peripheral/Source/gd32f30x_dma.c ****     }else{
 322              		.loc 1 141 41 is_stmt 0 view .LVU110
 323 0062 9A68     		ldr	r2, [r3, #8]
 324 0064 42F04002 		orr	r2, r2, #64
 325 0068 9A60     		str	r2, [r3, #8]
 326 006a ECE7     		b	.L19
 327              	.L26:
 148:Drivers/GD32F30x_standard_peripheral/Source/gd32f30x_dma.c ****     }else{
 328              		.loc 1 148 9 is_stmt 1 view .LVU111
 148:Drivers/GD32F30x_standard_peripheral/Source/gd32f30x_dma.c ****     }else{
 329              		.loc 1 148 41 is_stmt 0 view .LVU112
 330 006c 9A68     		ldr	r2, [r3, #8]
 331 006e 42F08002 		orr	r2, r2, #128
 332 0072 9A60     		str	r2, [r3, #8]
 333 0074 EEE7     		b	.L21
 334              	.L22:
 157:Drivers/GD32F30x_standard_peripheral/Source/gd32f30x_dma.c ****     }
 335              		.loc 1 157 9 is_stmt 1 view .LVU113
 157:Drivers/GD32F30x_standard_peripheral/Source/gd32f30x_dma.c ****     }
 336              		.loc 1 157 41 is_stmt 0 view .LVU114
 337 0076 9A68     		ldr	r2, [r3, #8]
 338 0078 42F01002 		orr	r2, r2, #16
 339 007c 9A60     		str	r2, [r3, #8]
 159:Drivers/GD32F30x_standard_peripheral/Source/gd32f30x_dma.c **** 
 340              		.loc 1 159 1 view .LVU115
 341 007e EFE7     		b	.L15
 342              		.cfi_endproc
 343              	.LFE118:
 345              		.section	.text.dma_circulation_enable,"ax",%progbits
 346              		.align	1
 347              		.global	dma_circulation_enable
 348              		.syntax unified
 349              		.thumb
 350              		.thumb_func
 351              		.fpu fpv4-sp-d16
 353              	dma_circulation_enable:
 354              	.LVL15:
 355              	.LFB119:
 172:Drivers/GD32F30x_standard_peripheral/Source/gd32f30x_dma.c ****     if(ERROR == dma_periph_and_channel_check(dma_periph, channelx)){
 356              		.loc 1 172 1 is_stmt 1 view -0
 357              		.cfi_startproc
 358              		@ args = 0, pretend = 0, frame = 0
 359              		@ frame_needed = 0, uses_anonymous_args = 0
 172:Drivers/GD32F30x_standard_peripheral/Source/gd32f30x_dma.c ****     if(ERROR == dma_periph_and_channel_check(dma_periph, channelx)){
 360              		.loc 1 172 1 is_stmt 0 view .LVU117
 361 0000 38B5     		push	{r3, r4, r5, lr}
 362              	.LCFI2:
ARM GAS  C:\Users\Prog\AppData\Local\Temp\ccBCnbcK.s 			page 22


 363              		.cfi_def_cfa_offset 16
 364              		.cfi_offset 3, -16
 365              		.cfi_offset 4, -12
 366              		.cfi_offset 5, -8
 367              		.cfi_offset 14, -4
 368 0002 0446     		mov	r4, r0
 369 0004 0D46     		mov	r5, r1
 173:Drivers/GD32F30x_standard_peripheral/Source/gd32f30x_dma.c ****         DMA_WRONG_HANDLE
 370              		.loc 1 173 5 is_stmt 1 view .LVU118
 173:Drivers/GD32F30x_standard_peripheral/Source/gd32f30x_dma.c ****         DMA_WRONG_HANDLE
 371              		.loc 1 173 17 is_stmt 0 view .LVU119
 372 0006 FFF7FEFF 		bl	dma_periph_and_channel_check
 373              	.LVL16:
 173:Drivers/GD32F30x_standard_peripheral/Source/gd32f30x_dma.c ****         DMA_WRONG_HANDLE
 374              		.loc 1 173 7 view .LVU120
 375 000a 00B9     		cbnz	r0, .L28
 376              	.L29:
 174:Drivers/GD32F30x_standard_peripheral/Source/gd32f30x_dma.c ****     }
 377              		.loc 1 174 9 is_stmt 1 discriminator 1 view .LVU121
 174:Drivers/GD32F30x_standard_peripheral/Source/gd32f30x_dma.c ****     }
 378              		.loc 1 174 9 discriminator 1 view .LVU122
 174:Drivers/GD32F30x_standard_peripheral/Source/gd32f30x_dma.c ****     }
 379              		.loc 1 174 9 discriminator 1 view .LVU123
 380 000c FEE7     		b	.L29
 381              	.L28:
 177:Drivers/GD32F30x_standard_peripheral/Source/gd32f30x_dma.c **** }
 382              		.loc 1 177 5 view .LVU124
 177:Drivers/GD32F30x_standard_peripheral/Source/gd32f30x_dma.c **** }
 383              		.loc 1 177 37 is_stmt 0 view .LVU125
 384 000e 05EB8501 		add	r1, r5, r5, lsl #2
 385 0012 04EB8100 		add	r0, r4, r1, lsl #2
 386 0016 8368     		ldr	r3, [r0, #8]
 387 0018 43F02003 		orr	r3, r3, #32
 388 001c 8360     		str	r3, [r0, #8]
 178:Drivers/GD32F30x_standard_peripheral/Source/gd32f30x_dma.c **** 
 389              		.loc 1 178 1 view .LVU126
 390 001e 38BD     		pop	{r3, r4, r5, pc}
 178:Drivers/GD32F30x_standard_peripheral/Source/gd32f30x_dma.c **** 
 391              		.loc 1 178 1 view .LVU127
 392              		.cfi_endproc
 393              	.LFE119:
 395              		.section	.text.dma_circulation_disable,"ax",%progbits
 396              		.align	1
 397              		.global	dma_circulation_disable
 398              		.syntax unified
 399              		.thumb
 400              		.thumb_func
 401              		.fpu fpv4-sp-d16
 403              	dma_circulation_disable:
 404              	.LVL17:
 405              	.LFB120:
 191:Drivers/GD32F30x_standard_peripheral/Source/gd32f30x_dma.c ****     if(ERROR == dma_periph_and_channel_check(dma_periph, channelx)){
 406              		.loc 1 191 1 is_stmt 1 view -0
 407              		.cfi_startproc
 408              		@ args = 0, pretend = 0, frame = 0
 409              		@ frame_needed = 0, uses_anonymous_args = 0
 191:Drivers/GD32F30x_standard_peripheral/Source/gd32f30x_dma.c ****     if(ERROR == dma_periph_and_channel_check(dma_periph, channelx)){
ARM GAS  C:\Users\Prog\AppData\Local\Temp\ccBCnbcK.s 			page 23


 410              		.loc 1 191 1 is_stmt 0 view .LVU129
 411 0000 38B5     		push	{r3, r4, r5, lr}
 412              	.LCFI3:
 413              		.cfi_def_cfa_offset 16
 414              		.cfi_offset 3, -16
 415              		.cfi_offset 4, -12
 416              		.cfi_offset 5, -8
 417              		.cfi_offset 14, -4
 418 0002 0446     		mov	r4, r0
 419 0004 0D46     		mov	r5, r1
 192:Drivers/GD32F30x_standard_peripheral/Source/gd32f30x_dma.c ****         DMA_WRONG_HANDLE
 420              		.loc 1 192 5 is_stmt 1 view .LVU130
 192:Drivers/GD32F30x_standard_peripheral/Source/gd32f30x_dma.c ****         DMA_WRONG_HANDLE
 421              		.loc 1 192 17 is_stmt 0 view .LVU131
 422 0006 FFF7FEFF 		bl	dma_periph_and_channel_check
 423              	.LVL18:
 192:Drivers/GD32F30x_standard_peripheral/Source/gd32f30x_dma.c ****         DMA_WRONG_HANDLE
 424              		.loc 1 192 7 view .LVU132
 425 000a 00B9     		cbnz	r0, .L32
 426              	.L33:
 193:Drivers/GD32F30x_standard_peripheral/Source/gd32f30x_dma.c ****     }
 427              		.loc 1 193 9 is_stmt 1 discriminator 1 view .LVU133
 193:Drivers/GD32F30x_standard_peripheral/Source/gd32f30x_dma.c ****     }
 428              		.loc 1 193 9 discriminator 1 view .LVU134
 193:Drivers/GD32F30x_standard_peripheral/Source/gd32f30x_dma.c ****     }
 429              		.loc 1 193 9 discriminator 1 view .LVU135
 430 000c FEE7     		b	.L33
 431              	.L32:
 196:Drivers/GD32F30x_standard_peripheral/Source/gd32f30x_dma.c **** }
 432              		.loc 1 196 5 view .LVU136
 196:Drivers/GD32F30x_standard_peripheral/Source/gd32f30x_dma.c **** }
 433              		.loc 1 196 37 is_stmt 0 view .LVU137
 434 000e 05EB8501 		add	r1, r5, r5, lsl #2
 435 0012 04EB8100 		add	r0, r4, r1, lsl #2
 436 0016 8368     		ldr	r3, [r0, #8]
 437 0018 23F02003 		bic	r3, r3, #32
 438 001c 8360     		str	r3, [r0, #8]
 197:Drivers/GD32F30x_standard_peripheral/Source/gd32f30x_dma.c **** 
 439              		.loc 1 197 1 view .LVU138
 440 001e 38BD     		pop	{r3, r4, r5, pc}
 197:Drivers/GD32F30x_standard_peripheral/Source/gd32f30x_dma.c **** 
 441              		.loc 1 197 1 view .LVU139
 442              		.cfi_endproc
 443              	.LFE120:
 445              		.section	.text.dma_memory_to_memory_enable,"ax",%progbits
 446              		.align	1
 447              		.global	dma_memory_to_memory_enable
 448              		.syntax unified
 449              		.thumb
 450              		.thumb_func
 451              		.fpu fpv4-sp-d16
 453              	dma_memory_to_memory_enable:
 454              	.LVL19:
 455              	.LFB121:
 210:Drivers/GD32F30x_standard_peripheral/Source/gd32f30x_dma.c ****     if(ERROR == dma_periph_and_channel_check(dma_periph, channelx)){
 456              		.loc 1 210 1 is_stmt 1 view -0
 457              		.cfi_startproc
ARM GAS  C:\Users\Prog\AppData\Local\Temp\ccBCnbcK.s 			page 24


 458              		@ args = 0, pretend = 0, frame = 0
 459              		@ frame_needed = 0, uses_anonymous_args = 0
 210:Drivers/GD32F30x_standard_peripheral/Source/gd32f30x_dma.c ****     if(ERROR == dma_periph_and_channel_check(dma_periph, channelx)){
 460              		.loc 1 210 1 is_stmt 0 view .LVU141
 461 0000 38B5     		push	{r3, r4, r5, lr}
 462              	.LCFI4:
 463              		.cfi_def_cfa_offset 16
 464              		.cfi_offset 3, -16
 465              		.cfi_offset 4, -12
 466              		.cfi_offset 5, -8
 467              		.cfi_offset 14, -4
 468 0002 0446     		mov	r4, r0
 469 0004 0D46     		mov	r5, r1
 211:Drivers/GD32F30x_standard_peripheral/Source/gd32f30x_dma.c ****         DMA_WRONG_HANDLE
 470              		.loc 1 211 5 is_stmt 1 view .LVU142
 211:Drivers/GD32F30x_standard_peripheral/Source/gd32f30x_dma.c ****         DMA_WRONG_HANDLE
 471              		.loc 1 211 17 is_stmt 0 view .LVU143
 472 0006 FFF7FEFF 		bl	dma_periph_and_channel_check
 473              	.LVL20:
 211:Drivers/GD32F30x_standard_peripheral/Source/gd32f30x_dma.c ****         DMA_WRONG_HANDLE
 474              		.loc 1 211 7 view .LVU144
 475 000a 00B9     		cbnz	r0, .L36
 476              	.L37:
 212:Drivers/GD32F30x_standard_peripheral/Source/gd32f30x_dma.c ****     }
 477              		.loc 1 212 9 is_stmt 1 discriminator 1 view .LVU145
 212:Drivers/GD32F30x_standard_peripheral/Source/gd32f30x_dma.c ****     }
 478              		.loc 1 212 9 discriminator 1 view .LVU146
 212:Drivers/GD32F30x_standard_peripheral/Source/gd32f30x_dma.c ****     }
 479              		.loc 1 212 9 discriminator 1 view .LVU147
 480 000c FEE7     		b	.L37
 481              	.L36:
 215:Drivers/GD32F30x_standard_peripheral/Source/gd32f30x_dma.c **** }
 482              		.loc 1 215 5 view .LVU148
 215:Drivers/GD32F30x_standard_peripheral/Source/gd32f30x_dma.c **** }
 483              		.loc 1 215 37 is_stmt 0 view .LVU149
 484 000e 05EB8501 		add	r1, r5, r5, lsl #2
 485 0012 04EB8100 		add	r0, r4, r1, lsl #2
 486 0016 8368     		ldr	r3, [r0, #8]
 487 0018 43F48043 		orr	r3, r3, #16384
 488 001c 8360     		str	r3, [r0, #8]
 216:Drivers/GD32F30x_standard_peripheral/Source/gd32f30x_dma.c **** 
 489              		.loc 1 216 1 view .LVU150
 490 001e 38BD     		pop	{r3, r4, r5, pc}
 216:Drivers/GD32F30x_standard_peripheral/Source/gd32f30x_dma.c **** 
 491              		.loc 1 216 1 view .LVU151
 492              		.cfi_endproc
 493              	.LFE121:
 495              		.section	.text.dma_memory_to_memory_disable,"ax",%progbits
 496              		.align	1
 497              		.global	dma_memory_to_memory_disable
 498              		.syntax unified
 499              		.thumb
 500              		.thumb_func
 501              		.fpu fpv4-sp-d16
 503              	dma_memory_to_memory_disable:
 504              	.LVL21:
 505              	.LFB122:
ARM GAS  C:\Users\Prog\AppData\Local\Temp\ccBCnbcK.s 			page 25


 229:Drivers/GD32F30x_standard_peripheral/Source/gd32f30x_dma.c ****     if(ERROR == dma_periph_and_channel_check(dma_periph, channelx)){
 506              		.loc 1 229 1 is_stmt 1 view -0
 507              		.cfi_startproc
 508              		@ args = 0, pretend = 0, frame = 0
 509              		@ frame_needed = 0, uses_anonymous_args = 0
 229:Drivers/GD32F30x_standard_peripheral/Source/gd32f30x_dma.c ****     if(ERROR == dma_periph_and_channel_check(dma_periph, channelx)){
 510              		.loc 1 229 1 is_stmt 0 view .LVU153
 511 0000 38B5     		push	{r3, r4, r5, lr}
 512              	.LCFI5:
 513              		.cfi_def_cfa_offset 16
 514              		.cfi_offset 3, -16
 515              		.cfi_offset 4, -12
 516              		.cfi_offset 5, -8
 517              		.cfi_offset 14, -4
 518 0002 0446     		mov	r4, r0
 519 0004 0D46     		mov	r5, r1
 230:Drivers/GD32F30x_standard_peripheral/Source/gd32f30x_dma.c ****         DMA_WRONG_HANDLE
 520              		.loc 1 230 5 is_stmt 1 view .LVU154
 230:Drivers/GD32F30x_standard_peripheral/Source/gd32f30x_dma.c ****         DMA_WRONG_HANDLE
 521              		.loc 1 230 17 is_stmt 0 view .LVU155
 522 0006 FFF7FEFF 		bl	dma_periph_and_channel_check
 523              	.LVL22:
 230:Drivers/GD32F30x_standard_peripheral/Source/gd32f30x_dma.c ****         DMA_WRONG_HANDLE
 524              		.loc 1 230 7 view .LVU156
 525 000a 00B9     		cbnz	r0, .L40
 526              	.L41:
 231:Drivers/GD32F30x_standard_peripheral/Source/gd32f30x_dma.c ****     }
 527              		.loc 1 231 9 is_stmt 1 discriminator 1 view .LVU157
 231:Drivers/GD32F30x_standard_peripheral/Source/gd32f30x_dma.c ****     }
 528              		.loc 1 231 9 discriminator 1 view .LVU158
 231:Drivers/GD32F30x_standard_peripheral/Source/gd32f30x_dma.c ****     }
 529              		.loc 1 231 9 discriminator 1 view .LVU159
 530 000c FEE7     		b	.L41
 531              	.L40:
 234:Drivers/GD32F30x_standard_peripheral/Source/gd32f30x_dma.c **** }
 532              		.loc 1 234 5 view .LVU160
 234:Drivers/GD32F30x_standard_peripheral/Source/gd32f30x_dma.c **** }
 533              		.loc 1 234 37 is_stmt 0 view .LVU161
 534 000e 05EB8501 		add	r1, r5, r5, lsl #2
 535 0012 04EB8100 		add	r0, r4, r1, lsl #2
 536 0016 8368     		ldr	r3, [r0, #8]
 537 0018 23F48043 		bic	r3, r3, #16384
 538 001c 8360     		str	r3, [r0, #8]
 235:Drivers/GD32F30x_standard_peripheral/Source/gd32f30x_dma.c **** 
 539              		.loc 1 235 1 view .LVU162
 540 001e 38BD     		pop	{r3, r4, r5, pc}
 235:Drivers/GD32F30x_standard_peripheral/Source/gd32f30x_dma.c **** 
 541              		.loc 1 235 1 view .LVU163
 542              		.cfi_endproc
 543              	.LFE122:
 545              		.section	.text.dma_channel_enable,"ax",%progbits
 546              		.align	1
 547              		.global	dma_channel_enable
 548              		.syntax unified
 549              		.thumb
 550              		.thumb_func
 551              		.fpu fpv4-sp-d16
ARM GAS  C:\Users\Prog\AppData\Local\Temp\ccBCnbcK.s 			page 26


 553              	dma_channel_enable:
 554              	.LVL23:
 555              	.LFB123:
 248:Drivers/GD32F30x_standard_peripheral/Source/gd32f30x_dma.c ****     if(ERROR == dma_periph_and_channel_check(dma_periph, channelx)){
 556              		.loc 1 248 1 is_stmt 1 view -0
 557              		.cfi_startproc
 558              		@ args = 0, pretend = 0, frame = 0
 559              		@ frame_needed = 0, uses_anonymous_args = 0
 248:Drivers/GD32F30x_standard_peripheral/Source/gd32f30x_dma.c ****     if(ERROR == dma_periph_and_channel_check(dma_periph, channelx)){
 560              		.loc 1 248 1 is_stmt 0 view .LVU165
 561 0000 38B5     		push	{r3, r4, r5, lr}
 562              	.LCFI6:
 563              		.cfi_def_cfa_offset 16
 564              		.cfi_offset 3, -16
 565              		.cfi_offset 4, -12
 566              		.cfi_offset 5, -8
 567              		.cfi_offset 14, -4
 568 0002 0446     		mov	r4, r0
 569 0004 0D46     		mov	r5, r1
 249:Drivers/GD32F30x_standard_peripheral/Source/gd32f30x_dma.c ****         DMA_WRONG_HANDLE
 570              		.loc 1 249 5 is_stmt 1 view .LVU166
 249:Drivers/GD32F30x_standard_peripheral/Source/gd32f30x_dma.c ****         DMA_WRONG_HANDLE
 571              		.loc 1 249 17 is_stmt 0 view .LVU167
 572 0006 FFF7FEFF 		bl	dma_periph_and_channel_check
 573              	.LVL24:
 249:Drivers/GD32F30x_standard_peripheral/Source/gd32f30x_dma.c ****         DMA_WRONG_HANDLE
 574              		.loc 1 249 7 view .LVU168
 575 000a 00B9     		cbnz	r0, .L44
 576              	.L45:
 250:Drivers/GD32F30x_standard_peripheral/Source/gd32f30x_dma.c ****     }
 577              		.loc 1 250 9 is_stmt 1 discriminator 1 view .LVU169
 250:Drivers/GD32F30x_standard_peripheral/Source/gd32f30x_dma.c ****     }
 578              		.loc 1 250 9 discriminator 1 view .LVU170
 250:Drivers/GD32F30x_standard_peripheral/Source/gd32f30x_dma.c ****     }
 579              		.loc 1 250 9 discriminator 1 view .LVU171
 580 000c FEE7     		b	.L45
 581              	.L44:
 253:Drivers/GD32F30x_standard_peripheral/Source/gd32f30x_dma.c **** }
 582              		.loc 1 253 5 view .LVU172
 253:Drivers/GD32F30x_standard_peripheral/Source/gd32f30x_dma.c **** }
 583              		.loc 1 253 37 is_stmt 0 view .LVU173
 584 000e 05EB8501 		add	r1, r5, r5, lsl #2
 585 0012 04EB8100 		add	r0, r4, r1, lsl #2
 586 0016 8368     		ldr	r3, [r0, #8]
 587 0018 43F00103 		orr	r3, r3, #1
 588 001c 8360     		str	r3, [r0, #8]
 254:Drivers/GD32F30x_standard_peripheral/Source/gd32f30x_dma.c **** 
 589              		.loc 1 254 1 view .LVU174
 590 001e 38BD     		pop	{r3, r4, r5, pc}
 254:Drivers/GD32F30x_standard_peripheral/Source/gd32f30x_dma.c **** 
 591              		.loc 1 254 1 view .LVU175
 592              		.cfi_endproc
 593              	.LFE123:
 595              		.section	.text.dma_channel_disable,"ax",%progbits
 596              		.align	1
 597              		.global	dma_channel_disable
 598              		.syntax unified
ARM GAS  C:\Users\Prog\AppData\Local\Temp\ccBCnbcK.s 			page 27


 599              		.thumb
 600              		.thumb_func
 601              		.fpu fpv4-sp-d16
 603              	dma_channel_disable:
 604              	.LVL25:
 605              	.LFB124:
 267:Drivers/GD32F30x_standard_peripheral/Source/gd32f30x_dma.c ****     if(ERROR == dma_periph_and_channel_check(dma_periph, channelx)){
 606              		.loc 1 267 1 is_stmt 1 view -0
 607              		.cfi_startproc
 608              		@ args = 0, pretend = 0, frame = 0
 609              		@ frame_needed = 0, uses_anonymous_args = 0
 267:Drivers/GD32F30x_standard_peripheral/Source/gd32f30x_dma.c ****     if(ERROR == dma_periph_and_channel_check(dma_periph, channelx)){
 610              		.loc 1 267 1 is_stmt 0 view .LVU177
 611 0000 38B5     		push	{r3, r4, r5, lr}
 612              	.LCFI7:
 613              		.cfi_def_cfa_offset 16
 614              		.cfi_offset 3, -16
 615              		.cfi_offset 4, -12
 616              		.cfi_offset 5, -8
 617              		.cfi_offset 14, -4
 618 0002 0446     		mov	r4, r0
 619 0004 0D46     		mov	r5, r1
 268:Drivers/GD32F30x_standard_peripheral/Source/gd32f30x_dma.c ****         DMA_WRONG_HANDLE
 620              		.loc 1 268 5 is_stmt 1 view .LVU178
 268:Drivers/GD32F30x_standard_peripheral/Source/gd32f30x_dma.c ****         DMA_WRONG_HANDLE
 621              		.loc 1 268 17 is_stmt 0 view .LVU179
 622 0006 FFF7FEFF 		bl	dma_periph_and_channel_check
 623              	.LVL26:
 268:Drivers/GD32F30x_standard_peripheral/Source/gd32f30x_dma.c ****         DMA_WRONG_HANDLE
 624              		.loc 1 268 7 view .LVU180
 625 000a 00B9     		cbnz	r0, .L48
 626              	.L49:
 269:Drivers/GD32F30x_standard_peripheral/Source/gd32f30x_dma.c ****     }
 627              		.loc 1 269 9 is_stmt 1 discriminator 1 view .LVU181
 269:Drivers/GD32F30x_standard_peripheral/Source/gd32f30x_dma.c ****     }
 628              		.loc 1 269 9 discriminator 1 view .LVU182
 269:Drivers/GD32F30x_standard_peripheral/Source/gd32f30x_dma.c ****     }
 629              		.loc 1 269 9 discriminator 1 view .LVU183
 630 000c FEE7     		b	.L49
 631              	.L48:
 272:Drivers/GD32F30x_standard_peripheral/Source/gd32f30x_dma.c **** }
 632              		.loc 1 272 5 view .LVU184
 272:Drivers/GD32F30x_standard_peripheral/Source/gd32f30x_dma.c **** }
 633              		.loc 1 272 37 is_stmt 0 view .LVU185
 634 000e 05EB8501 		add	r1, r5, r5, lsl #2
 635 0012 04EB8100 		add	r0, r4, r1, lsl #2
 636 0016 8368     		ldr	r3, [r0, #8]
 637 0018 23F00103 		bic	r3, r3, #1
 638 001c 8360     		str	r3, [r0, #8]
 273:Drivers/GD32F30x_standard_peripheral/Source/gd32f30x_dma.c **** 
 639              		.loc 1 273 1 view .LVU186
 640 001e 38BD     		pop	{r3, r4, r5, pc}
 273:Drivers/GD32F30x_standard_peripheral/Source/gd32f30x_dma.c **** 
 641              		.loc 1 273 1 view .LVU187
 642              		.cfi_endproc
 643              	.LFE124:
 645              		.section	.text.dma_periph_address_config,"ax",%progbits
ARM GAS  C:\Users\Prog\AppData\Local\Temp\ccBCnbcK.s 			page 28


 646              		.align	1
 647              		.global	dma_periph_address_config
 648              		.syntax unified
 649              		.thumb
 650              		.thumb_func
 651              		.fpu fpv4-sp-d16
 653              	dma_periph_address_config:
 654              	.LVL27:
 655              	.LFB125:
 287:Drivers/GD32F30x_standard_peripheral/Source/gd32f30x_dma.c ****     if(ERROR == dma_periph_and_channel_check(dma_periph, channelx)){
 656              		.loc 1 287 1 is_stmt 1 view -0
 657              		.cfi_startproc
 658              		@ args = 0, pretend = 0, frame = 0
 659              		@ frame_needed = 0, uses_anonymous_args = 0
 287:Drivers/GD32F30x_standard_peripheral/Source/gd32f30x_dma.c ****     if(ERROR == dma_periph_and_channel_check(dma_periph, channelx)){
 660              		.loc 1 287 1 is_stmt 0 view .LVU189
 661 0000 70B5     		push	{r4, r5, r6, lr}
 662              	.LCFI8:
 663              		.cfi_def_cfa_offset 16
 664              		.cfi_offset 4, -16
 665              		.cfi_offset 5, -12
 666              		.cfi_offset 6, -8
 667              		.cfi_offset 14, -4
 668 0002 0546     		mov	r5, r0
 669 0004 0C46     		mov	r4, r1
 670 0006 1646     		mov	r6, r2
 288:Drivers/GD32F30x_standard_peripheral/Source/gd32f30x_dma.c ****         DMA_WRONG_HANDLE
 671              		.loc 1 288 5 is_stmt 1 view .LVU190
 288:Drivers/GD32F30x_standard_peripheral/Source/gd32f30x_dma.c ****         DMA_WRONG_HANDLE
 672              		.loc 1 288 17 is_stmt 0 view .LVU191
 673 0008 FFF7FEFF 		bl	dma_periph_and_channel_check
 674              	.LVL28:
 288:Drivers/GD32F30x_standard_peripheral/Source/gd32f30x_dma.c ****         DMA_WRONG_HANDLE
 675              		.loc 1 288 7 view .LVU192
 676 000c 00B9     		cbnz	r0, .L52
 677              	.L53:
 289:Drivers/GD32F30x_standard_peripheral/Source/gd32f30x_dma.c ****     }
 678              		.loc 1 289 9 is_stmt 1 discriminator 1 view .LVU193
 289:Drivers/GD32F30x_standard_peripheral/Source/gd32f30x_dma.c ****     }
 679              		.loc 1 289 9 discriminator 1 view .LVU194
 289:Drivers/GD32F30x_standard_peripheral/Source/gd32f30x_dma.c ****     }
 680              		.loc 1 289 9 discriminator 1 view .LVU195
 681 000e FEE7     		b	.L53
 682              	.L52:
 292:Drivers/GD32F30x_standard_peripheral/Source/gd32f30x_dma.c **** }
 683              		.loc 1 292 5 view .LVU196
 684 0010 04EB8401 		add	r1, r4, r4, lsl #2
 685 0014 05EB8101 		add	r1, r5, r1, lsl #2
 292:Drivers/GD32F30x_standard_peripheral/Source/gd32f30x_dma.c **** }
 686              		.loc 1 292 39 is_stmt 0 view .LVU197
 687 0018 0E61     		str	r6, [r1, #16]
 293:Drivers/GD32F30x_standard_peripheral/Source/gd32f30x_dma.c **** 
 688              		.loc 1 293 1 view .LVU198
 689 001a 70BD     		pop	{r4, r5, r6, pc}
 293:Drivers/GD32F30x_standard_peripheral/Source/gd32f30x_dma.c **** 
 690              		.loc 1 293 1 view .LVU199
 691              		.cfi_endproc
ARM GAS  C:\Users\Prog\AppData\Local\Temp\ccBCnbcK.s 			page 29


 692              	.LFE125:
 694              		.section	.text.dma_memory_address_config,"ax",%progbits
 695              		.align	1
 696              		.global	dma_memory_address_config
 697              		.syntax unified
 698              		.thumb
 699              		.thumb_func
 700              		.fpu fpv4-sp-d16
 702              	dma_memory_address_config:
 703              	.LVL29:
 704              	.LFB126:
 307:Drivers/GD32F30x_standard_peripheral/Source/gd32f30x_dma.c ****     if(ERROR == dma_periph_and_channel_check(dma_periph, channelx)){
 705              		.loc 1 307 1 is_stmt 1 view -0
 706              		.cfi_startproc
 707              		@ args = 0, pretend = 0, frame = 0
 708              		@ frame_needed = 0, uses_anonymous_args = 0
 307:Drivers/GD32F30x_standard_peripheral/Source/gd32f30x_dma.c ****     if(ERROR == dma_periph_and_channel_check(dma_periph, channelx)){
 709              		.loc 1 307 1 is_stmt 0 view .LVU201
 710 0000 70B5     		push	{r4, r5, r6, lr}
 711              	.LCFI9:
 712              		.cfi_def_cfa_offset 16
 713              		.cfi_offset 4, -16
 714              		.cfi_offset 5, -12
 715              		.cfi_offset 6, -8
 716              		.cfi_offset 14, -4
 717 0002 0546     		mov	r5, r0
 718 0004 0C46     		mov	r4, r1
 719 0006 1646     		mov	r6, r2
 308:Drivers/GD32F30x_standard_peripheral/Source/gd32f30x_dma.c ****         DMA_WRONG_HANDLE
 720              		.loc 1 308 5 is_stmt 1 view .LVU202
 308:Drivers/GD32F30x_standard_peripheral/Source/gd32f30x_dma.c ****         DMA_WRONG_HANDLE
 721              		.loc 1 308 17 is_stmt 0 view .LVU203
 722 0008 FFF7FEFF 		bl	dma_periph_and_channel_check
 723              	.LVL30:
 308:Drivers/GD32F30x_standard_peripheral/Source/gd32f30x_dma.c ****         DMA_WRONG_HANDLE
 724              		.loc 1 308 7 view .LVU204
 725 000c 00B9     		cbnz	r0, .L56
 726              	.L57:
 309:Drivers/GD32F30x_standard_peripheral/Source/gd32f30x_dma.c ****     }
 727              		.loc 1 309 9 is_stmt 1 discriminator 1 view .LVU205
 309:Drivers/GD32F30x_standard_peripheral/Source/gd32f30x_dma.c ****     }
 728              		.loc 1 309 9 discriminator 1 view .LVU206
 309:Drivers/GD32F30x_standard_peripheral/Source/gd32f30x_dma.c ****     }
 729              		.loc 1 309 9 discriminator 1 view .LVU207
 730 000e FEE7     		b	.L57
 731              	.L56:
 312:Drivers/GD32F30x_standard_peripheral/Source/gd32f30x_dma.c **** }
 732              		.loc 1 312 5 view .LVU208
 733 0010 04EB8401 		add	r1, r4, r4, lsl #2
 734 0014 05EB8101 		add	r1, r5, r1, lsl #2
 312:Drivers/GD32F30x_standard_peripheral/Source/gd32f30x_dma.c **** }
 735              		.loc 1 312 39 is_stmt 0 view .LVU209
 736 0018 4E61     		str	r6, [r1, #20]
 313:Drivers/GD32F30x_standard_peripheral/Source/gd32f30x_dma.c **** 
 737              		.loc 1 313 1 view .LVU210
 738 001a 70BD     		pop	{r4, r5, r6, pc}
 313:Drivers/GD32F30x_standard_peripheral/Source/gd32f30x_dma.c **** 
ARM GAS  C:\Users\Prog\AppData\Local\Temp\ccBCnbcK.s 			page 30


 739              		.loc 1 313 1 view .LVU211
 740              		.cfi_endproc
 741              	.LFE126:
 743              		.section	.text.dma_transfer_number_config,"ax",%progbits
 744              		.align	1
 745              		.global	dma_transfer_number_config
 746              		.syntax unified
 747              		.thumb
 748              		.thumb_func
 749              		.fpu fpv4-sp-d16
 751              	dma_transfer_number_config:
 752              	.LVL31:
 753              	.LFB127:
 327:Drivers/GD32F30x_standard_peripheral/Source/gd32f30x_dma.c ****     if(ERROR == dma_periph_and_channel_check(dma_periph, channelx)){
 754              		.loc 1 327 1 is_stmt 1 view -0
 755              		.cfi_startproc
 756              		@ args = 0, pretend = 0, frame = 0
 757              		@ frame_needed = 0, uses_anonymous_args = 0
 327:Drivers/GD32F30x_standard_peripheral/Source/gd32f30x_dma.c ****     if(ERROR == dma_periph_and_channel_check(dma_periph, channelx)){
 758              		.loc 1 327 1 is_stmt 0 view .LVU213
 759 0000 70B5     		push	{r4, r5, r6, lr}
 760              	.LCFI10:
 761              		.cfi_def_cfa_offset 16
 762              		.cfi_offset 4, -16
 763              		.cfi_offset 5, -12
 764              		.cfi_offset 6, -8
 765              		.cfi_offset 14, -4
 766 0002 0546     		mov	r5, r0
 767 0004 0C46     		mov	r4, r1
 768 0006 1646     		mov	r6, r2
 328:Drivers/GD32F30x_standard_peripheral/Source/gd32f30x_dma.c ****         DMA_WRONG_HANDLE
 769              		.loc 1 328 5 is_stmt 1 view .LVU214
 328:Drivers/GD32F30x_standard_peripheral/Source/gd32f30x_dma.c ****         DMA_WRONG_HANDLE
 770              		.loc 1 328 17 is_stmt 0 view .LVU215
 771 0008 FFF7FEFF 		bl	dma_periph_and_channel_check
 772              	.LVL32:
 328:Drivers/GD32F30x_standard_peripheral/Source/gd32f30x_dma.c ****         DMA_WRONG_HANDLE
 773              		.loc 1 328 7 view .LVU216
 774 000c 00B9     		cbnz	r0, .L60
 775              	.L61:
 329:Drivers/GD32F30x_standard_peripheral/Source/gd32f30x_dma.c ****     }
 776              		.loc 1 329 9 is_stmt 1 discriminator 1 view .LVU217
 329:Drivers/GD32F30x_standard_peripheral/Source/gd32f30x_dma.c ****     }
 777              		.loc 1 329 9 discriminator 1 view .LVU218
 329:Drivers/GD32F30x_standard_peripheral/Source/gd32f30x_dma.c ****     }
 778              		.loc 1 329 9 discriminator 1 view .LVU219
 779 000e FEE7     		b	.L61
 780              	.L60:
 332:Drivers/GD32F30x_standard_peripheral/Source/gd32f30x_dma.c **** }
 781              		.loc 1 332 5 view .LVU220
 782 0010 04EB8401 		add	r1, r4, r4, lsl #2
 783 0014 05EB8101 		add	r1, r5, r1, lsl #2
 332:Drivers/GD32F30x_standard_peripheral/Source/gd32f30x_dma.c **** }
 784              		.loc 1 332 47 is_stmt 0 view .LVU221
 785 0018 B6B2     		uxth	r6, r6
 786              	.LVL33:
 332:Drivers/GD32F30x_standard_peripheral/Source/gd32f30x_dma.c **** }
ARM GAS  C:\Users\Prog\AppData\Local\Temp\ccBCnbcK.s 			page 31


 787              		.loc 1 332 37 view .LVU222
 788 001a CE60     		str	r6, [r1, #12]
 333:Drivers/GD32F30x_standard_peripheral/Source/gd32f30x_dma.c **** 
 789              		.loc 1 333 1 view .LVU223
 790 001c 70BD     		pop	{r4, r5, r6, pc}
 333:Drivers/GD32F30x_standard_peripheral/Source/gd32f30x_dma.c **** 
 791              		.loc 1 333 1 view .LVU224
 792              		.cfi_endproc
 793              	.LFE127:
 795              		.section	.text.dma_transfer_number_get,"ax",%progbits
 796              		.align	1
 797              		.global	dma_transfer_number_get
 798              		.syntax unified
 799              		.thumb
 800              		.thumb_func
 801              		.fpu fpv4-sp-d16
 803              	dma_transfer_number_get:
 804              	.LVL34:
 805              	.LFB128:
 346:Drivers/GD32F30x_standard_peripheral/Source/gd32f30x_dma.c ****     if(ERROR == dma_periph_and_channel_check(dma_periph, channelx)){
 806              		.loc 1 346 1 is_stmt 1 view -0
 807              		.cfi_startproc
 808              		@ args = 0, pretend = 0, frame = 0
 809              		@ frame_needed = 0, uses_anonymous_args = 0
 346:Drivers/GD32F30x_standard_peripheral/Source/gd32f30x_dma.c ****     if(ERROR == dma_periph_and_channel_check(dma_periph, channelx)){
 810              		.loc 1 346 1 is_stmt 0 view .LVU226
 811 0000 38B5     		push	{r3, r4, r5, lr}
 812              	.LCFI11:
 813              		.cfi_def_cfa_offset 16
 814              		.cfi_offset 3, -16
 815              		.cfi_offset 4, -12
 816              		.cfi_offset 5, -8
 817              		.cfi_offset 14, -4
 818 0002 0546     		mov	r5, r0
 819 0004 0C46     		mov	r4, r1
 347:Drivers/GD32F30x_standard_peripheral/Source/gd32f30x_dma.c ****         DMA_WRONG_HANDLE
 820              		.loc 1 347 5 is_stmt 1 view .LVU227
 347:Drivers/GD32F30x_standard_peripheral/Source/gd32f30x_dma.c ****         DMA_WRONG_HANDLE
 821              		.loc 1 347 17 is_stmt 0 view .LVU228
 822 0006 FFF7FEFF 		bl	dma_periph_and_channel_check
 823              	.LVL35:
 347:Drivers/GD32F30x_standard_peripheral/Source/gd32f30x_dma.c ****         DMA_WRONG_HANDLE
 824              		.loc 1 347 7 view .LVU229
 825 000a 00B9     		cbnz	r0, .L64
 826              	.L65:
 348:Drivers/GD32F30x_standard_peripheral/Source/gd32f30x_dma.c ****     }
 827              		.loc 1 348 9 is_stmt 1 discriminator 1 view .LVU230
 348:Drivers/GD32F30x_standard_peripheral/Source/gd32f30x_dma.c ****     }
 828              		.loc 1 348 9 discriminator 1 view .LVU231
 348:Drivers/GD32F30x_standard_peripheral/Source/gd32f30x_dma.c ****     }
 829              		.loc 1 348 9 discriminator 1 view .LVU232
 830 000c FEE7     		b	.L65
 831              	.L64:
 351:Drivers/GD32F30x_standard_peripheral/Source/gd32f30x_dma.c **** }
 832              		.loc 1 351 5 view .LVU233
 351:Drivers/GD32F30x_standard_peripheral/Source/gd32f30x_dma.c **** }
 833              		.loc 1 351 22 is_stmt 0 view .LVU234
ARM GAS  C:\Users\Prog\AppData\Local\Temp\ccBCnbcK.s 			page 32


 834 000e 04EB8401 		add	r1, r4, r4, lsl #2
 835 0012 05EB8101 		add	r1, r5, r1, lsl #2
 351:Drivers/GD32F30x_standard_peripheral/Source/gd32f30x_dma.c **** }
 836              		.loc 1 351 12 view .LVU235
 837 0016 C868     		ldr	r0, [r1, #12]
 352:Drivers/GD32F30x_standard_peripheral/Source/gd32f30x_dma.c **** 
 838              		.loc 1 352 1 view .LVU236
 839 0018 38BD     		pop	{r3, r4, r5, pc}
 352:Drivers/GD32F30x_standard_peripheral/Source/gd32f30x_dma.c **** 
 840              		.loc 1 352 1 view .LVU237
 841              		.cfi_endproc
 842              	.LFE128:
 844              		.section	.text.dma_priority_config,"ax",%progbits
 845              		.align	1
 846              		.global	dma_priority_config
 847              		.syntax unified
 848              		.thumb
 849              		.thumb_func
 850              		.fpu fpv4-sp-d16
 852              	dma_priority_config:
 853              	.LVL36:
 854              	.LFB129:
 371:Drivers/GD32F30x_standard_peripheral/Source/gd32f30x_dma.c ****     uint32_t ctl;
 855              		.loc 1 371 1 is_stmt 1 view -0
 856              		.cfi_startproc
 857              		@ args = 0, pretend = 0, frame = 0
 858              		@ frame_needed = 0, uses_anonymous_args = 0
 371:Drivers/GD32F30x_standard_peripheral/Source/gd32f30x_dma.c ****     uint32_t ctl;
 859              		.loc 1 371 1 is_stmt 0 view .LVU239
 860 0000 70B5     		push	{r4, r5, r6, lr}
 861              	.LCFI12:
 862              		.cfi_def_cfa_offset 16
 863              		.cfi_offset 4, -16
 864              		.cfi_offset 5, -12
 865              		.cfi_offset 6, -8
 866              		.cfi_offset 14, -4
 867 0002 0446     		mov	r4, r0
 868 0004 0D46     		mov	r5, r1
 869 0006 1646     		mov	r6, r2
 372:Drivers/GD32F30x_standard_peripheral/Source/gd32f30x_dma.c **** 
 870              		.loc 1 372 5 is_stmt 1 view .LVU240
 374:Drivers/GD32F30x_standard_peripheral/Source/gd32f30x_dma.c ****         DMA_WRONG_HANDLE
 871              		.loc 1 374 5 view .LVU241
 374:Drivers/GD32F30x_standard_peripheral/Source/gd32f30x_dma.c ****         DMA_WRONG_HANDLE
 872              		.loc 1 374 17 is_stmt 0 view .LVU242
 873 0008 FFF7FEFF 		bl	dma_periph_and_channel_check
 874              	.LVL37:
 374:Drivers/GD32F30x_standard_peripheral/Source/gd32f30x_dma.c ****         DMA_WRONG_HANDLE
 875              		.loc 1 374 7 view .LVU243
 876 000c 00B9     		cbnz	r0, .L68
 877              	.L69:
 375:Drivers/GD32F30x_standard_peripheral/Source/gd32f30x_dma.c ****     }
 878              		.loc 1 375 9 is_stmt 1 discriminator 1 view .LVU244
 375:Drivers/GD32F30x_standard_peripheral/Source/gd32f30x_dma.c ****     }
 879              		.loc 1 375 9 discriminator 1 view .LVU245
 375:Drivers/GD32F30x_standard_peripheral/Source/gd32f30x_dma.c ****     }
 880              		.loc 1 375 9 discriminator 1 view .LVU246
ARM GAS  C:\Users\Prog\AppData\Local\Temp\ccBCnbcK.s 			page 33


 881 000e FEE7     		b	.L69
 882              	.L68:
 379:Drivers/GD32F30x_standard_peripheral/Source/gd32f30x_dma.c ****     /* assign regiser */
 883              		.loc 1 379 5 view .LVU247
 379:Drivers/GD32F30x_standard_peripheral/Source/gd32f30x_dma.c ****     /* assign regiser */
 884              		.loc 1 379 11 is_stmt 0 view .LVU248
 885 0010 05EB8501 		add	r1, r5, r5, lsl #2
 886 0014 04EB8100 		add	r0, r4, r1, lsl #2
 379:Drivers/GD32F30x_standard_peripheral/Source/gd32f30x_dma.c ****     /* assign regiser */
 887              		.loc 1 379 9 view .LVU249
 888 0018 8268     		ldr	r2, [r0, #8]
 889              	.LVL38:
 381:Drivers/GD32F30x_standard_peripheral/Source/gd32f30x_dma.c ****     ctl |= priority;
 890              		.loc 1 381 5 is_stmt 1 view .LVU250
 381:Drivers/GD32F30x_standard_peripheral/Source/gd32f30x_dma.c ****     ctl |= priority;
 891              		.loc 1 381 9 is_stmt 0 view .LVU251
 892 001a 22F44052 		bic	r2, r2, #12288
 893              	.LVL39:
 382:Drivers/GD32F30x_standard_peripheral/Source/gd32f30x_dma.c ****     DMA_CHCTL(dma_periph, channelx) = ctl;
 894              		.loc 1 382 5 is_stmt 1 view .LVU252
 382:Drivers/GD32F30x_standard_peripheral/Source/gd32f30x_dma.c ****     DMA_CHCTL(dma_periph, channelx) = ctl;
 895              		.loc 1 382 9 is_stmt 0 view .LVU253
 896 001e 3243     		orrs	r2, r2, r6
 897              	.LVL40:
 383:Drivers/GD32F30x_standard_peripheral/Source/gd32f30x_dma.c **** }
 898              		.loc 1 383 5 is_stmt 1 view .LVU254
 383:Drivers/GD32F30x_standard_peripheral/Source/gd32f30x_dma.c **** }
 899              		.loc 1 383 37 is_stmt 0 view .LVU255
 900 0020 8260     		str	r2, [r0, #8]
 384:Drivers/GD32F30x_standard_peripheral/Source/gd32f30x_dma.c **** 
 901              		.loc 1 384 1 view .LVU256
 902 0022 70BD     		pop	{r4, r5, r6, pc}
 384:Drivers/GD32F30x_standard_peripheral/Source/gd32f30x_dma.c **** 
 903              		.loc 1 384 1 view .LVU257
 904              		.cfi_endproc
 905              	.LFE129:
 907              		.section	.text.dma_memory_width_config,"ax",%progbits
 908              		.align	1
 909              		.global	dma_memory_width_config
 910              		.syntax unified
 911              		.thumb
 912              		.thumb_func
 913              		.fpu fpv4-sp-d16
 915              	dma_memory_width_config:
 916              	.LVL41:
 917              	.LFB130:
 402:Drivers/GD32F30x_standard_peripheral/Source/gd32f30x_dma.c ****     uint32_t ctl;
 918              		.loc 1 402 1 is_stmt 1 view -0
 919              		.cfi_startproc
 920              		@ args = 0, pretend = 0, frame = 0
 921              		@ frame_needed = 0, uses_anonymous_args = 0
 402:Drivers/GD32F30x_standard_peripheral/Source/gd32f30x_dma.c ****     uint32_t ctl;
 922              		.loc 1 402 1 is_stmt 0 view .LVU259
 923 0000 70B5     		push	{r4, r5, r6, lr}
 924              	.LCFI13:
 925              		.cfi_def_cfa_offset 16
 926              		.cfi_offset 4, -16
ARM GAS  C:\Users\Prog\AppData\Local\Temp\ccBCnbcK.s 			page 34


 927              		.cfi_offset 5, -12
 928              		.cfi_offset 6, -8
 929              		.cfi_offset 14, -4
 930 0002 0446     		mov	r4, r0
 931 0004 0D46     		mov	r5, r1
 932 0006 1646     		mov	r6, r2
 403:Drivers/GD32F30x_standard_peripheral/Source/gd32f30x_dma.c **** 
 933              		.loc 1 403 5 is_stmt 1 view .LVU260
 405:Drivers/GD32F30x_standard_peripheral/Source/gd32f30x_dma.c ****         DMA_WRONG_HANDLE
 934              		.loc 1 405 5 view .LVU261
 405:Drivers/GD32F30x_standard_peripheral/Source/gd32f30x_dma.c ****         DMA_WRONG_HANDLE
 935              		.loc 1 405 17 is_stmt 0 view .LVU262
 936 0008 FFF7FEFF 		bl	dma_periph_and_channel_check
 937              	.LVL42:
 405:Drivers/GD32F30x_standard_peripheral/Source/gd32f30x_dma.c ****         DMA_WRONG_HANDLE
 938              		.loc 1 405 7 view .LVU263
 939 000c 00B9     		cbnz	r0, .L72
 940              	.L73:
 406:Drivers/GD32F30x_standard_peripheral/Source/gd32f30x_dma.c ****     }
 941              		.loc 1 406 9 is_stmt 1 discriminator 1 view .LVU264
 406:Drivers/GD32F30x_standard_peripheral/Source/gd32f30x_dma.c ****     }
 942              		.loc 1 406 9 discriminator 1 view .LVU265
 406:Drivers/GD32F30x_standard_peripheral/Source/gd32f30x_dma.c ****     }
 943              		.loc 1 406 9 discriminator 1 view .LVU266
 944 000e FEE7     		b	.L73
 945              	.L72:
 410:Drivers/GD32F30x_standard_peripheral/Source/gd32f30x_dma.c ****     /* assign regiser */
 946              		.loc 1 410 5 view .LVU267
 410:Drivers/GD32F30x_standard_peripheral/Source/gd32f30x_dma.c ****     /* assign regiser */
 947              		.loc 1 410 11 is_stmt 0 view .LVU268
 948 0010 05EB8501 		add	r1, r5, r5, lsl #2
 949 0014 04EB8100 		add	r0, r4, r1, lsl #2
 410:Drivers/GD32F30x_standard_peripheral/Source/gd32f30x_dma.c ****     /* assign regiser */
 950              		.loc 1 410 9 view .LVU269
 951 0018 8268     		ldr	r2, [r0, #8]
 952              	.LVL43:
 412:Drivers/GD32F30x_standard_peripheral/Source/gd32f30x_dma.c ****     ctl |= mwidth;
 953              		.loc 1 412 5 is_stmt 1 view .LVU270
 412:Drivers/GD32F30x_standard_peripheral/Source/gd32f30x_dma.c ****     ctl |= mwidth;
 954              		.loc 1 412 9 is_stmt 0 view .LVU271
 955 001a 22F44062 		bic	r2, r2, #3072
 956              	.LVL44:
 413:Drivers/GD32F30x_standard_peripheral/Source/gd32f30x_dma.c ****     DMA_CHCTL(dma_periph, channelx) = ctl;
 957              		.loc 1 413 5 is_stmt 1 view .LVU272
 413:Drivers/GD32F30x_standard_peripheral/Source/gd32f30x_dma.c ****     DMA_CHCTL(dma_periph, channelx) = ctl;
 958              		.loc 1 413 9 is_stmt 0 view .LVU273
 959 001e 3243     		orrs	r2, r2, r6
 960              	.LVL45:
 414:Drivers/GD32F30x_standard_peripheral/Source/gd32f30x_dma.c **** }
 961              		.loc 1 414 5 is_stmt 1 view .LVU274
 414:Drivers/GD32F30x_standard_peripheral/Source/gd32f30x_dma.c **** }
 962              		.loc 1 414 37 is_stmt 0 view .LVU275
 963 0020 8260     		str	r2, [r0, #8]
 415:Drivers/GD32F30x_standard_peripheral/Source/gd32f30x_dma.c **** 
 964              		.loc 1 415 1 view .LVU276
 965 0022 70BD     		pop	{r4, r5, r6, pc}
 415:Drivers/GD32F30x_standard_peripheral/Source/gd32f30x_dma.c **** 
ARM GAS  C:\Users\Prog\AppData\Local\Temp\ccBCnbcK.s 			page 35


 966              		.loc 1 415 1 view .LVU277
 967              		.cfi_endproc
 968              	.LFE130:
 970              		.section	.text.dma_periph_width_config,"ax",%progbits
 971              		.align	1
 972              		.global	dma_periph_width_config
 973              		.syntax unified
 974              		.thumb
 975              		.thumb_func
 976              		.fpu fpv4-sp-d16
 978              	dma_periph_width_config:
 979              	.LVL46:
 980              	.LFB131:
 433:Drivers/GD32F30x_standard_peripheral/Source/gd32f30x_dma.c ****     uint32_t ctl;
 981              		.loc 1 433 1 is_stmt 1 view -0
 982              		.cfi_startproc
 983              		@ args = 0, pretend = 0, frame = 0
 984              		@ frame_needed = 0, uses_anonymous_args = 0
 433:Drivers/GD32F30x_standard_peripheral/Source/gd32f30x_dma.c ****     uint32_t ctl;
 985              		.loc 1 433 1 is_stmt 0 view .LVU279
 986 0000 70B5     		push	{r4, r5, r6, lr}
 987              	.LCFI14:
 988              		.cfi_def_cfa_offset 16
 989              		.cfi_offset 4, -16
 990              		.cfi_offset 5, -12
 991              		.cfi_offset 6, -8
 992              		.cfi_offset 14, -4
 993 0002 0446     		mov	r4, r0
 994 0004 0D46     		mov	r5, r1
 995 0006 1646     		mov	r6, r2
 434:Drivers/GD32F30x_standard_peripheral/Source/gd32f30x_dma.c **** 
 996              		.loc 1 434 5 is_stmt 1 view .LVU280
 436:Drivers/GD32F30x_standard_peripheral/Source/gd32f30x_dma.c ****         DMA_WRONG_HANDLE
 997              		.loc 1 436 5 view .LVU281
 436:Drivers/GD32F30x_standard_peripheral/Source/gd32f30x_dma.c ****         DMA_WRONG_HANDLE
 998              		.loc 1 436 17 is_stmt 0 view .LVU282
 999 0008 FFF7FEFF 		bl	dma_periph_and_channel_check
 1000              	.LVL47:
 436:Drivers/GD32F30x_standard_peripheral/Source/gd32f30x_dma.c ****         DMA_WRONG_HANDLE
 1001              		.loc 1 436 7 view .LVU283
 1002 000c 00B9     		cbnz	r0, .L76
 1003              	.L77:
 437:Drivers/GD32F30x_standard_peripheral/Source/gd32f30x_dma.c ****     }
 1004              		.loc 1 437 9 is_stmt 1 discriminator 1 view .LVU284
 437:Drivers/GD32F30x_standard_peripheral/Source/gd32f30x_dma.c ****     }
 1005              		.loc 1 437 9 discriminator 1 view .LVU285
 437:Drivers/GD32F30x_standard_peripheral/Source/gd32f30x_dma.c ****     }
 1006              		.loc 1 437 9 discriminator 1 view .LVU286
 1007 000e FEE7     		b	.L77
 1008              	.L76:
 441:Drivers/GD32F30x_standard_peripheral/Source/gd32f30x_dma.c ****     /* assign regiser */
 1009              		.loc 1 441 5 view .LVU287
 441:Drivers/GD32F30x_standard_peripheral/Source/gd32f30x_dma.c ****     /* assign regiser */
 1010              		.loc 1 441 11 is_stmt 0 view .LVU288
 1011 0010 05EB8501 		add	r1, r5, r5, lsl #2
 1012 0014 04EB8100 		add	r0, r4, r1, lsl #2
 441:Drivers/GD32F30x_standard_peripheral/Source/gd32f30x_dma.c ****     /* assign regiser */
ARM GAS  C:\Users\Prog\AppData\Local\Temp\ccBCnbcK.s 			page 36


 1013              		.loc 1 441 9 view .LVU289
 1014 0018 8268     		ldr	r2, [r0, #8]
 1015              	.LVL48:
 443:Drivers/GD32F30x_standard_peripheral/Source/gd32f30x_dma.c ****     ctl |= pwidth;
 1016              		.loc 1 443 5 is_stmt 1 view .LVU290
 443:Drivers/GD32F30x_standard_peripheral/Source/gd32f30x_dma.c ****     ctl |= pwidth;
 1017              		.loc 1 443 9 is_stmt 0 view .LVU291
 1018 001a 22F44072 		bic	r2, r2, #768
 1019              	.LVL49:
 444:Drivers/GD32F30x_standard_peripheral/Source/gd32f30x_dma.c ****     DMA_CHCTL(dma_periph, channelx) = ctl;
 1020              		.loc 1 444 5 is_stmt 1 view .LVU292
 444:Drivers/GD32F30x_standard_peripheral/Source/gd32f30x_dma.c ****     DMA_CHCTL(dma_periph, channelx) = ctl;
 1021              		.loc 1 444 9 is_stmt 0 view .LVU293
 1022 001e 3243     		orrs	r2, r2, r6
 1023              	.LVL50:
 445:Drivers/GD32F30x_standard_peripheral/Source/gd32f30x_dma.c **** }
 1024              		.loc 1 445 5 is_stmt 1 view .LVU294
 445:Drivers/GD32F30x_standard_peripheral/Source/gd32f30x_dma.c **** }
 1025              		.loc 1 445 37 is_stmt 0 view .LVU295
 1026 0020 8260     		str	r2, [r0, #8]
 446:Drivers/GD32F30x_standard_peripheral/Source/gd32f30x_dma.c **** 
 1027              		.loc 1 446 1 view .LVU296
 1028 0022 70BD     		pop	{r4, r5, r6, pc}
 446:Drivers/GD32F30x_standard_peripheral/Source/gd32f30x_dma.c **** 
 1029              		.loc 1 446 1 view .LVU297
 1030              		.cfi_endproc
 1031              	.LFE131:
 1033              		.section	.text.dma_memory_increase_enable,"ax",%progbits
 1034              		.align	1
 1035              		.global	dma_memory_increase_enable
 1036              		.syntax unified
 1037              		.thumb
 1038              		.thumb_func
 1039              		.fpu fpv4-sp-d16
 1041              	dma_memory_increase_enable:
 1042              	.LVL51:
 1043              	.LFB132:
 459:Drivers/GD32F30x_standard_peripheral/Source/gd32f30x_dma.c ****     if(ERROR == dma_periph_and_channel_check(dma_periph, channelx)){
 1044              		.loc 1 459 1 is_stmt 1 view -0
 1045              		.cfi_startproc
 1046              		@ args = 0, pretend = 0, frame = 0
 1047              		@ frame_needed = 0, uses_anonymous_args = 0
 459:Drivers/GD32F30x_standard_peripheral/Source/gd32f30x_dma.c ****     if(ERROR == dma_periph_and_channel_check(dma_periph, channelx)){
 1048              		.loc 1 459 1 is_stmt 0 view .LVU299
 1049 0000 38B5     		push	{r3, r4, r5, lr}
 1050              	.LCFI15:
 1051              		.cfi_def_cfa_offset 16
 1052              		.cfi_offset 3, -16
 1053              		.cfi_offset 4, -12
 1054              		.cfi_offset 5, -8
 1055              		.cfi_offset 14, -4
 1056 0002 0446     		mov	r4, r0
 1057 0004 0D46     		mov	r5, r1
 460:Drivers/GD32F30x_standard_peripheral/Source/gd32f30x_dma.c ****         DMA_WRONG_HANDLE
 1058              		.loc 1 460 5 is_stmt 1 view .LVU300
 460:Drivers/GD32F30x_standard_peripheral/Source/gd32f30x_dma.c ****         DMA_WRONG_HANDLE
 1059              		.loc 1 460 17 is_stmt 0 view .LVU301
ARM GAS  C:\Users\Prog\AppData\Local\Temp\ccBCnbcK.s 			page 37


 1060 0006 FFF7FEFF 		bl	dma_periph_and_channel_check
 1061              	.LVL52:
 460:Drivers/GD32F30x_standard_peripheral/Source/gd32f30x_dma.c ****         DMA_WRONG_HANDLE
 1062              		.loc 1 460 7 view .LVU302
 1063 000a 00B9     		cbnz	r0, .L80
 1064              	.L81:
 461:Drivers/GD32F30x_standard_peripheral/Source/gd32f30x_dma.c ****     }
 1065              		.loc 1 461 9 is_stmt 1 discriminator 1 view .LVU303
 461:Drivers/GD32F30x_standard_peripheral/Source/gd32f30x_dma.c ****     }
 1066              		.loc 1 461 9 discriminator 1 view .LVU304
 461:Drivers/GD32F30x_standard_peripheral/Source/gd32f30x_dma.c ****     }
 1067              		.loc 1 461 9 discriminator 1 view .LVU305
 1068 000c FEE7     		b	.L81
 1069              	.L80:
 464:Drivers/GD32F30x_standard_peripheral/Source/gd32f30x_dma.c **** }
 1070              		.loc 1 464 5 view .LVU306
 464:Drivers/GD32F30x_standard_peripheral/Source/gd32f30x_dma.c **** }
 1071              		.loc 1 464 37 is_stmt 0 view .LVU307
 1072 000e 05EB8501 		add	r1, r5, r5, lsl #2
 1073 0012 04EB8100 		add	r0, r4, r1, lsl #2
 1074 0016 8368     		ldr	r3, [r0, #8]
 1075 0018 43F08003 		orr	r3, r3, #128
 1076 001c 8360     		str	r3, [r0, #8]
 465:Drivers/GD32F30x_standard_peripheral/Source/gd32f30x_dma.c **** 
 1077              		.loc 1 465 1 view .LVU308
 1078 001e 38BD     		pop	{r3, r4, r5, pc}
 465:Drivers/GD32F30x_standard_peripheral/Source/gd32f30x_dma.c **** 
 1079              		.loc 1 465 1 view .LVU309
 1080              		.cfi_endproc
 1081              	.LFE132:
 1083              		.section	.text.dma_memory_increase_disable,"ax",%progbits
 1084              		.align	1
 1085              		.global	dma_memory_increase_disable
 1086              		.syntax unified
 1087              		.thumb
 1088              		.thumb_func
 1089              		.fpu fpv4-sp-d16
 1091              	dma_memory_increase_disable:
 1092              	.LVL53:
 1093              	.LFB133:
 478:Drivers/GD32F30x_standard_peripheral/Source/gd32f30x_dma.c ****     if(ERROR == dma_periph_and_channel_check(dma_periph, channelx)){
 1094              		.loc 1 478 1 is_stmt 1 view -0
 1095              		.cfi_startproc
 1096              		@ args = 0, pretend = 0, frame = 0
 1097              		@ frame_needed = 0, uses_anonymous_args = 0
 478:Drivers/GD32F30x_standard_peripheral/Source/gd32f30x_dma.c ****     if(ERROR == dma_periph_and_channel_check(dma_periph, channelx)){
 1098              		.loc 1 478 1 is_stmt 0 view .LVU311
 1099 0000 38B5     		push	{r3, r4, r5, lr}
 1100              	.LCFI16:
 1101              		.cfi_def_cfa_offset 16
 1102              		.cfi_offset 3, -16
 1103              		.cfi_offset 4, -12
 1104              		.cfi_offset 5, -8
 1105              		.cfi_offset 14, -4
 1106 0002 0446     		mov	r4, r0
 1107 0004 0D46     		mov	r5, r1
 479:Drivers/GD32F30x_standard_peripheral/Source/gd32f30x_dma.c ****         DMA_WRONG_HANDLE
ARM GAS  C:\Users\Prog\AppData\Local\Temp\ccBCnbcK.s 			page 38


 1108              		.loc 1 479 5 is_stmt 1 view .LVU312
 479:Drivers/GD32F30x_standard_peripheral/Source/gd32f30x_dma.c ****         DMA_WRONG_HANDLE
 1109              		.loc 1 479 17 is_stmt 0 view .LVU313
 1110 0006 FFF7FEFF 		bl	dma_periph_and_channel_check
 1111              	.LVL54:
 479:Drivers/GD32F30x_standard_peripheral/Source/gd32f30x_dma.c ****         DMA_WRONG_HANDLE
 1112              		.loc 1 479 7 view .LVU314
 1113 000a 00B9     		cbnz	r0, .L84
 1114              	.L85:
 480:Drivers/GD32F30x_standard_peripheral/Source/gd32f30x_dma.c ****     }
 1115              		.loc 1 480 9 is_stmt 1 discriminator 1 view .LVU315
 480:Drivers/GD32F30x_standard_peripheral/Source/gd32f30x_dma.c ****     }
 1116              		.loc 1 480 9 discriminator 1 view .LVU316
 480:Drivers/GD32F30x_standard_peripheral/Source/gd32f30x_dma.c ****     }
 1117              		.loc 1 480 9 discriminator 1 view .LVU317
 1118 000c FEE7     		b	.L85
 1119              	.L84:
 483:Drivers/GD32F30x_standard_peripheral/Source/gd32f30x_dma.c **** }
 1120              		.loc 1 483 5 view .LVU318
 483:Drivers/GD32F30x_standard_peripheral/Source/gd32f30x_dma.c **** }
 1121              		.loc 1 483 37 is_stmt 0 view .LVU319
 1122 000e 05EB8501 		add	r1, r5, r5, lsl #2
 1123 0012 04EB8100 		add	r0, r4, r1, lsl #2
 1124 0016 8368     		ldr	r3, [r0, #8]
 1125 0018 23F08003 		bic	r3, r3, #128
 1126 001c 8360     		str	r3, [r0, #8]
 484:Drivers/GD32F30x_standard_peripheral/Source/gd32f30x_dma.c **** 
 1127              		.loc 1 484 1 view .LVU320
 1128 001e 38BD     		pop	{r3, r4, r5, pc}
 484:Drivers/GD32F30x_standard_peripheral/Source/gd32f30x_dma.c **** 
 1129              		.loc 1 484 1 view .LVU321
 1130              		.cfi_endproc
 1131              	.LFE133:
 1133              		.section	.text.dma_periph_increase_enable,"ax",%progbits
 1134              		.align	1
 1135              		.global	dma_periph_increase_enable
 1136              		.syntax unified
 1137              		.thumb
 1138              		.thumb_func
 1139              		.fpu fpv4-sp-d16
 1141              	dma_periph_increase_enable:
 1142              	.LVL55:
 1143              	.LFB134:
 497:Drivers/GD32F30x_standard_peripheral/Source/gd32f30x_dma.c ****     if(ERROR == dma_periph_and_channel_check(dma_periph, channelx)){
 1144              		.loc 1 497 1 is_stmt 1 view -0
 1145              		.cfi_startproc
 1146              		@ args = 0, pretend = 0, frame = 0
 1147              		@ frame_needed = 0, uses_anonymous_args = 0
 497:Drivers/GD32F30x_standard_peripheral/Source/gd32f30x_dma.c ****     if(ERROR == dma_periph_and_channel_check(dma_periph, channelx)){
 1148              		.loc 1 497 1 is_stmt 0 view .LVU323
 1149 0000 38B5     		push	{r3, r4, r5, lr}
 1150              	.LCFI17:
 1151              		.cfi_def_cfa_offset 16
 1152              		.cfi_offset 3, -16
 1153              		.cfi_offset 4, -12
 1154              		.cfi_offset 5, -8
 1155              		.cfi_offset 14, -4
ARM GAS  C:\Users\Prog\AppData\Local\Temp\ccBCnbcK.s 			page 39


 1156 0002 0446     		mov	r4, r0
 1157 0004 0D46     		mov	r5, r1
 498:Drivers/GD32F30x_standard_peripheral/Source/gd32f30x_dma.c ****         DMA_WRONG_HANDLE
 1158              		.loc 1 498 5 is_stmt 1 view .LVU324
 498:Drivers/GD32F30x_standard_peripheral/Source/gd32f30x_dma.c ****         DMA_WRONG_HANDLE
 1159              		.loc 1 498 17 is_stmt 0 view .LVU325
 1160 0006 FFF7FEFF 		bl	dma_periph_and_channel_check
 1161              	.LVL56:
 498:Drivers/GD32F30x_standard_peripheral/Source/gd32f30x_dma.c ****         DMA_WRONG_HANDLE
 1162              		.loc 1 498 7 view .LVU326
 1163 000a 00B9     		cbnz	r0, .L88
 1164              	.L89:
 499:Drivers/GD32F30x_standard_peripheral/Source/gd32f30x_dma.c ****     }
 1165              		.loc 1 499 9 is_stmt 1 discriminator 1 view .LVU327
 499:Drivers/GD32F30x_standard_peripheral/Source/gd32f30x_dma.c ****     }
 1166              		.loc 1 499 9 discriminator 1 view .LVU328
 499:Drivers/GD32F30x_standard_peripheral/Source/gd32f30x_dma.c ****     }
 1167              		.loc 1 499 9 discriminator 1 view .LVU329
 1168 000c FEE7     		b	.L89
 1169              	.L88:
 502:Drivers/GD32F30x_standard_peripheral/Source/gd32f30x_dma.c **** }
 1170              		.loc 1 502 5 view .LVU330
 502:Drivers/GD32F30x_standard_peripheral/Source/gd32f30x_dma.c **** }
 1171              		.loc 1 502 37 is_stmt 0 view .LVU331
 1172 000e 05EB8501 		add	r1, r5, r5, lsl #2
 1173 0012 04EB8100 		add	r0, r4, r1, lsl #2
 1174 0016 8368     		ldr	r3, [r0, #8]
 1175 0018 43F04003 		orr	r3, r3, #64
 1176 001c 8360     		str	r3, [r0, #8]
 503:Drivers/GD32F30x_standard_peripheral/Source/gd32f30x_dma.c **** 
 1177              		.loc 1 503 1 view .LVU332
 1178 001e 38BD     		pop	{r3, r4, r5, pc}
 503:Drivers/GD32F30x_standard_peripheral/Source/gd32f30x_dma.c **** 
 1179              		.loc 1 503 1 view .LVU333
 1180              		.cfi_endproc
 1181              	.LFE134:
 1183              		.section	.text.dma_periph_increase_disable,"ax",%progbits
 1184              		.align	1
 1185              		.global	dma_periph_increase_disable
 1186              		.syntax unified
 1187              		.thumb
 1188              		.thumb_func
 1189              		.fpu fpv4-sp-d16
 1191              	dma_periph_increase_disable:
 1192              	.LVL57:
 1193              	.LFB135:
 516:Drivers/GD32F30x_standard_peripheral/Source/gd32f30x_dma.c ****     if(ERROR == dma_periph_and_channel_check(dma_periph, channelx)){
 1194              		.loc 1 516 1 is_stmt 1 view -0
 1195              		.cfi_startproc
 1196              		@ args = 0, pretend = 0, frame = 0
 1197              		@ frame_needed = 0, uses_anonymous_args = 0
 516:Drivers/GD32F30x_standard_peripheral/Source/gd32f30x_dma.c ****     if(ERROR == dma_periph_and_channel_check(dma_periph, channelx)){
 1198              		.loc 1 516 1 is_stmt 0 view .LVU335
 1199 0000 38B5     		push	{r3, r4, r5, lr}
 1200              	.LCFI18:
 1201              		.cfi_def_cfa_offset 16
 1202              		.cfi_offset 3, -16
ARM GAS  C:\Users\Prog\AppData\Local\Temp\ccBCnbcK.s 			page 40


 1203              		.cfi_offset 4, -12
 1204              		.cfi_offset 5, -8
 1205              		.cfi_offset 14, -4
 1206 0002 0446     		mov	r4, r0
 1207 0004 0D46     		mov	r5, r1
 517:Drivers/GD32F30x_standard_peripheral/Source/gd32f30x_dma.c ****         DMA_WRONG_HANDLE
 1208              		.loc 1 517 5 is_stmt 1 view .LVU336
 517:Drivers/GD32F30x_standard_peripheral/Source/gd32f30x_dma.c ****         DMA_WRONG_HANDLE
 1209              		.loc 1 517 17 is_stmt 0 view .LVU337
 1210 0006 FFF7FEFF 		bl	dma_periph_and_channel_check
 1211              	.LVL58:
 517:Drivers/GD32F30x_standard_peripheral/Source/gd32f30x_dma.c ****         DMA_WRONG_HANDLE
 1212              		.loc 1 517 7 view .LVU338
 1213 000a 00B9     		cbnz	r0, .L92
 1214              	.L93:
 518:Drivers/GD32F30x_standard_peripheral/Source/gd32f30x_dma.c ****     }
 1215              		.loc 1 518 9 is_stmt 1 discriminator 1 view .LVU339
 518:Drivers/GD32F30x_standard_peripheral/Source/gd32f30x_dma.c ****     }
 1216              		.loc 1 518 9 discriminator 1 view .LVU340
 518:Drivers/GD32F30x_standard_peripheral/Source/gd32f30x_dma.c ****     }
 1217              		.loc 1 518 9 discriminator 1 view .LVU341
 1218 000c FEE7     		b	.L93
 1219              	.L92:
 521:Drivers/GD32F30x_standard_peripheral/Source/gd32f30x_dma.c **** }
 1220              		.loc 1 521 5 view .LVU342
 521:Drivers/GD32F30x_standard_peripheral/Source/gd32f30x_dma.c **** }
 1221              		.loc 1 521 37 is_stmt 0 view .LVU343
 1222 000e 05EB8501 		add	r1, r5, r5, lsl #2
 1223 0012 04EB8100 		add	r0, r4, r1, lsl #2
 1224 0016 8368     		ldr	r3, [r0, #8]
 1225 0018 23F04003 		bic	r3, r3, #64
 1226 001c 8360     		str	r3, [r0, #8]
 522:Drivers/GD32F30x_standard_peripheral/Source/gd32f30x_dma.c **** 
 1227              		.loc 1 522 1 view .LVU344
 1228 001e 38BD     		pop	{r3, r4, r5, pc}
 522:Drivers/GD32F30x_standard_peripheral/Source/gd32f30x_dma.c **** 
 1229              		.loc 1 522 1 view .LVU345
 1230              		.cfi_endproc
 1231              	.LFE135:
 1233              		.section	.text.dma_transfer_direction_config,"ax",%progbits
 1234              		.align	1
 1235              		.global	dma_transfer_direction_config
 1236              		.syntax unified
 1237              		.thumb
 1238              		.thumb_func
 1239              		.fpu fpv4-sp-d16
 1241              	dma_transfer_direction_config:
 1242              	.LVL59:
 1243              	.LFB136:
 539:Drivers/GD32F30x_standard_peripheral/Source/gd32f30x_dma.c ****     if(ERROR == dma_periph_and_channel_check(dma_periph, channelx)){
 1244              		.loc 1 539 1 is_stmt 1 view -0
 1245              		.cfi_startproc
 1246              		@ args = 0, pretend = 0, frame = 0
 1247              		@ frame_needed = 0, uses_anonymous_args = 0
 539:Drivers/GD32F30x_standard_peripheral/Source/gd32f30x_dma.c ****     if(ERROR == dma_periph_and_channel_check(dma_periph, channelx)){
 1248              		.loc 1 539 1 is_stmt 0 view .LVU347
 1249 0000 70B5     		push	{r4, r5, r6, lr}
ARM GAS  C:\Users\Prog\AppData\Local\Temp\ccBCnbcK.s 			page 41


 1250              	.LCFI19:
 1251              		.cfi_def_cfa_offset 16
 1252              		.cfi_offset 4, -16
 1253              		.cfi_offset 5, -12
 1254              		.cfi_offset 6, -8
 1255              		.cfi_offset 14, -4
 1256 0002 0446     		mov	r4, r0
 1257 0004 0D46     		mov	r5, r1
 1258 0006 1646     		mov	r6, r2
 540:Drivers/GD32F30x_standard_peripheral/Source/gd32f30x_dma.c ****         DMA_WRONG_HANDLE
 1259              		.loc 1 540 5 is_stmt 1 view .LVU348
 540:Drivers/GD32F30x_standard_peripheral/Source/gd32f30x_dma.c ****         DMA_WRONG_HANDLE
 1260              		.loc 1 540 17 is_stmt 0 view .LVU349
 1261 0008 FFF7FEFF 		bl	dma_periph_and_channel_check
 1262              	.LVL60:
 540:Drivers/GD32F30x_standard_peripheral/Source/gd32f30x_dma.c ****         DMA_WRONG_HANDLE
 1263              		.loc 1 540 7 view .LVU350
 1264 000c 00B9     		cbnz	r0, .L96
 1265              	.L97:
 541:Drivers/GD32F30x_standard_peripheral/Source/gd32f30x_dma.c ****     }
 1266              		.loc 1 541 9 is_stmt 1 discriminator 1 view .LVU351
 541:Drivers/GD32F30x_standard_peripheral/Source/gd32f30x_dma.c ****     }
 1267              		.loc 1 541 9 discriminator 1 view .LVU352
 541:Drivers/GD32F30x_standard_peripheral/Source/gd32f30x_dma.c ****     }
 1268              		.loc 1 541 9 discriminator 1 view .LVU353
 1269 000e FEE7     		b	.L97
 1270              	.L96:
 544:Drivers/GD32F30x_standard_peripheral/Source/gd32f30x_dma.c ****         DMA_CHCTL(dma_periph, channelx) &= ~DMA_CHXCTL_DIR;
 1271              		.loc 1 544 5 view .LVU354
 544:Drivers/GD32F30x_standard_peripheral/Source/gd32f30x_dma.c ****         DMA_CHCTL(dma_periph, channelx) &= ~DMA_CHXCTL_DIR;
 1272              		.loc 1 544 7 is_stmt 0 view .LVU355
 1273 0010 46B9     		cbnz	r6, .L98
 545:Drivers/GD32F30x_standard_peripheral/Source/gd32f30x_dma.c ****     } else {
 1274              		.loc 1 545 9 is_stmt 1 view .LVU356
 545:Drivers/GD32F30x_standard_peripheral/Source/gd32f30x_dma.c ****     } else {
 1275              		.loc 1 545 41 is_stmt 0 view .LVU357
 1276 0012 05EB8500 		add	r0, r5, r5, lsl #2
 1277 0016 04EB8000 		add	r0, r4, r0, lsl #2
 1278 001a 8368     		ldr	r3, [r0, #8]
 1279 001c 23F01003 		bic	r3, r3, #16
 1280 0020 8360     		str	r3, [r0, #8]
 1281              	.L95:
 549:Drivers/GD32F30x_standard_peripheral/Source/gd32f30x_dma.c **** 
 1282              		.loc 1 549 1 view .LVU358
 1283 0022 70BD     		pop	{r4, r5, r6, pc}
 1284              	.LVL61:
 1285              	.L98:
 547:Drivers/GD32F30x_standard_peripheral/Source/gd32f30x_dma.c ****     }
 1286              		.loc 1 547 9 is_stmt 1 view .LVU359
 547:Drivers/GD32F30x_standard_peripheral/Source/gd32f30x_dma.c ****     }
 1287              		.loc 1 547 41 is_stmt 0 view .LVU360
 1288 0024 05EB8500 		add	r0, r5, r5, lsl #2
 1289 0028 04EB8000 		add	r0, r4, r0, lsl #2
 1290 002c 8368     		ldr	r3, [r0, #8]
 1291 002e 43F01003 		orr	r3, r3, #16
 1292 0032 8360     		str	r3, [r0, #8]
 549:Drivers/GD32F30x_standard_peripheral/Source/gd32f30x_dma.c **** 
ARM GAS  C:\Users\Prog\AppData\Local\Temp\ccBCnbcK.s 			page 42


 1293              		.loc 1 549 1 view .LVU361
 1294 0034 F5E7     		b	.L95
 1295              		.cfi_endproc
 1296              	.LFE136:
 1298              		.section	.text.dma_flag_get,"ax",%progbits
 1299              		.align	1
 1300              		.global	dma_flag_get
 1301              		.syntax unified
 1302              		.thumb
 1303              		.thumb_func
 1304              		.fpu fpv4-sp-d16
 1306              	dma_flag_get:
 1307              	.LVL62:
 1308              	.LFB137:
 568:Drivers/GD32F30x_standard_peripheral/Source/gd32f30x_dma.c ****     FlagStatus reval;
 1309              		.loc 1 568 1 is_stmt 1 view -0
 1310              		.cfi_startproc
 1311              		@ args = 0, pretend = 0, frame = 0
 1312              		@ frame_needed = 0, uses_anonymous_args = 0
 1313              		@ link register save eliminated.
 569:Drivers/GD32F30x_standard_peripheral/Source/gd32f30x_dma.c **** 
 1314              		.loc 1 569 5 view .LVU363
 571:Drivers/GD32F30x_standard_peripheral/Source/gd32f30x_dma.c ****         reval = SET;
 1315              		.loc 1 571 5 view .LVU364
 571:Drivers/GD32F30x_standard_peripheral/Source/gd32f30x_dma.c ****         reval = SET;
 1316              		.loc 1 571 18 is_stmt 0 view .LVU365
 1317 0000 0368     		ldr	r3, [r0]
 571:Drivers/GD32F30x_standard_peripheral/Source/gd32f30x_dma.c ****         reval = SET;
 1318              		.loc 1 571 41 view .LVU366
 1319 0002 8900     		lsls	r1, r1, #2
 1320              	.LVL63:
 571:Drivers/GD32F30x_standard_peripheral/Source/gd32f30x_dma.c ****         reval = SET;
 1321              		.loc 1 571 41 view .LVU367
 1322 0004 8A40     		lsls	r2, r2, r1
 1323              	.LVL64:
 571:Drivers/GD32F30x_standard_peripheral/Source/gd32f30x_dma.c ****         reval = SET;
 1324              		.loc 1 571 7 view .LVU368
 1325 0006 1342     		tst	r3, r2
 1326 0008 01D0     		beq	.L103
 572:Drivers/GD32F30x_standard_peripheral/Source/gd32f30x_dma.c ****     }else{
 1327              		.loc 1 572 15 view .LVU369
 1328 000a 0120     		movs	r0, #1
 1329              	.LVL65:
 572:Drivers/GD32F30x_standard_peripheral/Source/gd32f30x_dma.c ****     }else{
 1330              		.loc 1 572 15 view .LVU370
 1331 000c 7047     		bx	lr
 1332              	.LVL66:
 1333              	.L103:
 574:Drivers/GD32F30x_standard_peripheral/Source/gd32f30x_dma.c ****     }
 1334              		.loc 1 574 15 view .LVU371
 1335 000e 0020     		movs	r0, #0
 1336              	.LVL67:
 577:Drivers/GD32F30x_standard_peripheral/Source/gd32f30x_dma.c **** }
 1337              		.loc 1 577 5 is_stmt 1 view .LVU372
 578:Drivers/GD32F30x_standard_peripheral/Source/gd32f30x_dma.c **** 
 1338              		.loc 1 578 1 is_stmt 0 view .LVU373
 1339 0010 7047     		bx	lr
ARM GAS  C:\Users\Prog\AppData\Local\Temp\ccBCnbcK.s 			page 43


 1340              		.cfi_endproc
 1341              	.LFE137:
 1343              		.section	.text.dma_flag_clear,"ax",%progbits
 1344              		.align	1
 1345              		.global	dma_flag_clear
 1346              		.syntax unified
 1347              		.thumb
 1348              		.thumb_func
 1349              		.fpu fpv4-sp-d16
 1351              	dma_flag_clear:
 1352              	.LVL68:
 1353              	.LFB138:
 597:Drivers/GD32F30x_standard_peripheral/Source/gd32f30x_dma.c ****     DMA_INTC(dma_periph) |= DMA_FLAG_ADD(flag, channelx);
 1354              		.loc 1 597 1 is_stmt 1 view -0
 1355              		.cfi_startproc
 1356              		@ args = 0, pretend = 0, frame = 0
 1357              		@ frame_needed = 0, uses_anonymous_args = 0
 1358              		@ link register save eliminated.
 598:Drivers/GD32F30x_standard_peripheral/Source/gd32f30x_dma.c **** }
 1359              		.loc 1 598 5 view .LVU375
 598:Drivers/GD32F30x_standard_peripheral/Source/gd32f30x_dma.c **** }
 1360              		.loc 1 598 26 is_stmt 0 view .LVU376
 1361 0000 4368     		ldr	r3, [r0, #4]
 598:Drivers/GD32F30x_standard_peripheral/Source/gd32f30x_dma.c **** }
 1362              		.loc 1 598 29 view .LVU377
 1363 0002 8900     		lsls	r1, r1, #2
 1364              	.LVL69:
 598:Drivers/GD32F30x_standard_peripheral/Source/gd32f30x_dma.c **** }
 1365              		.loc 1 598 29 view .LVU378
 1366 0004 8A40     		lsls	r2, r2, r1
 1367              	.LVL70:
 598:Drivers/GD32F30x_standard_peripheral/Source/gd32f30x_dma.c **** }
 1368              		.loc 1 598 26 view .LVU379
 1369 0006 1343     		orrs	r3, r3, r2
 1370 0008 4360     		str	r3, [r0, #4]
 599:Drivers/GD32F30x_standard_peripheral/Source/gd32f30x_dma.c **** 
 1371              		.loc 1 599 1 view .LVU380
 1372 000a 7047     		bx	lr
 1373              		.cfi_endproc
 1374              	.LFE138:
 1376              		.section	.text.dma_interrupt_flag_get,"ax",%progbits
 1377              		.align	1
 1378              		.global	dma_interrupt_flag_get
 1379              		.syntax unified
 1380              		.thumb
 1381              		.thumb_func
 1382              		.fpu fpv4-sp-d16
 1384              	dma_interrupt_flag_get:
 1385              	.LVL71:
 1386              	.LFB139:
 617:Drivers/GD32F30x_standard_peripheral/Source/gd32f30x_dma.c ****     uint32_t interrupt_enable = 0U, interrupt_flag = 0U;
 1387              		.loc 1 617 1 is_stmt 1 view -0
 1388              		.cfi_startproc
 1389              		@ args = 0, pretend = 0, frame = 0
 1390              		@ frame_needed = 0, uses_anonymous_args = 0
 1391              		@ link register save eliminated.
 617:Drivers/GD32F30x_standard_peripheral/Source/gd32f30x_dma.c ****     uint32_t interrupt_enable = 0U, interrupt_flag = 0U;
ARM GAS  C:\Users\Prog\AppData\Local\Temp\ccBCnbcK.s 			page 44


 1392              		.loc 1 617 1 is_stmt 0 view .LVU382
 1393 0000 10B4     		push	{r4}
 1394              	.LCFI20:
 1395              		.cfi_def_cfa_offset 4
 1396              		.cfi_offset 4, -4
 618:Drivers/GD32F30x_standard_peripheral/Source/gd32f30x_dma.c **** 
 1397              		.loc 1 618 5 is_stmt 1 view .LVU383
 1398              	.LVL72:
 620:Drivers/GD32F30x_standard_peripheral/Source/gd32f30x_dma.c ****         case DMA_INT_FLAG_FTF:
 1399              		.loc 1 620 5 view .LVU384
 1400 0002 042A     		cmp	r2, #4
 1401 0004 12D0     		beq	.L106
 1402 0006 082A     		cmp	r2, #8
 1403 0008 1BD0     		beq	.L107
 1404 000a 022A     		cmp	r2, #2
 1405 000c 00D0     		beq	.L114
 1406              	.L108:
 634:Drivers/GD32F30x_standard_peripheral/Source/gd32f30x_dma.c ****         }
 1407              		.loc 1 634 13 discriminator 1 view .LVU385
 634:Drivers/GD32F30x_standard_peripheral/Source/gd32f30x_dma.c ****         }
 1408              		.loc 1 634 13 discriminator 1 view .LVU386
 634:Drivers/GD32F30x_standard_peripheral/Source/gd32f30x_dma.c ****         }
 1409              		.loc 1 634 13 discriminator 1 view .LVU387
 1410 000e FEE7     		b	.L108
 1411              	.L114:
 622:Drivers/GD32F30x_standard_peripheral/Source/gd32f30x_dma.c ****             interrupt_enable = DMA_CHCTL(dma_periph, channelx) & DMA_CHXCTL_FTFIE;
 1412              		.loc 1 622 13 view .LVU388
 622:Drivers/GD32F30x_standard_peripheral/Source/gd32f30x_dma.c ****             interrupt_enable = DMA_CHCTL(dma_periph, channelx) & DMA_CHXCTL_FTFIE;
 1413              		.loc 1 622 30 is_stmt 0 view .LVU389
 1414 0010 0468     		ldr	r4, [r0]
 622:Drivers/GD32F30x_standard_peripheral/Source/gd32f30x_dma.c ****             interrupt_enable = DMA_CHCTL(dma_periph, channelx) & DMA_CHXCTL_FTFIE;
 1415              		.loc 1 622 53 view .LVU390
 1416 0012 8B00     		lsls	r3, r1, #2
 1417 0014 9A40     		lsls	r2, r2, r3
 1418              	.LVL73:
 622:Drivers/GD32F30x_standard_peripheral/Source/gd32f30x_dma.c ****             interrupt_enable = DMA_CHCTL(dma_periph, channelx) & DMA_CHXCTL_FTFIE;
 1419              		.loc 1 622 28 view .LVU391
 1420 0016 2240     		ands	r2, r2, r4
 1421              	.LVL74:
 623:Drivers/GD32F30x_standard_peripheral/Source/gd32f30x_dma.c ****             break;
 1422              		.loc 1 623 13 is_stmt 1 view .LVU392
 623:Drivers/GD32F30x_standard_peripheral/Source/gd32f30x_dma.c ****             break;
 1423              		.loc 1 623 32 is_stmt 0 view .LVU393
 1424 0018 0B44     		add	r3, r3, r1
 1425 001a 00EB8300 		add	r0, r0, r3, lsl #2
 1426              	.LVL75:
 623:Drivers/GD32F30x_standard_peripheral/Source/gd32f30x_dma.c ****             break;
 1427              		.loc 1 623 32 view .LVU394
 1428 001e 8368     		ldr	r3, [r0, #8]
 623:Drivers/GD32F30x_standard_peripheral/Source/gd32f30x_dma.c ****             break;
 1429              		.loc 1 623 30 view .LVU395
 1430 0020 03F00203 		and	r3, r3, #2
 1431              	.LVL76:
 624:Drivers/GD32F30x_standard_peripheral/Source/gd32f30x_dma.c ****         case DMA_INT_FLAG_HTF:
 1432              		.loc 1 624 13 is_stmt 1 view .LVU396
 1433              	.L109:
 637:Drivers/GD32F30x_standard_peripheral/Source/gd32f30x_dma.c ****         return SET;
ARM GAS  C:\Users\Prog\AppData\Local\Temp\ccBCnbcK.s 			page 45


 1434              		.loc 1 637 5 view .LVU397
 637:Drivers/GD32F30x_standard_peripheral/Source/gd32f30x_dma.c ****         return SET;
 1435              		.loc 1 637 7 is_stmt 0 view .LVU398
 1436 0024 C2B1     		cbz	r2, .L111
 637:Drivers/GD32F30x_standard_peripheral/Source/gd32f30x_dma.c ****         return SET;
 1437              		.loc 1 637 23 discriminator 1 view .LVU399
 1438 0026 DBB9     		cbnz	r3, .L112
 640:Drivers/GD32F30x_standard_peripheral/Source/gd32f30x_dma.c ****     }
 1439              		.loc 1 640 16 view .LVU400
 1440 0028 0020     		movs	r0, #0
 1441 002a 16E0     		b	.L110
 1442              	.LVL77:
 1443              	.L106:
 626:Drivers/GD32F30x_standard_peripheral/Source/gd32f30x_dma.c ****             interrupt_enable = DMA_CHCTL(dma_periph, channelx) & DMA_CHXCTL_HTFIE;
 1444              		.loc 1 626 13 is_stmt 1 view .LVU401
 626:Drivers/GD32F30x_standard_peripheral/Source/gd32f30x_dma.c ****             interrupt_enable = DMA_CHCTL(dma_periph, channelx) & DMA_CHXCTL_HTFIE;
 1445              		.loc 1 626 30 is_stmt 0 view .LVU402
 1446 002c 0468     		ldr	r4, [r0]
 626:Drivers/GD32F30x_standard_peripheral/Source/gd32f30x_dma.c ****             interrupt_enable = DMA_CHCTL(dma_periph, channelx) & DMA_CHXCTL_HTFIE;
 1447              		.loc 1 626 53 view .LVU403
 1448 002e 8B00     		lsls	r3, r1, #2
 1449 0030 9A40     		lsls	r2, r2, r3
 1450              	.LVL78:
 626:Drivers/GD32F30x_standard_peripheral/Source/gd32f30x_dma.c ****             interrupt_enable = DMA_CHCTL(dma_periph, channelx) & DMA_CHXCTL_HTFIE;
 1451              		.loc 1 626 28 view .LVU404
 1452 0032 2240     		ands	r2, r2, r4
 1453              	.LVL79:
 627:Drivers/GD32F30x_standard_peripheral/Source/gd32f30x_dma.c ****             break;
 1454              		.loc 1 627 13 is_stmt 1 view .LVU405
 627:Drivers/GD32F30x_standard_peripheral/Source/gd32f30x_dma.c ****             break;
 1455              		.loc 1 627 32 is_stmt 0 view .LVU406
 1456 0034 0B44     		add	r3, r3, r1
 1457 0036 00EB8300 		add	r0, r0, r3, lsl #2
 1458              	.LVL80:
 627:Drivers/GD32F30x_standard_peripheral/Source/gd32f30x_dma.c ****             break;
 1459              		.loc 1 627 32 view .LVU407
 1460 003a 8368     		ldr	r3, [r0, #8]
 627:Drivers/GD32F30x_standard_peripheral/Source/gd32f30x_dma.c ****             break;
 1461              		.loc 1 627 30 view .LVU408
 1462 003c 03F00403 		and	r3, r3, #4
 1463              	.LVL81:
 628:Drivers/GD32F30x_standard_peripheral/Source/gd32f30x_dma.c ****         case DMA_INT_FLAG_ERR:
 1464              		.loc 1 628 13 is_stmt 1 view .LVU409
 1465 0040 F0E7     		b	.L109
 1466              	.LVL82:
 1467              	.L107:
 630:Drivers/GD32F30x_standard_peripheral/Source/gd32f30x_dma.c ****             interrupt_enable = DMA_CHCTL(dma_periph, channelx) & DMA_CHXCTL_ERRIE;
 1468              		.loc 1 630 13 view .LVU410
 630:Drivers/GD32F30x_standard_peripheral/Source/gd32f30x_dma.c ****             interrupt_enable = DMA_CHCTL(dma_periph, channelx) & DMA_CHXCTL_ERRIE;
 1469              		.loc 1 630 30 is_stmt 0 view .LVU411
 1470 0042 0468     		ldr	r4, [r0]
 630:Drivers/GD32F30x_standard_peripheral/Source/gd32f30x_dma.c ****             interrupt_enable = DMA_CHCTL(dma_periph, channelx) & DMA_CHXCTL_ERRIE;
 1471              		.loc 1 630 53 view .LVU412
 1472 0044 8B00     		lsls	r3, r1, #2
 1473 0046 9A40     		lsls	r2, r2, r3
 1474              	.LVL83:
 630:Drivers/GD32F30x_standard_peripheral/Source/gd32f30x_dma.c ****             interrupt_enable = DMA_CHCTL(dma_periph, channelx) & DMA_CHXCTL_ERRIE;
ARM GAS  C:\Users\Prog\AppData\Local\Temp\ccBCnbcK.s 			page 46


 1475              		.loc 1 630 28 view .LVU413
 1476 0048 2240     		ands	r2, r2, r4
 1477              	.LVL84:
 631:Drivers/GD32F30x_standard_peripheral/Source/gd32f30x_dma.c ****             break;
 1478              		.loc 1 631 13 is_stmt 1 view .LVU414
 631:Drivers/GD32F30x_standard_peripheral/Source/gd32f30x_dma.c ****             break;
 1479              		.loc 1 631 32 is_stmt 0 view .LVU415
 1480 004a 0B44     		add	r3, r3, r1
 1481 004c 00EB8300 		add	r0, r0, r3, lsl #2
 1482              	.LVL85:
 631:Drivers/GD32F30x_standard_peripheral/Source/gd32f30x_dma.c ****             break;
 1483              		.loc 1 631 32 view .LVU416
 1484 0050 8368     		ldr	r3, [r0, #8]
 631:Drivers/GD32F30x_standard_peripheral/Source/gd32f30x_dma.c ****             break;
 1485              		.loc 1 631 30 view .LVU417
 1486 0052 03F00803 		and	r3, r3, #8
 1487              	.LVL86:
 632:Drivers/GD32F30x_standard_peripheral/Source/gd32f30x_dma.c ****         default:
 1488              		.loc 1 632 13 is_stmt 1 view .LVU418
 1489 0056 E5E7     		b	.L109
 1490              	.L111:
 640:Drivers/GD32F30x_standard_peripheral/Source/gd32f30x_dma.c ****     }
 1491              		.loc 1 640 16 is_stmt 0 view .LVU419
 1492 0058 0020     		movs	r0, #0
 1493              	.L110:
 642:Drivers/GD32F30x_standard_peripheral/Source/gd32f30x_dma.c **** 
 1494              		.loc 1 642 1 view .LVU420
 1495 005a 5DF8044B 		ldr	r4, [sp], #4
 1496              	.LCFI21:
 1497              		.cfi_remember_state
 1498              		.cfi_restore 4
 1499              		.cfi_def_cfa_offset 0
 1500 005e 7047     		bx	lr
 1501              	.L112:
 1502              	.LCFI22:
 1503              		.cfi_restore_state
 638:Drivers/GD32F30x_standard_peripheral/Source/gd32f30x_dma.c ****     }else{
 1504              		.loc 1 638 16 view .LVU421
 1505 0060 0120     		movs	r0, #1
 1506 0062 FAE7     		b	.L110
 1507              		.cfi_endproc
 1508              	.LFE139:
 1510              		.section	.text.dma_interrupt_flag_clear,"ax",%progbits
 1511              		.align	1
 1512              		.global	dma_interrupt_flag_clear
 1513              		.syntax unified
 1514              		.thumb
 1515              		.thumb_func
 1516              		.fpu fpv4-sp-d16
 1518              	dma_interrupt_flag_clear:
 1519              	.LVL87:
 1520              	.LFB140:
 661:Drivers/GD32F30x_standard_peripheral/Source/gd32f30x_dma.c ****     DMA_INTC(dma_periph) |= DMA_FLAG_ADD(flag, channelx);
 1521              		.loc 1 661 1 is_stmt 1 view -0
 1522              		.cfi_startproc
 1523              		@ args = 0, pretend = 0, frame = 0
 1524              		@ frame_needed = 0, uses_anonymous_args = 0
ARM GAS  C:\Users\Prog\AppData\Local\Temp\ccBCnbcK.s 			page 47


 1525              		@ link register save eliminated.
 662:Drivers/GD32F30x_standard_peripheral/Source/gd32f30x_dma.c **** }
 1526              		.loc 1 662 5 view .LVU423
 662:Drivers/GD32F30x_standard_peripheral/Source/gd32f30x_dma.c **** }
 1527              		.loc 1 662 26 is_stmt 0 view .LVU424
 1528 0000 4368     		ldr	r3, [r0, #4]
 662:Drivers/GD32F30x_standard_peripheral/Source/gd32f30x_dma.c **** }
 1529              		.loc 1 662 29 view .LVU425
 1530 0002 8900     		lsls	r1, r1, #2
 1531              	.LVL88:
 662:Drivers/GD32F30x_standard_peripheral/Source/gd32f30x_dma.c **** }
 1532              		.loc 1 662 29 view .LVU426
 1533 0004 8A40     		lsls	r2, r2, r1
 1534              	.LVL89:
 662:Drivers/GD32F30x_standard_peripheral/Source/gd32f30x_dma.c **** }
 1535              		.loc 1 662 26 view .LVU427
 1536 0006 1343     		orrs	r3, r3, r2
 1537 0008 4360     		str	r3, [r0, #4]
 663:Drivers/GD32F30x_standard_peripheral/Source/gd32f30x_dma.c **** 
 1538              		.loc 1 663 1 view .LVU428
 1539 000a 7047     		bx	lr
 1540              		.cfi_endproc
 1541              	.LFE140:
 1543              		.section	.text.dma_interrupt_enable,"ax",%progbits
 1544              		.align	1
 1545              		.global	dma_interrupt_enable
 1546              		.syntax unified
 1547              		.thumb
 1548              		.thumb_func
 1549              		.fpu fpv4-sp-d16
 1551              	dma_interrupt_enable:
 1552              	.LVL90:
 1553              	.LFB141:
 681:Drivers/GD32F30x_standard_peripheral/Source/gd32f30x_dma.c ****     if(ERROR == dma_periph_and_channel_check(dma_periph, channelx)){
 1554              		.loc 1 681 1 is_stmt 1 view -0
 1555              		.cfi_startproc
 1556              		@ args = 0, pretend = 0, frame = 0
 1557              		@ frame_needed = 0, uses_anonymous_args = 0
 681:Drivers/GD32F30x_standard_peripheral/Source/gd32f30x_dma.c ****     if(ERROR == dma_periph_and_channel_check(dma_periph, channelx)){
 1558              		.loc 1 681 1 is_stmt 0 view .LVU430
 1559 0000 70B5     		push	{r4, r5, r6, lr}
 1560              	.LCFI23:
 1561              		.cfi_def_cfa_offset 16
 1562              		.cfi_offset 4, -16
 1563              		.cfi_offset 5, -12
 1564              		.cfi_offset 6, -8
 1565              		.cfi_offset 14, -4
 1566 0002 0446     		mov	r4, r0
 1567 0004 0D46     		mov	r5, r1
 1568 0006 1646     		mov	r6, r2
 682:Drivers/GD32F30x_standard_peripheral/Source/gd32f30x_dma.c ****         DMA_WRONG_HANDLE
 1569              		.loc 1 682 5 is_stmt 1 view .LVU431
 682:Drivers/GD32F30x_standard_peripheral/Source/gd32f30x_dma.c ****         DMA_WRONG_HANDLE
 1570              		.loc 1 682 17 is_stmt 0 view .LVU432
 1571 0008 FFF7FEFF 		bl	dma_periph_and_channel_check
 1572              	.LVL91:
 682:Drivers/GD32F30x_standard_peripheral/Source/gd32f30x_dma.c ****         DMA_WRONG_HANDLE
ARM GAS  C:\Users\Prog\AppData\Local\Temp\ccBCnbcK.s 			page 48


 1573              		.loc 1 682 7 view .LVU433
 1574 000c 00B9     		cbnz	r0, .L117
 1575              	.L118:
 683:Drivers/GD32F30x_standard_peripheral/Source/gd32f30x_dma.c ****     }
 1576              		.loc 1 683 9 is_stmt 1 discriminator 1 view .LVU434
 683:Drivers/GD32F30x_standard_peripheral/Source/gd32f30x_dma.c ****     }
 1577              		.loc 1 683 9 discriminator 1 view .LVU435
 683:Drivers/GD32F30x_standard_peripheral/Source/gd32f30x_dma.c ****     }
 1578              		.loc 1 683 9 discriminator 1 view .LVU436
 1579 000e FEE7     		b	.L118
 1580              	.L117:
 686:Drivers/GD32F30x_standard_peripheral/Source/gd32f30x_dma.c **** }
 1581              		.loc 1 686 5 view .LVU437
 686:Drivers/GD32F30x_standard_peripheral/Source/gd32f30x_dma.c **** }
 1582              		.loc 1 686 37 is_stmt 0 view .LVU438
 1583 0010 05EB8501 		add	r1, r5, r5, lsl #2
 1584 0014 04EB8100 		add	r0, r4, r1, lsl #2
 1585 0018 8268     		ldr	r2, [r0, #8]
 1586 001a 3243     		orrs	r2, r2, r6
 1587 001c 8260     		str	r2, [r0, #8]
 687:Drivers/GD32F30x_standard_peripheral/Source/gd32f30x_dma.c **** 
 1588              		.loc 1 687 1 view .LVU439
 1589 001e 70BD     		pop	{r4, r5, r6, pc}
 687:Drivers/GD32F30x_standard_peripheral/Source/gd32f30x_dma.c **** 
 1590              		.loc 1 687 1 view .LVU440
 1591              		.cfi_endproc
 1592              	.LFE141:
 1594              		.section	.text.dma_interrupt_disable,"ax",%progbits
 1595              		.align	1
 1596              		.global	dma_interrupt_disable
 1597              		.syntax unified
 1598              		.thumb
 1599              		.thumb_func
 1600              		.fpu fpv4-sp-d16
 1602              	dma_interrupt_disable:
 1603              	.LVL92:
 1604              	.LFB142:
 705:Drivers/GD32F30x_standard_peripheral/Source/gd32f30x_dma.c ****     if(ERROR == dma_periph_and_channel_check(dma_periph, channelx)){
 1605              		.loc 1 705 1 is_stmt 1 view -0
 1606              		.cfi_startproc
 1607              		@ args = 0, pretend = 0, frame = 0
 1608              		@ frame_needed = 0, uses_anonymous_args = 0
 705:Drivers/GD32F30x_standard_peripheral/Source/gd32f30x_dma.c ****     if(ERROR == dma_periph_and_channel_check(dma_periph, channelx)){
 1609              		.loc 1 705 1 is_stmt 0 view .LVU442
 1610 0000 70B5     		push	{r4, r5, r6, lr}
 1611              	.LCFI24:
 1612              		.cfi_def_cfa_offset 16
 1613              		.cfi_offset 4, -16
 1614              		.cfi_offset 5, -12
 1615              		.cfi_offset 6, -8
 1616              		.cfi_offset 14, -4
 1617 0002 0446     		mov	r4, r0
 1618 0004 0D46     		mov	r5, r1
 1619 0006 1646     		mov	r6, r2
 706:Drivers/GD32F30x_standard_peripheral/Source/gd32f30x_dma.c ****         DMA_WRONG_HANDLE
 1620              		.loc 1 706 5 is_stmt 1 view .LVU443
 706:Drivers/GD32F30x_standard_peripheral/Source/gd32f30x_dma.c ****         DMA_WRONG_HANDLE
ARM GAS  C:\Users\Prog\AppData\Local\Temp\ccBCnbcK.s 			page 49


 1621              		.loc 1 706 17 is_stmt 0 view .LVU444
 1622 0008 FFF7FEFF 		bl	dma_periph_and_channel_check
 1623              	.LVL93:
 706:Drivers/GD32F30x_standard_peripheral/Source/gd32f30x_dma.c ****         DMA_WRONG_HANDLE
 1624              		.loc 1 706 7 view .LVU445
 1625 000c 00B9     		cbnz	r0, .L121
 1626              	.L122:
 707:Drivers/GD32F30x_standard_peripheral/Source/gd32f30x_dma.c ****     }
 1627              		.loc 1 707 9 is_stmt 1 discriminator 1 view .LVU446
 707:Drivers/GD32F30x_standard_peripheral/Source/gd32f30x_dma.c ****     }
 1628              		.loc 1 707 9 discriminator 1 view .LVU447
 707:Drivers/GD32F30x_standard_peripheral/Source/gd32f30x_dma.c ****     }
 1629              		.loc 1 707 9 discriminator 1 view .LVU448
 1630 000e FEE7     		b	.L122
 1631              	.L121:
 710:Drivers/GD32F30x_standard_peripheral/Source/gd32f30x_dma.c **** }
 1632              		.loc 1 710 5 view .LVU449
 710:Drivers/GD32F30x_standard_peripheral/Source/gd32f30x_dma.c **** }
 1633              		.loc 1 710 37 is_stmt 0 view .LVU450
 1634 0010 05EB8501 		add	r1, r5, r5, lsl #2
 1635 0014 04EB8100 		add	r0, r4, r1, lsl #2
 1636 0018 8268     		ldr	r2, [r0, #8]
 1637 001a 22EA0602 		bic	r2, r2, r6
 1638 001e 8260     		str	r2, [r0, #8]
 711:Drivers/GD32F30x_standard_peripheral/Source/gd32f30x_dma.c **** 
 1639              		.loc 1 711 1 view .LVU451
 1640 0020 70BD     		pop	{r4, r5, r6, pc}
 711:Drivers/GD32F30x_standard_peripheral/Source/gd32f30x_dma.c **** 
 1641              		.loc 1 711 1 view .LVU452
 1642              		.cfi_endproc
 1643              	.LFE142:
 1645              		.text
 1646              	.Letext0:
 1647              		.file 2 "c:\\programdata\\chocolatey\\lib\\gcc-arm-embedded\\tools\\gcc-arm-none-eabi-10-2020-q4-m
 1648              		.file 3 "c:\\programdata\\chocolatey\\lib\\gcc-arm-embedded\\tools\\gcc-arm-none-eabi-10-2020-q4-m
 1649              		.file 4 "Drivers/CMSIS/GD/GD32F30x/Include/gd32f30x.h"
 1650              		.file 5 "Drivers/GD32F30x_standard_peripheral/Include/gd32f30x_dma.h"
ARM GAS  C:\Users\Prog\AppData\Local\Temp\ccBCnbcK.s 			page 50

