ARM GAS  C:\Users\Prog\AppData\Local\Temp\ccx4kQ0B.s 			page 1


   1              		.cpu cortex-m4
   2              		.eabi_attribute 27, 1
   3              		.eabi_attribute 28, 1
   4              		.eabi_attribute 20, 1
   5              		.eabi_attribute 21, 1
   6              		.eabi_attribute 23, 3
   7              		.eabi_attribute 24, 1
   8              		.eabi_attribute 25, 1
   9              		.eabi_attribute 26, 1
  10              		.eabi_attribute 30, 1
  11              		.eabi_attribute 34, 1
  12              		.eabi_attribute 18, 4
  13              		.file	"gd32f30x_dac.c"
  14              		.text
  15              	.Ltext0:
  16              		.cfi_sections	.debug_frame
  17              		.section	.text.dac_deinit,"ax",%progbits
  18              		.align	1
  19              		.global	dac_deinit
  20              		.arch armv7e-m
  21              		.syntax unified
  22              		.thumb
  23              		.thumb_func
  24              		.fpu fpv4-sp-d16
  26              	dac_deinit:
  27              	.LFB116:
  28              		.file 1 "Drivers/GD32F30x_standard_peripheral/Source/gd32f30x_dac.c"
   1:Drivers/GD32F30x_standard_peripheral/Source/gd32f30x_dac.c **** /*!
   2:Drivers/GD32F30x_standard_peripheral/Source/gd32f30x_dac.c ****     \file    gd32f30x_dac.c
   3:Drivers/GD32F30x_standard_peripheral/Source/gd32f30x_dac.c ****     \brief   DAC driver
   4:Drivers/GD32F30x_standard_peripheral/Source/gd32f30x_dac.c **** 
   5:Drivers/GD32F30x_standard_peripheral/Source/gd32f30x_dac.c ****     \version 2017-02-10, V1.0.0, firmware for GD32F30x
   6:Drivers/GD32F30x_standard_peripheral/Source/gd32f30x_dac.c ****     \version 2018-10-10, V1.1.0, firmware for GD32F30x
   7:Drivers/GD32F30x_standard_peripheral/Source/gd32f30x_dac.c ****     \version 2018-12-25, V2.0.0, firmware for GD32F30x
   8:Drivers/GD32F30x_standard_peripheral/Source/gd32f30x_dac.c ****     \version 2020-09-30, V2.1.0, firmware for GD32F30x
   9:Drivers/GD32F30x_standard_peripheral/Source/gd32f30x_dac.c **** */
  10:Drivers/GD32F30x_standard_peripheral/Source/gd32f30x_dac.c **** 
  11:Drivers/GD32F30x_standard_peripheral/Source/gd32f30x_dac.c **** /*
  12:Drivers/GD32F30x_standard_peripheral/Source/gd32f30x_dac.c ****     Copyright (c) 2020, GigaDevice Semiconductor Inc.
  13:Drivers/GD32F30x_standard_peripheral/Source/gd32f30x_dac.c **** 
  14:Drivers/GD32F30x_standard_peripheral/Source/gd32f30x_dac.c ****     Redistribution and use in source and binary forms, with or without modification, 
  15:Drivers/GD32F30x_standard_peripheral/Source/gd32f30x_dac.c **** are permitted provided that the following conditions are met:
  16:Drivers/GD32F30x_standard_peripheral/Source/gd32f30x_dac.c **** 
  17:Drivers/GD32F30x_standard_peripheral/Source/gd32f30x_dac.c ****     1. Redistributions of source code must retain the above copyright notice, this 
  18:Drivers/GD32F30x_standard_peripheral/Source/gd32f30x_dac.c ****        list of conditions and the following disclaimer.
  19:Drivers/GD32F30x_standard_peripheral/Source/gd32f30x_dac.c ****     2. Redistributions in binary form must reproduce the above copyright notice, 
  20:Drivers/GD32F30x_standard_peripheral/Source/gd32f30x_dac.c ****        this list of conditions and the following disclaimer in the documentation 
  21:Drivers/GD32F30x_standard_peripheral/Source/gd32f30x_dac.c ****        and/or other materials provided with the distribution.
  22:Drivers/GD32F30x_standard_peripheral/Source/gd32f30x_dac.c ****     3. Neither the name of the copyright holder nor the names of its contributors 
  23:Drivers/GD32F30x_standard_peripheral/Source/gd32f30x_dac.c ****        may be used to endorse or promote products derived from this software without 
  24:Drivers/GD32F30x_standard_peripheral/Source/gd32f30x_dac.c ****        specific prior written permission.
  25:Drivers/GD32F30x_standard_peripheral/Source/gd32f30x_dac.c **** 
  26:Drivers/GD32F30x_standard_peripheral/Source/gd32f30x_dac.c ****     THIS SOFTWARE IS PROVIDED BY THE COPYRIGHT HOLDERS AND CONTRIBUTORS "AS IS" 
  27:Drivers/GD32F30x_standard_peripheral/Source/gd32f30x_dac.c **** AND ANY EXPRESS OR IMPLIED WARRANTIES, INCLUDING, BUT NOT LIMITED TO, THE IMPLIED 
  28:Drivers/GD32F30x_standard_peripheral/Source/gd32f30x_dac.c **** WARRANTIES OF MERCHANTABILITY AND FITNESS FOR A PARTICULAR PURPOSE ARE DISCLAIMED. 
  29:Drivers/GD32F30x_standard_peripheral/Source/gd32f30x_dac.c **** IN NO EVENT SHALL THE COPYRIGHT HOLDER OR CONTRIBUTORS BE LIABLE FOR ANY DIRECT, 
  30:Drivers/GD32F30x_standard_peripheral/Source/gd32f30x_dac.c **** INDIRECT, INCIDENTAL, SPECIAL, EXEMPLARY, OR CONSEQUENTIAL DAMAGES (INCLUDING, BUT 
ARM GAS  C:\Users\Prog\AppData\Local\Temp\ccx4kQ0B.s 			page 2


  31:Drivers/GD32F30x_standard_peripheral/Source/gd32f30x_dac.c **** NOT LIMITED TO, PROCUREMENT OF SUBSTITUTE GOODS OR SERVICES; LOSS OF USE, DATA, OR 
  32:Drivers/GD32F30x_standard_peripheral/Source/gd32f30x_dac.c **** PROFITS; OR BUSINESS INTERRUPTION) HOWEVER CAUSED AND ON ANY THEORY OF LIABILITY, 
  33:Drivers/GD32F30x_standard_peripheral/Source/gd32f30x_dac.c **** WHETHER IN CONTRACT, STRICT LIABILITY, OR TORT (INCLUDING NEGLIGENCE OR OTHERWISE) 
  34:Drivers/GD32F30x_standard_peripheral/Source/gd32f30x_dac.c **** ARISING IN ANY WAY OUT OF THE USE OF THIS SOFTWARE, EVEN IF ADVISED OF THE POSSIBILITY 
  35:Drivers/GD32F30x_standard_peripheral/Source/gd32f30x_dac.c **** OF SUCH DAMAGE.
  36:Drivers/GD32F30x_standard_peripheral/Source/gd32f30x_dac.c **** */
  37:Drivers/GD32F30x_standard_peripheral/Source/gd32f30x_dac.c **** 
  38:Drivers/GD32F30x_standard_peripheral/Source/gd32f30x_dac.c **** #include "gd32f30x_dac.h"
  39:Drivers/GD32F30x_standard_peripheral/Source/gd32f30x_dac.c **** 
  40:Drivers/GD32F30x_standard_peripheral/Source/gd32f30x_dac.c **** /* DAC register bit offset */
  41:Drivers/GD32F30x_standard_peripheral/Source/gd32f30x_dac.c **** #define DAC1_REG_OFFSET             ((uint32_t)16U)
  42:Drivers/GD32F30x_standard_peripheral/Source/gd32f30x_dac.c **** #define DH_12BIT_OFFSET             ((uint32_t)16U)
  43:Drivers/GD32F30x_standard_peripheral/Source/gd32f30x_dac.c **** #define DH_8BIT_OFFSET              ((uint32_t)8U)
  44:Drivers/GD32F30x_standard_peripheral/Source/gd32f30x_dac.c **** 
  45:Drivers/GD32F30x_standard_peripheral/Source/gd32f30x_dac.c **** /*!
  46:Drivers/GD32F30x_standard_peripheral/Source/gd32f30x_dac.c ****     \brief      deinitialize DAC
  47:Drivers/GD32F30x_standard_peripheral/Source/gd32f30x_dac.c ****     \param[in]  none
  48:Drivers/GD32F30x_standard_peripheral/Source/gd32f30x_dac.c ****     \param[out] none
  49:Drivers/GD32F30x_standard_peripheral/Source/gd32f30x_dac.c ****     \retval     none
  50:Drivers/GD32F30x_standard_peripheral/Source/gd32f30x_dac.c **** */
  51:Drivers/GD32F30x_standard_peripheral/Source/gd32f30x_dac.c **** void dac_deinit(void)
  52:Drivers/GD32F30x_standard_peripheral/Source/gd32f30x_dac.c **** {
  29              		.loc 1 52 1 view -0
  30              		.cfi_startproc
  31              		@ args = 0, pretend = 0, frame = 0
  32              		@ frame_needed = 0, uses_anonymous_args = 0
  33 0000 08B5     		push	{r3, lr}
  34              	.LCFI0:
  35              		.cfi_def_cfa_offset 8
  36              		.cfi_offset 3, -8
  37              		.cfi_offset 14, -4
  53:Drivers/GD32F30x_standard_peripheral/Source/gd32f30x_dac.c ****     rcu_periph_reset_enable(RCU_DACRST);
  38              		.loc 1 53 5 view .LVU1
  39 0002 40F21D40 		movw	r0, #1053
  40 0006 FFF7FEFF 		bl	rcu_periph_reset_enable
  41              	.LVL0:
  54:Drivers/GD32F30x_standard_peripheral/Source/gd32f30x_dac.c ****     rcu_periph_reset_disable(RCU_DACRST);
  42              		.loc 1 54 5 view .LVU2
  43 000a 40F21D40 		movw	r0, #1053
  44 000e FFF7FEFF 		bl	rcu_periph_reset_disable
  45              	.LVL1:
  55:Drivers/GD32F30x_standard_peripheral/Source/gd32f30x_dac.c **** }
  46              		.loc 1 55 1 is_stmt 0 view .LVU3
  47 0012 08BD     		pop	{r3, pc}
  48              		.cfi_endproc
  49              	.LFE116:
  51              		.section	.text.dac_enable,"ax",%progbits
  52              		.align	1
  53              		.global	dac_enable
  54              		.syntax unified
  55              		.thumb
  56              		.thumb_func
  57              		.fpu fpv4-sp-d16
  59              	dac_enable:
  60              	.LVL2:
  61              	.LFB117:
  56:Drivers/GD32F30x_standard_peripheral/Source/gd32f30x_dac.c **** 
ARM GAS  C:\Users\Prog\AppData\Local\Temp\ccx4kQ0B.s 			page 3


  57:Drivers/GD32F30x_standard_peripheral/Source/gd32f30x_dac.c **** /*!
  58:Drivers/GD32F30x_standard_peripheral/Source/gd32f30x_dac.c ****     \brief      enable DAC
  59:Drivers/GD32F30x_standard_peripheral/Source/gd32f30x_dac.c ****     \param[in]  dac_periph: DACx(x = 0,1)
  60:Drivers/GD32F30x_standard_peripheral/Source/gd32f30x_dac.c ****     \param[out] none
  61:Drivers/GD32F30x_standard_peripheral/Source/gd32f30x_dac.c ****     \retval     none
  62:Drivers/GD32F30x_standard_peripheral/Source/gd32f30x_dac.c **** */
  63:Drivers/GD32F30x_standard_peripheral/Source/gd32f30x_dac.c **** void dac_enable(uint32_t dac_periph)
  64:Drivers/GD32F30x_standard_peripheral/Source/gd32f30x_dac.c **** {
  62              		.loc 1 64 1 is_stmt 1 view -0
  63              		.cfi_startproc
  64              		@ args = 0, pretend = 0, frame = 0
  65              		@ frame_needed = 0, uses_anonymous_args = 0
  66              		@ link register save eliminated.
  65:Drivers/GD32F30x_standard_peripheral/Source/gd32f30x_dac.c ****     if(DAC0 == dac_periph){
  67              		.loc 1 65 5 view .LVU5
  68              		.loc 1 65 7 is_stmt 0 view .LVU6
  69 0000 28B9     		cbnz	r0, .L4
  66:Drivers/GD32F30x_standard_peripheral/Source/gd32f30x_dac.c ****         DAC_CTL |= DAC_CTL_DEN0;
  70              		.loc 1 66 9 is_stmt 1 view .LVU7
  71              		.loc 1 66 17 is_stmt 0 view .LVU8
  72 0002 064A     		ldr	r2, .L6
  73 0004 1368     		ldr	r3, [r2]
  74 0006 43F00103 		orr	r3, r3, #1
  75 000a 1360     		str	r3, [r2]
  76 000c 7047     		bx	lr
  77              	.L4:
  67:Drivers/GD32F30x_standard_peripheral/Source/gd32f30x_dac.c ****     }else{
  68:Drivers/GD32F30x_standard_peripheral/Source/gd32f30x_dac.c ****         DAC_CTL |= DAC_CTL_DEN1;
  78              		.loc 1 68 9 is_stmt 1 view .LVU9
  79              		.loc 1 68 17 is_stmt 0 view .LVU10
  80 000e 034A     		ldr	r2, .L6
  81 0010 1368     		ldr	r3, [r2]
  82 0012 43F48033 		orr	r3, r3, #65536
  83 0016 1360     		str	r3, [r2]
  69:Drivers/GD32F30x_standard_peripheral/Source/gd32f30x_dac.c ****     }
  70:Drivers/GD32F30x_standard_peripheral/Source/gd32f30x_dac.c **** } 
  84              		.loc 1 70 1 view .LVU11
  85 0018 7047     		bx	lr
  86              	.L7:
  87 001a 00BF     		.align	2
  88              	.L6:
  89 001c 00740040 		.word	1073771520
  90              		.cfi_endproc
  91              	.LFE117:
  93              		.section	.text.dac_disable,"ax",%progbits
  94              		.align	1
  95              		.global	dac_disable
  96              		.syntax unified
  97              		.thumb
  98              		.thumb_func
  99              		.fpu fpv4-sp-d16
 101              	dac_disable:
 102              	.LVL3:
 103              	.LFB118:
  71:Drivers/GD32F30x_standard_peripheral/Source/gd32f30x_dac.c **** 
  72:Drivers/GD32F30x_standard_peripheral/Source/gd32f30x_dac.c **** /*!
  73:Drivers/GD32F30x_standard_peripheral/Source/gd32f30x_dac.c ****     \brief      disable DAC
ARM GAS  C:\Users\Prog\AppData\Local\Temp\ccx4kQ0B.s 			page 4


  74:Drivers/GD32F30x_standard_peripheral/Source/gd32f30x_dac.c ****     \param[in]  dac_periph: DACx(x = 0,1)
  75:Drivers/GD32F30x_standard_peripheral/Source/gd32f30x_dac.c ****     \param[out] none
  76:Drivers/GD32F30x_standard_peripheral/Source/gd32f30x_dac.c ****     \retval     none
  77:Drivers/GD32F30x_standard_peripheral/Source/gd32f30x_dac.c **** */
  78:Drivers/GD32F30x_standard_peripheral/Source/gd32f30x_dac.c **** void dac_disable(uint32_t dac_periph)
  79:Drivers/GD32F30x_standard_peripheral/Source/gd32f30x_dac.c **** {
 104              		.loc 1 79 1 is_stmt 1 view -0
 105              		.cfi_startproc
 106              		@ args = 0, pretend = 0, frame = 0
 107              		@ frame_needed = 0, uses_anonymous_args = 0
 108              		@ link register save eliminated.
  80:Drivers/GD32F30x_standard_peripheral/Source/gd32f30x_dac.c ****     if(DAC0 == dac_periph){
 109              		.loc 1 80 5 view .LVU13
 110              		.loc 1 80 7 is_stmt 0 view .LVU14
 111 0000 28B9     		cbnz	r0, .L9
  81:Drivers/GD32F30x_standard_peripheral/Source/gd32f30x_dac.c ****         DAC_CTL &= ~DAC_CTL_DEN0;
 112              		.loc 1 81 9 is_stmt 1 view .LVU15
 113              		.loc 1 81 17 is_stmt 0 view .LVU16
 114 0002 064A     		ldr	r2, .L11
 115 0004 1368     		ldr	r3, [r2]
 116 0006 23F00103 		bic	r3, r3, #1
 117 000a 1360     		str	r3, [r2]
 118 000c 7047     		bx	lr
 119              	.L9:
  82:Drivers/GD32F30x_standard_peripheral/Source/gd32f30x_dac.c ****     }else{
  83:Drivers/GD32F30x_standard_peripheral/Source/gd32f30x_dac.c ****         DAC_CTL &= ~DAC_CTL_DEN1;
 120              		.loc 1 83 9 is_stmt 1 view .LVU17
 121              		.loc 1 83 17 is_stmt 0 view .LVU18
 122 000e 034A     		ldr	r2, .L11
 123 0010 1368     		ldr	r3, [r2]
 124 0012 23F48033 		bic	r3, r3, #65536
 125 0016 1360     		str	r3, [r2]
  84:Drivers/GD32F30x_standard_peripheral/Source/gd32f30x_dac.c ****     }
  85:Drivers/GD32F30x_standard_peripheral/Source/gd32f30x_dac.c **** }
 126              		.loc 1 85 1 view .LVU19
 127 0018 7047     		bx	lr
 128              	.L12:
 129 001a 00BF     		.align	2
 130              	.L11:
 131 001c 00740040 		.word	1073771520
 132              		.cfi_endproc
 133              	.LFE118:
 135              		.section	.text.dac_dma_enable,"ax",%progbits
 136              		.align	1
 137              		.global	dac_dma_enable
 138              		.syntax unified
 139              		.thumb
 140              		.thumb_func
 141              		.fpu fpv4-sp-d16
 143              	dac_dma_enable:
 144              	.LVL4:
 145              	.LFB119:
  86:Drivers/GD32F30x_standard_peripheral/Source/gd32f30x_dac.c **** 
  87:Drivers/GD32F30x_standard_peripheral/Source/gd32f30x_dac.c **** /*!
  88:Drivers/GD32F30x_standard_peripheral/Source/gd32f30x_dac.c ****     \brief      enable DAC DMA function
  89:Drivers/GD32F30x_standard_peripheral/Source/gd32f30x_dac.c ****     \param[in]  dac_periph: DACx(x = 0,1)
  90:Drivers/GD32F30x_standard_peripheral/Source/gd32f30x_dac.c ****     \param[out] none
ARM GAS  C:\Users\Prog\AppData\Local\Temp\ccx4kQ0B.s 			page 5


  91:Drivers/GD32F30x_standard_peripheral/Source/gd32f30x_dac.c ****     \retval     none
  92:Drivers/GD32F30x_standard_peripheral/Source/gd32f30x_dac.c **** */
  93:Drivers/GD32F30x_standard_peripheral/Source/gd32f30x_dac.c **** void dac_dma_enable(uint32_t dac_periph)
  94:Drivers/GD32F30x_standard_peripheral/Source/gd32f30x_dac.c **** {
 146              		.loc 1 94 1 is_stmt 1 view -0
 147              		.cfi_startproc
 148              		@ args = 0, pretend = 0, frame = 0
 149              		@ frame_needed = 0, uses_anonymous_args = 0
 150              		@ link register save eliminated.
  95:Drivers/GD32F30x_standard_peripheral/Source/gd32f30x_dac.c ****     if(DAC0 == dac_periph){
 151              		.loc 1 95 5 view .LVU21
 152              		.loc 1 95 7 is_stmt 0 view .LVU22
 153 0000 28B9     		cbnz	r0, .L14
  96:Drivers/GD32F30x_standard_peripheral/Source/gd32f30x_dac.c ****         DAC_CTL |= DAC_CTL_DDMAEN0;
 154              		.loc 1 96 9 is_stmt 1 view .LVU23
 155              		.loc 1 96 17 is_stmt 0 view .LVU24
 156 0002 064A     		ldr	r2, .L16
 157 0004 1368     		ldr	r3, [r2]
 158 0006 43F48053 		orr	r3, r3, #4096
 159 000a 1360     		str	r3, [r2]
 160 000c 7047     		bx	lr
 161              	.L14:
  97:Drivers/GD32F30x_standard_peripheral/Source/gd32f30x_dac.c ****     }else{
  98:Drivers/GD32F30x_standard_peripheral/Source/gd32f30x_dac.c ****         DAC_CTL |= DAC_CTL_DDMAEN1;
 162              		.loc 1 98 9 is_stmt 1 view .LVU25
 163              		.loc 1 98 17 is_stmt 0 view .LVU26
 164 000e 034A     		ldr	r2, .L16
 165 0010 1368     		ldr	r3, [r2]
 166 0012 43F08053 		orr	r3, r3, #268435456
 167 0016 1360     		str	r3, [r2]
  99:Drivers/GD32F30x_standard_peripheral/Source/gd32f30x_dac.c ****     }
 100:Drivers/GD32F30x_standard_peripheral/Source/gd32f30x_dac.c **** }
 168              		.loc 1 100 1 view .LVU27
 169 0018 7047     		bx	lr
 170              	.L17:
 171 001a 00BF     		.align	2
 172              	.L16:
 173 001c 00740040 		.word	1073771520
 174              		.cfi_endproc
 175              	.LFE119:
 177              		.section	.text.dac_dma_disable,"ax",%progbits
 178              		.align	1
 179              		.global	dac_dma_disable
 180              		.syntax unified
 181              		.thumb
 182              		.thumb_func
 183              		.fpu fpv4-sp-d16
 185              	dac_dma_disable:
 186              	.LVL5:
 187              	.LFB120:
 101:Drivers/GD32F30x_standard_peripheral/Source/gd32f30x_dac.c **** 
 102:Drivers/GD32F30x_standard_peripheral/Source/gd32f30x_dac.c **** /*!
 103:Drivers/GD32F30x_standard_peripheral/Source/gd32f30x_dac.c ****     \brief      disable DAC DMA function
 104:Drivers/GD32F30x_standard_peripheral/Source/gd32f30x_dac.c ****     \param[in]  dac_periph: DACx(x = 0,1)
 105:Drivers/GD32F30x_standard_peripheral/Source/gd32f30x_dac.c ****     \param[out] none
 106:Drivers/GD32F30x_standard_peripheral/Source/gd32f30x_dac.c ****     \retval     none
 107:Drivers/GD32F30x_standard_peripheral/Source/gd32f30x_dac.c **** */
ARM GAS  C:\Users\Prog\AppData\Local\Temp\ccx4kQ0B.s 			page 6


 108:Drivers/GD32F30x_standard_peripheral/Source/gd32f30x_dac.c **** void dac_dma_disable(uint32_t dac_periph)
 109:Drivers/GD32F30x_standard_peripheral/Source/gd32f30x_dac.c **** {
 188              		.loc 1 109 1 is_stmt 1 view -0
 189              		.cfi_startproc
 190              		@ args = 0, pretend = 0, frame = 0
 191              		@ frame_needed = 0, uses_anonymous_args = 0
 192              		@ link register save eliminated.
 110:Drivers/GD32F30x_standard_peripheral/Source/gd32f30x_dac.c ****     if(DAC0 == dac_periph){
 193              		.loc 1 110 5 view .LVU29
 194              		.loc 1 110 7 is_stmt 0 view .LVU30
 195 0000 28B9     		cbnz	r0, .L19
 111:Drivers/GD32F30x_standard_peripheral/Source/gd32f30x_dac.c ****         DAC_CTL &= ~DAC_CTL_DDMAEN0;
 196              		.loc 1 111 9 is_stmt 1 view .LVU31
 197              		.loc 1 111 17 is_stmt 0 view .LVU32
 198 0002 064A     		ldr	r2, .L21
 199 0004 1368     		ldr	r3, [r2]
 200 0006 23F48053 		bic	r3, r3, #4096
 201 000a 1360     		str	r3, [r2]
 202 000c 7047     		bx	lr
 203              	.L19:
 112:Drivers/GD32F30x_standard_peripheral/Source/gd32f30x_dac.c ****     }else{
 113:Drivers/GD32F30x_standard_peripheral/Source/gd32f30x_dac.c ****         DAC_CTL &= ~DAC_CTL_DDMAEN1;
 204              		.loc 1 113 9 is_stmt 1 view .LVU33
 205              		.loc 1 113 17 is_stmt 0 view .LVU34
 206 000e 034A     		ldr	r2, .L21
 207 0010 1368     		ldr	r3, [r2]
 208 0012 23F08053 		bic	r3, r3, #268435456
 209 0016 1360     		str	r3, [r2]
 114:Drivers/GD32F30x_standard_peripheral/Source/gd32f30x_dac.c ****     }
 115:Drivers/GD32F30x_standard_peripheral/Source/gd32f30x_dac.c **** }
 210              		.loc 1 115 1 view .LVU35
 211 0018 7047     		bx	lr
 212              	.L22:
 213 001a 00BF     		.align	2
 214              	.L21:
 215 001c 00740040 		.word	1073771520
 216              		.cfi_endproc
 217              	.LFE120:
 219              		.section	.text.dac_output_buffer_enable,"ax",%progbits
 220              		.align	1
 221              		.global	dac_output_buffer_enable
 222              		.syntax unified
 223              		.thumb
 224              		.thumb_func
 225              		.fpu fpv4-sp-d16
 227              	dac_output_buffer_enable:
 228              	.LVL6:
 229              	.LFB121:
 116:Drivers/GD32F30x_standard_peripheral/Source/gd32f30x_dac.c **** 
 117:Drivers/GD32F30x_standard_peripheral/Source/gd32f30x_dac.c **** /*!
 118:Drivers/GD32F30x_standard_peripheral/Source/gd32f30x_dac.c ****     \brief      enable DAC output buffer
 119:Drivers/GD32F30x_standard_peripheral/Source/gd32f30x_dac.c ****     \param[in]  dac_periph: DACx(x = 0,1)
 120:Drivers/GD32F30x_standard_peripheral/Source/gd32f30x_dac.c ****     \param[out] none
 121:Drivers/GD32F30x_standard_peripheral/Source/gd32f30x_dac.c ****     \retval     none
 122:Drivers/GD32F30x_standard_peripheral/Source/gd32f30x_dac.c **** */
 123:Drivers/GD32F30x_standard_peripheral/Source/gd32f30x_dac.c **** void dac_output_buffer_enable(uint32_t dac_periph)
 124:Drivers/GD32F30x_standard_peripheral/Source/gd32f30x_dac.c **** {
ARM GAS  C:\Users\Prog\AppData\Local\Temp\ccx4kQ0B.s 			page 7


 230              		.loc 1 124 1 is_stmt 1 view -0
 231              		.cfi_startproc
 232              		@ args = 0, pretend = 0, frame = 0
 233              		@ frame_needed = 0, uses_anonymous_args = 0
 234              		@ link register save eliminated.
 125:Drivers/GD32F30x_standard_peripheral/Source/gd32f30x_dac.c ****     if(DAC0 == dac_periph){
 235              		.loc 1 125 5 view .LVU37
 236              		.loc 1 125 7 is_stmt 0 view .LVU38
 237 0000 28B9     		cbnz	r0, .L24
 126:Drivers/GD32F30x_standard_peripheral/Source/gd32f30x_dac.c ****         DAC_CTL &= ~DAC_CTL_DBOFF0;
 238              		.loc 1 126 9 is_stmt 1 view .LVU39
 239              		.loc 1 126 17 is_stmt 0 view .LVU40
 240 0002 064A     		ldr	r2, .L26
 241 0004 1368     		ldr	r3, [r2]
 242 0006 23F00203 		bic	r3, r3, #2
 243 000a 1360     		str	r3, [r2]
 244 000c 7047     		bx	lr
 245              	.L24:
 127:Drivers/GD32F30x_standard_peripheral/Source/gd32f30x_dac.c ****     }else{
 128:Drivers/GD32F30x_standard_peripheral/Source/gd32f30x_dac.c ****         DAC_CTL &= ~DAC_CTL_DBOFF1;
 246              		.loc 1 128 9 is_stmt 1 view .LVU41
 247              		.loc 1 128 17 is_stmt 0 view .LVU42
 248 000e 034A     		ldr	r2, .L26
 249 0010 1368     		ldr	r3, [r2]
 250 0012 23F40033 		bic	r3, r3, #131072
 251 0016 1360     		str	r3, [r2]
 129:Drivers/GD32F30x_standard_peripheral/Source/gd32f30x_dac.c ****     }
 130:Drivers/GD32F30x_standard_peripheral/Source/gd32f30x_dac.c **** }
 252              		.loc 1 130 1 view .LVU43
 253 0018 7047     		bx	lr
 254              	.L27:
 255 001a 00BF     		.align	2
 256              	.L26:
 257 001c 00740040 		.word	1073771520
 258              		.cfi_endproc
 259              	.LFE121:
 261              		.section	.text.dac_output_buffer_disable,"ax",%progbits
 262              		.align	1
 263              		.global	dac_output_buffer_disable
 264              		.syntax unified
 265              		.thumb
 266              		.thumb_func
 267              		.fpu fpv4-sp-d16
 269              	dac_output_buffer_disable:
 270              	.LVL7:
 271              	.LFB122:
 131:Drivers/GD32F30x_standard_peripheral/Source/gd32f30x_dac.c **** 
 132:Drivers/GD32F30x_standard_peripheral/Source/gd32f30x_dac.c **** /*!
 133:Drivers/GD32F30x_standard_peripheral/Source/gd32f30x_dac.c ****     \brief      disable DAC output buffer
 134:Drivers/GD32F30x_standard_peripheral/Source/gd32f30x_dac.c ****     \param[in]  dac_periph: DACx(x = 0,1)
 135:Drivers/GD32F30x_standard_peripheral/Source/gd32f30x_dac.c ****     \param[out] none
 136:Drivers/GD32F30x_standard_peripheral/Source/gd32f30x_dac.c ****     \retval     none
 137:Drivers/GD32F30x_standard_peripheral/Source/gd32f30x_dac.c **** */
 138:Drivers/GD32F30x_standard_peripheral/Source/gd32f30x_dac.c **** void dac_output_buffer_disable(uint32_t dac_periph)
 139:Drivers/GD32F30x_standard_peripheral/Source/gd32f30x_dac.c **** {
 272              		.loc 1 139 1 is_stmt 1 view -0
 273              		.cfi_startproc
ARM GAS  C:\Users\Prog\AppData\Local\Temp\ccx4kQ0B.s 			page 8


 274              		@ args = 0, pretend = 0, frame = 0
 275              		@ frame_needed = 0, uses_anonymous_args = 0
 276              		@ link register save eliminated.
 140:Drivers/GD32F30x_standard_peripheral/Source/gd32f30x_dac.c ****     if(DAC0 == dac_periph){
 277              		.loc 1 140 5 view .LVU45
 278              		.loc 1 140 7 is_stmt 0 view .LVU46
 279 0000 28B9     		cbnz	r0, .L29
 141:Drivers/GD32F30x_standard_peripheral/Source/gd32f30x_dac.c ****         DAC_CTL |= DAC_CTL_DBOFF0;
 280              		.loc 1 141 9 is_stmt 1 view .LVU47
 281              		.loc 1 141 17 is_stmt 0 view .LVU48
 282 0002 064A     		ldr	r2, .L31
 283 0004 1368     		ldr	r3, [r2]
 284 0006 43F00203 		orr	r3, r3, #2
 285 000a 1360     		str	r3, [r2]
 286 000c 7047     		bx	lr
 287              	.L29:
 142:Drivers/GD32F30x_standard_peripheral/Source/gd32f30x_dac.c ****     }else{
 143:Drivers/GD32F30x_standard_peripheral/Source/gd32f30x_dac.c ****         DAC_CTL |= DAC_CTL_DBOFF1;
 288              		.loc 1 143 9 is_stmt 1 view .LVU49
 289              		.loc 1 143 17 is_stmt 0 view .LVU50
 290 000e 034A     		ldr	r2, .L31
 291 0010 1368     		ldr	r3, [r2]
 292 0012 43F40033 		orr	r3, r3, #131072
 293 0016 1360     		str	r3, [r2]
 144:Drivers/GD32F30x_standard_peripheral/Source/gd32f30x_dac.c ****     }
 145:Drivers/GD32F30x_standard_peripheral/Source/gd32f30x_dac.c **** }
 294              		.loc 1 145 1 view .LVU51
 295 0018 7047     		bx	lr
 296              	.L32:
 297 001a 00BF     		.align	2
 298              	.L31:
 299 001c 00740040 		.word	1073771520
 300              		.cfi_endproc
 301              	.LFE122:
 303              		.section	.text.dac_output_value_get,"ax",%progbits
 304              		.align	1
 305              		.global	dac_output_value_get
 306              		.syntax unified
 307              		.thumb
 308              		.thumb_func
 309              		.fpu fpv4-sp-d16
 311              	dac_output_value_get:
 312              	.LVL8:
 313              	.LFB123:
 146:Drivers/GD32F30x_standard_peripheral/Source/gd32f30x_dac.c **** 
 147:Drivers/GD32F30x_standard_peripheral/Source/gd32f30x_dac.c **** /*!
 148:Drivers/GD32F30x_standard_peripheral/Source/gd32f30x_dac.c ****     \brief      get DAC output value
 149:Drivers/GD32F30x_standard_peripheral/Source/gd32f30x_dac.c ****     \param[in]  dac_periph: DACx(x = 0,1)
 150:Drivers/GD32F30x_standard_peripheral/Source/gd32f30x_dac.c ****     \param[out] none
 151:Drivers/GD32F30x_standard_peripheral/Source/gd32f30x_dac.c ****     \retval     DAC output data
 152:Drivers/GD32F30x_standard_peripheral/Source/gd32f30x_dac.c **** */
 153:Drivers/GD32F30x_standard_peripheral/Source/gd32f30x_dac.c **** uint16_t dac_output_value_get(uint32_t dac_periph)
 154:Drivers/GD32F30x_standard_peripheral/Source/gd32f30x_dac.c **** {
 314              		.loc 1 154 1 is_stmt 1 view -0
 315              		.cfi_startproc
 316              		@ args = 0, pretend = 0, frame = 0
 317              		@ frame_needed = 0, uses_anonymous_args = 0
ARM GAS  C:\Users\Prog\AppData\Local\Temp\ccx4kQ0B.s 			page 9


 318              		@ link register save eliminated.
 155:Drivers/GD32F30x_standard_peripheral/Source/gd32f30x_dac.c ****     uint16_t data = 0U;
 319              		.loc 1 155 5 view .LVU53
 156:Drivers/GD32F30x_standard_peripheral/Source/gd32f30x_dac.c ****     if(DAC0 == dac_periph){
 320              		.loc 1 156 5 view .LVU54
 321              		.loc 1 156 7 is_stmt 0 view .LVU55
 322 0000 18B9     		cbnz	r0, .L34
 157:Drivers/GD32F30x_standard_peripheral/Source/gd32f30x_dac.c ****         /* store the DAC0 output value */
 158:Drivers/GD32F30x_standard_peripheral/Source/gd32f30x_dac.c ****         data = (uint16_t)DAC0_DO;
 323              		.loc 1 158 9 is_stmt 1 view .LVU56
 324              		.loc 1 158 26 is_stmt 0 view .LVU57
 325 0002 044B     		ldr	r3, .L36
 326 0004 1868     		ldr	r0, [r3]
 327              	.LVL9:
 328              		.loc 1 158 14 view .LVU58
 329 0006 80B2     		uxth	r0, r0
 330              	.LVL10:
 331              		.loc 1 158 14 view .LVU59
 332 0008 7047     		bx	lr
 333              	.LVL11:
 334              	.L34:
 159:Drivers/GD32F30x_standard_peripheral/Source/gd32f30x_dac.c ****     }else{
 160:Drivers/GD32F30x_standard_peripheral/Source/gd32f30x_dac.c ****         /* store the DAC1 output value */
 161:Drivers/GD32F30x_standard_peripheral/Source/gd32f30x_dac.c ****         data = (uint16_t)DAC1_DO;
 335              		.loc 1 161 9 is_stmt 1 view .LVU60
 336              		.loc 1 161 26 is_stmt 0 view .LVU61
 337 000a 034B     		ldr	r3, .L36+4
 338 000c 1868     		ldr	r0, [r3]
 339              	.LVL12:
 340              		.loc 1 161 14 view .LVU62
 341 000e 80B2     		uxth	r0, r0
 342              	.LVL13:
 162:Drivers/GD32F30x_standard_peripheral/Source/gd32f30x_dac.c ****     }
 163:Drivers/GD32F30x_standard_peripheral/Source/gd32f30x_dac.c ****     return data;
 343              		.loc 1 163 5 is_stmt 1 view .LVU63
 164:Drivers/GD32F30x_standard_peripheral/Source/gd32f30x_dac.c **** }
 344              		.loc 1 164 1 is_stmt 0 view .LVU64
 345 0010 7047     		bx	lr
 346              	.L37:
 347 0012 00BF     		.align	2
 348              	.L36:
 349 0014 2C740040 		.word	1073771564
 350 0018 30740040 		.word	1073771568
 351              		.cfi_endproc
 352              	.LFE123:
 354              		.section	.text.dac_data_set,"ax",%progbits
 355              		.align	1
 356              		.global	dac_data_set
 357              		.syntax unified
 358              		.thumb
 359              		.thumb_func
 360              		.fpu fpv4-sp-d16
 362              	dac_data_set:
 363              	.LVL14:
 364              	.LFB124:
 165:Drivers/GD32F30x_standard_peripheral/Source/gd32f30x_dac.c **** 
 166:Drivers/GD32F30x_standard_peripheral/Source/gd32f30x_dac.c **** /*!
ARM GAS  C:\Users\Prog\AppData\Local\Temp\ccx4kQ0B.s 			page 10


 167:Drivers/GD32F30x_standard_peripheral/Source/gd32f30x_dac.c ****     \brief      set the DAC specified data holding register value
 168:Drivers/GD32F30x_standard_peripheral/Source/gd32f30x_dac.c ****     \param[in]  dac_periph: DACx(x = 0,1)
 169:Drivers/GD32F30x_standard_peripheral/Source/gd32f30x_dac.c ****     \param[in]  dac_align: data alignment
 170:Drivers/GD32F30x_standard_peripheral/Source/gd32f30x_dac.c ****                 only one parameter can be selected which is shown as below:
 171:Drivers/GD32F30x_standard_peripheral/Source/gd32f30x_dac.c ****       \arg        DAC_ALIGN_8B_R: data right 8 bit alignment
 172:Drivers/GD32F30x_standard_peripheral/Source/gd32f30x_dac.c ****       \arg        DAC_ALIGN_12B_R: data right 12 bit alignment
 173:Drivers/GD32F30x_standard_peripheral/Source/gd32f30x_dac.c ****       \arg        DAC_ALIGN_12B_L: data left 12 bit alignment
 174:Drivers/GD32F30x_standard_peripheral/Source/gd32f30x_dac.c ****     \param[in]  data: data to be loaded
 175:Drivers/GD32F30x_standard_peripheral/Source/gd32f30x_dac.c ****     \param[out] none
 176:Drivers/GD32F30x_standard_peripheral/Source/gd32f30x_dac.c ****     \retval     none
 177:Drivers/GD32F30x_standard_peripheral/Source/gd32f30x_dac.c **** */
 178:Drivers/GD32F30x_standard_peripheral/Source/gd32f30x_dac.c **** void dac_data_set(uint32_t dac_periph, uint32_t dac_align, uint16_t data)
 179:Drivers/GD32F30x_standard_peripheral/Source/gd32f30x_dac.c **** {
 365              		.loc 1 179 1 is_stmt 1 view -0
 366              		.cfi_startproc
 367              		@ args = 0, pretend = 0, frame = 0
 368              		@ frame_needed = 0, uses_anonymous_args = 0
 369              		@ link register save eliminated.
 180:Drivers/GD32F30x_standard_peripheral/Source/gd32f30x_dac.c ****     if(DAC0 == dac_periph){
 370              		.loc 1 180 5 view .LVU66
 371              		.loc 1 180 7 is_stmt 0 view .LVU67
 372 0000 70B9     		cbnz	r0, .L39
 181:Drivers/GD32F30x_standard_peripheral/Source/gd32f30x_dac.c ****         switch(dac_align){
 373              		.loc 1 181 9 is_stmt 1 view .LVU68
 374 0002 0129     		cmp	r1, #1
 375 0004 06D0     		beq	.L40
 376 0006 11B1     		cbz	r1, .L41
 377 0008 0229     		cmp	r1, #2
 378 000a 06D0     		beq	.L42
 379 000c 7047     		bx	lr
 380              	.L41:
 182:Drivers/GD32F30x_standard_peripheral/Source/gd32f30x_dac.c ****         /* data right 12 bit alignment */
 183:Drivers/GD32F30x_standard_peripheral/Source/gd32f30x_dac.c ****         case DAC_ALIGN_12B_R:
 184:Drivers/GD32F30x_standard_peripheral/Source/gd32f30x_dac.c ****             DAC0_R12DH = data;
 381              		.loc 1 184 13 view .LVU69
 382              		.loc 1 184 24 is_stmt 0 view .LVU70
 383 000e 0C4B     		ldr	r3, .L47
 384 0010 1A60     		str	r2, [r3]
 185:Drivers/GD32F30x_standard_peripheral/Source/gd32f30x_dac.c ****             break;
 385              		.loc 1 185 13 is_stmt 1 view .LVU71
 386 0012 7047     		bx	lr
 387              	.L40:
 186:Drivers/GD32F30x_standard_peripheral/Source/gd32f30x_dac.c ****         /* data left 12 bit alignment */
 187:Drivers/GD32F30x_standard_peripheral/Source/gd32f30x_dac.c ****         case DAC_ALIGN_12B_L:
 188:Drivers/GD32F30x_standard_peripheral/Source/gd32f30x_dac.c ****             DAC0_L12DH = data;
 388              		.loc 1 188 13 view .LVU72
 389              		.loc 1 188 24 is_stmt 0 view .LVU73
 390 0014 0B4B     		ldr	r3, .L47+4
 391 0016 1A60     		str	r2, [r3]
 189:Drivers/GD32F30x_standard_peripheral/Source/gd32f30x_dac.c ****             break;
 392              		.loc 1 189 13 is_stmt 1 view .LVU74
 393 0018 7047     		bx	lr
 394              	.L42:
 190:Drivers/GD32F30x_standard_peripheral/Source/gd32f30x_dac.c ****         /* data right 8 bit alignment */
 191:Drivers/GD32F30x_standard_peripheral/Source/gd32f30x_dac.c ****         case DAC_ALIGN_8B_R:
 192:Drivers/GD32F30x_standard_peripheral/Source/gd32f30x_dac.c ****             DAC0_R8DH = data;
 395              		.loc 1 192 13 view .LVU75
ARM GAS  C:\Users\Prog\AppData\Local\Temp\ccx4kQ0B.s 			page 11


 396              		.loc 1 192 23 is_stmt 0 view .LVU76
 397 001a 0B4B     		ldr	r3, .L47+8
 398 001c 1A60     		str	r2, [r3]
 193:Drivers/GD32F30x_standard_peripheral/Source/gd32f30x_dac.c ****             break;
 399              		.loc 1 193 13 is_stmt 1 view .LVU77
 400 001e 7047     		bx	lr
 401              	.L39:
 194:Drivers/GD32F30x_standard_peripheral/Source/gd32f30x_dac.c ****         default:
 195:Drivers/GD32F30x_standard_peripheral/Source/gd32f30x_dac.c ****             break;
 196:Drivers/GD32F30x_standard_peripheral/Source/gd32f30x_dac.c ****         }
 197:Drivers/GD32F30x_standard_peripheral/Source/gd32f30x_dac.c ****     }else{
 198:Drivers/GD32F30x_standard_peripheral/Source/gd32f30x_dac.c ****         switch(dac_align){
 402              		.loc 1 198 9 view .LVU78
 403 0020 0129     		cmp	r1, #1
 404 0022 06D0     		beq	.L44
 405 0024 11B1     		cbz	r1, .L45
 406 0026 0229     		cmp	r1, #2
 407 0028 06D0     		beq	.L46
 408 002a 7047     		bx	lr
 409              	.L45:
 199:Drivers/GD32F30x_standard_peripheral/Source/gd32f30x_dac.c ****         /* data right 12 bit alignment */
 200:Drivers/GD32F30x_standard_peripheral/Source/gd32f30x_dac.c ****         case DAC_ALIGN_12B_R:
 201:Drivers/GD32F30x_standard_peripheral/Source/gd32f30x_dac.c ****             DAC1_R12DH = data;
 410              		.loc 1 201 13 view .LVU79
 411              		.loc 1 201 24 is_stmt 0 view .LVU80
 412 002c 074B     		ldr	r3, .L47+12
 413 002e 1A60     		str	r2, [r3]
 202:Drivers/GD32F30x_standard_peripheral/Source/gd32f30x_dac.c ****             break;
 414              		.loc 1 202 13 is_stmt 1 view .LVU81
 415 0030 7047     		bx	lr
 416              	.L44:
 203:Drivers/GD32F30x_standard_peripheral/Source/gd32f30x_dac.c ****         /* data left 12 bit alignment */
 204:Drivers/GD32F30x_standard_peripheral/Source/gd32f30x_dac.c ****         case DAC_ALIGN_12B_L:
 205:Drivers/GD32F30x_standard_peripheral/Source/gd32f30x_dac.c ****             DAC1_L12DH = data;
 417              		.loc 1 205 13 view .LVU82
 418              		.loc 1 205 24 is_stmt 0 view .LVU83
 419 0032 074B     		ldr	r3, .L47+16
 420 0034 1A60     		str	r2, [r3]
 206:Drivers/GD32F30x_standard_peripheral/Source/gd32f30x_dac.c ****             break;
 421              		.loc 1 206 13 is_stmt 1 view .LVU84
 422 0036 7047     		bx	lr
 423              	.L46:
 207:Drivers/GD32F30x_standard_peripheral/Source/gd32f30x_dac.c ****         /* data right 8 bit alignment */
 208:Drivers/GD32F30x_standard_peripheral/Source/gd32f30x_dac.c ****         case DAC_ALIGN_8B_R:
 209:Drivers/GD32F30x_standard_peripheral/Source/gd32f30x_dac.c ****             DAC1_R8DH = data;
 424              		.loc 1 209 13 view .LVU85
 425              		.loc 1 209 23 is_stmt 0 view .LVU86
 426 0038 064B     		ldr	r3, .L47+20
 427 003a 1A60     		str	r2, [r3]
 210:Drivers/GD32F30x_standard_peripheral/Source/gd32f30x_dac.c ****             break;
 428              		.loc 1 210 13 is_stmt 1 view .LVU87
 211:Drivers/GD32F30x_standard_peripheral/Source/gd32f30x_dac.c ****         default:
 212:Drivers/GD32F30x_standard_peripheral/Source/gd32f30x_dac.c ****             break;
 213:Drivers/GD32F30x_standard_peripheral/Source/gd32f30x_dac.c ****         }
 214:Drivers/GD32F30x_standard_peripheral/Source/gd32f30x_dac.c ****     }
 215:Drivers/GD32F30x_standard_peripheral/Source/gd32f30x_dac.c **** }
 429              		.loc 1 215 1 is_stmt 0 view .LVU88
ARM GAS  C:\Users\Prog\AppData\Local\Temp\ccx4kQ0B.s 			page 12


 430 003c 7047     		bx	lr
 431              	.L48:
 432 003e 00BF     		.align	2
 433              	.L47:
 434 0040 08740040 		.word	1073771528
 435 0044 0C740040 		.word	1073771532
 436 0048 10740040 		.word	1073771536
 437 004c 14740040 		.word	1073771540
 438 0050 18740040 		.word	1073771544
 439 0054 1C740040 		.word	1073771548
 440              		.cfi_endproc
 441              	.LFE124:
 443              		.section	.text.dac_trigger_enable,"ax",%progbits
 444              		.align	1
 445              		.global	dac_trigger_enable
 446              		.syntax unified
 447              		.thumb
 448              		.thumb_func
 449              		.fpu fpv4-sp-d16
 451              	dac_trigger_enable:
 452              	.LVL15:
 453              	.LFB125:
 216:Drivers/GD32F30x_standard_peripheral/Source/gd32f30x_dac.c **** 
 217:Drivers/GD32F30x_standard_peripheral/Source/gd32f30x_dac.c **** /*!
 218:Drivers/GD32F30x_standard_peripheral/Source/gd32f30x_dac.c ****     \brief      enable DAC trigger
 219:Drivers/GD32F30x_standard_peripheral/Source/gd32f30x_dac.c ****     \param[in]  dac_periph: DACx(x = 0,1)
 220:Drivers/GD32F30x_standard_peripheral/Source/gd32f30x_dac.c ****     \param[out] none
 221:Drivers/GD32F30x_standard_peripheral/Source/gd32f30x_dac.c ****     \retval     none
 222:Drivers/GD32F30x_standard_peripheral/Source/gd32f30x_dac.c **** */
 223:Drivers/GD32F30x_standard_peripheral/Source/gd32f30x_dac.c **** void dac_trigger_enable(uint32_t dac_periph)
 224:Drivers/GD32F30x_standard_peripheral/Source/gd32f30x_dac.c **** {
 454              		.loc 1 224 1 is_stmt 1 view -0
 455              		.cfi_startproc
 456              		@ args = 0, pretend = 0, frame = 0
 457              		@ frame_needed = 0, uses_anonymous_args = 0
 458              		@ link register save eliminated.
 225:Drivers/GD32F30x_standard_peripheral/Source/gd32f30x_dac.c ****     if(DAC0 == dac_periph){
 459              		.loc 1 225 5 view .LVU90
 460              		.loc 1 225 7 is_stmt 0 view .LVU91
 461 0000 28B9     		cbnz	r0, .L50
 226:Drivers/GD32F30x_standard_peripheral/Source/gd32f30x_dac.c ****         DAC_CTL |= DAC_CTL_DTEN0;
 462              		.loc 1 226 9 is_stmt 1 view .LVU92
 463              		.loc 1 226 17 is_stmt 0 view .LVU93
 464 0002 064A     		ldr	r2, .L52
 465 0004 1368     		ldr	r3, [r2]
 466 0006 43F00403 		orr	r3, r3, #4
 467 000a 1360     		str	r3, [r2]
 468 000c 7047     		bx	lr
 469              	.L50:
 227:Drivers/GD32F30x_standard_peripheral/Source/gd32f30x_dac.c ****     }else{
 228:Drivers/GD32F30x_standard_peripheral/Source/gd32f30x_dac.c ****         DAC_CTL |= DAC_CTL_DTEN1;
 470              		.loc 1 228 9 is_stmt 1 view .LVU94
 471              		.loc 1 228 17 is_stmt 0 view .LVU95
 472 000e 034A     		ldr	r2, .L52
 473 0010 1368     		ldr	r3, [r2]
 474 0012 43F48023 		orr	r3, r3, #262144
 475 0016 1360     		str	r3, [r2]
ARM GAS  C:\Users\Prog\AppData\Local\Temp\ccx4kQ0B.s 			page 13


 229:Drivers/GD32F30x_standard_peripheral/Source/gd32f30x_dac.c ****     }
 230:Drivers/GD32F30x_standard_peripheral/Source/gd32f30x_dac.c **** }
 476              		.loc 1 230 1 view .LVU96
 477 0018 7047     		bx	lr
 478              	.L53:
 479 001a 00BF     		.align	2
 480              	.L52:
 481 001c 00740040 		.word	1073771520
 482              		.cfi_endproc
 483              	.LFE125:
 485              		.section	.text.dac_trigger_disable,"ax",%progbits
 486              		.align	1
 487              		.global	dac_trigger_disable
 488              		.syntax unified
 489              		.thumb
 490              		.thumb_func
 491              		.fpu fpv4-sp-d16
 493              	dac_trigger_disable:
 494              	.LVL16:
 495              	.LFB126:
 231:Drivers/GD32F30x_standard_peripheral/Source/gd32f30x_dac.c **** 
 232:Drivers/GD32F30x_standard_peripheral/Source/gd32f30x_dac.c **** /*!
 233:Drivers/GD32F30x_standard_peripheral/Source/gd32f30x_dac.c ****     \brief      disable DAC trigger
 234:Drivers/GD32F30x_standard_peripheral/Source/gd32f30x_dac.c ****     \param[in]  dac_periph: DACx(x = 0,1)
 235:Drivers/GD32F30x_standard_peripheral/Source/gd32f30x_dac.c ****     \param[out] none
 236:Drivers/GD32F30x_standard_peripheral/Source/gd32f30x_dac.c ****     \retval     none
 237:Drivers/GD32F30x_standard_peripheral/Source/gd32f30x_dac.c **** */
 238:Drivers/GD32F30x_standard_peripheral/Source/gd32f30x_dac.c **** void dac_trigger_disable(uint32_t dac_periph)
 239:Drivers/GD32F30x_standard_peripheral/Source/gd32f30x_dac.c **** {
 496              		.loc 1 239 1 is_stmt 1 view -0
 497              		.cfi_startproc
 498              		@ args = 0, pretend = 0, frame = 0
 499              		@ frame_needed = 0, uses_anonymous_args = 0
 500              		@ link register save eliminated.
 240:Drivers/GD32F30x_standard_peripheral/Source/gd32f30x_dac.c ****     if(DAC0 == dac_periph){
 501              		.loc 1 240 5 view .LVU98
 502              		.loc 1 240 7 is_stmt 0 view .LVU99
 503 0000 28B9     		cbnz	r0, .L55
 241:Drivers/GD32F30x_standard_peripheral/Source/gd32f30x_dac.c ****         DAC_CTL &= ~DAC_CTL_DTEN0;
 504              		.loc 1 241 9 is_stmt 1 view .LVU100
 505              		.loc 1 241 17 is_stmt 0 view .LVU101
 506 0002 064A     		ldr	r2, .L57
 507 0004 1368     		ldr	r3, [r2]
 508 0006 23F00403 		bic	r3, r3, #4
 509 000a 1360     		str	r3, [r2]
 510 000c 7047     		bx	lr
 511              	.L55:
 242:Drivers/GD32F30x_standard_peripheral/Source/gd32f30x_dac.c ****     }else{
 243:Drivers/GD32F30x_standard_peripheral/Source/gd32f30x_dac.c ****         DAC_CTL &= ~DAC_CTL_DTEN1;
 512              		.loc 1 243 9 is_stmt 1 view .LVU102
 513              		.loc 1 243 17 is_stmt 0 view .LVU103
 514 000e 034A     		ldr	r2, .L57
 515 0010 1368     		ldr	r3, [r2]
 516 0012 23F48023 		bic	r3, r3, #262144
 517 0016 1360     		str	r3, [r2]
 244:Drivers/GD32F30x_standard_peripheral/Source/gd32f30x_dac.c ****     }
 245:Drivers/GD32F30x_standard_peripheral/Source/gd32f30x_dac.c **** }
ARM GAS  C:\Users\Prog\AppData\Local\Temp\ccx4kQ0B.s 			page 14


 518              		.loc 1 245 1 view .LVU104
 519 0018 7047     		bx	lr
 520              	.L58:
 521 001a 00BF     		.align	2
 522              	.L57:
 523 001c 00740040 		.word	1073771520
 524              		.cfi_endproc
 525              	.LFE126:
 527              		.section	.text.dac_trigger_source_config,"ax",%progbits
 528              		.align	1
 529              		.global	dac_trigger_source_config
 530              		.syntax unified
 531              		.thumb
 532              		.thumb_func
 533              		.fpu fpv4-sp-d16
 535              	dac_trigger_source_config:
 536              	.LVL17:
 537              	.LFB127:
 246:Drivers/GD32F30x_standard_peripheral/Source/gd32f30x_dac.c **** 
 247:Drivers/GD32F30x_standard_peripheral/Source/gd32f30x_dac.c **** /*!
 248:Drivers/GD32F30x_standard_peripheral/Source/gd32f30x_dac.c ****     \brief      set DAC trigger source
 249:Drivers/GD32F30x_standard_peripheral/Source/gd32f30x_dac.c ****     \param[in]  dac_periph: DACx(x = 0,1)
 250:Drivers/GD32F30x_standard_peripheral/Source/gd32f30x_dac.c ****     \param[in]  triggersource: external triggers of DAC
 251:Drivers/GD32F30x_standard_peripheral/Source/gd32f30x_dac.c ****                 only one parameter can be selected which is shown as below:
 252:Drivers/GD32F30x_standard_peripheral/Source/gd32f30x_dac.c ****       \arg        DAC_TRIGGER_T1_TRGO: TIMER1 TRGO
 253:Drivers/GD32F30x_standard_peripheral/Source/gd32f30x_dac.c ****       \arg        DAC_TRIGGER_T2_TRGO: TIMER2 TRGO (for GD32F30X_CL)
 254:Drivers/GD32F30x_standard_peripheral/Source/gd32f30x_dac.c ****       \arg        DAC_TRIGGER_T3_TRGO: TIMER3 TRGO
 255:Drivers/GD32F30x_standard_peripheral/Source/gd32f30x_dac.c ****       \arg        DAC_TRIGGER_T4_TRGO: TIMER4 TRGO
 256:Drivers/GD32F30x_standard_peripheral/Source/gd32f30x_dac.c ****       \arg        DAC_TRIGGER_T5_TRGO: TIMER5 TRGO
 257:Drivers/GD32F30x_standard_peripheral/Source/gd32f30x_dac.c ****       \arg        DAC_TRIGGER_T6_TRGO: TIMER6 TRGO
 258:Drivers/GD32F30x_standard_peripheral/Source/gd32f30x_dac.c ****       \arg        DAC_TRIGGER_T7_TRGO: TIMER7 TRGO (for GD32F30X_HD and GD32F30X_XD)
 259:Drivers/GD32F30x_standard_peripheral/Source/gd32f30x_dac.c ****       \arg        DAC_TRIGGER_EXTI_9: EXTI interrupt line9 event
 260:Drivers/GD32F30x_standard_peripheral/Source/gd32f30x_dac.c ****       \arg        DAC_TRIGGER_SOFTWARE: software trigger
 261:Drivers/GD32F30x_standard_peripheral/Source/gd32f30x_dac.c ****     \param[out] none
 262:Drivers/GD32F30x_standard_peripheral/Source/gd32f30x_dac.c ****     \retval     none
 263:Drivers/GD32F30x_standard_peripheral/Source/gd32f30x_dac.c **** */
 264:Drivers/GD32F30x_standard_peripheral/Source/gd32f30x_dac.c **** void dac_trigger_source_config(uint32_t dac_periph,uint32_t triggersource)
 265:Drivers/GD32F30x_standard_peripheral/Source/gd32f30x_dac.c **** {
 538              		.loc 1 265 1 is_stmt 1 view -0
 539              		.cfi_startproc
 540              		@ args = 0, pretend = 0, frame = 0
 541              		@ frame_needed = 0, uses_anonymous_args = 0
 542              		@ link register save eliminated.
 266:Drivers/GD32F30x_standard_peripheral/Source/gd32f30x_dac.c ****     if(DAC0 == dac_periph){
 543              		.loc 1 266 5 view .LVU106
 544              		.loc 1 266 7 is_stmt 0 view .LVU107
 545 0000 40B9     		cbnz	r0, .L60
 267:Drivers/GD32F30x_standard_peripheral/Source/gd32f30x_dac.c ****         /* configure DAC0 trigger source */
 268:Drivers/GD32F30x_standard_peripheral/Source/gd32f30x_dac.c ****         DAC_CTL &= ~DAC_CTL_DTSEL0;
 546              		.loc 1 268 9 is_stmt 1 view .LVU108
 547              		.loc 1 268 17 is_stmt 0 view .LVU109
 548 0002 094B     		ldr	r3, .L62
 549 0004 1A68     		ldr	r2, [r3]
 550 0006 22F03802 		bic	r2, r2, #56
 551 000a 1A60     		str	r2, [r3]
 269:Drivers/GD32F30x_standard_peripheral/Source/gd32f30x_dac.c ****         DAC_CTL |= triggersource;
 552              		.loc 1 269 9 is_stmt 1 view .LVU110
ARM GAS  C:\Users\Prog\AppData\Local\Temp\ccx4kQ0B.s 			page 15


 553              		.loc 1 269 17 is_stmt 0 view .LVU111
 554 000c 1A68     		ldr	r2, [r3]
 555 000e 0A43     		orrs	r2, r2, r1
 556 0010 1A60     		str	r2, [r3]
 557 0012 7047     		bx	lr
 558              	.L60:
 270:Drivers/GD32F30x_standard_peripheral/Source/gd32f30x_dac.c ****     }else{
 271:Drivers/GD32F30x_standard_peripheral/Source/gd32f30x_dac.c ****         /* configure DAC1 trigger source */
 272:Drivers/GD32F30x_standard_peripheral/Source/gd32f30x_dac.c ****         DAC_CTL &= ~DAC_CTL_DTSEL1;
 559              		.loc 1 272 9 is_stmt 1 view .LVU112
 560              		.loc 1 272 17 is_stmt 0 view .LVU113
 561 0014 044B     		ldr	r3, .L62
 562 0016 1A68     		ldr	r2, [r3]
 563 0018 22F46012 		bic	r2, r2, #3670016
 564 001c 1A60     		str	r2, [r3]
 273:Drivers/GD32F30x_standard_peripheral/Source/gd32f30x_dac.c ****         DAC_CTL |= (triggersource << DAC1_REG_OFFSET);
 565              		.loc 1 273 9 is_stmt 1 view .LVU114
 566              		.loc 1 273 17 is_stmt 0 view .LVU115
 567 001e 1A68     		ldr	r2, [r3]
 568 0020 42EA0142 		orr	r2, r2, r1, lsl #16
 569 0024 1A60     		str	r2, [r3]
 274:Drivers/GD32F30x_standard_peripheral/Source/gd32f30x_dac.c ****     }
 275:Drivers/GD32F30x_standard_peripheral/Source/gd32f30x_dac.c **** }
 570              		.loc 1 275 1 view .LVU116
 571 0026 7047     		bx	lr
 572              	.L63:
 573              		.align	2
 574              	.L62:
 575 0028 00740040 		.word	1073771520
 576              		.cfi_endproc
 577              	.LFE127:
 579              		.section	.text.dac_software_trigger_enable,"ax",%progbits
 580              		.align	1
 581              		.global	dac_software_trigger_enable
 582              		.syntax unified
 583              		.thumb
 584              		.thumb_func
 585              		.fpu fpv4-sp-d16
 587              	dac_software_trigger_enable:
 588              	.LVL18:
 589              	.LFB128:
 276:Drivers/GD32F30x_standard_peripheral/Source/gd32f30x_dac.c **** 
 277:Drivers/GD32F30x_standard_peripheral/Source/gd32f30x_dac.c **** /*!
 278:Drivers/GD32F30x_standard_peripheral/Source/gd32f30x_dac.c ****     \brief      enable DAC software trigger
 279:Drivers/GD32F30x_standard_peripheral/Source/gd32f30x_dac.c ****     \param[in]  dac_periph: DACx(x = 0,1)
 280:Drivers/GD32F30x_standard_peripheral/Source/gd32f30x_dac.c ****     \retval     none
 281:Drivers/GD32F30x_standard_peripheral/Source/gd32f30x_dac.c **** */
 282:Drivers/GD32F30x_standard_peripheral/Source/gd32f30x_dac.c **** void dac_software_trigger_enable(uint32_t dac_periph)
 283:Drivers/GD32F30x_standard_peripheral/Source/gd32f30x_dac.c **** {
 590              		.loc 1 283 1 is_stmt 1 view -0
 591              		.cfi_startproc
 592              		@ args = 0, pretend = 0, frame = 0
 593              		@ frame_needed = 0, uses_anonymous_args = 0
 594              		@ link register save eliminated.
 284:Drivers/GD32F30x_standard_peripheral/Source/gd32f30x_dac.c ****     if(DAC0 == dac_periph){
 595              		.loc 1 284 5 view .LVU118
 596              		.loc 1 284 7 is_stmt 0 view .LVU119
ARM GAS  C:\Users\Prog\AppData\Local\Temp\ccx4kQ0B.s 			page 16


 597 0000 28B9     		cbnz	r0, .L65
 285:Drivers/GD32F30x_standard_peripheral/Source/gd32f30x_dac.c ****         DAC_SWT |= DAC_SWT_SWTR0;
 598              		.loc 1 285 9 is_stmt 1 view .LVU120
 599              		.loc 1 285 17 is_stmt 0 view .LVU121
 600 0002 064A     		ldr	r2, .L67
 601 0004 1368     		ldr	r3, [r2]
 602 0006 43F00103 		orr	r3, r3, #1
 603 000a 1360     		str	r3, [r2]
 604 000c 7047     		bx	lr
 605              	.L65:
 286:Drivers/GD32F30x_standard_peripheral/Source/gd32f30x_dac.c ****     }else{
 287:Drivers/GD32F30x_standard_peripheral/Source/gd32f30x_dac.c ****         DAC_SWT |= DAC_SWT_SWTR1;
 606              		.loc 1 287 9 is_stmt 1 view .LVU122
 607              		.loc 1 287 17 is_stmt 0 view .LVU123
 608 000e 034A     		ldr	r2, .L67
 609 0010 1368     		ldr	r3, [r2]
 610 0012 43F00203 		orr	r3, r3, #2
 611 0016 1360     		str	r3, [r2]
 288:Drivers/GD32F30x_standard_peripheral/Source/gd32f30x_dac.c ****     }
 289:Drivers/GD32F30x_standard_peripheral/Source/gd32f30x_dac.c **** }
 612              		.loc 1 289 1 view .LVU124
 613 0018 7047     		bx	lr
 614              	.L68:
 615 001a 00BF     		.align	2
 616              	.L67:
 617 001c 04740040 		.word	1073771524
 618              		.cfi_endproc
 619              	.LFE128:
 621              		.section	.text.dac_software_trigger_disable,"ax",%progbits
 622              		.align	1
 623              		.global	dac_software_trigger_disable
 624              		.syntax unified
 625              		.thumb
 626              		.thumb_func
 627              		.fpu fpv4-sp-d16
 629              	dac_software_trigger_disable:
 630              	.LVL19:
 631              	.LFB129:
 290:Drivers/GD32F30x_standard_peripheral/Source/gd32f30x_dac.c **** 
 291:Drivers/GD32F30x_standard_peripheral/Source/gd32f30x_dac.c **** /*!
 292:Drivers/GD32F30x_standard_peripheral/Source/gd32f30x_dac.c ****     \brief      disable DAC software trigger
 293:Drivers/GD32F30x_standard_peripheral/Source/gd32f30x_dac.c ****     \param[in]  dac_periph: DACx(x = 0,1)
 294:Drivers/GD32F30x_standard_peripheral/Source/gd32f30x_dac.c ****     \param[out] none
 295:Drivers/GD32F30x_standard_peripheral/Source/gd32f30x_dac.c ****     \retval     none
 296:Drivers/GD32F30x_standard_peripheral/Source/gd32f30x_dac.c **** */
 297:Drivers/GD32F30x_standard_peripheral/Source/gd32f30x_dac.c **** void dac_software_trigger_disable(uint32_t dac_periph)
 298:Drivers/GD32F30x_standard_peripheral/Source/gd32f30x_dac.c **** {
 632              		.loc 1 298 1 is_stmt 1 view -0
 633              		.cfi_startproc
 634              		@ args = 0, pretend = 0, frame = 0
 635              		@ frame_needed = 0, uses_anonymous_args = 0
 636              		@ link register save eliminated.
 299:Drivers/GD32F30x_standard_peripheral/Source/gd32f30x_dac.c ****     if(DAC0 == dac_periph){
 637              		.loc 1 299 5 view .LVU126
 638              		.loc 1 299 7 is_stmt 0 view .LVU127
 639 0000 28B9     		cbnz	r0, .L70
 300:Drivers/GD32F30x_standard_peripheral/Source/gd32f30x_dac.c ****         DAC_SWT &= ~DAC_SWT_SWTR0;
ARM GAS  C:\Users\Prog\AppData\Local\Temp\ccx4kQ0B.s 			page 17


 640              		.loc 1 300 9 is_stmt 1 view .LVU128
 641              		.loc 1 300 17 is_stmt 0 view .LVU129
 642 0002 064A     		ldr	r2, .L72
 643 0004 1368     		ldr	r3, [r2]
 644 0006 23F00103 		bic	r3, r3, #1
 645 000a 1360     		str	r3, [r2]
 646 000c 7047     		bx	lr
 647              	.L70:
 301:Drivers/GD32F30x_standard_peripheral/Source/gd32f30x_dac.c ****     }else{
 302:Drivers/GD32F30x_standard_peripheral/Source/gd32f30x_dac.c ****         DAC_SWT &= ~DAC_SWT_SWTR1;
 648              		.loc 1 302 9 is_stmt 1 view .LVU130
 649              		.loc 1 302 17 is_stmt 0 view .LVU131
 650 000e 034A     		ldr	r2, .L72
 651 0010 1368     		ldr	r3, [r2]
 652 0012 23F00203 		bic	r3, r3, #2
 653 0016 1360     		str	r3, [r2]
 303:Drivers/GD32F30x_standard_peripheral/Source/gd32f30x_dac.c ****     }
 304:Drivers/GD32F30x_standard_peripheral/Source/gd32f30x_dac.c **** }
 654              		.loc 1 304 1 view .LVU132
 655 0018 7047     		bx	lr
 656              	.L73:
 657 001a 00BF     		.align	2
 658              	.L72:
 659 001c 04740040 		.word	1073771524
 660              		.cfi_endproc
 661              	.LFE129:
 663              		.section	.text.dac_wave_mode_config,"ax",%progbits
 664              		.align	1
 665              		.global	dac_wave_mode_config
 666              		.syntax unified
 667              		.thumb
 668              		.thumb_func
 669              		.fpu fpv4-sp-d16
 671              	dac_wave_mode_config:
 672              	.LVL20:
 673              	.LFB130:
 305:Drivers/GD32F30x_standard_peripheral/Source/gd32f30x_dac.c **** 
 306:Drivers/GD32F30x_standard_peripheral/Source/gd32f30x_dac.c **** /*!
 307:Drivers/GD32F30x_standard_peripheral/Source/gd32f30x_dac.c ****     \brief      configure DAC wave mode
 308:Drivers/GD32F30x_standard_peripheral/Source/gd32f30x_dac.c ****     \param[in]  dac_periph: DACx(x = 0,1)
 309:Drivers/GD32F30x_standard_peripheral/Source/gd32f30x_dac.c ****     \param[in]  wave_mode: noise wave mode
 310:Drivers/GD32F30x_standard_peripheral/Source/gd32f30x_dac.c ****                 only one parameter can be selected which is shown as below:
 311:Drivers/GD32F30x_standard_peripheral/Source/gd32f30x_dac.c ****       \arg        DAC_WAVE_DISABLE: wave disable
 312:Drivers/GD32F30x_standard_peripheral/Source/gd32f30x_dac.c ****       \arg        DAC_WAVE_MODE_LFSR: LFSR noise mode
 313:Drivers/GD32F30x_standard_peripheral/Source/gd32f30x_dac.c ****       \arg        DAC_WAVE_MODE_TRIANGLE: triangle noise mode
 314:Drivers/GD32F30x_standard_peripheral/Source/gd32f30x_dac.c ****     \param[out] none
 315:Drivers/GD32F30x_standard_peripheral/Source/gd32f30x_dac.c ****     \retval     none
 316:Drivers/GD32F30x_standard_peripheral/Source/gd32f30x_dac.c **** */
 317:Drivers/GD32F30x_standard_peripheral/Source/gd32f30x_dac.c **** void dac_wave_mode_config(uint32_t dac_periph, uint32_t wave_mode)
 318:Drivers/GD32F30x_standard_peripheral/Source/gd32f30x_dac.c **** {
 674              		.loc 1 318 1 is_stmt 1 view -0
 675              		.cfi_startproc
 676              		@ args = 0, pretend = 0, frame = 0
 677              		@ frame_needed = 0, uses_anonymous_args = 0
 678              		@ link register save eliminated.
 319:Drivers/GD32F30x_standard_peripheral/Source/gd32f30x_dac.c ****     if(DAC0 == dac_periph){
 679              		.loc 1 319 5 view .LVU134
ARM GAS  C:\Users\Prog\AppData\Local\Temp\ccx4kQ0B.s 			page 18


 680              		.loc 1 319 7 is_stmt 0 view .LVU135
 681 0000 40B9     		cbnz	r0, .L75
 320:Drivers/GD32F30x_standard_peripheral/Source/gd32f30x_dac.c ****         /* configure DAC0 wave mode */
 321:Drivers/GD32F30x_standard_peripheral/Source/gd32f30x_dac.c ****         DAC_CTL &= ~DAC_CTL_DWM0;
 682              		.loc 1 321 9 is_stmt 1 view .LVU136
 683              		.loc 1 321 17 is_stmt 0 view .LVU137
 684 0002 094B     		ldr	r3, .L77
 685 0004 1A68     		ldr	r2, [r3]
 686 0006 22F0C002 		bic	r2, r2, #192
 687 000a 1A60     		str	r2, [r3]
 322:Drivers/GD32F30x_standard_peripheral/Source/gd32f30x_dac.c ****         DAC_CTL |= wave_mode;
 688              		.loc 1 322 9 is_stmt 1 view .LVU138
 689              		.loc 1 322 17 is_stmt 0 view .LVU139
 690 000c 1A68     		ldr	r2, [r3]
 691 000e 0A43     		orrs	r2, r2, r1
 692 0010 1A60     		str	r2, [r3]
 693 0012 7047     		bx	lr
 694              	.L75:
 323:Drivers/GD32F30x_standard_peripheral/Source/gd32f30x_dac.c ****     }else{
 324:Drivers/GD32F30x_standard_peripheral/Source/gd32f30x_dac.c ****         /* configure DAC1 wave mode */
 325:Drivers/GD32F30x_standard_peripheral/Source/gd32f30x_dac.c ****         DAC_CTL &= ~DAC_CTL_DWM1;
 695              		.loc 1 325 9 is_stmt 1 view .LVU140
 696              		.loc 1 325 17 is_stmt 0 view .LVU141
 697 0014 044B     		ldr	r3, .L77
 698 0016 1A68     		ldr	r2, [r3]
 699 0018 22F44002 		bic	r2, r2, #12582912
 700 001c 1A60     		str	r2, [r3]
 326:Drivers/GD32F30x_standard_peripheral/Source/gd32f30x_dac.c ****         DAC_CTL |= (wave_mode << DAC1_REG_OFFSET);
 701              		.loc 1 326 9 is_stmt 1 view .LVU142
 702              		.loc 1 326 17 is_stmt 0 view .LVU143
 703 001e 1A68     		ldr	r2, [r3]
 704 0020 42EA0142 		orr	r2, r2, r1, lsl #16
 705 0024 1A60     		str	r2, [r3]
 327:Drivers/GD32F30x_standard_peripheral/Source/gd32f30x_dac.c ****     }
 328:Drivers/GD32F30x_standard_peripheral/Source/gd32f30x_dac.c **** }
 706              		.loc 1 328 1 view .LVU144
 707 0026 7047     		bx	lr
 708              	.L78:
 709              		.align	2
 710              	.L77:
 711 0028 00740040 		.word	1073771520
 712              		.cfi_endproc
 713              	.LFE130:
 715              		.section	.text.dac_wave_bit_width_config,"ax",%progbits
 716              		.align	1
 717              		.global	dac_wave_bit_width_config
 718              		.syntax unified
 719              		.thumb
 720              		.thumb_func
 721              		.fpu fpv4-sp-d16
 723              	dac_wave_bit_width_config:
 724              	.LVL21:
 725              	.LFB131:
 329:Drivers/GD32F30x_standard_peripheral/Source/gd32f30x_dac.c **** 
 330:Drivers/GD32F30x_standard_peripheral/Source/gd32f30x_dac.c **** /*!
 331:Drivers/GD32F30x_standard_peripheral/Source/gd32f30x_dac.c ****     \brief      configure DAC wave bit width
 332:Drivers/GD32F30x_standard_peripheral/Source/gd32f30x_dac.c ****     \param[in]  dac_periph: DACx(x = 0,1)
ARM GAS  C:\Users\Prog\AppData\Local\Temp\ccx4kQ0B.s 			page 19


 333:Drivers/GD32F30x_standard_peripheral/Source/gd32f30x_dac.c ****     \param[in]  bit_width: noise wave bit width
 334:Drivers/GD32F30x_standard_peripheral/Source/gd32f30x_dac.c ****                 only one parameter can be selected which is shown as below:
 335:Drivers/GD32F30x_standard_peripheral/Source/gd32f30x_dac.c ****       \arg        DAC_WAVE_BIT_WIDTH_1: bit width of the wave signal is 1
 336:Drivers/GD32F30x_standard_peripheral/Source/gd32f30x_dac.c ****       \arg        DAC_WAVE_BIT_WIDTH_2: bit width of the wave signal is 2
 337:Drivers/GD32F30x_standard_peripheral/Source/gd32f30x_dac.c ****       \arg        DAC_WAVE_BIT_WIDTH_3: bit width of the wave signal is 3
 338:Drivers/GD32F30x_standard_peripheral/Source/gd32f30x_dac.c ****       \arg        DAC_WAVE_BIT_WIDTH_4: bit width of the wave signal is 4
 339:Drivers/GD32F30x_standard_peripheral/Source/gd32f30x_dac.c ****       \arg        DAC_WAVE_BIT_WIDTH_5: bit width of the wave signal is 5
 340:Drivers/GD32F30x_standard_peripheral/Source/gd32f30x_dac.c ****       \arg        DAC_WAVE_BIT_WIDTH_6: bit width of the wave signal is 6
 341:Drivers/GD32F30x_standard_peripheral/Source/gd32f30x_dac.c ****       \arg        DAC_WAVE_BIT_WIDTH_7: bit width of the wave signal is 7
 342:Drivers/GD32F30x_standard_peripheral/Source/gd32f30x_dac.c ****       \arg        DAC_WAVE_BIT_WIDTH_8: bit width of the wave signal is 8
 343:Drivers/GD32F30x_standard_peripheral/Source/gd32f30x_dac.c ****       \arg        DAC_WAVE_BIT_WIDTH_9: bit width of the wave signal is 9
 344:Drivers/GD32F30x_standard_peripheral/Source/gd32f30x_dac.c ****       \arg        DAC_WAVE_BIT_WIDTH_10: bit width of the wave signal is 10
 345:Drivers/GD32F30x_standard_peripheral/Source/gd32f30x_dac.c ****       \arg        DAC_WAVE_BIT_WIDTH_11: bit width of the wave signal is 11
 346:Drivers/GD32F30x_standard_peripheral/Source/gd32f30x_dac.c ****       \arg        DAC_WAVE_BIT_WIDTH_12: bit width of the wave signal is 12
 347:Drivers/GD32F30x_standard_peripheral/Source/gd32f30x_dac.c ****     \param[out] none
 348:Drivers/GD32F30x_standard_peripheral/Source/gd32f30x_dac.c ****     \retval     none
 349:Drivers/GD32F30x_standard_peripheral/Source/gd32f30x_dac.c **** */
 350:Drivers/GD32F30x_standard_peripheral/Source/gd32f30x_dac.c **** void dac_wave_bit_width_config(uint32_t dac_periph, uint32_t bit_width)
 351:Drivers/GD32F30x_standard_peripheral/Source/gd32f30x_dac.c **** {
 726              		.loc 1 351 1 is_stmt 1 view -0
 727              		.cfi_startproc
 728              		@ args = 0, pretend = 0, frame = 0
 729              		@ frame_needed = 0, uses_anonymous_args = 0
 730              		@ link register save eliminated.
 352:Drivers/GD32F30x_standard_peripheral/Source/gd32f30x_dac.c ****     if(DAC0 == dac_periph){
 731              		.loc 1 352 5 view .LVU146
 732              		.loc 1 352 7 is_stmt 0 view .LVU147
 733 0000 40B9     		cbnz	r0, .L80
 353:Drivers/GD32F30x_standard_peripheral/Source/gd32f30x_dac.c ****         /* configure DAC0 wave bit width */
 354:Drivers/GD32F30x_standard_peripheral/Source/gd32f30x_dac.c ****         DAC_CTL &= ~DAC_CTL_DWBW0;
 734              		.loc 1 354 9 is_stmt 1 view .LVU148
 735              		.loc 1 354 17 is_stmt 0 view .LVU149
 736 0002 094B     		ldr	r3, .L82
 737 0004 1A68     		ldr	r2, [r3]
 738 0006 22F47062 		bic	r2, r2, #3840
 739 000a 1A60     		str	r2, [r3]
 355:Drivers/GD32F30x_standard_peripheral/Source/gd32f30x_dac.c ****         DAC_CTL |= bit_width;
 740              		.loc 1 355 9 is_stmt 1 view .LVU150
 741              		.loc 1 355 17 is_stmt 0 view .LVU151
 742 000c 1A68     		ldr	r2, [r3]
 743 000e 0A43     		orrs	r2, r2, r1
 744 0010 1A60     		str	r2, [r3]
 745 0012 7047     		bx	lr
 746              	.L80:
 356:Drivers/GD32F30x_standard_peripheral/Source/gd32f30x_dac.c ****     }else{
 357:Drivers/GD32F30x_standard_peripheral/Source/gd32f30x_dac.c ****         /* configure DAC1 wave bit width */
 358:Drivers/GD32F30x_standard_peripheral/Source/gd32f30x_dac.c ****         DAC_CTL &= ~DAC_CTL_DWBW1;
 747              		.loc 1 358 9 is_stmt 1 view .LVU152
 748              		.loc 1 358 17 is_stmt 0 view .LVU153
 749 0014 044B     		ldr	r3, .L82
 750 0016 1A68     		ldr	r2, [r3]
 751 0018 22F07062 		bic	r2, r2, #251658240
 752 001c 1A60     		str	r2, [r3]
 359:Drivers/GD32F30x_standard_peripheral/Source/gd32f30x_dac.c ****         DAC_CTL |= (bit_width << DAC1_REG_OFFSET);
 753              		.loc 1 359 9 is_stmt 1 view .LVU154
 754              		.loc 1 359 17 is_stmt 0 view .LVU155
 755 001e 1A68     		ldr	r2, [r3]
ARM GAS  C:\Users\Prog\AppData\Local\Temp\ccx4kQ0B.s 			page 20


 756 0020 42EA0142 		orr	r2, r2, r1, lsl #16
 757 0024 1A60     		str	r2, [r3]
 360:Drivers/GD32F30x_standard_peripheral/Source/gd32f30x_dac.c ****     }
 361:Drivers/GD32F30x_standard_peripheral/Source/gd32f30x_dac.c **** }
 758              		.loc 1 361 1 view .LVU156
 759 0026 7047     		bx	lr
 760              	.L83:
 761              		.align	2
 762              	.L82:
 763 0028 00740040 		.word	1073771520
 764              		.cfi_endproc
 765              	.LFE131:
 767              		.section	.text.dac_lfsr_noise_config,"ax",%progbits
 768              		.align	1
 769              		.global	dac_lfsr_noise_config
 770              		.syntax unified
 771              		.thumb
 772              		.thumb_func
 773              		.fpu fpv4-sp-d16
 775              	dac_lfsr_noise_config:
 776              	.LVL22:
 777              	.LFB132:
 362:Drivers/GD32F30x_standard_peripheral/Source/gd32f30x_dac.c **** 
 363:Drivers/GD32F30x_standard_peripheral/Source/gd32f30x_dac.c **** /*!
 364:Drivers/GD32F30x_standard_peripheral/Source/gd32f30x_dac.c ****     \brief      configure DAC LFSR noise mode
 365:Drivers/GD32F30x_standard_peripheral/Source/gd32f30x_dac.c ****     \param[in]  dac_periph: DACx(x = 0,1)
 366:Drivers/GD32F30x_standard_peripheral/Source/gd32f30x_dac.c ****     \param[in]  unmask_bits: unmask LFSR bits in DAC LFSR noise mode
 367:Drivers/GD32F30x_standard_peripheral/Source/gd32f30x_dac.c ****                 only one parameter can be selected which is shown as below:
 368:Drivers/GD32F30x_standard_peripheral/Source/gd32f30x_dac.c ****       \arg        DAC_LFSR_BIT0: unmask the LFSR bit0
 369:Drivers/GD32F30x_standard_peripheral/Source/gd32f30x_dac.c ****       \arg        DAC_LFSR_BITS1_0: unmask the LFSR bits[1:0]
 370:Drivers/GD32F30x_standard_peripheral/Source/gd32f30x_dac.c ****       \arg        DAC_LFSR_BITS2_0: unmask the LFSR bits[2:0]
 371:Drivers/GD32F30x_standard_peripheral/Source/gd32f30x_dac.c ****       \arg        DAC_LFSR_BITS3_0: unmask the LFSR bits[3:0]
 372:Drivers/GD32F30x_standard_peripheral/Source/gd32f30x_dac.c ****       \arg        DAC_LFSR_BITS4_0: unmask the LFSR bits[4:0]
 373:Drivers/GD32F30x_standard_peripheral/Source/gd32f30x_dac.c ****       \arg        DAC_LFSR_BITS5_0: unmask the LFSR bits[5:0]
 374:Drivers/GD32F30x_standard_peripheral/Source/gd32f30x_dac.c ****       \arg        DAC_LFSR_BITS6_0: unmask the LFSR bits[6:0]
 375:Drivers/GD32F30x_standard_peripheral/Source/gd32f30x_dac.c ****       \arg        DAC_LFSR_BITS7_0: unmask the LFSR bits[7:0]
 376:Drivers/GD32F30x_standard_peripheral/Source/gd32f30x_dac.c ****       \arg        DAC_LFSR_BITS8_0: unmask the LFSR bits[8:0]
 377:Drivers/GD32F30x_standard_peripheral/Source/gd32f30x_dac.c ****       \arg        DAC_LFSR_BITS9_0: unmask the LFSR bits[9:0]
 378:Drivers/GD32F30x_standard_peripheral/Source/gd32f30x_dac.c ****       \arg        DAC_LFSR_BITS10_0: unmask the LFSR bits[10:0]
 379:Drivers/GD32F30x_standard_peripheral/Source/gd32f30x_dac.c ****       \arg        DAC_LFSR_BITS11_0: unmask the LFSR bits[11:0]
 380:Drivers/GD32F30x_standard_peripheral/Source/gd32f30x_dac.c ****     \param[out] none
 381:Drivers/GD32F30x_standard_peripheral/Source/gd32f30x_dac.c ****     \retval     none
 382:Drivers/GD32F30x_standard_peripheral/Source/gd32f30x_dac.c **** */
 383:Drivers/GD32F30x_standard_peripheral/Source/gd32f30x_dac.c **** void dac_lfsr_noise_config(uint32_t dac_periph, uint32_t unmask_bits)
 384:Drivers/GD32F30x_standard_peripheral/Source/gd32f30x_dac.c **** {
 778              		.loc 1 384 1 is_stmt 1 view -0
 779              		.cfi_startproc
 780              		@ args = 0, pretend = 0, frame = 0
 781              		@ frame_needed = 0, uses_anonymous_args = 0
 782              		@ link register save eliminated.
 385:Drivers/GD32F30x_standard_peripheral/Source/gd32f30x_dac.c ****     if(DAC0 == dac_periph){
 783              		.loc 1 385 5 view .LVU158
 784              		.loc 1 385 7 is_stmt 0 view .LVU159
 785 0000 40B9     		cbnz	r0, .L85
 386:Drivers/GD32F30x_standard_peripheral/Source/gd32f30x_dac.c ****         /* configure DAC0 LFSR noise mode */
 387:Drivers/GD32F30x_standard_peripheral/Source/gd32f30x_dac.c ****         DAC_CTL &= ~DAC_CTL_DWBW0;
 786              		.loc 1 387 9 is_stmt 1 view .LVU160
ARM GAS  C:\Users\Prog\AppData\Local\Temp\ccx4kQ0B.s 			page 21


 787              		.loc 1 387 17 is_stmt 0 view .LVU161
 788 0002 094B     		ldr	r3, .L87
 789 0004 1A68     		ldr	r2, [r3]
 790 0006 22F47062 		bic	r2, r2, #3840
 791 000a 1A60     		str	r2, [r3]
 388:Drivers/GD32F30x_standard_peripheral/Source/gd32f30x_dac.c ****         DAC_CTL |= unmask_bits;
 792              		.loc 1 388 9 is_stmt 1 view .LVU162
 793              		.loc 1 388 17 is_stmt 0 view .LVU163
 794 000c 1A68     		ldr	r2, [r3]
 795 000e 0A43     		orrs	r2, r2, r1
 796 0010 1A60     		str	r2, [r3]
 797 0012 7047     		bx	lr
 798              	.L85:
 389:Drivers/GD32F30x_standard_peripheral/Source/gd32f30x_dac.c ****     }else{
 390:Drivers/GD32F30x_standard_peripheral/Source/gd32f30x_dac.c ****         /* configure DAC1 LFSR noise mode */
 391:Drivers/GD32F30x_standard_peripheral/Source/gd32f30x_dac.c ****         DAC_CTL &= ~DAC_CTL_DWBW1;
 799              		.loc 1 391 9 is_stmt 1 view .LVU164
 800              		.loc 1 391 17 is_stmt 0 view .LVU165
 801 0014 044B     		ldr	r3, .L87
 802 0016 1A68     		ldr	r2, [r3]
 803 0018 22F07062 		bic	r2, r2, #251658240
 804 001c 1A60     		str	r2, [r3]
 392:Drivers/GD32F30x_standard_peripheral/Source/gd32f30x_dac.c ****         DAC_CTL |= (unmask_bits << DAC1_REG_OFFSET);
 805              		.loc 1 392 9 is_stmt 1 view .LVU166
 806              		.loc 1 392 17 is_stmt 0 view .LVU167
 807 001e 1A68     		ldr	r2, [r3]
 808 0020 42EA0142 		orr	r2, r2, r1, lsl #16
 809 0024 1A60     		str	r2, [r3]
 393:Drivers/GD32F30x_standard_peripheral/Source/gd32f30x_dac.c ****     }
 394:Drivers/GD32F30x_standard_peripheral/Source/gd32f30x_dac.c **** }
 810              		.loc 1 394 1 view .LVU168
 811 0026 7047     		bx	lr
 812              	.L88:
 813              		.align	2
 814              	.L87:
 815 0028 00740040 		.word	1073771520
 816              		.cfi_endproc
 817              	.LFE132:
 819              		.section	.text.dac_triangle_noise_config,"ax",%progbits
 820              		.align	1
 821              		.global	dac_triangle_noise_config
 822              		.syntax unified
 823              		.thumb
 824              		.thumb_func
 825              		.fpu fpv4-sp-d16
 827              	dac_triangle_noise_config:
 828              	.LVL23:
 829              	.LFB133:
 395:Drivers/GD32F30x_standard_peripheral/Source/gd32f30x_dac.c **** 
 396:Drivers/GD32F30x_standard_peripheral/Source/gd32f30x_dac.c **** /*!
 397:Drivers/GD32F30x_standard_peripheral/Source/gd32f30x_dac.c ****     \brief      configure DAC triangle noise mode
 398:Drivers/GD32F30x_standard_peripheral/Source/gd32f30x_dac.c ****     \param[in]  dac_periph: DACx(x = 0,1)
 399:Drivers/GD32F30x_standard_peripheral/Source/gd32f30x_dac.c ****     \param[in]  amplitude: triangle amplitude in DAC triangle noise mode
 400:Drivers/GD32F30x_standard_peripheral/Source/gd32f30x_dac.c ****                 only one parameter can be selected which is shown as below:
 401:Drivers/GD32F30x_standard_peripheral/Source/gd32f30x_dac.c ****       \arg        DAC_TRIANGLE_AMPLITUDE_1: triangle amplitude is 1
 402:Drivers/GD32F30x_standard_peripheral/Source/gd32f30x_dac.c ****       \arg        DAC_TRIANGLE_AMPLITUDE_3: triangle amplitude is 3
 403:Drivers/GD32F30x_standard_peripheral/Source/gd32f30x_dac.c ****       \arg        DAC_TRIANGLE_AMPLITUDE_7: triangle amplitude is 7
ARM GAS  C:\Users\Prog\AppData\Local\Temp\ccx4kQ0B.s 			page 22


 404:Drivers/GD32F30x_standard_peripheral/Source/gd32f30x_dac.c ****       \arg        DAC_TRIANGLE_AMPLITUDE_15: triangle amplitude is 15
 405:Drivers/GD32F30x_standard_peripheral/Source/gd32f30x_dac.c ****       \arg        DAC_TRIANGLE_AMPLITUDE_31: triangle amplitude is 31
 406:Drivers/GD32F30x_standard_peripheral/Source/gd32f30x_dac.c ****       \arg        DAC_TRIANGLE_AMPLITUDE_63: triangle amplitude is 63
 407:Drivers/GD32F30x_standard_peripheral/Source/gd32f30x_dac.c ****       \arg        DAC_TRIANGLE_AMPLITUDE_127: triangle amplitude is 127
 408:Drivers/GD32F30x_standard_peripheral/Source/gd32f30x_dac.c ****       \arg        DAC_TRIANGLE_AMPLITUDE_255: triangle amplitude is 255
 409:Drivers/GD32F30x_standard_peripheral/Source/gd32f30x_dac.c ****       \arg        DAC_TRIANGLE_AMPLITUDE_511: triangle amplitude is 511
 410:Drivers/GD32F30x_standard_peripheral/Source/gd32f30x_dac.c ****       \arg        DAC_TRIANGLE_AMPLITUDE_1023: triangle amplitude is 1023
 411:Drivers/GD32F30x_standard_peripheral/Source/gd32f30x_dac.c ****       \arg        DAC_TRIANGLE_AMPLITUDE_2047: triangle amplitude is 2047
 412:Drivers/GD32F30x_standard_peripheral/Source/gd32f30x_dac.c ****       \arg        DAC_TRIANGLE_AMPLITUDE_4095: triangle amplitude is 4095
 413:Drivers/GD32F30x_standard_peripheral/Source/gd32f30x_dac.c ****     \param[out] none
 414:Drivers/GD32F30x_standard_peripheral/Source/gd32f30x_dac.c ****     \retval     none
 415:Drivers/GD32F30x_standard_peripheral/Source/gd32f30x_dac.c **** */
 416:Drivers/GD32F30x_standard_peripheral/Source/gd32f30x_dac.c **** void dac_triangle_noise_config(uint32_t dac_periph, uint32_t amplitude)
 417:Drivers/GD32F30x_standard_peripheral/Source/gd32f30x_dac.c **** {
 830              		.loc 1 417 1 is_stmt 1 view -0
 831              		.cfi_startproc
 832              		@ args = 0, pretend = 0, frame = 0
 833              		@ frame_needed = 0, uses_anonymous_args = 0
 834              		@ link register save eliminated.
 418:Drivers/GD32F30x_standard_peripheral/Source/gd32f30x_dac.c ****     if(DAC0 == dac_periph){
 835              		.loc 1 418 5 view .LVU170
 836              		.loc 1 418 7 is_stmt 0 view .LVU171
 837 0000 40B9     		cbnz	r0, .L90
 419:Drivers/GD32F30x_standard_peripheral/Source/gd32f30x_dac.c ****         /* configure DAC0 triangle noise mode */
 420:Drivers/GD32F30x_standard_peripheral/Source/gd32f30x_dac.c ****         DAC_CTL &= ~DAC_CTL_DWBW0;
 838              		.loc 1 420 9 is_stmt 1 view .LVU172
 839              		.loc 1 420 17 is_stmt 0 view .LVU173
 840 0002 094B     		ldr	r3, .L92
 841 0004 1A68     		ldr	r2, [r3]
 842 0006 22F47062 		bic	r2, r2, #3840
 843 000a 1A60     		str	r2, [r3]
 421:Drivers/GD32F30x_standard_peripheral/Source/gd32f30x_dac.c ****         DAC_CTL |= amplitude;
 844              		.loc 1 421 9 is_stmt 1 view .LVU174
 845              		.loc 1 421 17 is_stmt 0 view .LVU175
 846 000c 1A68     		ldr	r2, [r3]
 847 000e 0A43     		orrs	r2, r2, r1
 848 0010 1A60     		str	r2, [r3]
 849 0012 7047     		bx	lr
 850              	.L90:
 422:Drivers/GD32F30x_standard_peripheral/Source/gd32f30x_dac.c ****     }else{
 423:Drivers/GD32F30x_standard_peripheral/Source/gd32f30x_dac.c ****         /* configure DAC1 triangle noise mode */
 424:Drivers/GD32F30x_standard_peripheral/Source/gd32f30x_dac.c ****         DAC_CTL &= ~DAC_CTL_DWBW1;
 851              		.loc 1 424 9 is_stmt 1 view .LVU176
 852              		.loc 1 424 17 is_stmt 0 view .LVU177
 853 0014 044B     		ldr	r3, .L92
 854 0016 1A68     		ldr	r2, [r3]
 855 0018 22F07062 		bic	r2, r2, #251658240
 856 001c 1A60     		str	r2, [r3]
 425:Drivers/GD32F30x_standard_peripheral/Source/gd32f30x_dac.c ****         DAC_CTL |= (amplitude << DAC1_REG_OFFSET);
 857              		.loc 1 425 9 is_stmt 1 view .LVU178
 858              		.loc 1 425 17 is_stmt 0 view .LVU179
 859 001e 1A68     		ldr	r2, [r3]
 860 0020 42EA0142 		orr	r2, r2, r1, lsl #16
 861 0024 1A60     		str	r2, [r3]
 426:Drivers/GD32F30x_standard_peripheral/Source/gd32f30x_dac.c ****     }
 427:Drivers/GD32F30x_standard_peripheral/Source/gd32f30x_dac.c **** }
 862              		.loc 1 427 1 view .LVU180
ARM GAS  C:\Users\Prog\AppData\Local\Temp\ccx4kQ0B.s 			page 23


 863 0026 7047     		bx	lr
 864              	.L93:
 865              		.align	2
 866              	.L92:
 867 0028 00740040 		.word	1073771520
 868              		.cfi_endproc
 869              	.LFE133:
 871              		.section	.text.dac_concurrent_enable,"ax",%progbits
 872              		.align	1
 873              		.global	dac_concurrent_enable
 874              		.syntax unified
 875              		.thumb
 876              		.thumb_func
 877              		.fpu fpv4-sp-d16
 879              	dac_concurrent_enable:
 880              	.LFB134:
 428:Drivers/GD32F30x_standard_peripheral/Source/gd32f30x_dac.c **** 
 429:Drivers/GD32F30x_standard_peripheral/Source/gd32f30x_dac.c **** /*!
 430:Drivers/GD32F30x_standard_peripheral/Source/gd32f30x_dac.c ****     \brief      enable DAC concurrent mode
 431:Drivers/GD32F30x_standard_peripheral/Source/gd32f30x_dac.c ****     \param[in]  none
 432:Drivers/GD32F30x_standard_peripheral/Source/gd32f30x_dac.c ****     \param[out] none
 433:Drivers/GD32F30x_standard_peripheral/Source/gd32f30x_dac.c ****     \retval     none
 434:Drivers/GD32F30x_standard_peripheral/Source/gd32f30x_dac.c **** */
 435:Drivers/GD32F30x_standard_peripheral/Source/gd32f30x_dac.c **** void dac_concurrent_enable(void)
 436:Drivers/GD32F30x_standard_peripheral/Source/gd32f30x_dac.c **** {
 881              		.loc 1 436 1 is_stmt 1 view -0
 882              		.cfi_startproc
 883              		@ args = 0, pretend = 0, frame = 0
 884              		@ frame_needed = 0, uses_anonymous_args = 0
 885              		@ link register save eliminated.
 437:Drivers/GD32F30x_standard_peripheral/Source/gd32f30x_dac.c ****     uint32_t ctl = 0U;
 886              		.loc 1 437 5 view .LVU182
 887              	.LVL24:
 438:Drivers/GD32F30x_standard_peripheral/Source/gd32f30x_dac.c ****     ctl = DAC_CTL_DEN0 | DAC_CTL_DEN1;
 888              		.loc 1 438 5 view .LVU183
 439:Drivers/GD32F30x_standard_peripheral/Source/gd32f30x_dac.c ****     DAC_CTL |= (ctl);
 889              		.loc 1 439 5 view .LVU184
 890              		.loc 1 439 13 is_stmt 0 view .LVU185
 891 0000 024A     		ldr	r2, .L95
 892 0002 1368     		ldr	r3, [r2]
 893 0004 43F00113 		orr	r3, r3, #65537
 894 0008 1360     		str	r3, [r2]
 440:Drivers/GD32F30x_standard_peripheral/Source/gd32f30x_dac.c **** }
 895              		.loc 1 440 1 view .LVU186
 896 000a 7047     		bx	lr
 897              	.L96:
 898              		.align	2
 899              	.L95:
 900 000c 00740040 		.word	1073771520
 901              		.cfi_endproc
 902              	.LFE134:
 904              		.section	.text.dac_concurrent_disable,"ax",%progbits
 905              		.align	1
 906              		.global	dac_concurrent_disable
 907              		.syntax unified
 908              		.thumb
 909              		.thumb_func
ARM GAS  C:\Users\Prog\AppData\Local\Temp\ccx4kQ0B.s 			page 24


 910              		.fpu fpv4-sp-d16
 912              	dac_concurrent_disable:
 913              	.LFB135:
 441:Drivers/GD32F30x_standard_peripheral/Source/gd32f30x_dac.c **** 
 442:Drivers/GD32F30x_standard_peripheral/Source/gd32f30x_dac.c **** /*!
 443:Drivers/GD32F30x_standard_peripheral/Source/gd32f30x_dac.c ****     \brief      disable DAC concurrent mode
 444:Drivers/GD32F30x_standard_peripheral/Source/gd32f30x_dac.c ****     \param[in]  none
 445:Drivers/GD32F30x_standard_peripheral/Source/gd32f30x_dac.c ****     \param[out] none
 446:Drivers/GD32F30x_standard_peripheral/Source/gd32f30x_dac.c ****     \retval     none
 447:Drivers/GD32F30x_standard_peripheral/Source/gd32f30x_dac.c **** */
 448:Drivers/GD32F30x_standard_peripheral/Source/gd32f30x_dac.c **** void dac_concurrent_disable(void)
 449:Drivers/GD32F30x_standard_peripheral/Source/gd32f30x_dac.c **** {
 914              		.loc 1 449 1 is_stmt 1 view -0
 915              		.cfi_startproc
 916              		@ args = 0, pretend = 0, frame = 0
 917              		@ frame_needed = 0, uses_anonymous_args = 0
 918              		@ link register save eliminated.
 450:Drivers/GD32F30x_standard_peripheral/Source/gd32f30x_dac.c ****     uint32_t ctl = 0U;
 919              		.loc 1 450 5 view .LVU188
 920              	.LVL25:
 451:Drivers/GD32F30x_standard_peripheral/Source/gd32f30x_dac.c ****     ctl = DAC_CTL_DEN0 | DAC_CTL_DEN1;
 921              		.loc 1 451 5 view .LVU189
 452:Drivers/GD32F30x_standard_peripheral/Source/gd32f30x_dac.c ****     DAC_CTL &= (~ctl);
 922              		.loc 1 452 5 view .LVU190
 923              		.loc 1 452 13 is_stmt 0 view .LVU191
 924 0000 024A     		ldr	r2, .L98
 925 0002 1368     		ldr	r3, [r2]
 926 0004 23F00113 		bic	r3, r3, #65537
 927 0008 1360     		str	r3, [r2]
 453:Drivers/GD32F30x_standard_peripheral/Source/gd32f30x_dac.c **** }
 928              		.loc 1 453 1 view .LVU192
 929 000a 7047     		bx	lr
 930              	.L99:
 931              		.align	2
 932              	.L98:
 933 000c 00740040 		.word	1073771520
 934              		.cfi_endproc
 935              	.LFE135:
 937              		.section	.text.dac_concurrent_software_trigger_enable,"ax",%progbits
 938              		.align	1
 939              		.global	dac_concurrent_software_trigger_enable
 940              		.syntax unified
 941              		.thumb
 942              		.thumb_func
 943              		.fpu fpv4-sp-d16
 945              	dac_concurrent_software_trigger_enable:
 946              	.LFB136:
 454:Drivers/GD32F30x_standard_peripheral/Source/gd32f30x_dac.c **** 
 455:Drivers/GD32F30x_standard_peripheral/Source/gd32f30x_dac.c **** /*!
 456:Drivers/GD32F30x_standard_peripheral/Source/gd32f30x_dac.c ****     \brief      enable DAC concurrent software trigger function
 457:Drivers/GD32F30x_standard_peripheral/Source/gd32f30x_dac.c ****     \param[in]  none
 458:Drivers/GD32F30x_standard_peripheral/Source/gd32f30x_dac.c ****     \param[out] none
 459:Drivers/GD32F30x_standard_peripheral/Source/gd32f30x_dac.c ****     \retval     none
 460:Drivers/GD32F30x_standard_peripheral/Source/gd32f30x_dac.c **** */
 461:Drivers/GD32F30x_standard_peripheral/Source/gd32f30x_dac.c **** void dac_concurrent_software_trigger_enable(void)
 462:Drivers/GD32F30x_standard_peripheral/Source/gd32f30x_dac.c **** {
 947              		.loc 1 462 1 is_stmt 1 view -0
ARM GAS  C:\Users\Prog\AppData\Local\Temp\ccx4kQ0B.s 			page 25


 948              		.cfi_startproc
 949              		@ args = 0, pretend = 0, frame = 0
 950              		@ frame_needed = 0, uses_anonymous_args = 0
 951              		@ link register save eliminated.
 463:Drivers/GD32F30x_standard_peripheral/Source/gd32f30x_dac.c ****     uint32_t swt = 0U;
 952              		.loc 1 463 5 view .LVU194
 953              	.LVL26:
 464:Drivers/GD32F30x_standard_peripheral/Source/gd32f30x_dac.c ****     swt = DAC_SWT_SWTR0 | DAC_SWT_SWTR1;
 954              		.loc 1 464 5 view .LVU195
 465:Drivers/GD32F30x_standard_peripheral/Source/gd32f30x_dac.c ****     DAC_SWT |= (swt); 
 955              		.loc 1 465 5 view .LVU196
 956              		.loc 1 465 13 is_stmt 0 view .LVU197
 957 0000 024A     		ldr	r2, .L101
 958 0002 1368     		ldr	r3, [r2]
 959 0004 43F00303 		orr	r3, r3, #3
 960 0008 1360     		str	r3, [r2]
 466:Drivers/GD32F30x_standard_peripheral/Source/gd32f30x_dac.c **** }
 961              		.loc 1 466 1 view .LVU198
 962 000a 7047     		bx	lr
 963              	.L102:
 964              		.align	2
 965              	.L101:
 966 000c 04740040 		.word	1073771524
 967              		.cfi_endproc
 968              	.LFE136:
 970              		.section	.text.dac_concurrent_software_trigger_disable,"ax",%progbits
 971              		.align	1
 972              		.global	dac_concurrent_software_trigger_disable
 973              		.syntax unified
 974              		.thumb
 975              		.thumb_func
 976              		.fpu fpv4-sp-d16
 978              	dac_concurrent_software_trigger_disable:
 979              	.LFB137:
 467:Drivers/GD32F30x_standard_peripheral/Source/gd32f30x_dac.c **** 
 468:Drivers/GD32F30x_standard_peripheral/Source/gd32f30x_dac.c **** /*!
 469:Drivers/GD32F30x_standard_peripheral/Source/gd32f30x_dac.c ****     \brief      disable DAC concurrent software trigger function
 470:Drivers/GD32F30x_standard_peripheral/Source/gd32f30x_dac.c ****     \param[in]  none
 471:Drivers/GD32F30x_standard_peripheral/Source/gd32f30x_dac.c ****     \param[out] none
 472:Drivers/GD32F30x_standard_peripheral/Source/gd32f30x_dac.c ****     \retval     none
 473:Drivers/GD32F30x_standard_peripheral/Source/gd32f30x_dac.c **** */
 474:Drivers/GD32F30x_standard_peripheral/Source/gd32f30x_dac.c **** void dac_concurrent_software_trigger_disable(void)
 475:Drivers/GD32F30x_standard_peripheral/Source/gd32f30x_dac.c **** {
 980              		.loc 1 475 1 is_stmt 1 view -0
 981              		.cfi_startproc
 982              		@ args = 0, pretend = 0, frame = 0
 983              		@ frame_needed = 0, uses_anonymous_args = 0
 984              		@ link register save eliminated.
 476:Drivers/GD32F30x_standard_peripheral/Source/gd32f30x_dac.c ****     uint32_t swt = 0U;
 985              		.loc 1 476 5 view .LVU200
 986              	.LVL27:
 477:Drivers/GD32F30x_standard_peripheral/Source/gd32f30x_dac.c ****     swt = DAC_SWT_SWTR0 | DAC_SWT_SWTR1;
 987              		.loc 1 477 5 view .LVU201
 478:Drivers/GD32F30x_standard_peripheral/Source/gd32f30x_dac.c ****     DAC_SWT &= (~swt);
 988              		.loc 1 478 5 view .LVU202
 989              		.loc 1 478 13 is_stmt 0 view .LVU203
 990 0000 024A     		ldr	r2, .L104
ARM GAS  C:\Users\Prog\AppData\Local\Temp\ccx4kQ0B.s 			page 26


 991 0002 1368     		ldr	r3, [r2]
 992 0004 23F00303 		bic	r3, r3, #3
 993 0008 1360     		str	r3, [r2]
 479:Drivers/GD32F30x_standard_peripheral/Source/gd32f30x_dac.c **** }
 994              		.loc 1 479 1 view .LVU204
 995 000a 7047     		bx	lr
 996              	.L105:
 997              		.align	2
 998              	.L104:
 999 000c 04740040 		.word	1073771524
 1000              		.cfi_endproc
 1001              	.LFE137:
 1003              		.section	.text.dac_concurrent_output_buffer_enable,"ax",%progbits
 1004              		.align	1
 1005              		.global	dac_concurrent_output_buffer_enable
 1006              		.syntax unified
 1007              		.thumb
 1008              		.thumb_func
 1009              		.fpu fpv4-sp-d16
 1011              	dac_concurrent_output_buffer_enable:
 1012              	.LFB138:
 480:Drivers/GD32F30x_standard_peripheral/Source/gd32f30x_dac.c **** 
 481:Drivers/GD32F30x_standard_peripheral/Source/gd32f30x_dac.c **** /*!
 482:Drivers/GD32F30x_standard_peripheral/Source/gd32f30x_dac.c ****     \brief      enable DAC concurrent buffer function
 483:Drivers/GD32F30x_standard_peripheral/Source/gd32f30x_dac.c ****     \param[in]  none
 484:Drivers/GD32F30x_standard_peripheral/Source/gd32f30x_dac.c ****     \param[out] none
 485:Drivers/GD32F30x_standard_peripheral/Source/gd32f30x_dac.c ****     \retval     none
 486:Drivers/GD32F30x_standard_peripheral/Source/gd32f30x_dac.c **** */
 487:Drivers/GD32F30x_standard_peripheral/Source/gd32f30x_dac.c **** void dac_concurrent_output_buffer_enable(void)
 488:Drivers/GD32F30x_standard_peripheral/Source/gd32f30x_dac.c **** {
 1013              		.loc 1 488 1 is_stmt 1 view -0
 1014              		.cfi_startproc
 1015              		@ args = 0, pretend = 0, frame = 0
 1016              		@ frame_needed = 0, uses_anonymous_args = 0
 1017              		@ link register save eliminated.
 489:Drivers/GD32F30x_standard_peripheral/Source/gd32f30x_dac.c ****     uint32_t ctl = 0U;
 1018              		.loc 1 489 5 view .LVU206
 1019              	.LVL28:
 490:Drivers/GD32F30x_standard_peripheral/Source/gd32f30x_dac.c ****     ctl = DAC_CTL_DBOFF0 | DAC_CTL_DBOFF1;
 1020              		.loc 1 490 5 view .LVU207
 491:Drivers/GD32F30x_standard_peripheral/Source/gd32f30x_dac.c ****     DAC_CTL &= (~ctl);
 1021              		.loc 1 491 5 view .LVU208
 1022              		.loc 1 491 13 is_stmt 0 view .LVU209
 1023 0000 024A     		ldr	r2, .L107
 1024 0002 1368     		ldr	r3, [r2]
 1025 0004 23F00213 		bic	r3, r3, #131074
 1026 0008 1360     		str	r3, [r2]
 492:Drivers/GD32F30x_standard_peripheral/Source/gd32f30x_dac.c **** }
 1027              		.loc 1 492 1 view .LVU210
 1028 000a 7047     		bx	lr
 1029              	.L108:
 1030              		.align	2
 1031              	.L107:
 1032 000c 00740040 		.word	1073771520
 1033              		.cfi_endproc
 1034              	.LFE138:
 1036              		.section	.text.dac_concurrent_output_buffer_disable,"ax",%progbits
ARM GAS  C:\Users\Prog\AppData\Local\Temp\ccx4kQ0B.s 			page 27


 1037              		.align	1
 1038              		.global	dac_concurrent_output_buffer_disable
 1039              		.syntax unified
 1040              		.thumb
 1041              		.thumb_func
 1042              		.fpu fpv4-sp-d16
 1044              	dac_concurrent_output_buffer_disable:
 1045              	.LFB139:
 493:Drivers/GD32F30x_standard_peripheral/Source/gd32f30x_dac.c **** 
 494:Drivers/GD32F30x_standard_peripheral/Source/gd32f30x_dac.c **** /*!
 495:Drivers/GD32F30x_standard_peripheral/Source/gd32f30x_dac.c ****     \brief      disable DAC concurrent buffer function
 496:Drivers/GD32F30x_standard_peripheral/Source/gd32f30x_dac.c ****     \param[in]  none
 497:Drivers/GD32F30x_standard_peripheral/Source/gd32f30x_dac.c ****     \param[out] none
 498:Drivers/GD32F30x_standard_peripheral/Source/gd32f30x_dac.c ****     \retval     none
 499:Drivers/GD32F30x_standard_peripheral/Source/gd32f30x_dac.c **** */
 500:Drivers/GD32F30x_standard_peripheral/Source/gd32f30x_dac.c **** void dac_concurrent_output_buffer_disable(void)
 501:Drivers/GD32F30x_standard_peripheral/Source/gd32f30x_dac.c **** {
 1046              		.loc 1 501 1 is_stmt 1 view -0
 1047              		.cfi_startproc
 1048              		@ args = 0, pretend = 0, frame = 0
 1049              		@ frame_needed = 0, uses_anonymous_args = 0
 1050              		@ link register save eliminated.
 502:Drivers/GD32F30x_standard_peripheral/Source/gd32f30x_dac.c ****     uint32_t ctl = 0U;
 1051              		.loc 1 502 5 view .LVU212
 1052              	.LVL29:
 503:Drivers/GD32F30x_standard_peripheral/Source/gd32f30x_dac.c ****     ctl = DAC_CTL_DBOFF0 | DAC_CTL_DBOFF1;
 1053              		.loc 1 503 5 view .LVU213
 504:Drivers/GD32F30x_standard_peripheral/Source/gd32f30x_dac.c ****     DAC_CTL |= (ctl);
 1054              		.loc 1 504 5 view .LVU214
 1055              		.loc 1 504 13 is_stmt 0 view .LVU215
 1056 0000 024A     		ldr	r2, .L110
 1057 0002 1368     		ldr	r3, [r2]
 1058 0004 43F00213 		orr	r3, r3, #131074
 1059 0008 1360     		str	r3, [r2]
 505:Drivers/GD32F30x_standard_peripheral/Source/gd32f30x_dac.c **** }
 1060              		.loc 1 505 1 view .LVU216
 1061 000a 7047     		bx	lr
 1062              	.L111:
 1063              		.align	2
 1064              	.L110:
 1065 000c 00740040 		.word	1073771520
 1066              		.cfi_endproc
 1067              	.LFE139:
 1069              		.section	.text.dac_concurrent_data_set,"ax",%progbits
 1070              		.align	1
 1071              		.global	dac_concurrent_data_set
 1072              		.syntax unified
 1073              		.thumb
 1074              		.thumb_func
 1075              		.fpu fpv4-sp-d16
 1077              	dac_concurrent_data_set:
 1078              	.LVL30:
 1079              	.LFB140:
 506:Drivers/GD32F30x_standard_peripheral/Source/gd32f30x_dac.c **** 
 507:Drivers/GD32F30x_standard_peripheral/Source/gd32f30x_dac.c **** /*!
 508:Drivers/GD32F30x_standard_peripheral/Source/gd32f30x_dac.c ****     \brief      set DAC concurrent mode data holding register value
 509:Drivers/GD32F30x_standard_peripheral/Source/gd32f30x_dac.c ****     \param[in]  dac_align: data alignment
ARM GAS  C:\Users\Prog\AppData\Local\Temp\ccx4kQ0B.s 			page 28


 510:Drivers/GD32F30x_standard_peripheral/Source/gd32f30x_dac.c ****                 only one parameter can be selected which is shown as below:
 511:Drivers/GD32F30x_standard_peripheral/Source/gd32f30x_dac.c ****       \arg        DAC_ALIGN_8B_R: data right 8b alignment
 512:Drivers/GD32F30x_standard_peripheral/Source/gd32f30x_dac.c ****       \arg        DAC_ALIGN_12B_R: data right 12b alignment
 513:Drivers/GD32F30x_standard_peripheral/Source/gd32f30x_dac.c ****       \arg        DAC_ALIGN_12B_L: data left 12b alignment
 514:Drivers/GD32F30x_standard_peripheral/Source/gd32f30x_dac.c ****     \param[in]  data0: data to be loaded
 515:Drivers/GD32F30x_standard_peripheral/Source/gd32f30x_dac.c ****     \param[in]  data1: data to be loaded
 516:Drivers/GD32F30x_standard_peripheral/Source/gd32f30x_dac.c ****     \param[out] none
 517:Drivers/GD32F30x_standard_peripheral/Source/gd32f30x_dac.c ****     \retval     none
 518:Drivers/GD32F30x_standard_peripheral/Source/gd32f30x_dac.c **** */
 519:Drivers/GD32F30x_standard_peripheral/Source/gd32f30x_dac.c **** void dac_concurrent_data_set(uint32_t dac_align, uint16_t data0, uint16_t data1)
 520:Drivers/GD32F30x_standard_peripheral/Source/gd32f30x_dac.c **** {
 1080              		.loc 1 520 1 is_stmt 1 view -0
 1081              		.cfi_startproc
 1082              		@ args = 0, pretend = 0, frame = 0
 1083              		@ frame_needed = 0, uses_anonymous_args = 0
 1084              		@ link register save eliminated.
 521:Drivers/GD32F30x_standard_peripheral/Source/gd32f30x_dac.c ****     uint32_t data = 0U;
 1085              		.loc 1 521 5 view .LVU218
 522:Drivers/GD32F30x_standard_peripheral/Source/gd32f30x_dac.c ****     switch(dac_align){
 1086              		.loc 1 522 5 view .LVU219
 1087 0000 0128     		cmp	r0, #1
 1088 0002 08D0     		beq	.L113
 1089 0004 10B1     		cbz	r0, .L114
 1090 0006 0228     		cmp	r0, #2
 1091 0008 0AD0     		beq	.L115
 1092 000a 7047     		bx	lr
 1093              	.L114:
 523:Drivers/GD32F30x_standard_peripheral/Source/gd32f30x_dac.c ****     /* data right 12b alignment */
 524:Drivers/GD32F30x_standard_peripheral/Source/gd32f30x_dac.c ****     case DAC_ALIGN_12B_R:
 525:Drivers/GD32F30x_standard_peripheral/Source/gd32f30x_dac.c ****         data = ((uint32_t)data1 << DH_12BIT_OFFSET) | data0;
 1094              		.loc 1 525 9 view .LVU220
 1095              		.loc 1 525 14 is_stmt 0 view .LVU221
 1096 000c 41EA0241 		orr	r1, r1, r2, lsl #16
 1097              	.LVL31:
 526:Drivers/GD32F30x_standard_peripheral/Source/gd32f30x_dac.c ****         DACC_R12DH = data;
 1098              		.loc 1 526 9 is_stmt 1 view .LVU222
 1099              		.loc 1 526 20 is_stmt 0 view .LVU223
 1100 0010 064B     		ldr	r3, .L117
 1101 0012 1960     		str	r1, [r3]
 527:Drivers/GD32F30x_standard_peripheral/Source/gd32f30x_dac.c ****         break;
 1102              		.loc 1 527 9 is_stmt 1 view .LVU224
 1103 0014 7047     		bx	lr
 1104              	.LVL32:
 1105              	.L113:
 528:Drivers/GD32F30x_standard_peripheral/Source/gd32f30x_dac.c ****     /* data left 12b alignment */
 529:Drivers/GD32F30x_standard_peripheral/Source/gd32f30x_dac.c ****     case DAC_ALIGN_12B_L:
 530:Drivers/GD32F30x_standard_peripheral/Source/gd32f30x_dac.c ****         data = ((uint32_t)data1 << DH_12BIT_OFFSET) | data0;
 1106              		.loc 1 530 9 view .LVU225
 1107              		.loc 1 530 14 is_stmt 0 view .LVU226
 1108 0016 41EA0241 		orr	r1, r1, r2, lsl #16
 1109              	.LVL33:
 531:Drivers/GD32F30x_standard_peripheral/Source/gd32f30x_dac.c ****         DACC_L12DH = data;
 1110              		.loc 1 531 9 is_stmt 1 view .LVU227
 1111              		.loc 1 531 20 is_stmt 0 view .LVU228
 1112 001a 054B     		ldr	r3, .L117+4
 1113 001c 1960     		str	r1, [r3]
 532:Drivers/GD32F30x_standard_peripheral/Source/gd32f30x_dac.c ****         break;
ARM GAS  C:\Users\Prog\AppData\Local\Temp\ccx4kQ0B.s 			page 29


 1114              		.loc 1 532 9 is_stmt 1 view .LVU229
 1115 001e 7047     		bx	lr
 1116              	.LVL34:
 1117              	.L115:
 533:Drivers/GD32F30x_standard_peripheral/Source/gd32f30x_dac.c ****     /* data right 8b alignment */
 534:Drivers/GD32F30x_standard_peripheral/Source/gd32f30x_dac.c ****     case DAC_ALIGN_8B_R:
 535:Drivers/GD32F30x_standard_peripheral/Source/gd32f30x_dac.c ****         data = ((uint32_t)data1 << DH_8BIT_OFFSET) | data0;
 1118              		.loc 1 535 9 view .LVU230
 1119              		.loc 1 535 14 is_stmt 0 view .LVU231
 1120 0020 41EA0221 		orr	r1, r1, r2, lsl #8
 1121              	.LVL35:
 536:Drivers/GD32F30x_standard_peripheral/Source/gd32f30x_dac.c ****         DACC_R8DH = data;
 1122              		.loc 1 536 9 is_stmt 1 view .LVU232
 1123              		.loc 1 536 19 is_stmt 0 view .LVU233
 1124 0024 034B     		ldr	r3, .L117+8
 1125 0026 1960     		str	r1, [r3]
 537:Drivers/GD32F30x_standard_peripheral/Source/gd32f30x_dac.c ****         break;
 1126              		.loc 1 537 9 is_stmt 1 view .LVU234
 538:Drivers/GD32F30x_standard_peripheral/Source/gd32f30x_dac.c ****     default:
 539:Drivers/GD32F30x_standard_peripheral/Source/gd32f30x_dac.c ****         break;
 540:Drivers/GD32F30x_standard_peripheral/Source/gd32f30x_dac.c ****     }
 541:Drivers/GD32F30x_standard_peripheral/Source/gd32f30x_dac.c **** }
 1127              		.loc 1 541 1 is_stmt 0 view .LVU235
 1128 0028 7047     		bx	lr
 1129              	.L118:
 1130 002a 00BF     		.align	2
 1131              	.L117:
 1132 002c 20740040 		.word	1073771552
 1133 0030 24740040 		.word	1073771556
 1134 0034 28740040 		.word	1073771560
 1135              		.cfi_endproc
 1136              	.LFE140:
 1138              		.text
 1139              	.Letext0:
 1140              		.file 2 "d:\\embedded_gcc\\arm_gcc\\arm-none-eabi\\include\\machine\\_default_types.h"
 1141              		.file 3 "d:\\embedded_gcc\\arm_gcc\\arm-none-eabi\\include\\sys\\_stdint.h"
 1142              		.file 4 "Drivers/CMSIS/core_cm4.h"
 1143              		.file 5 "Drivers/CMSIS/GD/GD32F30x/Include/system_gd32f30x.h"
 1144              		.file 6 "Drivers/GD32F30x_standard_peripheral/Include/gd32f30x_rcu.h"
ARM GAS  C:\Users\Prog\AppData\Local\Temp\ccx4kQ0B.s 			page 30

