ARM GAS  C:\Users\Prog\AppData\Local\Temp\ccKeEkXj.s 			page 1


   1              		.cpu cortex-m4
   2              		.eabi_attribute 27, 1
   3              		.eabi_attribute 28, 1
   4              		.eabi_attribute 20, 1
   5              		.eabi_attribute 21, 1
   6              		.eabi_attribute 23, 3
   7              		.eabi_attribute 24, 1
   8              		.eabi_attribute 25, 1
   9              		.eabi_attribute 26, 1
  10              		.eabi_attribute 30, 1
  11              		.eabi_attribute 34, 1
  12              		.eabi_attribute 18, 4
  13              		.file	"gd32f30x_fmc.c"
  14              		.text
  15              	.Ltext0:
  16              		.cfi_sections	.debug_frame
  17              		.section	.text.fmc_wscnt_set,"ax",%progbits
  18              		.align	1
  19              		.global	fmc_wscnt_set
  20              		.arch armv7e-m
  21              		.syntax unified
  22              		.thumb
  23              		.thumb_func
  24              		.fpu fpv4-sp-d16
  26              	fmc_wscnt_set:
  27              	.LVL0:
  28              	.LFB116:
  29              		.file 1 "Drivers/GD32F30x_standard_peripheral/Source/gd32f30x_fmc.c"
   1:Drivers/GD32F30x_standard_peripheral/Source/gd32f30x_fmc.c **** /*!
   2:Drivers/GD32F30x_standard_peripheral/Source/gd32f30x_fmc.c ****     \file    gd32f30x_fmc.c
   3:Drivers/GD32F30x_standard_peripheral/Source/gd32f30x_fmc.c ****     \brief   FMC driver
   4:Drivers/GD32F30x_standard_peripheral/Source/gd32f30x_fmc.c **** 
   5:Drivers/GD32F30x_standard_peripheral/Source/gd32f30x_fmc.c ****     \version 2017-02-10, V1.0.0, firmware for GD32F30x
   6:Drivers/GD32F30x_standard_peripheral/Source/gd32f30x_fmc.c ****     \version 2018-10-10, V1.1.0, firmware for GD32F30x
   7:Drivers/GD32F30x_standard_peripheral/Source/gd32f30x_fmc.c ****     \version 2018-12-25, V2.0.0, firmware for GD32F30x
   8:Drivers/GD32F30x_standard_peripheral/Source/gd32f30x_fmc.c ****     \version 2020-09-30, V2.1.0, firmware for GD32F30x
   9:Drivers/GD32F30x_standard_peripheral/Source/gd32f30x_fmc.c **** */
  10:Drivers/GD32F30x_standard_peripheral/Source/gd32f30x_fmc.c **** 
  11:Drivers/GD32F30x_standard_peripheral/Source/gd32f30x_fmc.c **** /*
  12:Drivers/GD32F30x_standard_peripheral/Source/gd32f30x_fmc.c ****     Copyright (c) 2020, GigaDevice Semiconductor Inc.
  13:Drivers/GD32F30x_standard_peripheral/Source/gd32f30x_fmc.c **** 
  14:Drivers/GD32F30x_standard_peripheral/Source/gd32f30x_fmc.c ****     Redistribution and use in source and binary forms, with or without modification, 
  15:Drivers/GD32F30x_standard_peripheral/Source/gd32f30x_fmc.c **** are permitted provided that the following conditions are met:
  16:Drivers/GD32F30x_standard_peripheral/Source/gd32f30x_fmc.c **** 
  17:Drivers/GD32F30x_standard_peripheral/Source/gd32f30x_fmc.c ****     1. Redistributions of source code must retain the above copyright notice, this 
  18:Drivers/GD32F30x_standard_peripheral/Source/gd32f30x_fmc.c ****        list of conditions and the following disclaimer.
  19:Drivers/GD32F30x_standard_peripheral/Source/gd32f30x_fmc.c ****     2. Redistributions in binary form must reproduce the above copyright notice, 
  20:Drivers/GD32F30x_standard_peripheral/Source/gd32f30x_fmc.c ****        this list of conditions and the following disclaimer in the documentation 
  21:Drivers/GD32F30x_standard_peripheral/Source/gd32f30x_fmc.c ****        and/or other materials provided with the distribution.
  22:Drivers/GD32F30x_standard_peripheral/Source/gd32f30x_fmc.c ****     3. Neither the name of the copyright holder nor the names of its contributors 
  23:Drivers/GD32F30x_standard_peripheral/Source/gd32f30x_fmc.c ****        may be used to endorse or promote products derived from this software without 
  24:Drivers/GD32F30x_standard_peripheral/Source/gd32f30x_fmc.c ****        specific prior written permission.
  25:Drivers/GD32F30x_standard_peripheral/Source/gd32f30x_fmc.c **** 
  26:Drivers/GD32F30x_standard_peripheral/Source/gd32f30x_fmc.c ****     THIS SOFTWARE IS PROVIDED BY THE COPYRIGHT HOLDERS AND CONTRIBUTORS "AS IS" 
  27:Drivers/GD32F30x_standard_peripheral/Source/gd32f30x_fmc.c **** AND ANY EXPRESS OR IMPLIED WARRANTIES, INCLUDING, BUT NOT LIMITED TO, THE IMPLIED 
  28:Drivers/GD32F30x_standard_peripheral/Source/gd32f30x_fmc.c **** WARRANTIES OF MERCHANTABILITY AND FITNESS FOR A PARTICULAR PURPOSE ARE DISCLAIMED. 
  29:Drivers/GD32F30x_standard_peripheral/Source/gd32f30x_fmc.c **** IN NO EVENT SHALL THE COPYRIGHT HOLDER OR CONTRIBUTORS BE LIABLE FOR ANY DIRECT, 
ARM GAS  C:\Users\Prog\AppData\Local\Temp\ccKeEkXj.s 			page 2


  30:Drivers/GD32F30x_standard_peripheral/Source/gd32f30x_fmc.c **** INDIRECT, INCIDENTAL, SPECIAL, EXEMPLARY, OR CONSEQUENTIAL DAMAGES (INCLUDING, BUT 
  31:Drivers/GD32F30x_standard_peripheral/Source/gd32f30x_fmc.c **** NOT LIMITED TO, PROCUREMENT OF SUBSTITUTE GOODS OR SERVICES; LOSS OF USE, DATA, OR 
  32:Drivers/GD32F30x_standard_peripheral/Source/gd32f30x_fmc.c **** PROFITS; OR BUSINESS INTERRUPTION) HOWEVER CAUSED AND ON ANY THEORY OF LIABILITY, 
  33:Drivers/GD32F30x_standard_peripheral/Source/gd32f30x_fmc.c **** WHETHER IN CONTRACT, STRICT LIABILITY, OR TORT (INCLUDING NEGLIGENCE OR OTHERWISE) 
  34:Drivers/GD32F30x_standard_peripheral/Source/gd32f30x_fmc.c **** ARISING IN ANY WAY OUT OF THE USE OF THIS SOFTWARE, EVEN IF ADVISED OF THE POSSIBILITY 
  35:Drivers/GD32F30x_standard_peripheral/Source/gd32f30x_fmc.c **** OF SUCH DAMAGE.
  36:Drivers/GD32F30x_standard_peripheral/Source/gd32f30x_fmc.c **** */
  37:Drivers/GD32F30x_standard_peripheral/Source/gd32f30x_fmc.c **** 
  38:Drivers/GD32F30x_standard_peripheral/Source/gd32f30x_fmc.c **** 
  39:Drivers/GD32F30x_standard_peripheral/Source/gd32f30x_fmc.c **** #include "gd32f30x_fmc.h"
  40:Drivers/GD32F30x_standard_peripheral/Source/gd32f30x_fmc.c **** 
  41:Drivers/GD32F30x_standard_peripheral/Source/gd32f30x_fmc.c **** /*!
  42:Drivers/GD32F30x_standard_peripheral/Source/gd32f30x_fmc.c ****     \brief      set the wait state counter value
  43:Drivers/GD32F30x_standard_peripheral/Source/gd32f30x_fmc.c ****     \param[in]  wscnt:wait state counter value
  44:Drivers/GD32F30x_standard_peripheral/Source/gd32f30x_fmc.c ****       \arg        WS_WSCNT_0: FMC 0 wait
  45:Drivers/GD32F30x_standard_peripheral/Source/gd32f30x_fmc.c ****       \arg        WS_WSCNT_1: FMC 1 wait
  46:Drivers/GD32F30x_standard_peripheral/Source/gd32f30x_fmc.c ****       \arg        WS_WSCNT_2: FMC 2 wait
  47:Drivers/GD32F30x_standard_peripheral/Source/gd32f30x_fmc.c ****     \param[out] none
  48:Drivers/GD32F30x_standard_peripheral/Source/gd32f30x_fmc.c ****     \retval     none
  49:Drivers/GD32F30x_standard_peripheral/Source/gd32f30x_fmc.c **** */
  50:Drivers/GD32F30x_standard_peripheral/Source/gd32f30x_fmc.c **** void fmc_wscnt_set(uint32_t wscnt)
  51:Drivers/GD32F30x_standard_peripheral/Source/gd32f30x_fmc.c **** {
  30              		.loc 1 51 1 view -0
  31              		.cfi_startproc
  32              		@ args = 0, pretend = 0, frame = 0
  33              		@ frame_needed = 0, uses_anonymous_args = 0
  34              		@ link register save eliminated.
  52:Drivers/GD32F30x_standard_peripheral/Source/gd32f30x_fmc.c ****     uint32_t reg;
  35              		.loc 1 52 5 view .LVU1
  53:Drivers/GD32F30x_standard_peripheral/Source/gd32f30x_fmc.c ****     
  54:Drivers/GD32F30x_standard_peripheral/Source/gd32f30x_fmc.c ****     reg = FMC_WS;
  36              		.loc 1 54 5 view .LVU2
  37              		.loc 1 54 9 is_stmt 0 view .LVU3
  38 0000 034A     		ldr	r2, .L2
  39 0002 1368     		ldr	r3, [r2]
  40              	.LVL1:
  55:Drivers/GD32F30x_standard_peripheral/Source/gd32f30x_fmc.c ****     /* set the wait state counter value */
  56:Drivers/GD32F30x_standard_peripheral/Source/gd32f30x_fmc.c ****     reg &= ~FMC_WS_WSCNT;
  41              		.loc 1 56 5 is_stmt 1 view .LVU4
  42              		.loc 1 56 9 is_stmt 0 view .LVU5
  43 0004 23F00703 		bic	r3, r3, #7
  44              	.LVL2:
  57:Drivers/GD32F30x_standard_peripheral/Source/gd32f30x_fmc.c ****     FMC_WS = (reg | wscnt);
  45              		.loc 1 57 5 is_stmt 1 view .LVU6
  46              		.loc 1 57 19 is_stmt 0 view .LVU7
  47 0008 1843     		orrs	r0, r0, r3
  48              	.LVL3:
  49              		.loc 1 57 12 view .LVU8
  50 000a 1060     		str	r0, [r2]
  58:Drivers/GD32F30x_standard_peripheral/Source/gd32f30x_fmc.c **** }
  51              		.loc 1 58 1 view .LVU9
  52 000c 7047     		bx	lr
  53              	.L3:
  54 000e 00BF     		.align	2
  55              	.L2:
  56 0010 00200240 		.word	1073881088
  57              		.cfi_endproc
ARM GAS  C:\Users\Prog\AppData\Local\Temp\ccKeEkXj.s 			page 3


  58              	.LFE116:
  60              		.section	.text.fmc_unlock,"ax",%progbits
  61              		.align	1
  62              		.global	fmc_unlock
  63              		.syntax unified
  64              		.thumb
  65              		.thumb_func
  66              		.fpu fpv4-sp-d16
  68              	fmc_unlock:
  69              	.LFB117:
  59:Drivers/GD32F30x_standard_peripheral/Source/gd32f30x_fmc.c **** 
  60:Drivers/GD32F30x_standard_peripheral/Source/gd32f30x_fmc.c **** /*!
  61:Drivers/GD32F30x_standard_peripheral/Source/gd32f30x_fmc.c ****     \brief      unlock the main FMC operation
  62:Drivers/GD32F30x_standard_peripheral/Source/gd32f30x_fmc.c ****     \param[in]  none
  63:Drivers/GD32F30x_standard_peripheral/Source/gd32f30x_fmc.c ****     \param[out] none
  64:Drivers/GD32F30x_standard_peripheral/Source/gd32f30x_fmc.c ****     \retval     none
  65:Drivers/GD32F30x_standard_peripheral/Source/gd32f30x_fmc.c **** */
  66:Drivers/GD32F30x_standard_peripheral/Source/gd32f30x_fmc.c **** void fmc_unlock(void)
  67:Drivers/GD32F30x_standard_peripheral/Source/gd32f30x_fmc.c **** {
  70              		.loc 1 67 1 is_stmt 1 view -0
  71              		.cfi_startproc
  72              		@ args = 0, pretend = 0, frame = 0
  73              		@ frame_needed = 0, uses_anonymous_args = 0
  74              		@ link register save eliminated.
  68:Drivers/GD32F30x_standard_peripheral/Source/gd32f30x_fmc.c ****     if((RESET != (FMC_CTL0 & FMC_CTL0_LK))){
  75              		.loc 1 68 5 view .LVU11
  76              		.loc 1 68 19 is_stmt 0 view .LVU12
  77 0000 0D4B     		ldr	r3, .L7
  78 0002 1B68     		ldr	r3, [r3]
  79              		.loc 1 68 7 view .LVU13
  80 0004 13F0800F 		tst	r3, #128
  81 0008 05D0     		beq	.L5
  69:Drivers/GD32F30x_standard_peripheral/Source/gd32f30x_fmc.c ****         /* write the FMC unlock key */
  70:Drivers/GD32F30x_standard_peripheral/Source/gd32f30x_fmc.c ****         FMC_KEY0 = UNLOCK_KEY0;
  82              		.loc 1 70 9 is_stmt 1 view .LVU14
  83              		.loc 1 70 18 is_stmt 0 view .LVU15
  84 000a 0C4B     		ldr	r3, .L7+4
  85 000c 0C4A     		ldr	r2, .L7+8
  86 000e 1A60     		str	r2, [r3]
  71:Drivers/GD32F30x_standard_peripheral/Source/gd32f30x_fmc.c ****         FMC_KEY0 = UNLOCK_KEY1;
  87              		.loc 1 71 9 is_stmt 1 view .LVU16
  88              		.loc 1 71 18 is_stmt 0 view .LVU17
  89 0010 02F18832 		add	r2, r2, #-2004318072
  90 0014 1A60     		str	r2, [r3]
  91              	.L5:
  72:Drivers/GD32F30x_standard_peripheral/Source/gd32f30x_fmc.c ****     }
  73:Drivers/GD32F30x_standard_peripheral/Source/gd32f30x_fmc.c ****     if(FMC_BANK0_SIZE < FMC_SIZE){
  92              		.loc 1 73 5 is_stmt 1 view .LVU18
  93              		.loc 1 73 25 is_stmt 0 view .LVU19
  94 0016 0B4B     		ldr	r3, .L7+12
  95 0018 1B88     		ldrh	r3, [r3]
  96              		.loc 1 73 7 view .LVU20
  97 001a B3F5007F 		cmp	r3, #512
  98 001e 0AD9     		bls	.L4
  74:Drivers/GD32F30x_standard_peripheral/Source/gd32f30x_fmc.c ****         /* write the FMC unlock key */
  75:Drivers/GD32F30x_standard_peripheral/Source/gd32f30x_fmc.c ****         if(RESET != (FMC_CTL1 & FMC_CTL1_LK)){
  99              		.loc 1 75 9 is_stmt 1 view .LVU21
ARM GAS  C:\Users\Prog\AppData\Local\Temp\ccKeEkXj.s 			page 4


 100              		.loc 1 75 22 is_stmt 0 view .LVU22
 101 0020 094B     		ldr	r3, .L7+16
 102 0022 1B68     		ldr	r3, [r3]
 103              		.loc 1 75 11 view .LVU23
 104 0024 13F0800F 		tst	r3, #128
 105 0028 05D0     		beq	.L4
  76:Drivers/GD32F30x_standard_peripheral/Source/gd32f30x_fmc.c ****             FMC_KEY1 = UNLOCK_KEY0;
 106              		.loc 1 76 13 is_stmt 1 view .LVU24
 107              		.loc 1 76 22 is_stmt 0 view .LVU25
 108 002a 084B     		ldr	r3, .L7+20
 109 002c 044A     		ldr	r2, .L7+8
 110 002e 1A60     		str	r2, [r3]
  77:Drivers/GD32F30x_standard_peripheral/Source/gd32f30x_fmc.c ****             FMC_KEY1 = UNLOCK_KEY1;
 111              		.loc 1 77 13 is_stmt 1 view .LVU26
 112              		.loc 1 77 22 is_stmt 0 view .LVU27
 113 0030 02F18832 		add	r2, r2, #-2004318072
 114 0034 1A60     		str	r2, [r3]
 115              	.L4:
  78:Drivers/GD32F30x_standard_peripheral/Source/gd32f30x_fmc.c ****         }
  79:Drivers/GD32F30x_standard_peripheral/Source/gd32f30x_fmc.c ****     }
  80:Drivers/GD32F30x_standard_peripheral/Source/gd32f30x_fmc.c **** }
 116              		.loc 1 80 1 view .LVU28
 117 0036 7047     		bx	lr
 118              	.L8:
 119              		.align	2
 120              	.L7:
 121 0038 10200240 		.word	1073881104
 122 003c 04200240 		.word	1073881092
 123 0040 23016745 		.word	1164378403
 124 0044 E0F7FF1F 		.word	536868832
 125 0048 50200240 		.word	1073881168
 126 004c 44200240 		.word	1073881156
 127              		.cfi_endproc
 128              	.LFE117:
 130              		.section	.text.fmc_bank0_unlock,"ax",%progbits
 131              		.align	1
 132              		.global	fmc_bank0_unlock
 133              		.syntax unified
 134              		.thumb
 135              		.thumb_func
 136              		.fpu fpv4-sp-d16
 138              	fmc_bank0_unlock:
 139              	.LFB118:
  81:Drivers/GD32F30x_standard_peripheral/Source/gd32f30x_fmc.c **** 
  82:Drivers/GD32F30x_standard_peripheral/Source/gd32f30x_fmc.c **** /*!
  83:Drivers/GD32F30x_standard_peripheral/Source/gd32f30x_fmc.c ****     \brief      unlock the FMC bank0 operation 
  84:Drivers/GD32F30x_standard_peripheral/Source/gd32f30x_fmc.c ****                 this function can be used for all GD32F30x devices.
  85:Drivers/GD32F30x_standard_peripheral/Source/gd32f30x_fmc.c ****                 for GD32F30x with flash more than 512KB, this function unlocks bank0.
  86:Drivers/GD32F30x_standard_peripheral/Source/gd32f30x_fmc.c ****                 for GD32F30x with flash no more than 512KB and it is equivalent to fmc_unlock funct
  87:Drivers/GD32F30x_standard_peripheral/Source/gd32f30x_fmc.c ****     \param[in]  none
  88:Drivers/GD32F30x_standard_peripheral/Source/gd32f30x_fmc.c ****     \param[out] none
  89:Drivers/GD32F30x_standard_peripheral/Source/gd32f30x_fmc.c ****     \retval     none
  90:Drivers/GD32F30x_standard_peripheral/Source/gd32f30x_fmc.c **** */
  91:Drivers/GD32F30x_standard_peripheral/Source/gd32f30x_fmc.c **** void fmc_bank0_unlock(void)
  92:Drivers/GD32F30x_standard_peripheral/Source/gd32f30x_fmc.c **** {
 140              		.loc 1 92 1 is_stmt 1 view -0
 141              		.cfi_startproc
ARM GAS  C:\Users\Prog\AppData\Local\Temp\ccKeEkXj.s 			page 5


 142              		@ args = 0, pretend = 0, frame = 0
 143              		@ frame_needed = 0, uses_anonymous_args = 0
 144              		@ link register save eliminated.
  93:Drivers/GD32F30x_standard_peripheral/Source/gd32f30x_fmc.c ****     if((RESET != (FMC_CTL0 & FMC_CTL0_LK))){
 145              		.loc 1 93 5 view .LVU30
 146              		.loc 1 93 19 is_stmt 0 view .LVU31
 147 0000 054B     		ldr	r3, .L11
 148 0002 1B68     		ldr	r3, [r3]
 149              		.loc 1 93 7 view .LVU32
 150 0004 13F0800F 		tst	r3, #128
 151 0008 05D0     		beq	.L9
  94:Drivers/GD32F30x_standard_peripheral/Source/gd32f30x_fmc.c ****         /* write the FMC unlock key */
  95:Drivers/GD32F30x_standard_peripheral/Source/gd32f30x_fmc.c ****         FMC_KEY0 = UNLOCK_KEY0;
 152              		.loc 1 95 9 is_stmt 1 view .LVU33
 153              		.loc 1 95 18 is_stmt 0 view .LVU34
 154 000a 044B     		ldr	r3, .L11+4
 155 000c 044A     		ldr	r2, .L11+8
 156 000e 1A60     		str	r2, [r3]
  96:Drivers/GD32F30x_standard_peripheral/Source/gd32f30x_fmc.c ****         FMC_KEY0 = UNLOCK_KEY1;
 157              		.loc 1 96 9 is_stmt 1 view .LVU35
 158              		.loc 1 96 18 is_stmt 0 view .LVU36
 159 0010 02F18832 		add	r2, r2, #-2004318072
 160 0014 1A60     		str	r2, [r3]
 161              	.L9:
  97:Drivers/GD32F30x_standard_peripheral/Source/gd32f30x_fmc.c ****     }
  98:Drivers/GD32F30x_standard_peripheral/Source/gd32f30x_fmc.c **** }
 162              		.loc 1 98 1 view .LVU37
 163 0016 7047     		bx	lr
 164              	.L12:
 165              		.align	2
 166              	.L11:
 167 0018 10200240 		.word	1073881104
 168 001c 04200240 		.word	1073881092
 169 0020 23016745 		.word	1164378403
 170              		.cfi_endproc
 171              	.LFE118:
 173              		.section	.text.fmc_bank1_unlock,"ax",%progbits
 174              		.align	1
 175              		.global	fmc_bank1_unlock
 176              		.syntax unified
 177              		.thumb
 178              		.thumb_func
 179              		.fpu fpv4-sp-d16
 181              	fmc_bank1_unlock:
 182              	.LFB119:
  99:Drivers/GD32F30x_standard_peripheral/Source/gd32f30x_fmc.c **** 
 100:Drivers/GD32F30x_standard_peripheral/Source/gd32f30x_fmc.c **** /*!
 101:Drivers/GD32F30x_standard_peripheral/Source/gd32f30x_fmc.c ****     \brief      unlock the FMC bank1 operation 
 102:Drivers/GD32F30x_standard_peripheral/Source/gd32f30x_fmc.c ****                 this function can be used for GD32F30x with flash more than 512KB.
 103:Drivers/GD32F30x_standard_peripheral/Source/gd32f30x_fmc.c ****     \param[in]  none
 104:Drivers/GD32F30x_standard_peripheral/Source/gd32f30x_fmc.c ****     \param[out] none
 105:Drivers/GD32F30x_standard_peripheral/Source/gd32f30x_fmc.c ****     \retval     none
 106:Drivers/GD32F30x_standard_peripheral/Source/gd32f30x_fmc.c **** */
 107:Drivers/GD32F30x_standard_peripheral/Source/gd32f30x_fmc.c **** void fmc_bank1_unlock(void)
 108:Drivers/GD32F30x_standard_peripheral/Source/gd32f30x_fmc.c **** {
 183              		.loc 1 108 1 is_stmt 1 view -0
 184              		.cfi_startproc
ARM GAS  C:\Users\Prog\AppData\Local\Temp\ccKeEkXj.s 			page 6


 185              		@ args = 0, pretend = 0, frame = 0
 186              		@ frame_needed = 0, uses_anonymous_args = 0
 187              		@ link register save eliminated.
 109:Drivers/GD32F30x_standard_peripheral/Source/gd32f30x_fmc.c ****     if((RESET != (FMC_CTL1 & FMC_CTL1_LK))){
 188              		.loc 1 109 5 view .LVU39
 189              		.loc 1 109 19 is_stmt 0 view .LVU40
 190 0000 054B     		ldr	r3, .L15
 191 0002 1B68     		ldr	r3, [r3]
 192              		.loc 1 109 7 view .LVU41
 193 0004 13F0800F 		tst	r3, #128
 194 0008 05D0     		beq	.L13
 110:Drivers/GD32F30x_standard_peripheral/Source/gd32f30x_fmc.c ****         /* write the FMC unlock key */
 111:Drivers/GD32F30x_standard_peripheral/Source/gd32f30x_fmc.c ****         FMC_KEY1 = UNLOCK_KEY0;
 195              		.loc 1 111 9 is_stmt 1 view .LVU42
 196              		.loc 1 111 18 is_stmt 0 view .LVU43
 197 000a 044B     		ldr	r3, .L15+4
 198 000c 044A     		ldr	r2, .L15+8
 199 000e 1A60     		str	r2, [r3]
 112:Drivers/GD32F30x_standard_peripheral/Source/gd32f30x_fmc.c ****         FMC_KEY1 = UNLOCK_KEY1;
 200              		.loc 1 112 9 is_stmt 1 view .LVU44
 201              		.loc 1 112 18 is_stmt 0 view .LVU45
 202 0010 02F18832 		add	r2, r2, #-2004318072
 203 0014 1A60     		str	r2, [r3]
 204              	.L13:
 113:Drivers/GD32F30x_standard_peripheral/Source/gd32f30x_fmc.c ****     }
 114:Drivers/GD32F30x_standard_peripheral/Source/gd32f30x_fmc.c **** }
 205              		.loc 1 114 1 view .LVU46
 206 0016 7047     		bx	lr
 207              	.L16:
 208              		.align	2
 209              	.L15:
 210 0018 50200240 		.word	1073881168
 211 001c 44200240 		.word	1073881156
 212 0020 23016745 		.word	1164378403
 213              		.cfi_endproc
 214              	.LFE119:
 216              		.section	.text.fmc_lock,"ax",%progbits
 217              		.align	1
 218              		.global	fmc_lock
 219              		.syntax unified
 220              		.thumb
 221              		.thumb_func
 222              		.fpu fpv4-sp-d16
 224              	fmc_lock:
 225              	.LFB120:
 115:Drivers/GD32F30x_standard_peripheral/Source/gd32f30x_fmc.c **** 
 116:Drivers/GD32F30x_standard_peripheral/Source/gd32f30x_fmc.c **** /*!
 117:Drivers/GD32F30x_standard_peripheral/Source/gd32f30x_fmc.c ****     \brief      lock the main FMC operation
 118:Drivers/GD32F30x_standard_peripheral/Source/gd32f30x_fmc.c ****     \param[in]  none
 119:Drivers/GD32F30x_standard_peripheral/Source/gd32f30x_fmc.c ****     \param[out] none
 120:Drivers/GD32F30x_standard_peripheral/Source/gd32f30x_fmc.c ****     \retval     none
 121:Drivers/GD32F30x_standard_peripheral/Source/gd32f30x_fmc.c **** */
 122:Drivers/GD32F30x_standard_peripheral/Source/gd32f30x_fmc.c **** void fmc_lock(void)
 123:Drivers/GD32F30x_standard_peripheral/Source/gd32f30x_fmc.c **** {
 226              		.loc 1 123 1 is_stmt 1 view -0
 227              		.cfi_startproc
 228              		@ args = 0, pretend = 0, frame = 0
ARM GAS  C:\Users\Prog\AppData\Local\Temp\ccKeEkXj.s 			page 7


 229              		@ frame_needed = 0, uses_anonymous_args = 0
 230              		@ link register save eliminated.
 124:Drivers/GD32F30x_standard_peripheral/Source/gd32f30x_fmc.c ****     /* set the LK bit */
 125:Drivers/GD32F30x_standard_peripheral/Source/gd32f30x_fmc.c ****     FMC_CTL0 |= FMC_CTL0_LK;
 231              		.loc 1 125 5 view .LVU48
 232              		.loc 1 125 14 is_stmt 0 view .LVU49
 233 0000 074A     		ldr	r2, .L19
 234 0002 1368     		ldr	r3, [r2]
 235 0004 43F08003 		orr	r3, r3, #128
 236 0008 1360     		str	r3, [r2]
 126:Drivers/GD32F30x_standard_peripheral/Source/gd32f30x_fmc.c ****     
 127:Drivers/GD32F30x_standard_peripheral/Source/gd32f30x_fmc.c ****     if(FMC_BANK0_SIZE < FMC_SIZE){
 237              		.loc 1 127 5 is_stmt 1 view .LVU50
 238              		.loc 1 127 25 is_stmt 0 view .LVU51
 239 000a 064B     		ldr	r3, .L19+4
 240 000c 1B88     		ldrh	r3, [r3]
 241              		.loc 1 127 7 view .LVU52
 242 000e B3F5007F 		cmp	r3, #512
 243 0012 04D9     		bls	.L17
 128:Drivers/GD32F30x_standard_peripheral/Source/gd32f30x_fmc.c ****         /* set the LK bit */
 129:Drivers/GD32F30x_standard_peripheral/Source/gd32f30x_fmc.c ****         FMC_CTL1 |= FMC_CTL1_LK;
 244              		.loc 1 129 9 is_stmt 1 view .LVU53
 245              		.loc 1 129 18 is_stmt 0 view .LVU54
 246 0014 4032     		adds	r2, r2, #64
 247 0016 1368     		ldr	r3, [r2]
 248 0018 43F08003 		orr	r3, r3, #128
 249 001c 1360     		str	r3, [r2]
 250              	.L17:
 130:Drivers/GD32F30x_standard_peripheral/Source/gd32f30x_fmc.c ****     }
 131:Drivers/GD32F30x_standard_peripheral/Source/gd32f30x_fmc.c **** }
 251              		.loc 1 131 1 view .LVU55
 252 001e 7047     		bx	lr
 253              	.L20:
 254              		.align	2
 255              	.L19:
 256 0020 10200240 		.word	1073881104
 257 0024 E0F7FF1F 		.word	536868832
 258              		.cfi_endproc
 259              	.LFE120:
 261              		.section	.text.fmc_bank0_lock,"ax",%progbits
 262              		.align	1
 263              		.global	fmc_bank0_lock
 264              		.syntax unified
 265              		.thumb
 266              		.thumb_func
 267              		.fpu fpv4-sp-d16
 269              	fmc_bank0_lock:
 270              	.LFB121:
 132:Drivers/GD32F30x_standard_peripheral/Source/gd32f30x_fmc.c **** 
 133:Drivers/GD32F30x_standard_peripheral/Source/gd32f30x_fmc.c **** /*!
 134:Drivers/GD32F30x_standard_peripheral/Source/gd32f30x_fmc.c ****     \brief      lock the FMC bank0 operation
 135:Drivers/GD32F30x_standard_peripheral/Source/gd32f30x_fmc.c ****                 this function can be used for all GD32F30X devices.
 136:Drivers/GD32F30x_standard_peripheral/Source/gd32f30x_fmc.c ****                 for GD32F30x with flash more than 512KB, this function locks bank0.
 137:Drivers/GD32F30x_standard_peripheral/Source/gd32f30x_fmc.c ****                 for GD32F30x with flash no more than 512KB and it is equivalent to fmc_lock functio
 138:Drivers/GD32F30x_standard_peripheral/Source/gd32f30x_fmc.c ****     \param[in]  none
 139:Drivers/GD32F30x_standard_peripheral/Source/gd32f30x_fmc.c ****     \param[out] none
 140:Drivers/GD32F30x_standard_peripheral/Source/gd32f30x_fmc.c ****     \retval     none
ARM GAS  C:\Users\Prog\AppData\Local\Temp\ccKeEkXj.s 			page 8


 141:Drivers/GD32F30x_standard_peripheral/Source/gd32f30x_fmc.c **** */
 142:Drivers/GD32F30x_standard_peripheral/Source/gd32f30x_fmc.c **** void fmc_bank0_lock(void)
 143:Drivers/GD32F30x_standard_peripheral/Source/gd32f30x_fmc.c **** {
 271              		.loc 1 143 1 is_stmt 1 view -0
 272              		.cfi_startproc
 273              		@ args = 0, pretend = 0, frame = 0
 274              		@ frame_needed = 0, uses_anonymous_args = 0
 275              		@ link register save eliminated.
 144:Drivers/GD32F30x_standard_peripheral/Source/gd32f30x_fmc.c ****     /* set the LK bit*/
 145:Drivers/GD32F30x_standard_peripheral/Source/gd32f30x_fmc.c ****     FMC_CTL0 |= FMC_CTL0_LK;
 276              		.loc 1 145 5 view .LVU57
 277              		.loc 1 145 14 is_stmt 0 view .LVU58
 278 0000 024A     		ldr	r2, .L22
 279 0002 1368     		ldr	r3, [r2]
 280 0004 43F08003 		orr	r3, r3, #128
 281 0008 1360     		str	r3, [r2]
 146:Drivers/GD32F30x_standard_peripheral/Source/gd32f30x_fmc.c **** }
 282              		.loc 1 146 1 view .LVU59
 283 000a 7047     		bx	lr
 284              	.L23:
 285              		.align	2
 286              	.L22:
 287 000c 10200240 		.word	1073881104
 288              		.cfi_endproc
 289              	.LFE121:
 291              		.section	.text.fmc_bank1_lock,"ax",%progbits
 292              		.align	1
 293              		.global	fmc_bank1_lock
 294              		.syntax unified
 295              		.thumb
 296              		.thumb_func
 297              		.fpu fpv4-sp-d16
 299              	fmc_bank1_lock:
 300              	.LFB122:
 147:Drivers/GD32F30x_standard_peripheral/Source/gd32f30x_fmc.c **** 
 148:Drivers/GD32F30x_standard_peripheral/Source/gd32f30x_fmc.c **** /*!
 149:Drivers/GD32F30x_standard_peripheral/Source/gd32f30x_fmc.c ****     \brief      lock the FMC bank1 operation
 150:Drivers/GD32F30x_standard_peripheral/Source/gd32f30x_fmc.c ****                 this function can be used for GD32F30x with flash more than 512KB.
 151:Drivers/GD32F30x_standard_peripheral/Source/gd32f30x_fmc.c ****     \param[in]  none
 152:Drivers/GD32F30x_standard_peripheral/Source/gd32f30x_fmc.c ****     \param[out] none
 153:Drivers/GD32F30x_standard_peripheral/Source/gd32f30x_fmc.c ****     \retval     none
 154:Drivers/GD32F30x_standard_peripheral/Source/gd32f30x_fmc.c **** */
 155:Drivers/GD32F30x_standard_peripheral/Source/gd32f30x_fmc.c **** void fmc_bank1_lock(void)
 156:Drivers/GD32F30x_standard_peripheral/Source/gd32f30x_fmc.c **** {
 301              		.loc 1 156 1 is_stmt 1 view -0
 302              		.cfi_startproc
 303              		@ args = 0, pretend = 0, frame = 0
 304              		@ frame_needed = 0, uses_anonymous_args = 0
 305              		@ link register save eliminated.
 157:Drivers/GD32F30x_standard_peripheral/Source/gd32f30x_fmc.c ****     /* set the LK bit*/
 158:Drivers/GD32F30x_standard_peripheral/Source/gd32f30x_fmc.c ****     FMC_CTL1 |= FMC_CTL1_LK;
 306              		.loc 1 158 5 view .LVU61
 307              		.loc 1 158 14 is_stmt 0 view .LVU62
 308 0000 024A     		ldr	r2, .L25
 309 0002 1368     		ldr	r3, [r2]
 310 0004 43F08003 		orr	r3, r3, #128
 311 0008 1360     		str	r3, [r2]
ARM GAS  C:\Users\Prog\AppData\Local\Temp\ccKeEkXj.s 			page 9


 159:Drivers/GD32F30x_standard_peripheral/Source/gd32f30x_fmc.c **** }
 312              		.loc 1 159 1 view .LVU63
 313 000a 7047     		bx	lr
 314              	.L26:
 315              		.align	2
 316              	.L25:
 317 000c 50200240 		.word	1073881168
 318              		.cfi_endproc
 319              	.LFE122:
 321              		.section	.text.ob_unlock,"ax",%progbits
 322              		.align	1
 323              		.global	ob_unlock
 324              		.syntax unified
 325              		.thumb
 326              		.thumb_func
 327              		.fpu fpv4-sp-d16
 329              	ob_unlock:
 330              	.LFB130:
 160:Drivers/GD32F30x_standard_peripheral/Source/gd32f30x_fmc.c **** 
 161:Drivers/GD32F30x_standard_peripheral/Source/gd32f30x_fmc.c **** /*!
 162:Drivers/GD32F30x_standard_peripheral/Source/gd32f30x_fmc.c ****     \brief      erase page
 163:Drivers/GD32F30x_standard_peripheral/Source/gd32f30x_fmc.c ****     \param[in]  page_address: the page address to be erased.
 164:Drivers/GD32F30x_standard_peripheral/Source/gd32f30x_fmc.c ****     \param[out] none
 165:Drivers/GD32F30x_standard_peripheral/Source/gd32f30x_fmc.c ****     \retval     state of FMC, refer to fmc_state_enum
 166:Drivers/GD32F30x_standard_peripheral/Source/gd32f30x_fmc.c **** */
 167:Drivers/GD32F30x_standard_peripheral/Source/gd32f30x_fmc.c **** fmc_state_enum fmc_page_erase(uint32_t page_address)
 168:Drivers/GD32F30x_standard_peripheral/Source/gd32f30x_fmc.c **** {
 169:Drivers/GD32F30x_standard_peripheral/Source/gd32f30x_fmc.c ****     fmc_state_enum fmc_state;
 170:Drivers/GD32F30x_standard_peripheral/Source/gd32f30x_fmc.c ****     
 171:Drivers/GD32F30x_standard_peripheral/Source/gd32f30x_fmc.c ****     if(FMC_BANK0_SIZE < FMC_SIZE){
 172:Drivers/GD32F30x_standard_peripheral/Source/gd32f30x_fmc.c ****         if(FMC_BANK0_END_ADDRESS > page_address){
 173:Drivers/GD32F30x_standard_peripheral/Source/gd32f30x_fmc.c ****             fmc_state = fmc_bank0_ready_wait(FMC_TIMEOUT_COUNT);
 174:Drivers/GD32F30x_standard_peripheral/Source/gd32f30x_fmc.c ****             /* if the last operation is completed, start page erase */
 175:Drivers/GD32F30x_standard_peripheral/Source/gd32f30x_fmc.c ****             if(FMC_READY == fmc_state){
 176:Drivers/GD32F30x_standard_peripheral/Source/gd32f30x_fmc.c ****                 FMC_CTL0 |= FMC_CTL0_PER;
 177:Drivers/GD32F30x_standard_peripheral/Source/gd32f30x_fmc.c ****                 FMC_ADDR0 = page_address;
 178:Drivers/GD32F30x_standard_peripheral/Source/gd32f30x_fmc.c ****                 FMC_CTL0 |= FMC_CTL0_START;
 179:Drivers/GD32F30x_standard_peripheral/Source/gd32f30x_fmc.c ****                 /* wait for the FMC ready */
 180:Drivers/GD32F30x_standard_peripheral/Source/gd32f30x_fmc.c ****                 fmc_state = fmc_bank0_ready_wait(FMC_TIMEOUT_COUNT);
 181:Drivers/GD32F30x_standard_peripheral/Source/gd32f30x_fmc.c ****                 /* reset the PER bit */
 182:Drivers/GD32F30x_standard_peripheral/Source/gd32f30x_fmc.c ****                 FMC_CTL0 &= ~FMC_CTL0_PER;
 183:Drivers/GD32F30x_standard_peripheral/Source/gd32f30x_fmc.c ****             }
 184:Drivers/GD32F30x_standard_peripheral/Source/gd32f30x_fmc.c ****         }else{
 185:Drivers/GD32F30x_standard_peripheral/Source/gd32f30x_fmc.c ****             /* wait for the FMC ready */
 186:Drivers/GD32F30x_standard_peripheral/Source/gd32f30x_fmc.c ****             fmc_state = fmc_bank1_ready_wait(FMC_TIMEOUT_COUNT);
 187:Drivers/GD32F30x_standard_peripheral/Source/gd32f30x_fmc.c ****             /* if the last operation is completed, start page erase */
 188:Drivers/GD32F30x_standard_peripheral/Source/gd32f30x_fmc.c ****             if(FMC_READY == fmc_state){
 189:Drivers/GD32F30x_standard_peripheral/Source/gd32f30x_fmc.c ****                 FMC_CTL1 |= FMC_CTL1_PER;
 190:Drivers/GD32F30x_standard_peripheral/Source/gd32f30x_fmc.c ****                 FMC_ADDR1 = page_address;
 191:Drivers/GD32F30x_standard_peripheral/Source/gd32f30x_fmc.c ****                 if(FMC_OBSTAT & FMC_OBSTAT_SPC){
 192:Drivers/GD32F30x_standard_peripheral/Source/gd32f30x_fmc.c ****                     FMC_ADDR0 = page_address;
 193:Drivers/GD32F30x_standard_peripheral/Source/gd32f30x_fmc.c ****                 }
 194:Drivers/GD32F30x_standard_peripheral/Source/gd32f30x_fmc.c ****                 FMC_CTL1 |= FMC_CTL1_START;
 195:Drivers/GD32F30x_standard_peripheral/Source/gd32f30x_fmc.c ****                 /* wait for the FMC ready */
 196:Drivers/GD32F30x_standard_peripheral/Source/gd32f30x_fmc.c ****                 fmc_state = fmc_bank1_ready_wait(FMC_TIMEOUT_COUNT);
 197:Drivers/GD32F30x_standard_peripheral/Source/gd32f30x_fmc.c ****                 /* reset the PER bit */
 198:Drivers/GD32F30x_standard_peripheral/Source/gd32f30x_fmc.c ****                 FMC_CTL1 &= ~FMC_CTL1_PER;
ARM GAS  C:\Users\Prog\AppData\Local\Temp\ccKeEkXj.s 			page 10


 199:Drivers/GD32F30x_standard_peripheral/Source/gd32f30x_fmc.c ****             }
 200:Drivers/GD32F30x_standard_peripheral/Source/gd32f30x_fmc.c ****         }
 201:Drivers/GD32F30x_standard_peripheral/Source/gd32f30x_fmc.c ****     }else{
 202:Drivers/GD32F30x_standard_peripheral/Source/gd32f30x_fmc.c ****         fmc_state = fmc_bank0_ready_wait(FMC_TIMEOUT_COUNT);
 203:Drivers/GD32F30x_standard_peripheral/Source/gd32f30x_fmc.c ****         /* if the last operation is completed, start page erase */
 204:Drivers/GD32F30x_standard_peripheral/Source/gd32f30x_fmc.c ****         if(FMC_READY == fmc_state){
 205:Drivers/GD32F30x_standard_peripheral/Source/gd32f30x_fmc.c ****             FMC_CTL0 |= FMC_CTL0_PER;
 206:Drivers/GD32F30x_standard_peripheral/Source/gd32f30x_fmc.c ****             FMC_ADDR0 = page_address;
 207:Drivers/GD32F30x_standard_peripheral/Source/gd32f30x_fmc.c ****             FMC_CTL0 |= FMC_CTL0_START;
 208:Drivers/GD32F30x_standard_peripheral/Source/gd32f30x_fmc.c ****             /* wait for the FMC ready */
 209:Drivers/GD32F30x_standard_peripheral/Source/gd32f30x_fmc.c ****             fmc_state = fmc_bank0_ready_wait(FMC_TIMEOUT_COUNT);
 210:Drivers/GD32F30x_standard_peripheral/Source/gd32f30x_fmc.c ****             /* reset the PER bit */
 211:Drivers/GD32F30x_standard_peripheral/Source/gd32f30x_fmc.c ****             FMC_CTL0 &= ~FMC_CTL0_PER;
 212:Drivers/GD32F30x_standard_peripheral/Source/gd32f30x_fmc.c ****         }
 213:Drivers/GD32F30x_standard_peripheral/Source/gd32f30x_fmc.c ****     }
 214:Drivers/GD32F30x_standard_peripheral/Source/gd32f30x_fmc.c ****     /* return the FMC state */
 215:Drivers/GD32F30x_standard_peripheral/Source/gd32f30x_fmc.c ****     return fmc_state;
 216:Drivers/GD32F30x_standard_peripheral/Source/gd32f30x_fmc.c **** }
 217:Drivers/GD32F30x_standard_peripheral/Source/gd32f30x_fmc.c **** 
 218:Drivers/GD32F30x_standard_peripheral/Source/gd32f30x_fmc.c **** /*!
 219:Drivers/GD32F30x_standard_peripheral/Source/gd32f30x_fmc.c ****     \brief      erase whole chip
 220:Drivers/GD32F30x_standard_peripheral/Source/gd32f30x_fmc.c ****     \param[in]  none
 221:Drivers/GD32F30x_standard_peripheral/Source/gd32f30x_fmc.c ****     \param[out] none
 222:Drivers/GD32F30x_standard_peripheral/Source/gd32f30x_fmc.c ****     \retval     state of FMC, refer to fmc_state_enum
 223:Drivers/GD32F30x_standard_peripheral/Source/gd32f30x_fmc.c **** */
 224:Drivers/GD32F30x_standard_peripheral/Source/gd32f30x_fmc.c **** fmc_state_enum fmc_mass_erase(void)
 225:Drivers/GD32F30x_standard_peripheral/Source/gd32f30x_fmc.c **** {
 226:Drivers/GD32F30x_standard_peripheral/Source/gd32f30x_fmc.c ****     fmc_state_enum fmc_state;
 227:Drivers/GD32F30x_standard_peripheral/Source/gd32f30x_fmc.c ****     if(FMC_BANK0_SIZE < FMC_SIZE){
 228:Drivers/GD32F30x_standard_peripheral/Source/gd32f30x_fmc.c ****         /* wait for the FMC ready */
 229:Drivers/GD32F30x_standard_peripheral/Source/gd32f30x_fmc.c ****         fmc_state = fmc_bank0_ready_wait(FMC_TIMEOUT_COUNT);
 230:Drivers/GD32F30x_standard_peripheral/Source/gd32f30x_fmc.c ****         if(FMC_READY == fmc_state){
 231:Drivers/GD32F30x_standard_peripheral/Source/gd32f30x_fmc.c ****             /* start whole chip erase */
 232:Drivers/GD32F30x_standard_peripheral/Source/gd32f30x_fmc.c ****             FMC_CTL0 |= FMC_CTL0_MER;
 233:Drivers/GD32F30x_standard_peripheral/Source/gd32f30x_fmc.c ****             FMC_CTL0 |= FMC_CTL0_START;
 234:Drivers/GD32F30x_standard_peripheral/Source/gd32f30x_fmc.c ****             /* wait for the FMC ready */
 235:Drivers/GD32F30x_standard_peripheral/Source/gd32f30x_fmc.c ****             fmc_state = fmc_bank0_ready_wait(FMC_TIMEOUT_COUNT);
 236:Drivers/GD32F30x_standard_peripheral/Source/gd32f30x_fmc.c ****             if(FMC_READY != fmc_state){
 237:Drivers/GD32F30x_standard_peripheral/Source/gd32f30x_fmc.c ****                 return fmc_state;
 238:Drivers/GD32F30x_standard_peripheral/Source/gd32f30x_fmc.c ****             }
 239:Drivers/GD32F30x_standard_peripheral/Source/gd32f30x_fmc.c ****             /* reset the MER bit */
 240:Drivers/GD32F30x_standard_peripheral/Source/gd32f30x_fmc.c ****             FMC_CTL0 &= ~FMC_CTL0_MER;
 241:Drivers/GD32F30x_standard_peripheral/Source/gd32f30x_fmc.c ****         }
 242:Drivers/GD32F30x_standard_peripheral/Source/gd32f30x_fmc.c ****         fmc_state = fmc_bank1_ready_wait(FMC_TIMEOUT_COUNT);
 243:Drivers/GD32F30x_standard_peripheral/Source/gd32f30x_fmc.c ****         if(FMC_READY == fmc_state){
 244:Drivers/GD32F30x_standard_peripheral/Source/gd32f30x_fmc.c ****             /* start whole chip erase */
 245:Drivers/GD32F30x_standard_peripheral/Source/gd32f30x_fmc.c ****             FMC_CTL1 |= FMC_CTL1_MER;
 246:Drivers/GD32F30x_standard_peripheral/Source/gd32f30x_fmc.c ****             FMC_CTL1 |= FMC_CTL1_START;
 247:Drivers/GD32F30x_standard_peripheral/Source/gd32f30x_fmc.c ****             /* wait for the FMC ready */
 248:Drivers/GD32F30x_standard_peripheral/Source/gd32f30x_fmc.c ****             fmc_state = fmc_bank1_ready_wait(FMC_TIMEOUT_COUNT);
 249:Drivers/GD32F30x_standard_peripheral/Source/gd32f30x_fmc.c ****             /* reset the MER bit */
 250:Drivers/GD32F30x_standard_peripheral/Source/gd32f30x_fmc.c ****             FMC_CTL1 &= ~FMC_CTL1_MER;
 251:Drivers/GD32F30x_standard_peripheral/Source/gd32f30x_fmc.c ****         }
 252:Drivers/GD32F30x_standard_peripheral/Source/gd32f30x_fmc.c ****     }else{
 253:Drivers/GD32F30x_standard_peripheral/Source/gd32f30x_fmc.c ****         fmc_state = fmc_bank0_ready_wait(FMC_TIMEOUT_COUNT);
 254:Drivers/GD32F30x_standard_peripheral/Source/gd32f30x_fmc.c ****         if(FMC_READY == fmc_state){
 255:Drivers/GD32F30x_standard_peripheral/Source/gd32f30x_fmc.c ****             /* start whole chip erase */
ARM GAS  C:\Users\Prog\AppData\Local\Temp\ccKeEkXj.s 			page 11


 256:Drivers/GD32F30x_standard_peripheral/Source/gd32f30x_fmc.c ****             FMC_CTL0 |= FMC_CTL0_MER;
 257:Drivers/GD32F30x_standard_peripheral/Source/gd32f30x_fmc.c ****             FMC_CTL0 |= FMC_CTL0_START;    
 258:Drivers/GD32F30x_standard_peripheral/Source/gd32f30x_fmc.c ****             /* wait for the FMC ready */
 259:Drivers/GD32F30x_standard_peripheral/Source/gd32f30x_fmc.c ****             fmc_state = fmc_bank0_ready_wait(FMC_TIMEOUT_COUNT);
 260:Drivers/GD32F30x_standard_peripheral/Source/gd32f30x_fmc.c ****             /* reset the MER bit */
 261:Drivers/GD32F30x_standard_peripheral/Source/gd32f30x_fmc.c ****             FMC_CTL0 &= ~FMC_CTL0_MER;
 262:Drivers/GD32F30x_standard_peripheral/Source/gd32f30x_fmc.c ****         }
 263:Drivers/GD32F30x_standard_peripheral/Source/gd32f30x_fmc.c ****     }
 264:Drivers/GD32F30x_standard_peripheral/Source/gd32f30x_fmc.c ****     /* return the FMC state  */
 265:Drivers/GD32F30x_standard_peripheral/Source/gd32f30x_fmc.c ****     return fmc_state;
 266:Drivers/GD32F30x_standard_peripheral/Source/gd32f30x_fmc.c **** }
 267:Drivers/GD32F30x_standard_peripheral/Source/gd32f30x_fmc.c **** 
 268:Drivers/GD32F30x_standard_peripheral/Source/gd32f30x_fmc.c **** /*!
 269:Drivers/GD32F30x_standard_peripheral/Source/gd32f30x_fmc.c ****     \brief      erase bank0
 270:Drivers/GD32F30x_standard_peripheral/Source/gd32f30x_fmc.c ****     \param[in]  none
 271:Drivers/GD32F30x_standard_peripheral/Source/gd32f30x_fmc.c ****     \param[out] none
 272:Drivers/GD32F30x_standard_peripheral/Source/gd32f30x_fmc.c ****     \retval     state of FMC, refer to fmc_state_enum
 273:Drivers/GD32F30x_standard_peripheral/Source/gd32f30x_fmc.c **** */
 274:Drivers/GD32F30x_standard_peripheral/Source/gd32f30x_fmc.c **** fmc_state_enum fmc_bank0_erase(void)
 275:Drivers/GD32F30x_standard_peripheral/Source/gd32f30x_fmc.c **** {
 276:Drivers/GD32F30x_standard_peripheral/Source/gd32f30x_fmc.c ****     fmc_state_enum fmc_state = FMC_READY;
 277:Drivers/GD32F30x_standard_peripheral/Source/gd32f30x_fmc.c ****     /* wait for the FMC ready */
 278:Drivers/GD32F30x_standard_peripheral/Source/gd32f30x_fmc.c ****     fmc_state = fmc_bank0_ready_wait(FMC_TIMEOUT_COUNT);
 279:Drivers/GD32F30x_standard_peripheral/Source/gd32f30x_fmc.c **** 
 280:Drivers/GD32F30x_standard_peripheral/Source/gd32f30x_fmc.c ****     if(FMC_READY == fmc_state){
 281:Drivers/GD32F30x_standard_peripheral/Source/gd32f30x_fmc.c ****         /* start FMC bank0 erase */
 282:Drivers/GD32F30x_standard_peripheral/Source/gd32f30x_fmc.c ****         FMC_CTL0 |= FMC_CTL0_MER;
 283:Drivers/GD32F30x_standard_peripheral/Source/gd32f30x_fmc.c ****         FMC_CTL0 |= FMC_CTL0_START;
 284:Drivers/GD32F30x_standard_peripheral/Source/gd32f30x_fmc.c ****         /* wait for the FMC ready */
 285:Drivers/GD32F30x_standard_peripheral/Source/gd32f30x_fmc.c ****         fmc_state = fmc_bank0_ready_wait(FMC_TIMEOUT_COUNT);
 286:Drivers/GD32F30x_standard_peripheral/Source/gd32f30x_fmc.c ****         /* reset the MER bit */
 287:Drivers/GD32F30x_standard_peripheral/Source/gd32f30x_fmc.c ****         FMC_CTL0 &= ~FMC_CTL0_MER;
 288:Drivers/GD32F30x_standard_peripheral/Source/gd32f30x_fmc.c ****     }
 289:Drivers/GD32F30x_standard_peripheral/Source/gd32f30x_fmc.c ****     /* return the fmc state */
 290:Drivers/GD32F30x_standard_peripheral/Source/gd32f30x_fmc.c ****     return fmc_state;
 291:Drivers/GD32F30x_standard_peripheral/Source/gd32f30x_fmc.c **** }
 292:Drivers/GD32F30x_standard_peripheral/Source/gd32f30x_fmc.c **** 
 293:Drivers/GD32F30x_standard_peripheral/Source/gd32f30x_fmc.c **** /*!
 294:Drivers/GD32F30x_standard_peripheral/Source/gd32f30x_fmc.c ****     \brief      erase bank1
 295:Drivers/GD32F30x_standard_peripheral/Source/gd32f30x_fmc.c ****     \param[in]  none
 296:Drivers/GD32F30x_standard_peripheral/Source/gd32f30x_fmc.c ****     \param[out] none
 297:Drivers/GD32F30x_standard_peripheral/Source/gd32f30x_fmc.c ****     \retval     state of FMC, refer to fmc_state_enum
 298:Drivers/GD32F30x_standard_peripheral/Source/gd32f30x_fmc.c **** */
 299:Drivers/GD32F30x_standard_peripheral/Source/gd32f30x_fmc.c **** fmc_state_enum fmc_bank1_erase(void)
 300:Drivers/GD32F30x_standard_peripheral/Source/gd32f30x_fmc.c **** {
 301:Drivers/GD32F30x_standard_peripheral/Source/gd32f30x_fmc.c ****     fmc_state_enum fmc_state = FMC_READY;
 302:Drivers/GD32F30x_standard_peripheral/Source/gd32f30x_fmc.c ****     /* wait for the FMC ready */
 303:Drivers/GD32F30x_standard_peripheral/Source/gd32f30x_fmc.c ****     fmc_state = fmc_bank1_ready_wait(FMC_TIMEOUT_COUNT);
 304:Drivers/GD32F30x_standard_peripheral/Source/gd32f30x_fmc.c ****   
 305:Drivers/GD32F30x_standard_peripheral/Source/gd32f30x_fmc.c ****    if(FMC_READY == fmc_state){
 306:Drivers/GD32F30x_standard_peripheral/Source/gd32f30x_fmc.c ****         /* start FMC bank1 erase */
 307:Drivers/GD32F30x_standard_peripheral/Source/gd32f30x_fmc.c ****         FMC_CTL1 |= FMC_CTL1_MER;
 308:Drivers/GD32F30x_standard_peripheral/Source/gd32f30x_fmc.c ****         FMC_CTL1 |= FMC_CTL1_START;
 309:Drivers/GD32F30x_standard_peripheral/Source/gd32f30x_fmc.c ****         /* wait for the FMC ready */
 310:Drivers/GD32F30x_standard_peripheral/Source/gd32f30x_fmc.c ****         fmc_state = fmc_bank1_ready_wait(FMC_TIMEOUT_COUNT);
 311:Drivers/GD32F30x_standard_peripheral/Source/gd32f30x_fmc.c ****         /* reset the MER bit */
 312:Drivers/GD32F30x_standard_peripheral/Source/gd32f30x_fmc.c ****         FMC_CTL1 &= ~FMC_CTL1_MER;
ARM GAS  C:\Users\Prog\AppData\Local\Temp\ccKeEkXj.s 			page 12


 313:Drivers/GD32F30x_standard_peripheral/Source/gd32f30x_fmc.c ****     }
 314:Drivers/GD32F30x_standard_peripheral/Source/gd32f30x_fmc.c ****     /* return the fmc state */
 315:Drivers/GD32F30x_standard_peripheral/Source/gd32f30x_fmc.c ****     return fmc_state;
 316:Drivers/GD32F30x_standard_peripheral/Source/gd32f30x_fmc.c **** }
 317:Drivers/GD32F30x_standard_peripheral/Source/gd32f30x_fmc.c **** 
 318:Drivers/GD32F30x_standard_peripheral/Source/gd32f30x_fmc.c **** /*!
 319:Drivers/GD32F30x_standard_peripheral/Source/gd32f30x_fmc.c ****     \brief      program a word at the corresponding address
 320:Drivers/GD32F30x_standard_peripheral/Source/gd32f30x_fmc.c ****     \param[in]  address: address to program
 321:Drivers/GD32F30x_standard_peripheral/Source/gd32f30x_fmc.c ****     \param[in]  data: word to program
 322:Drivers/GD32F30x_standard_peripheral/Source/gd32f30x_fmc.c ****     \param[out] none
 323:Drivers/GD32F30x_standard_peripheral/Source/gd32f30x_fmc.c ****     \retval     state of FMC, refer to fmc_state_enum
 324:Drivers/GD32F30x_standard_peripheral/Source/gd32f30x_fmc.c **** */
 325:Drivers/GD32F30x_standard_peripheral/Source/gd32f30x_fmc.c **** fmc_state_enum fmc_word_program(uint32_t address, uint32_t data)
 326:Drivers/GD32F30x_standard_peripheral/Source/gd32f30x_fmc.c **** {
 327:Drivers/GD32F30x_standard_peripheral/Source/gd32f30x_fmc.c ****     fmc_state_enum fmc_state = FMC_READY;
 328:Drivers/GD32F30x_standard_peripheral/Source/gd32f30x_fmc.c ****     if(FMC_BANK0_SIZE < FMC_SIZE){
 329:Drivers/GD32F30x_standard_peripheral/Source/gd32f30x_fmc.c ****         if(FMC_BANK0_END_ADDRESS > address){
 330:Drivers/GD32F30x_standard_peripheral/Source/gd32f30x_fmc.c ****             fmc_state = fmc_bank0_ready_wait(FMC_TIMEOUT_COUNT); 
 331:Drivers/GD32F30x_standard_peripheral/Source/gd32f30x_fmc.c ****   
 332:Drivers/GD32F30x_standard_peripheral/Source/gd32f30x_fmc.c ****             if(FMC_READY == fmc_state){
 333:Drivers/GD32F30x_standard_peripheral/Source/gd32f30x_fmc.c ****                 /* set the PG bit to start program */
 334:Drivers/GD32F30x_standard_peripheral/Source/gd32f30x_fmc.c ****                 FMC_CTL0 |= FMC_CTL0_PG;
 335:Drivers/GD32F30x_standard_peripheral/Source/gd32f30x_fmc.c ****                 REG32(address) = data;
 336:Drivers/GD32F30x_standard_peripheral/Source/gd32f30x_fmc.c ****                 /* wait for the FMC ready */
 337:Drivers/GD32F30x_standard_peripheral/Source/gd32f30x_fmc.c ****                 fmc_state = fmc_bank0_ready_wait(FMC_TIMEOUT_COUNT);
 338:Drivers/GD32F30x_standard_peripheral/Source/gd32f30x_fmc.c ****                 /* reset the PG bit */
 339:Drivers/GD32F30x_standard_peripheral/Source/gd32f30x_fmc.c ****                 FMC_CTL0 &= ~FMC_CTL0_PG;
 340:Drivers/GD32F30x_standard_peripheral/Source/gd32f30x_fmc.c ****             }
 341:Drivers/GD32F30x_standard_peripheral/Source/gd32f30x_fmc.c ****         }else{
 342:Drivers/GD32F30x_standard_peripheral/Source/gd32f30x_fmc.c ****             fmc_state = fmc_bank1_ready_wait(FMC_TIMEOUT_COUNT); 
 343:Drivers/GD32F30x_standard_peripheral/Source/gd32f30x_fmc.c ****   
 344:Drivers/GD32F30x_standard_peripheral/Source/gd32f30x_fmc.c ****             if(FMC_READY == fmc_state){
 345:Drivers/GD32F30x_standard_peripheral/Source/gd32f30x_fmc.c ****                 /* set the PG bit to start program */
 346:Drivers/GD32F30x_standard_peripheral/Source/gd32f30x_fmc.c ****                 FMC_CTL1 |= FMC_CTL1_PG;
 347:Drivers/GD32F30x_standard_peripheral/Source/gd32f30x_fmc.c ****                 REG32(address) = data;
 348:Drivers/GD32F30x_standard_peripheral/Source/gd32f30x_fmc.c ****                 /* wait for the FMC ready */
 349:Drivers/GD32F30x_standard_peripheral/Source/gd32f30x_fmc.c ****                 fmc_state = fmc_bank1_ready_wait(FMC_TIMEOUT_COUNT);
 350:Drivers/GD32F30x_standard_peripheral/Source/gd32f30x_fmc.c ****                 /* reset the PG bit */
 351:Drivers/GD32F30x_standard_peripheral/Source/gd32f30x_fmc.c ****                 FMC_CTL1 &= ~FMC_CTL1_PG;
 352:Drivers/GD32F30x_standard_peripheral/Source/gd32f30x_fmc.c ****             }
 353:Drivers/GD32F30x_standard_peripheral/Source/gd32f30x_fmc.c ****         }
 354:Drivers/GD32F30x_standard_peripheral/Source/gd32f30x_fmc.c ****     }else{
 355:Drivers/GD32F30x_standard_peripheral/Source/gd32f30x_fmc.c ****         fmc_state = fmc_bank0_ready_wait(FMC_TIMEOUT_COUNT);
 356:Drivers/GD32F30x_standard_peripheral/Source/gd32f30x_fmc.c ****   
 357:Drivers/GD32F30x_standard_peripheral/Source/gd32f30x_fmc.c ****         if(FMC_READY == fmc_state){
 358:Drivers/GD32F30x_standard_peripheral/Source/gd32f30x_fmc.c ****             /* set the PG bit to start program */
 359:Drivers/GD32F30x_standard_peripheral/Source/gd32f30x_fmc.c ****             FMC_CTL0 |= FMC_CTL0_PG;
 360:Drivers/GD32F30x_standard_peripheral/Source/gd32f30x_fmc.c ****             REG32(address) = data;
 361:Drivers/GD32F30x_standard_peripheral/Source/gd32f30x_fmc.c ****             /* wait for the FMC ready */
 362:Drivers/GD32F30x_standard_peripheral/Source/gd32f30x_fmc.c ****             fmc_state = fmc_bank0_ready_wait(FMC_TIMEOUT_COUNT);
 363:Drivers/GD32F30x_standard_peripheral/Source/gd32f30x_fmc.c ****             /* reset the PG bit */
 364:Drivers/GD32F30x_standard_peripheral/Source/gd32f30x_fmc.c ****             FMC_CTL0 &= ~FMC_CTL0_PG;
 365:Drivers/GD32F30x_standard_peripheral/Source/gd32f30x_fmc.c ****         } 
 366:Drivers/GD32F30x_standard_peripheral/Source/gd32f30x_fmc.c ****     }
 367:Drivers/GD32F30x_standard_peripheral/Source/gd32f30x_fmc.c ****     /* return the FMC state */
 368:Drivers/GD32F30x_standard_peripheral/Source/gd32f30x_fmc.c ****     return fmc_state;
 369:Drivers/GD32F30x_standard_peripheral/Source/gd32f30x_fmc.c **** }
ARM GAS  C:\Users\Prog\AppData\Local\Temp\ccKeEkXj.s 			page 13


 370:Drivers/GD32F30x_standard_peripheral/Source/gd32f30x_fmc.c **** 
 371:Drivers/GD32F30x_standard_peripheral/Source/gd32f30x_fmc.c **** /*!
 372:Drivers/GD32F30x_standard_peripheral/Source/gd32f30x_fmc.c ****     \brief      program a half word at the corresponding address
 373:Drivers/GD32F30x_standard_peripheral/Source/gd32f30x_fmc.c ****     \param[in]  address: address to program
 374:Drivers/GD32F30x_standard_peripheral/Source/gd32f30x_fmc.c ****     \param[in]  data: halfword to program
 375:Drivers/GD32F30x_standard_peripheral/Source/gd32f30x_fmc.c ****     \param[out] none
 376:Drivers/GD32F30x_standard_peripheral/Source/gd32f30x_fmc.c ****     \retval     state of FMC, refer to fmc_state_enum
 377:Drivers/GD32F30x_standard_peripheral/Source/gd32f30x_fmc.c **** */
 378:Drivers/GD32F30x_standard_peripheral/Source/gd32f30x_fmc.c **** fmc_state_enum fmc_halfword_program(uint32_t address, uint16_t data)
 379:Drivers/GD32F30x_standard_peripheral/Source/gd32f30x_fmc.c **** {
 380:Drivers/GD32F30x_standard_peripheral/Source/gd32f30x_fmc.c ****     fmc_state_enum fmc_state = FMC_READY;
 381:Drivers/GD32F30x_standard_peripheral/Source/gd32f30x_fmc.c ****     if(FMC_BANK0_SIZE < FMC_SIZE){
 382:Drivers/GD32F30x_standard_peripheral/Source/gd32f30x_fmc.c ****         if(FMC_BANK0_END_ADDRESS > address){
 383:Drivers/GD32F30x_standard_peripheral/Source/gd32f30x_fmc.c ****             fmc_state = fmc_bank0_ready_wait(FMC_TIMEOUT_COUNT); 
 384:Drivers/GD32F30x_standard_peripheral/Source/gd32f30x_fmc.c ****   
 385:Drivers/GD32F30x_standard_peripheral/Source/gd32f30x_fmc.c ****             if(FMC_READY == fmc_state){
 386:Drivers/GD32F30x_standard_peripheral/Source/gd32f30x_fmc.c ****                 /* set the PG bit to start program */
 387:Drivers/GD32F30x_standard_peripheral/Source/gd32f30x_fmc.c ****                 FMC_CTL0 |= FMC_CTL0_PG;
 388:Drivers/GD32F30x_standard_peripheral/Source/gd32f30x_fmc.c ****                 REG16(address) = data;
 389:Drivers/GD32F30x_standard_peripheral/Source/gd32f30x_fmc.c ****                 /* wait for the FMC ready */
 390:Drivers/GD32F30x_standard_peripheral/Source/gd32f30x_fmc.c ****                 fmc_state = fmc_bank0_ready_wait(FMC_TIMEOUT_COUNT);
 391:Drivers/GD32F30x_standard_peripheral/Source/gd32f30x_fmc.c ****                 /* reset the PG bit */
 392:Drivers/GD32F30x_standard_peripheral/Source/gd32f30x_fmc.c ****                 FMC_CTL0 &= ~FMC_CTL0_PG;
 393:Drivers/GD32F30x_standard_peripheral/Source/gd32f30x_fmc.c ****             }
 394:Drivers/GD32F30x_standard_peripheral/Source/gd32f30x_fmc.c ****         }else{
 395:Drivers/GD32F30x_standard_peripheral/Source/gd32f30x_fmc.c ****             fmc_state = fmc_bank1_ready_wait(FMC_TIMEOUT_COUNT); 
 396:Drivers/GD32F30x_standard_peripheral/Source/gd32f30x_fmc.c ****   
 397:Drivers/GD32F30x_standard_peripheral/Source/gd32f30x_fmc.c ****             if(FMC_READY == fmc_state){
 398:Drivers/GD32F30x_standard_peripheral/Source/gd32f30x_fmc.c ****                 /* set the PG bit to start program */
 399:Drivers/GD32F30x_standard_peripheral/Source/gd32f30x_fmc.c ****                 FMC_CTL1 |= FMC_CTL1_PG;
 400:Drivers/GD32F30x_standard_peripheral/Source/gd32f30x_fmc.c ****                 REG16(address) = data;
 401:Drivers/GD32F30x_standard_peripheral/Source/gd32f30x_fmc.c ****                 /* wait for the FMC ready */
 402:Drivers/GD32F30x_standard_peripheral/Source/gd32f30x_fmc.c ****                 fmc_state = fmc_bank1_ready_wait(FMC_TIMEOUT_COUNT);
 403:Drivers/GD32F30x_standard_peripheral/Source/gd32f30x_fmc.c ****                 /* reset the PG bit */
 404:Drivers/GD32F30x_standard_peripheral/Source/gd32f30x_fmc.c ****                 FMC_CTL1 &= ~FMC_CTL1_PG;
 405:Drivers/GD32F30x_standard_peripheral/Source/gd32f30x_fmc.c ****             }
 406:Drivers/GD32F30x_standard_peripheral/Source/gd32f30x_fmc.c ****         }
 407:Drivers/GD32F30x_standard_peripheral/Source/gd32f30x_fmc.c ****     }else{
 408:Drivers/GD32F30x_standard_peripheral/Source/gd32f30x_fmc.c ****         fmc_state = fmc_bank0_ready_wait(FMC_TIMEOUT_COUNT);
 409:Drivers/GD32F30x_standard_peripheral/Source/gd32f30x_fmc.c ****   
 410:Drivers/GD32F30x_standard_peripheral/Source/gd32f30x_fmc.c ****         if(FMC_READY == fmc_state){
 411:Drivers/GD32F30x_standard_peripheral/Source/gd32f30x_fmc.c ****             /* set the PG bit to start program */
 412:Drivers/GD32F30x_standard_peripheral/Source/gd32f30x_fmc.c ****             FMC_CTL0 |= FMC_CTL0_PG;
 413:Drivers/GD32F30x_standard_peripheral/Source/gd32f30x_fmc.c ****             REG16(address) = data;
 414:Drivers/GD32F30x_standard_peripheral/Source/gd32f30x_fmc.c ****             /* wait for the FMC ready */
 415:Drivers/GD32F30x_standard_peripheral/Source/gd32f30x_fmc.c ****             fmc_state = fmc_bank0_ready_wait(FMC_TIMEOUT_COUNT);
 416:Drivers/GD32F30x_standard_peripheral/Source/gd32f30x_fmc.c ****             /* reset the PG bit */
 417:Drivers/GD32F30x_standard_peripheral/Source/gd32f30x_fmc.c ****             FMC_CTL0 &= ~FMC_CTL0_PG;
 418:Drivers/GD32F30x_standard_peripheral/Source/gd32f30x_fmc.c ****         } 
 419:Drivers/GD32F30x_standard_peripheral/Source/gd32f30x_fmc.c ****     }
 420:Drivers/GD32F30x_standard_peripheral/Source/gd32f30x_fmc.c ****     /* return the FMC state */
 421:Drivers/GD32F30x_standard_peripheral/Source/gd32f30x_fmc.c ****     return fmc_state;
 422:Drivers/GD32F30x_standard_peripheral/Source/gd32f30x_fmc.c **** }
 423:Drivers/GD32F30x_standard_peripheral/Source/gd32f30x_fmc.c **** 
 424:Drivers/GD32F30x_standard_peripheral/Source/gd32f30x_fmc.c **** /*!
 425:Drivers/GD32F30x_standard_peripheral/Source/gd32f30x_fmc.c ****     \brief      program a word at the corresponding address without erasing
 426:Drivers/GD32F30x_standard_peripheral/Source/gd32f30x_fmc.c ****     \param[in]  address: address to program
ARM GAS  C:\Users\Prog\AppData\Local\Temp\ccKeEkXj.s 			page 14


 427:Drivers/GD32F30x_standard_peripheral/Source/gd32f30x_fmc.c ****     \param[in]  data: word to program
 428:Drivers/GD32F30x_standard_peripheral/Source/gd32f30x_fmc.c ****     \param[out] none
 429:Drivers/GD32F30x_standard_peripheral/Source/gd32f30x_fmc.c ****     \retval     fmc_state
 430:Drivers/GD32F30x_standard_peripheral/Source/gd32f30x_fmc.c **** */
 431:Drivers/GD32F30x_standard_peripheral/Source/gd32f30x_fmc.c **** fmc_state_enum fmc_word_reprogram(uint32_t address, uint32_t data)
 432:Drivers/GD32F30x_standard_peripheral/Source/gd32f30x_fmc.c **** {
 433:Drivers/GD32F30x_standard_peripheral/Source/gd32f30x_fmc.c ****     fmc_state_enum fmc_state = FMC_READY;
 434:Drivers/GD32F30x_standard_peripheral/Source/gd32f30x_fmc.c ****     if(FMC_BANK0_SIZE < FMC_SIZE){
 435:Drivers/GD32F30x_standard_peripheral/Source/gd32f30x_fmc.c ****         if(FMC_BANK0_END_ADDRESS > address){
 436:Drivers/GD32F30x_standard_peripheral/Source/gd32f30x_fmc.c ****             fmc_state = fmc_bank0_ready_wait(FMC_TIMEOUT_COUNT); 
 437:Drivers/GD32F30x_standard_peripheral/Source/gd32f30x_fmc.c ****             FMC_WSEN |= FMC_WSEN_BPEN;
 438:Drivers/GD32F30x_standard_peripheral/Source/gd32f30x_fmc.c ****             if(FMC_READY == fmc_state){
 439:Drivers/GD32F30x_standard_peripheral/Source/gd32f30x_fmc.c ****                 /* set the PG bit to start program */
 440:Drivers/GD32F30x_standard_peripheral/Source/gd32f30x_fmc.c ****                 FMC_CTL0 |= FMC_CTL0_PG;
 441:Drivers/GD32F30x_standard_peripheral/Source/gd32f30x_fmc.c ****                 REG32(address) = data;
 442:Drivers/GD32F30x_standard_peripheral/Source/gd32f30x_fmc.c ****                 /* wait for the FMC ready */
 443:Drivers/GD32F30x_standard_peripheral/Source/gd32f30x_fmc.c ****                 fmc_state = fmc_bank0_ready_wait(FMC_TIMEOUT_COUNT);
 444:Drivers/GD32F30x_standard_peripheral/Source/gd32f30x_fmc.c ****                 /* reset the PG bit */
 445:Drivers/GD32F30x_standard_peripheral/Source/gd32f30x_fmc.c ****                 FMC_CTL0 &= ~FMC_CTL0_PG;
 446:Drivers/GD32F30x_standard_peripheral/Source/gd32f30x_fmc.c ****             }
 447:Drivers/GD32F30x_standard_peripheral/Source/gd32f30x_fmc.c ****         }else{
 448:Drivers/GD32F30x_standard_peripheral/Source/gd32f30x_fmc.c ****             fmc_state = fmc_bank1_ready_wait(FMC_TIMEOUT_COUNT); 
 449:Drivers/GD32F30x_standard_peripheral/Source/gd32f30x_fmc.c ****             FMC_WSEN |= FMC_WSEN_BPEN;
 450:Drivers/GD32F30x_standard_peripheral/Source/gd32f30x_fmc.c ****             if(FMC_READY == fmc_state){
 451:Drivers/GD32F30x_standard_peripheral/Source/gd32f30x_fmc.c ****                 /* set the PG bit to start program */
 452:Drivers/GD32F30x_standard_peripheral/Source/gd32f30x_fmc.c ****                 FMC_CTL1 |= FMC_CTL1_PG;
 453:Drivers/GD32F30x_standard_peripheral/Source/gd32f30x_fmc.c ****                 REG32(address) = data;
 454:Drivers/GD32F30x_standard_peripheral/Source/gd32f30x_fmc.c ****                 /* wait for the FMC ready */
 455:Drivers/GD32F30x_standard_peripheral/Source/gd32f30x_fmc.c ****                 fmc_state = fmc_bank1_ready_wait(FMC_TIMEOUT_COUNT);
 456:Drivers/GD32F30x_standard_peripheral/Source/gd32f30x_fmc.c ****                 /* reset the PG bit */
 457:Drivers/GD32F30x_standard_peripheral/Source/gd32f30x_fmc.c ****                 FMC_CTL1 &= ~FMC_CTL1_PG;
 458:Drivers/GD32F30x_standard_peripheral/Source/gd32f30x_fmc.c ****             }
 459:Drivers/GD32F30x_standard_peripheral/Source/gd32f30x_fmc.c ****         }
 460:Drivers/GD32F30x_standard_peripheral/Source/gd32f30x_fmc.c ****     }else{
 461:Drivers/GD32F30x_standard_peripheral/Source/gd32f30x_fmc.c ****         fmc_state = fmc_bank0_ready_wait(FMC_TIMEOUT_COUNT);
 462:Drivers/GD32F30x_standard_peripheral/Source/gd32f30x_fmc.c ****         FMC_WSEN |= FMC_WSEN_BPEN;
 463:Drivers/GD32F30x_standard_peripheral/Source/gd32f30x_fmc.c ****         if(FMC_READY == fmc_state){
 464:Drivers/GD32F30x_standard_peripheral/Source/gd32f30x_fmc.c ****             /* set the PG bit to start program */
 465:Drivers/GD32F30x_standard_peripheral/Source/gd32f30x_fmc.c ****             FMC_CTL0 |= FMC_CTL0_PG;
 466:Drivers/GD32F30x_standard_peripheral/Source/gd32f30x_fmc.c ****             REG32(address) = data;
 467:Drivers/GD32F30x_standard_peripheral/Source/gd32f30x_fmc.c ****             /* wait for the FMC ready */
 468:Drivers/GD32F30x_standard_peripheral/Source/gd32f30x_fmc.c ****             fmc_state = fmc_bank0_ready_wait(FMC_TIMEOUT_COUNT);
 469:Drivers/GD32F30x_standard_peripheral/Source/gd32f30x_fmc.c ****             /* reset the PG bit */
 470:Drivers/GD32F30x_standard_peripheral/Source/gd32f30x_fmc.c ****             FMC_CTL0 &= ~FMC_CTL0_PG;
 471:Drivers/GD32F30x_standard_peripheral/Source/gd32f30x_fmc.c ****         } 
 472:Drivers/GD32F30x_standard_peripheral/Source/gd32f30x_fmc.c ****     }
 473:Drivers/GD32F30x_standard_peripheral/Source/gd32f30x_fmc.c ****     /* return the FMC state */
 474:Drivers/GD32F30x_standard_peripheral/Source/gd32f30x_fmc.c ****     return fmc_state;
 475:Drivers/GD32F30x_standard_peripheral/Source/gd32f30x_fmc.c **** }
 476:Drivers/GD32F30x_standard_peripheral/Source/gd32f30x_fmc.c **** 
 477:Drivers/GD32F30x_standard_peripheral/Source/gd32f30x_fmc.c **** /*!
 478:Drivers/GD32F30x_standard_peripheral/Source/gd32f30x_fmc.c ****     \brief      unlock the option byte operation
 479:Drivers/GD32F30x_standard_peripheral/Source/gd32f30x_fmc.c ****     \param[in]  none
 480:Drivers/GD32F30x_standard_peripheral/Source/gd32f30x_fmc.c ****     \param[out] none
 481:Drivers/GD32F30x_standard_peripheral/Source/gd32f30x_fmc.c ****     \retval     none
 482:Drivers/GD32F30x_standard_peripheral/Source/gd32f30x_fmc.c **** */
 483:Drivers/GD32F30x_standard_peripheral/Source/gd32f30x_fmc.c **** void ob_unlock(void)
ARM GAS  C:\Users\Prog\AppData\Local\Temp\ccKeEkXj.s 			page 15


 484:Drivers/GD32F30x_standard_peripheral/Source/gd32f30x_fmc.c **** {
 331              		.loc 1 484 1 is_stmt 1 view -0
 332              		.cfi_startproc
 333              		@ args = 0, pretend = 0, frame = 0
 334              		@ frame_needed = 0, uses_anonymous_args = 0
 335              		@ link register save eliminated.
 485:Drivers/GD32F30x_standard_peripheral/Source/gd32f30x_fmc.c ****     if(RESET == (FMC_CTL0 & FMC_CTL0_OBWEN)){
 336              		.loc 1 485 5 view .LVU65
 337              		.loc 1 485 18 is_stmt 0 view .LVU66
 338 0000 054B     		ldr	r3, .L29
 339 0002 1B68     		ldr	r3, [r3]
 340              		.loc 1 485 7 view .LVU67
 341 0004 13F4007F 		tst	r3, #512
 342 0008 05D1     		bne	.L27
 486:Drivers/GD32F30x_standard_peripheral/Source/gd32f30x_fmc.c ****         /* write the FMC key */
 487:Drivers/GD32F30x_standard_peripheral/Source/gd32f30x_fmc.c ****         FMC_OBKEY = UNLOCK_KEY0;
 343              		.loc 1 487 9 is_stmt 1 view .LVU68
 344              		.loc 1 487 19 is_stmt 0 view .LVU69
 345 000a 044B     		ldr	r3, .L29+4
 346 000c 044A     		ldr	r2, .L29+8
 347 000e 1A60     		str	r2, [r3]
 488:Drivers/GD32F30x_standard_peripheral/Source/gd32f30x_fmc.c ****         FMC_OBKEY = UNLOCK_KEY1;
 348              		.loc 1 488 9 is_stmt 1 view .LVU70
 349              		.loc 1 488 19 is_stmt 0 view .LVU71
 350 0010 02F18832 		add	r2, r2, #-2004318072
 351 0014 1A60     		str	r2, [r3]
 352              	.L27:
 489:Drivers/GD32F30x_standard_peripheral/Source/gd32f30x_fmc.c ****     }
 490:Drivers/GD32F30x_standard_peripheral/Source/gd32f30x_fmc.c **** }
 353              		.loc 1 490 1 view .LVU72
 354 0016 7047     		bx	lr
 355              	.L30:
 356              		.align	2
 357              	.L29:
 358 0018 10200240 		.word	1073881104
 359 001c 08200240 		.word	1073881096
 360 0020 23016745 		.word	1164378403
 361              		.cfi_endproc
 362              	.LFE130:
 364              		.section	.text.ob_lock,"ax",%progbits
 365              		.align	1
 366              		.global	ob_lock
 367              		.syntax unified
 368              		.thumb
 369              		.thumb_func
 370              		.fpu fpv4-sp-d16
 372              	ob_lock:
 373              	.LFB131:
 491:Drivers/GD32F30x_standard_peripheral/Source/gd32f30x_fmc.c **** 
 492:Drivers/GD32F30x_standard_peripheral/Source/gd32f30x_fmc.c **** /*!
 493:Drivers/GD32F30x_standard_peripheral/Source/gd32f30x_fmc.c ****     \brief      lock the option byte operation
 494:Drivers/GD32F30x_standard_peripheral/Source/gd32f30x_fmc.c ****     \param[in]  none
 495:Drivers/GD32F30x_standard_peripheral/Source/gd32f30x_fmc.c ****     \param[out] none
 496:Drivers/GD32F30x_standard_peripheral/Source/gd32f30x_fmc.c ****     \retval     none
 497:Drivers/GD32F30x_standard_peripheral/Source/gd32f30x_fmc.c **** */
 498:Drivers/GD32F30x_standard_peripheral/Source/gd32f30x_fmc.c **** void ob_lock(void)
 499:Drivers/GD32F30x_standard_peripheral/Source/gd32f30x_fmc.c **** {
ARM GAS  C:\Users\Prog\AppData\Local\Temp\ccKeEkXj.s 			page 16


 374              		.loc 1 499 1 is_stmt 1 view -0
 375              		.cfi_startproc
 376              		@ args = 0, pretend = 0, frame = 0
 377              		@ frame_needed = 0, uses_anonymous_args = 0
 378              		@ link register save eliminated.
 500:Drivers/GD32F30x_standard_peripheral/Source/gd32f30x_fmc.c ****     /* reset the OBWEN bit */
 501:Drivers/GD32F30x_standard_peripheral/Source/gd32f30x_fmc.c ****     FMC_CTL0 &= ~FMC_CTL0_OBWEN;
 379              		.loc 1 501 5 view .LVU74
 380              		.loc 1 501 14 is_stmt 0 view .LVU75
 381 0000 024A     		ldr	r2, .L32
 382 0002 1368     		ldr	r3, [r2]
 383 0004 23F40073 		bic	r3, r3, #512
 384 0008 1360     		str	r3, [r2]
 502:Drivers/GD32F30x_standard_peripheral/Source/gd32f30x_fmc.c **** }
 385              		.loc 1 502 1 view .LVU76
 386 000a 7047     		bx	lr
 387              	.L33:
 388              		.align	2
 389              	.L32:
 390 000c 10200240 		.word	1073881104
 391              		.cfi_endproc
 392              	.LFE131:
 394              		.section	.text.ob_user_get,"ax",%progbits
 395              		.align	1
 396              		.global	ob_user_get
 397              		.syntax unified
 398              		.thumb
 399              		.thumb_func
 400              		.fpu fpv4-sp-d16
 402              	ob_user_get:
 403              	.LFB137:
 503:Drivers/GD32F30x_standard_peripheral/Source/gd32f30x_fmc.c **** 
 504:Drivers/GD32F30x_standard_peripheral/Source/gd32f30x_fmc.c **** /*!
 505:Drivers/GD32F30x_standard_peripheral/Source/gd32f30x_fmc.c ****     \brief      erase the FMC option byte
 506:Drivers/GD32F30x_standard_peripheral/Source/gd32f30x_fmc.c ****                 unlock the FMC_CTL0 and option byte before calling this function
 507:Drivers/GD32F30x_standard_peripheral/Source/gd32f30x_fmc.c ****     \param[in]  none
 508:Drivers/GD32F30x_standard_peripheral/Source/gd32f30x_fmc.c ****     \param[out] none
 509:Drivers/GD32F30x_standard_peripheral/Source/gd32f30x_fmc.c ****     \retval     state of FMC, refer to fmc_state_enum
 510:Drivers/GD32F30x_standard_peripheral/Source/gd32f30x_fmc.c **** */
 511:Drivers/GD32F30x_standard_peripheral/Source/gd32f30x_fmc.c **** fmc_state_enum ob_erase(void)
 512:Drivers/GD32F30x_standard_peripheral/Source/gd32f30x_fmc.c **** {
 513:Drivers/GD32F30x_standard_peripheral/Source/gd32f30x_fmc.c ****     uint16_t temp_spc = FMC_NSPC;
 514:Drivers/GD32F30x_standard_peripheral/Source/gd32f30x_fmc.c **** 
 515:Drivers/GD32F30x_standard_peripheral/Source/gd32f30x_fmc.c ****     fmc_state_enum fmc_state = fmc_bank0_ready_wait(FMC_TIMEOUT_COUNT);
 516:Drivers/GD32F30x_standard_peripheral/Source/gd32f30x_fmc.c **** 
 517:Drivers/GD32F30x_standard_peripheral/Source/gd32f30x_fmc.c ****     /* check the option byte security protection value */
 518:Drivers/GD32F30x_standard_peripheral/Source/gd32f30x_fmc.c ****     if(RESET != ob_spc_get()){
 519:Drivers/GD32F30x_standard_peripheral/Source/gd32f30x_fmc.c ****         temp_spc = FMC_USPC;  
 520:Drivers/GD32F30x_standard_peripheral/Source/gd32f30x_fmc.c ****     }
 521:Drivers/GD32F30x_standard_peripheral/Source/gd32f30x_fmc.c **** 
 522:Drivers/GD32F30x_standard_peripheral/Source/gd32f30x_fmc.c ****     if(FMC_READY == fmc_state){
 523:Drivers/GD32F30x_standard_peripheral/Source/gd32f30x_fmc.c **** 
 524:Drivers/GD32F30x_standard_peripheral/Source/gd32f30x_fmc.c ****         /* start erase the option byte */
 525:Drivers/GD32F30x_standard_peripheral/Source/gd32f30x_fmc.c ****         FMC_CTL0 |= FMC_CTL0_OBER;
 526:Drivers/GD32F30x_standard_peripheral/Source/gd32f30x_fmc.c ****         FMC_CTL0 |= FMC_CTL0_START;
 527:Drivers/GD32F30x_standard_peripheral/Source/gd32f30x_fmc.c **** 
 528:Drivers/GD32F30x_standard_peripheral/Source/gd32f30x_fmc.c ****         /* wait for the FMC ready */
ARM GAS  C:\Users\Prog\AppData\Local\Temp\ccKeEkXj.s 			page 17


 529:Drivers/GD32F30x_standard_peripheral/Source/gd32f30x_fmc.c ****         fmc_state = fmc_bank0_ready_wait(FMC_TIMEOUT_COUNT);
 530:Drivers/GD32F30x_standard_peripheral/Source/gd32f30x_fmc.c ****     
 531:Drivers/GD32F30x_standard_peripheral/Source/gd32f30x_fmc.c ****         if(FMC_READY == fmc_state){
 532:Drivers/GD32F30x_standard_peripheral/Source/gd32f30x_fmc.c ****             /* reset the OBER bit */
 533:Drivers/GD32F30x_standard_peripheral/Source/gd32f30x_fmc.c ****             FMC_CTL0 &= ~FMC_CTL0_OBER;
 534:Drivers/GD32F30x_standard_peripheral/Source/gd32f30x_fmc.c ****             /* set the OBPG bit */
 535:Drivers/GD32F30x_standard_peripheral/Source/gd32f30x_fmc.c ****             FMC_CTL0 |= FMC_CTL0_OBPG;
 536:Drivers/GD32F30x_standard_peripheral/Source/gd32f30x_fmc.c ****             /* no security protection */
 537:Drivers/GD32F30x_standard_peripheral/Source/gd32f30x_fmc.c ****             OB_SPC = (uint16_t)temp_spc; 
 538:Drivers/GD32F30x_standard_peripheral/Source/gd32f30x_fmc.c ****             /* wait for the FMC ready */
 539:Drivers/GD32F30x_standard_peripheral/Source/gd32f30x_fmc.c ****             fmc_state = fmc_bank0_ready_wait(FMC_TIMEOUT_COUNT); 
 540:Drivers/GD32F30x_standard_peripheral/Source/gd32f30x_fmc.c ****             if(FMC_TOERR != fmc_state){
 541:Drivers/GD32F30x_standard_peripheral/Source/gd32f30x_fmc.c ****                 /* reset the OBPG bit */
 542:Drivers/GD32F30x_standard_peripheral/Source/gd32f30x_fmc.c ****                 FMC_CTL0 &= ~FMC_CTL0_OBPG;
 543:Drivers/GD32F30x_standard_peripheral/Source/gd32f30x_fmc.c ****             }
 544:Drivers/GD32F30x_standard_peripheral/Source/gd32f30x_fmc.c ****         }else{
 545:Drivers/GD32F30x_standard_peripheral/Source/gd32f30x_fmc.c ****             if(FMC_TOERR != fmc_state){
 546:Drivers/GD32F30x_standard_peripheral/Source/gd32f30x_fmc.c ****                 /* reset the OBPG bit */
 547:Drivers/GD32F30x_standard_peripheral/Source/gd32f30x_fmc.c ****                 FMC_CTL0 &= ~FMC_CTL0_OBPG;
 548:Drivers/GD32F30x_standard_peripheral/Source/gd32f30x_fmc.c ****             }
 549:Drivers/GD32F30x_standard_peripheral/Source/gd32f30x_fmc.c ****         }
 550:Drivers/GD32F30x_standard_peripheral/Source/gd32f30x_fmc.c ****     }
 551:Drivers/GD32F30x_standard_peripheral/Source/gd32f30x_fmc.c ****     /* return the FMC state */
 552:Drivers/GD32F30x_standard_peripheral/Source/gd32f30x_fmc.c ****     return fmc_state;
 553:Drivers/GD32F30x_standard_peripheral/Source/gd32f30x_fmc.c **** }
 554:Drivers/GD32F30x_standard_peripheral/Source/gd32f30x_fmc.c **** 
 555:Drivers/GD32F30x_standard_peripheral/Source/gd32f30x_fmc.c **** /*!
 556:Drivers/GD32F30x_standard_peripheral/Source/gd32f30x_fmc.c ****     \brief      enable write protection
 557:Drivers/GD32F30x_standard_peripheral/Source/gd32f30x_fmc.c ****     \param[in]  ob_wp: specify sector to be write protected
 558:Drivers/GD32F30x_standard_peripheral/Source/gd32f30x_fmc.c ****       \arg        OB_WPx(x=0..31): write protect specify sector
 559:Drivers/GD32F30x_standard_peripheral/Source/gd32f30x_fmc.c ****       \arg        OB_WP_ALL: write protect all sector
 560:Drivers/GD32F30x_standard_peripheral/Source/gd32f30x_fmc.c ****     \param[out] none
 561:Drivers/GD32F30x_standard_peripheral/Source/gd32f30x_fmc.c ****     \retval     state of FMC, refer to fmc_state_enum
 562:Drivers/GD32F30x_standard_peripheral/Source/gd32f30x_fmc.c **** */
 563:Drivers/GD32F30x_standard_peripheral/Source/gd32f30x_fmc.c **** fmc_state_enum ob_write_protection_enable(uint32_t ob_wp)
 564:Drivers/GD32F30x_standard_peripheral/Source/gd32f30x_fmc.c **** {
 565:Drivers/GD32F30x_standard_peripheral/Source/gd32f30x_fmc.c ****     uint16_t temp_wp0, temp_wp1, temp_wp2, temp_wp3;
 566:Drivers/GD32F30x_standard_peripheral/Source/gd32f30x_fmc.c **** 
 567:Drivers/GD32F30x_standard_peripheral/Source/gd32f30x_fmc.c ****     fmc_state_enum fmc_state = fmc_bank0_ready_wait(FMC_TIMEOUT_COUNT);
 568:Drivers/GD32F30x_standard_peripheral/Source/gd32f30x_fmc.c **** 
 569:Drivers/GD32F30x_standard_peripheral/Source/gd32f30x_fmc.c ****     ob_wp = (uint32_t)(~ob_wp);
 570:Drivers/GD32F30x_standard_peripheral/Source/gd32f30x_fmc.c ****     temp_wp0 = (uint16_t)(ob_wp & OB_WP0_WP0);
 571:Drivers/GD32F30x_standard_peripheral/Source/gd32f30x_fmc.c ****     temp_wp1 = (uint16_t)((ob_wp & OB_WP1_WP1) >> 8U);
 572:Drivers/GD32F30x_standard_peripheral/Source/gd32f30x_fmc.c ****     temp_wp2 = (uint16_t)((ob_wp & OB_WP2_WP2) >> 16U);
 573:Drivers/GD32F30x_standard_peripheral/Source/gd32f30x_fmc.c ****     temp_wp3 = (uint16_t)((ob_wp & OB_WP3_WP3) >> 24U);
 574:Drivers/GD32F30x_standard_peripheral/Source/gd32f30x_fmc.c **** 
 575:Drivers/GD32F30x_standard_peripheral/Source/gd32f30x_fmc.c ****     if(FMC_READY == fmc_state){
 576:Drivers/GD32F30x_standard_peripheral/Source/gd32f30x_fmc.c ****     
 577:Drivers/GD32F30x_standard_peripheral/Source/gd32f30x_fmc.c ****         /* set the OBPG bit*/
 578:Drivers/GD32F30x_standard_peripheral/Source/gd32f30x_fmc.c ****         FMC_CTL0 |= FMC_CTL0_OBPG;
 579:Drivers/GD32F30x_standard_peripheral/Source/gd32f30x_fmc.c **** 
 580:Drivers/GD32F30x_standard_peripheral/Source/gd32f30x_fmc.c ****         if(0xFFU != temp_wp0){
 581:Drivers/GD32F30x_standard_peripheral/Source/gd32f30x_fmc.c ****             OB_WP0 = temp_wp0;
 582:Drivers/GD32F30x_standard_peripheral/Source/gd32f30x_fmc.c ****       
 583:Drivers/GD32F30x_standard_peripheral/Source/gd32f30x_fmc.c ****             /* wait for the FMC ready */
 584:Drivers/GD32F30x_standard_peripheral/Source/gd32f30x_fmc.c ****             fmc_state = fmc_bank0_ready_wait(FMC_TIMEOUT_COUNT);
 585:Drivers/GD32F30x_standard_peripheral/Source/gd32f30x_fmc.c ****         }
ARM GAS  C:\Users\Prog\AppData\Local\Temp\ccKeEkXj.s 			page 18


 586:Drivers/GD32F30x_standard_peripheral/Source/gd32f30x_fmc.c ****         if((FMC_READY == fmc_state) && (0xFFU != temp_wp1)){
 587:Drivers/GD32F30x_standard_peripheral/Source/gd32f30x_fmc.c ****             OB_WP1 = temp_wp1;
 588:Drivers/GD32F30x_standard_peripheral/Source/gd32f30x_fmc.c ****       
 589:Drivers/GD32F30x_standard_peripheral/Source/gd32f30x_fmc.c ****             /* wait for the FMC ready */
 590:Drivers/GD32F30x_standard_peripheral/Source/gd32f30x_fmc.c ****             fmc_state = fmc_bank0_ready_wait(FMC_TIMEOUT_COUNT);
 591:Drivers/GD32F30x_standard_peripheral/Source/gd32f30x_fmc.c ****         }
 592:Drivers/GD32F30x_standard_peripheral/Source/gd32f30x_fmc.c ****         if((FMC_READY == fmc_state) && (0xFFU != temp_wp2)){
 593:Drivers/GD32F30x_standard_peripheral/Source/gd32f30x_fmc.c ****             OB_WP2 = temp_wp2;
 594:Drivers/GD32F30x_standard_peripheral/Source/gd32f30x_fmc.c ****       
 595:Drivers/GD32F30x_standard_peripheral/Source/gd32f30x_fmc.c ****             /* wait for the FMC ready */
 596:Drivers/GD32F30x_standard_peripheral/Source/gd32f30x_fmc.c ****             fmc_state = fmc_bank0_ready_wait(FMC_TIMEOUT_COUNT);
 597:Drivers/GD32F30x_standard_peripheral/Source/gd32f30x_fmc.c ****         }
 598:Drivers/GD32F30x_standard_peripheral/Source/gd32f30x_fmc.c ****         if((FMC_READY == fmc_state) && (0xFFU != temp_wp3)){
 599:Drivers/GD32F30x_standard_peripheral/Source/gd32f30x_fmc.c ****             OB_WP3 = temp_wp3;
 600:Drivers/GD32F30x_standard_peripheral/Source/gd32f30x_fmc.c ****       
 601:Drivers/GD32F30x_standard_peripheral/Source/gd32f30x_fmc.c ****             /* wait for the FMC ready */
 602:Drivers/GD32F30x_standard_peripheral/Source/gd32f30x_fmc.c ****             fmc_state = fmc_bank0_ready_wait(FMC_TIMEOUT_COUNT);
 603:Drivers/GD32F30x_standard_peripheral/Source/gd32f30x_fmc.c ****         }
 604:Drivers/GD32F30x_standard_peripheral/Source/gd32f30x_fmc.c ****         if(FMC_TOERR != fmc_state){
 605:Drivers/GD32F30x_standard_peripheral/Source/gd32f30x_fmc.c ****             /* reset the OBPG bit */
 606:Drivers/GD32F30x_standard_peripheral/Source/gd32f30x_fmc.c ****             FMC_CTL0 &= ~FMC_CTL0_OBPG;
 607:Drivers/GD32F30x_standard_peripheral/Source/gd32f30x_fmc.c ****         }
 608:Drivers/GD32F30x_standard_peripheral/Source/gd32f30x_fmc.c ****     } 
 609:Drivers/GD32F30x_standard_peripheral/Source/gd32f30x_fmc.c ****     /* return the FMC state */
 610:Drivers/GD32F30x_standard_peripheral/Source/gd32f30x_fmc.c ****     return fmc_state;
 611:Drivers/GD32F30x_standard_peripheral/Source/gd32f30x_fmc.c **** }
 612:Drivers/GD32F30x_standard_peripheral/Source/gd32f30x_fmc.c **** 
 613:Drivers/GD32F30x_standard_peripheral/Source/gd32f30x_fmc.c **** /*!
 614:Drivers/GD32F30x_standard_peripheral/Source/gd32f30x_fmc.c ****     \brief      configure security protection
 615:Drivers/GD32F30x_standard_peripheral/Source/gd32f30x_fmc.c ****     \param[in]  ob_spc: specify security protection
 616:Drivers/GD32F30x_standard_peripheral/Source/gd32f30x_fmc.c ****       \arg        FMC_NSPC: no security protection
 617:Drivers/GD32F30x_standard_peripheral/Source/gd32f30x_fmc.c ****       \arg        FMC_USPC: under security protection
 618:Drivers/GD32F30x_standard_peripheral/Source/gd32f30x_fmc.c ****     \param[out] none
 619:Drivers/GD32F30x_standard_peripheral/Source/gd32f30x_fmc.c ****     \retval     state of FMC, refer to fmc_state_enum
 620:Drivers/GD32F30x_standard_peripheral/Source/gd32f30x_fmc.c **** */
 621:Drivers/GD32F30x_standard_peripheral/Source/gd32f30x_fmc.c **** fmc_state_enum ob_security_protection_config(uint8_t ob_spc)
 622:Drivers/GD32F30x_standard_peripheral/Source/gd32f30x_fmc.c **** {
 623:Drivers/GD32F30x_standard_peripheral/Source/gd32f30x_fmc.c ****     fmc_state_enum fmc_state = fmc_bank0_ready_wait(FMC_TIMEOUT_COUNT);
 624:Drivers/GD32F30x_standard_peripheral/Source/gd32f30x_fmc.c **** 
 625:Drivers/GD32F30x_standard_peripheral/Source/gd32f30x_fmc.c ****     if(FMC_READY == fmc_state){
 626:Drivers/GD32F30x_standard_peripheral/Source/gd32f30x_fmc.c ****         FMC_CTL0 |= FMC_CTL0_OBER;
 627:Drivers/GD32F30x_standard_peripheral/Source/gd32f30x_fmc.c ****         FMC_CTL0 |= FMC_CTL0_START;
 628:Drivers/GD32F30x_standard_peripheral/Source/gd32f30x_fmc.c ****     
 629:Drivers/GD32F30x_standard_peripheral/Source/gd32f30x_fmc.c ****         /* wait for the FMC ready */
 630:Drivers/GD32F30x_standard_peripheral/Source/gd32f30x_fmc.c ****         fmc_state = fmc_bank0_ready_wait(FMC_TIMEOUT_COUNT);
 631:Drivers/GD32F30x_standard_peripheral/Source/gd32f30x_fmc.c ****     
 632:Drivers/GD32F30x_standard_peripheral/Source/gd32f30x_fmc.c ****         if(FMC_READY == fmc_state){
 633:Drivers/GD32F30x_standard_peripheral/Source/gd32f30x_fmc.c ****             /* reset the OBER bit */
 634:Drivers/GD32F30x_standard_peripheral/Source/gd32f30x_fmc.c ****             FMC_CTL0 &= ~FMC_CTL0_OBER;
 635:Drivers/GD32F30x_standard_peripheral/Source/gd32f30x_fmc.c ****       
 636:Drivers/GD32F30x_standard_peripheral/Source/gd32f30x_fmc.c ****             /* start the option byte program */
 637:Drivers/GD32F30x_standard_peripheral/Source/gd32f30x_fmc.c ****             FMC_CTL0 |= FMC_CTL0_OBPG;
 638:Drivers/GD32F30x_standard_peripheral/Source/gd32f30x_fmc.c ****        
 639:Drivers/GD32F30x_standard_peripheral/Source/gd32f30x_fmc.c ****             OB_SPC = (uint16_t)ob_spc;
 640:Drivers/GD32F30x_standard_peripheral/Source/gd32f30x_fmc.c **** 
 641:Drivers/GD32F30x_standard_peripheral/Source/gd32f30x_fmc.c ****             /* wait for the FMC ready */
 642:Drivers/GD32F30x_standard_peripheral/Source/gd32f30x_fmc.c ****             fmc_state = fmc_bank0_ready_wait(FMC_TIMEOUT_COUNT); 
ARM GAS  C:\Users\Prog\AppData\Local\Temp\ccKeEkXj.s 			page 19


 643:Drivers/GD32F30x_standard_peripheral/Source/gd32f30x_fmc.c ****     
 644:Drivers/GD32F30x_standard_peripheral/Source/gd32f30x_fmc.c ****             if(FMC_TOERR != fmc_state){
 645:Drivers/GD32F30x_standard_peripheral/Source/gd32f30x_fmc.c ****                 /* reset the OBPG bit */
 646:Drivers/GD32F30x_standard_peripheral/Source/gd32f30x_fmc.c ****                 FMC_CTL0 &= ~FMC_CTL0_OBPG;
 647:Drivers/GD32F30x_standard_peripheral/Source/gd32f30x_fmc.c ****             }
 648:Drivers/GD32F30x_standard_peripheral/Source/gd32f30x_fmc.c ****         }else{
 649:Drivers/GD32F30x_standard_peripheral/Source/gd32f30x_fmc.c ****             if(FMC_TOERR != fmc_state){
 650:Drivers/GD32F30x_standard_peripheral/Source/gd32f30x_fmc.c ****                 /* reset the OBER bit */
 651:Drivers/GD32F30x_standard_peripheral/Source/gd32f30x_fmc.c ****                 FMC_CTL0 &= ~FMC_CTL0_OBER;
 652:Drivers/GD32F30x_standard_peripheral/Source/gd32f30x_fmc.c ****             }
 653:Drivers/GD32F30x_standard_peripheral/Source/gd32f30x_fmc.c ****         }
 654:Drivers/GD32F30x_standard_peripheral/Source/gd32f30x_fmc.c ****     }
 655:Drivers/GD32F30x_standard_peripheral/Source/gd32f30x_fmc.c ****     /* return the FMC state */
 656:Drivers/GD32F30x_standard_peripheral/Source/gd32f30x_fmc.c ****     return fmc_state;
 657:Drivers/GD32F30x_standard_peripheral/Source/gd32f30x_fmc.c **** }
 658:Drivers/GD32F30x_standard_peripheral/Source/gd32f30x_fmc.c **** 
 659:Drivers/GD32F30x_standard_peripheral/Source/gd32f30x_fmc.c **** /*!
 660:Drivers/GD32F30x_standard_peripheral/Source/gd32f30x_fmc.c ****     \brief      program the FMC user option byte 
 661:Drivers/GD32F30x_standard_peripheral/Source/gd32f30x_fmc.c ****     \param[in]  ob_fwdgt: option byte watchdog value
 662:Drivers/GD32F30x_standard_peripheral/Source/gd32f30x_fmc.c ****       \arg        OB_FWDGT_SW: software free watchdog
 663:Drivers/GD32F30x_standard_peripheral/Source/gd32f30x_fmc.c ****       \arg        OB_FWDGT_HW: hardware free watchdog
 664:Drivers/GD32F30x_standard_peripheral/Source/gd32f30x_fmc.c ****     \param[in]  ob_deepsleep: option byte deepsleep reset value
 665:Drivers/GD32F30x_standard_peripheral/Source/gd32f30x_fmc.c ****       \arg        OB_DEEPSLEEP_NRST: no reset when entering deepsleep mode
 666:Drivers/GD32F30x_standard_peripheral/Source/gd32f30x_fmc.c ****       \arg        OB_DEEPSLEEP_RST: generate a reset instead of entering deepsleep mode 
 667:Drivers/GD32F30x_standard_peripheral/Source/gd32f30x_fmc.c ****     \param[in]  ob_stdby:option byte standby reset value
 668:Drivers/GD32F30x_standard_peripheral/Source/gd32f30x_fmc.c ****       \arg        OB_STDBY_NRST: no reset when entering standby mode
 669:Drivers/GD32F30x_standard_peripheral/Source/gd32f30x_fmc.c ****       \arg        OB_STDBY_RST: generate a reset instead of entering standby mode
 670:Drivers/GD32F30x_standard_peripheral/Source/gd32f30x_fmc.c ****     \param[in]  ob_boot: specifies the option byte boot bank value
 671:Drivers/GD32F30x_standard_peripheral/Source/gd32f30x_fmc.c ****       \arg        OB_BOOT_B0: boot from bank0
 672:Drivers/GD32F30x_standard_peripheral/Source/gd32f30x_fmc.c ****       \arg        OB_BOOT_B1: boot from bank1 or bank0 if bank1 is void
 673:Drivers/GD32F30x_standard_peripheral/Source/gd32f30x_fmc.c ****     \param[out] none
 674:Drivers/GD32F30x_standard_peripheral/Source/gd32f30x_fmc.c ****     \retval     state of FMC, refer to fmc_state_enum
 675:Drivers/GD32F30x_standard_peripheral/Source/gd32f30x_fmc.c **** */
 676:Drivers/GD32F30x_standard_peripheral/Source/gd32f30x_fmc.c **** fmc_state_enum ob_user_write(uint8_t ob_fwdgt, uint8_t ob_deepsleep, uint8_t ob_stdby, uint8_t ob_b
 677:Drivers/GD32F30x_standard_peripheral/Source/gd32f30x_fmc.c **** {
 678:Drivers/GD32F30x_standard_peripheral/Source/gd32f30x_fmc.c ****     fmc_state_enum fmc_state = FMC_READY;
 679:Drivers/GD32F30x_standard_peripheral/Source/gd32f30x_fmc.c ****     uint8_t temp;
 680:Drivers/GD32F30x_standard_peripheral/Source/gd32f30x_fmc.c **** 
 681:Drivers/GD32F30x_standard_peripheral/Source/gd32f30x_fmc.c ****     /* wait for the FMC ready */
 682:Drivers/GD32F30x_standard_peripheral/Source/gd32f30x_fmc.c ****     fmc_state = fmc_bank0_ready_wait(FMC_TIMEOUT_COUNT);
 683:Drivers/GD32F30x_standard_peripheral/Source/gd32f30x_fmc.c ****   
 684:Drivers/GD32F30x_standard_peripheral/Source/gd32f30x_fmc.c ****     if(FMC_READY == fmc_state){
 685:Drivers/GD32F30x_standard_peripheral/Source/gd32f30x_fmc.c ****         /* set the OBPG bit*/
 686:Drivers/GD32F30x_standard_peripheral/Source/gd32f30x_fmc.c ****         FMC_CTL0 |= FMC_CTL0_OBPG; 
 687:Drivers/GD32F30x_standard_peripheral/Source/gd32f30x_fmc.c **** 
 688:Drivers/GD32F30x_standard_peripheral/Source/gd32f30x_fmc.c ****         temp = ((uint8_t)((uint8_t)((uint8_t)(ob_boot | ob_fwdgt) | ob_deepsleep) | ob_stdby) | OB_
 689:Drivers/GD32F30x_standard_peripheral/Source/gd32f30x_fmc.c ****         OB_USER = (uint16_t)temp;
 690:Drivers/GD32F30x_standard_peripheral/Source/gd32f30x_fmc.c ****     
 691:Drivers/GD32F30x_standard_peripheral/Source/gd32f30x_fmc.c ****         /* wait for the FMC ready */
 692:Drivers/GD32F30x_standard_peripheral/Source/gd32f30x_fmc.c ****         fmc_state = fmc_bank0_ready_wait(FMC_TIMEOUT_COUNT);
 693:Drivers/GD32F30x_standard_peripheral/Source/gd32f30x_fmc.c **** 
 694:Drivers/GD32F30x_standard_peripheral/Source/gd32f30x_fmc.c ****         if(FMC_TOERR != fmc_state){
 695:Drivers/GD32F30x_standard_peripheral/Source/gd32f30x_fmc.c ****             /* reset the OBPG bit */
 696:Drivers/GD32F30x_standard_peripheral/Source/gd32f30x_fmc.c ****             FMC_CTL0 &= ~FMC_CTL0_OBPG;
 697:Drivers/GD32F30x_standard_peripheral/Source/gd32f30x_fmc.c ****         }
 698:Drivers/GD32F30x_standard_peripheral/Source/gd32f30x_fmc.c ****     }
 699:Drivers/GD32F30x_standard_peripheral/Source/gd32f30x_fmc.c ****     /* return the FMC state */
ARM GAS  C:\Users\Prog\AppData\Local\Temp\ccKeEkXj.s 			page 20


 700:Drivers/GD32F30x_standard_peripheral/Source/gd32f30x_fmc.c ****     return fmc_state;
 701:Drivers/GD32F30x_standard_peripheral/Source/gd32f30x_fmc.c **** }
 702:Drivers/GD32F30x_standard_peripheral/Source/gd32f30x_fmc.c **** 
 703:Drivers/GD32F30x_standard_peripheral/Source/gd32f30x_fmc.c **** /*!
 704:Drivers/GD32F30x_standard_peripheral/Source/gd32f30x_fmc.c ****     \brief      program option bytes data
 705:Drivers/GD32F30x_standard_peripheral/Source/gd32f30x_fmc.c ****     \param[in]  address: the option bytes address to be programmed
 706:Drivers/GD32F30x_standard_peripheral/Source/gd32f30x_fmc.c ****     \param[in]  data: the byte to be programmed
 707:Drivers/GD32F30x_standard_peripheral/Source/gd32f30x_fmc.c ****     \param[out] none
 708:Drivers/GD32F30x_standard_peripheral/Source/gd32f30x_fmc.c ****     \retval     state of FMC, refer to fmc_state_enum
 709:Drivers/GD32F30x_standard_peripheral/Source/gd32f30x_fmc.c **** */
 710:Drivers/GD32F30x_standard_peripheral/Source/gd32f30x_fmc.c **** fmc_state_enum ob_data_program(uint32_t address, uint8_t data)
 711:Drivers/GD32F30x_standard_peripheral/Source/gd32f30x_fmc.c **** {
 712:Drivers/GD32F30x_standard_peripheral/Source/gd32f30x_fmc.c ****     fmc_state_enum fmc_state = fmc_bank0_ready_wait(FMC_TIMEOUT_COUNT);
 713:Drivers/GD32F30x_standard_peripheral/Source/gd32f30x_fmc.c **** 
 714:Drivers/GD32F30x_standard_peripheral/Source/gd32f30x_fmc.c ****     if(FMC_READY == fmc_state){
 715:Drivers/GD32F30x_standard_peripheral/Source/gd32f30x_fmc.c ****         /* set the OBPG bit */
 716:Drivers/GD32F30x_standard_peripheral/Source/gd32f30x_fmc.c ****         FMC_CTL0 |= FMC_CTL0_OBPG; 
 717:Drivers/GD32F30x_standard_peripheral/Source/gd32f30x_fmc.c ****         REG16(address) = data;
 718:Drivers/GD32F30x_standard_peripheral/Source/gd32f30x_fmc.c ****     
 719:Drivers/GD32F30x_standard_peripheral/Source/gd32f30x_fmc.c ****         /* wait for the FMC ready */
 720:Drivers/GD32F30x_standard_peripheral/Source/gd32f30x_fmc.c ****         fmc_state = fmc_bank0_ready_wait(FMC_TIMEOUT_COUNT);
 721:Drivers/GD32F30x_standard_peripheral/Source/gd32f30x_fmc.c ****     
 722:Drivers/GD32F30x_standard_peripheral/Source/gd32f30x_fmc.c ****         if(FMC_TOERR != fmc_state){
 723:Drivers/GD32F30x_standard_peripheral/Source/gd32f30x_fmc.c ****             /* reset the OBPG bit */
 724:Drivers/GD32F30x_standard_peripheral/Source/gd32f30x_fmc.c ****             FMC_CTL0 &= ~FMC_CTL0_OBPG;
 725:Drivers/GD32F30x_standard_peripheral/Source/gd32f30x_fmc.c ****         }
 726:Drivers/GD32F30x_standard_peripheral/Source/gd32f30x_fmc.c ****     }
 727:Drivers/GD32F30x_standard_peripheral/Source/gd32f30x_fmc.c ****     /* return the FMC state */
 728:Drivers/GD32F30x_standard_peripheral/Source/gd32f30x_fmc.c ****     return fmc_state;
 729:Drivers/GD32F30x_standard_peripheral/Source/gd32f30x_fmc.c **** }
 730:Drivers/GD32F30x_standard_peripheral/Source/gd32f30x_fmc.c **** 
 731:Drivers/GD32F30x_standard_peripheral/Source/gd32f30x_fmc.c **** /*!
 732:Drivers/GD32F30x_standard_peripheral/Source/gd32f30x_fmc.c ****     \brief      get the FMC user option byte
 733:Drivers/GD32F30x_standard_peripheral/Source/gd32f30x_fmc.c ****     \param[in]  none
 734:Drivers/GD32F30x_standard_peripheral/Source/gd32f30x_fmc.c ****     \param[out] none
 735:Drivers/GD32F30x_standard_peripheral/Source/gd32f30x_fmc.c ****     \retval     the FMC user option byte values
 736:Drivers/GD32F30x_standard_peripheral/Source/gd32f30x_fmc.c **** */
 737:Drivers/GD32F30x_standard_peripheral/Source/gd32f30x_fmc.c **** uint8_t ob_user_get(void)
 738:Drivers/GD32F30x_standard_peripheral/Source/gd32f30x_fmc.c **** {
 404              		.loc 1 738 1 is_stmt 1 view -0
 405              		.cfi_startproc
 406              		@ args = 0, pretend = 0, frame = 0
 407              		@ frame_needed = 0, uses_anonymous_args = 0
 408              		@ link register save eliminated.
 739:Drivers/GD32F30x_standard_peripheral/Source/gd32f30x_fmc.c ****     /* return the FMC user option byte value */
 740:Drivers/GD32F30x_standard_peripheral/Source/gd32f30x_fmc.c ****     return (uint8_t)(FMC_OBSTAT >> 2U);
 409              		.loc 1 740 5 view .LVU78
 410              		.loc 1 740 22 is_stmt 0 view .LVU79
 411 0000 024B     		ldr	r3, .L35
 412 0002 1868     		ldr	r0, [r3]
 741:Drivers/GD32F30x_standard_peripheral/Source/gd32f30x_fmc.c **** }
 413              		.loc 1 741 1 view .LVU80
 414 0004 C0F38700 		ubfx	r0, r0, #2, #8
 415 0008 7047     		bx	lr
 416              	.L36:
 417 000a 00BF     		.align	2
 418              	.L35:
ARM GAS  C:\Users\Prog\AppData\Local\Temp\ccKeEkXj.s 			page 21


 419 000c 1C200240 		.word	1073881116
 420              		.cfi_endproc
 421              	.LFE137:
 423              		.section	.text.ob_data_get,"ax",%progbits
 424              		.align	1
 425              		.global	ob_data_get
 426              		.syntax unified
 427              		.thumb
 428              		.thumb_func
 429              		.fpu fpv4-sp-d16
 431              	ob_data_get:
 432              	.LFB138:
 742:Drivers/GD32F30x_standard_peripheral/Source/gd32f30x_fmc.c **** 
 743:Drivers/GD32F30x_standard_peripheral/Source/gd32f30x_fmc.c **** /*!
 744:Drivers/GD32F30x_standard_peripheral/Source/gd32f30x_fmc.c ****     \brief      get OB_DATA in register FMC_OBSTAT
 745:Drivers/GD32F30x_standard_peripheral/Source/gd32f30x_fmc.c ****     \param[in]  none
 746:Drivers/GD32F30x_standard_peripheral/Source/gd32f30x_fmc.c ****     \param[out] none
 747:Drivers/GD32F30x_standard_peripheral/Source/gd32f30x_fmc.c ****     \retval     ob_data
 748:Drivers/GD32F30x_standard_peripheral/Source/gd32f30x_fmc.c **** */
 749:Drivers/GD32F30x_standard_peripheral/Source/gd32f30x_fmc.c **** uint16_t ob_data_get(void)
 750:Drivers/GD32F30x_standard_peripheral/Source/gd32f30x_fmc.c **** {
 433              		.loc 1 750 1 is_stmt 1 view -0
 434              		.cfi_startproc
 435              		@ args = 0, pretend = 0, frame = 0
 436              		@ frame_needed = 0, uses_anonymous_args = 0
 437              		@ link register save eliminated.
 751:Drivers/GD32F30x_standard_peripheral/Source/gd32f30x_fmc.c ****     return (uint16_t)(FMC_OBSTAT >> 10U);
 438              		.loc 1 751 5 view .LVU82
 439              		.loc 1 751 23 is_stmt 0 view .LVU83
 440 0000 024B     		ldr	r3, .L38
 441 0002 1868     		ldr	r0, [r3]
 752:Drivers/GD32F30x_standard_peripheral/Source/gd32f30x_fmc.c **** }
 442              		.loc 1 752 1 view .LVU84
 443 0004 C0F38F20 		ubfx	r0, r0, #10, #16
 444 0008 7047     		bx	lr
 445              	.L39:
 446 000a 00BF     		.align	2
 447              	.L38:
 448 000c 1C200240 		.word	1073881116
 449              		.cfi_endproc
 450              	.LFE138:
 452              		.section	.text.ob_write_protection_get,"ax",%progbits
 453              		.align	1
 454              		.global	ob_write_protection_get
 455              		.syntax unified
 456              		.thumb
 457              		.thumb_func
 458              		.fpu fpv4-sp-d16
 460              	ob_write_protection_get:
 461              	.LFB139:
 753:Drivers/GD32F30x_standard_peripheral/Source/gd32f30x_fmc.c **** 
 754:Drivers/GD32F30x_standard_peripheral/Source/gd32f30x_fmc.c **** /*!
 755:Drivers/GD32F30x_standard_peripheral/Source/gd32f30x_fmc.c ****     \brief      get the FMC option byte write protection
 756:Drivers/GD32F30x_standard_peripheral/Source/gd32f30x_fmc.c ****     \param[in]  none
 757:Drivers/GD32F30x_standard_peripheral/Source/gd32f30x_fmc.c ****     \param[out] none
 758:Drivers/GD32F30x_standard_peripheral/Source/gd32f30x_fmc.c ****     \retval     the FMC write protection option byte value
 759:Drivers/GD32F30x_standard_peripheral/Source/gd32f30x_fmc.c **** */
ARM GAS  C:\Users\Prog\AppData\Local\Temp\ccKeEkXj.s 			page 22


 760:Drivers/GD32F30x_standard_peripheral/Source/gd32f30x_fmc.c **** uint32_t ob_write_protection_get(void)
 761:Drivers/GD32F30x_standard_peripheral/Source/gd32f30x_fmc.c **** {
 462              		.loc 1 761 1 is_stmt 1 view -0
 463              		.cfi_startproc
 464              		@ args = 0, pretend = 0, frame = 0
 465              		@ frame_needed = 0, uses_anonymous_args = 0
 466              		@ link register save eliminated.
 762:Drivers/GD32F30x_standard_peripheral/Source/gd32f30x_fmc.c ****     /* return the FMC write protection option byte value */
 763:Drivers/GD32F30x_standard_peripheral/Source/gd32f30x_fmc.c ****     return FMC_WP;
 467              		.loc 1 763 5 view .LVU86
 468              		.loc 1 763 12 is_stmt 0 view .LVU87
 469 0000 014B     		ldr	r3, .L41
 470 0002 1868     		ldr	r0, [r3]
 764:Drivers/GD32F30x_standard_peripheral/Source/gd32f30x_fmc.c **** }
 471              		.loc 1 764 1 view .LVU88
 472 0004 7047     		bx	lr
 473              	.L42:
 474 0006 00BF     		.align	2
 475              	.L41:
 476 0008 20200240 		.word	1073881120
 477              		.cfi_endproc
 478              	.LFE139:
 480              		.section	.text.ob_spc_get,"ax",%progbits
 481              		.align	1
 482              		.global	ob_spc_get
 483              		.syntax unified
 484              		.thumb
 485              		.thumb_func
 486              		.fpu fpv4-sp-d16
 488              	ob_spc_get:
 489              	.LFB140:
 765:Drivers/GD32F30x_standard_peripheral/Source/gd32f30x_fmc.c **** 
 766:Drivers/GD32F30x_standard_peripheral/Source/gd32f30x_fmc.c **** /*!
 767:Drivers/GD32F30x_standard_peripheral/Source/gd32f30x_fmc.c ****     \brief      get the FMC option byte security protection
 768:Drivers/GD32F30x_standard_peripheral/Source/gd32f30x_fmc.c ****     \param[in]  none
 769:Drivers/GD32F30x_standard_peripheral/Source/gd32f30x_fmc.c ****     \param[out] none
 770:Drivers/GD32F30x_standard_peripheral/Source/gd32f30x_fmc.c ****     \retval     FlagStatus: SET or RESET
 771:Drivers/GD32F30x_standard_peripheral/Source/gd32f30x_fmc.c **** */
 772:Drivers/GD32F30x_standard_peripheral/Source/gd32f30x_fmc.c **** FlagStatus ob_spc_get(void)
 773:Drivers/GD32F30x_standard_peripheral/Source/gd32f30x_fmc.c **** {
 490              		.loc 1 773 1 is_stmt 1 view -0
 491              		.cfi_startproc
 492              		@ args = 0, pretend = 0, frame = 0
 493              		@ frame_needed = 0, uses_anonymous_args = 0
 494              		@ link register save eliminated.
 774:Drivers/GD32F30x_standard_peripheral/Source/gd32f30x_fmc.c ****     FlagStatus spc_state = RESET;
 495              		.loc 1 774 5 view .LVU90
 496              	.LVL4:
 775:Drivers/GD32F30x_standard_peripheral/Source/gd32f30x_fmc.c **** 
 776:Drivers/GD32F30x_standard_peripheral/Source/gd32f30x_fmc.c ****     if(RESET != (FMC_OBSTAT & FMC_OBSTAT_SPC)){
 497              		.loc 1 776 5 view .LVU91
 498              		.loc 1 776 18 is_stmt 0 view .LVU92
 499 0000 044B     		ldr	r3, .L46
 500 0002 1B68     		ldr	r3, [r3]
 501              		.loc 1 776 7 view .LVU93
 502 0004 13F0020F 		tst	r3, #2
 503 0008 01D0     		beq	.L45
ARM GAS  C:\Users\Prog\AppData\Local\Temp\ccKeEkXj.s 			page 23


 777:Drivers/GD32F30x_standard_peripheral/Source/gd32f30x_fmc.c ****         spc_state = SET;
 504              		.loc 1 777 19 view .LVU94
 505 000a 0120     		movs	r0, #1
 506 000c 7047     		bx	lr
 507              	.L45:
 778:Drivers/GD32F30x_standard_peripheral/Source/gd32f30x_fmc.c ****     }else{
 779:Drivers/GD32F30x_standard_peripheral/Source/gd32f30x_fmc.c ****         spc_state = RESET;
 508              		.loc 1 779 19 view .LVU95
 509 000e 0020     		movs	r0, #0
 510              	.LVL5:
 780:Drivers/GD32F30x_standard_peripheral/Source/gd32f30x_fmc.c ****     }
 781:Drivers/GD32F30x_standard_peripheral/Source/gd32f30x_fmc.c ****     return spc_state;
 511              		.loc 1 781 5 is_stmt 1 view .LVU96
 782:Drivers/GD32F30x_standard_peripheral/Source/gd32f30x_fmc.c **** }
 512              		.loc 1 782 1 is_stmt 0 view .LVU97
 513 0010 7047     		bx	lr
 514              	.L47:
 515 0012 00BF     		.align	2
 516              	.L46:
 517 0014 1C200240 		.word	1073881116
 518              		.cfi_endproc
 519              	.LFE140:
 521              		.section	.text.fmc_interrupt_enable,"ax",%progbits
 522              		.align	1
 523              		.global	fmc_interrupt_enable
 524              		.syntax unified
 525              		.thumb
 526              		.thumb_func
 527              		.fpu fpv4-sp-d16
 529              	fmc_interrupt_enable:
 530              	.LVL6:
 531              	.LFB141:
 783:Drivers/GD32F30x_standard_peripheral/Source/gd32f30x_fmc.c **** 
 784:Drivers/GD32F30x_standard_peripheral/Source/gd32f30x_fmc.c **** /*!
 785:Drivers/GD32F30x_standard_peripheral/Source/gd32f30x_fmc.c ****     \brief      enable FMC interrupt
 786:Drivers/GD32F30x_standard_peripheral/Source/gd32f30x_fmc.c ****     \param[in]  interrupt: the FMC interrupt source
 787:Drivers/GD32F30x_standard_peripheral/Source/gd32f30x_fmc.c ****       \arg        FMC_INT_BANK0_END: FMC bank0 end of program interrupt
 788:Drivers/GD32F30x_standard_peripheral/Source/gd32f30x_fmc.c ****       \arg        FMC_INT_BANK0_ERR: FMC bank0 error interrupt
 789:Drivers/GD32F30x_standard_peripheral/Source/gd32f30x_fmc.c ****       \arg        FMC_INT_BANK1_END: FMC bank1 end of program interrupt
 790:Drivers/GD32F30x_standard_peripheral/Source/gd32f30x_fmc.c ****       \arg        FMC_INT_BANK1_ERR: FMC bank1 error interrupt
 791:Drivers/GD32F30x_standard_peripheral/Source/gd32f30x_fmc.c ****     \param[out] none
 792:Drivers/GD32F30x_standard_peripheral/Source/gd32f30x_fmc.c ****     \retval     none
 793:Drivers/GD32F30x_standard_peripheral/Source/gd32f30x_fmc.c **** */
 794:Drivers/GD32F30x_standard_peripheral/Source/gd32f30x_fmc.c **** void fmc_interrupt_enable(uint32_t interrupt)
 795:Drivers/GD32F30x_standard_peripheral/Source/gd32f30x_fmc.c **** {
 532              		.loc 1 795 1 is_stmt 1 view -0
 533              		.cfi_startproc
 534              		@ args = 0, pretend = 0, frame = 0
 535              		@ frame_needed = 0, uses_anonymous_args = 0
 536              		@ link register save eliminated.
 796:Drivers/GD32F30x_standard_peripheral/Source/gd32f30x_fmc.c ****     FMC_REG_VAL(interrupt) |= BIT(FMC_BIT_POS(interrupt));
 537              		.loc 1 796 5 view .LVU99
 538              		.loc 1 796 28 is_stmt 0 view .LVU100
 539 0000 8309     		lsrs	r3, r0, #6
 540 0002 03F18043 		add	r3, r3, #1073741824
 541 0006 03F50833 		add	r3, r3, #139264
 542 000a 1A68     		ldr	r2, [r3]
ARM GAS  C:\Users\Prog\AppData\Local\Temp\ccKeEkXj.s 			page 24


 543              		.loc 1 796 31 view .LVU101
 544 000c 00F01F00 		and	r0, r0, #31
 545              	.LVL7:
 546              		.loc 1 796 31 view .LVU102
 547 0010 0121     		movs	r1, #1
 548 0012 01FA00F0 		lsl	r0, r1, r0
 549              		.loc 1 796 28 view .LVU103
 550 0016 0243     		orrs	r2, r2, r0
 551 0018 1A60     		str	r2, [r3]
 797:Drivers/GD32F30x_standard_peripheral/Source/gd32f30x_fmc.c **** }
 552              		.loc 1 797 1 view .LVU104
 553 001a 7047     		bx	lr
 554              		.cfi_endproc
 555              	.LFE141:
 557              		.section	.text.fmc_interrupt_disable,"ax",%progbits
 558              		.align	1
 559              		.global	fmc_interrupt_disable
 560              		.syntax unified
 561              		.thumb
 562              		.thumb_func
 563              		.fpu fpv4-sp-d16
 565              	fmc_interrupt_disable:
 566              	.LVL8:
 567              	.LFB142:
 798:Drivers/GD32F30x_standard_peripheral/Source/gd32f30x_fmc.c **** 
 799:Drivers/GD32F30x_standard_peripheral/Source/gd32f30x_fmc.c **** /*!
 800:Drivers/GD32F30x_standard_peripheral/Source/gd32f30x_fmc.c ****     \brief      disable FMC interrupt
 801:Drivers/GD32F30x_standard_peripheral/Source/gd32f30x_fmc.c ****     \param[in]  interrupt: the FMC interrupt source
 802:Drivers/GD32F30x_standard_peripheral/Source/gd32f30x_fmc.c ****       \arg        FMC_INT_BANK0_END: FMC bank0 end of program interrupt
 803:Drivers/GD32F30x_standard_peripheral/Source/gd32f30x_fmc.c ****       \arg        FMC_INT_BANK0_ERR: FMC bank0 error interrupt
 804:Drivers/GD32F30x_standard_peripheral/Source/gd32f30x_fmc.c ****       \arg        FMC_INT_BANK1_END: FMC bank1 end of program interrupt
 805:Drivers/GD32F30x_standard_peripheral/Source/gd32f30x_fmc.c ****       \arg        FMC_INT_BANK1_ERR: FMC bank1 error interrupt
 806:Drivers/GD32F30x_standard_peripheral/Source/gd32f30x_fmc.c ****     \param[out] none
 807:Drivers/GD32F30x_standard_peripheral/Source/gd32f30x_fmc.c ****     \retval     none
 808:Drivers/GD32F30x_standard_peripheral/Source/gd32f30x_fmc.c **** */
 809:Drivers/GD32F30x_standard_peripheral/Source/gd32f30x_fmc.c **** void fmc_interrupt_disable(uint32_t interrupt)
 810:Drivers/GD32F30x_standard_peripheral/Source/gd32f30x_fmc.c **** {
 568              		.loc 1 810 1 is_stmt 1 view -0
 569              		.cfi_startproc
 570              		@ args = 0, pretend = 0, frame = 0
 571              		@ frame_needed = 0, uses_anonymous_args = 0
 572              		@ link register save eliminated.
 811:Drivers/GD32F30x_standard_peripheral/Source/gd32f30x_fmc.c ****     FMC_REG_VAL(interrupt) &= ~BIT(FMC_BIT_POS(interrupt));
 573              		.loc 1 811 5 view .LVU106
 574              		.loc 1 811 28 is_stmt 0 view .LVU107
 575 0000 8309     		lsrs	r3, r0, #6
 576 0002 03F18043 		add	r3, r3, #1073741824
 577 0006 03F50833 		add	r3, r3, #139264
 578 000a 1A68     		ldr	r2, [r3]
 579              		.loc 1 811 32 view .LVU108
 580 000c 00F01F00 		and	r0, r0, #31
 581              	.LVL9:
 582              		.loc 1 811 32 view .LVU109
 583 0010 0121     		movs	r1, #1
 584 0012 01FA00F0 		lsl	r0, r1, r0
 585              		.loc 1 811 28 view .LVU110
 586 0016 22EA0002 		bic	r2, r2, r0
ARM GAS  C:\Users\Prog\AppData\Local\Temp\ccKeEkXj.s 			page 25


 587 001a 1A60     		str	r2, [r3]
 812:Drivers/GD32F30x_standard_peripheral/Source/gd32f30x_fmc.c **** }
 588              		.loc 1 812 1 view .LVU111
 589 001c 7047     		bx	lr
 590              		.cfi_endproc
 591              	.LFE142:
 593              		.section	.text.fmc_flag_get,"ax",%progbits
 594              		.align	1
 595              		.global	fmc_flag_get
 596              		.syntax unified
 597              		.thumb
 598              		.thumb_func
 599              		.fpu fpv4-sp-d16
 601              	fmc_flag_get:
 602              	.LVL10:
 603              	.LFB143:
 813:Drivers/GD32F30x_standard_peripheral/Source/gd32f30x_fmc.c **** 
 814:Drivers/GD32F30x_standard_peripheral/Source/gd32f30x_fmc.c **** /*!
 815:Drivers/GD32F30x_standard_peripheral/Source/gd32f30x_fmc.c ****     \brief      check flag is set or not
 816:Drivers/GD32F30x_standard_peripheral/Source/gd32f30x_fmc.c ****     \param[in]  flag: check FMC flag
 817:Drivers/GD32F30x_standard_peripheral/Source/gd32f30x_fmc.c ****                 only one parameter can be selected which is shown as below:
 818:Drivers/GD32F30x_standard_peripheral/Source/gd32f30x_fmc.c ****       \arg        FMC_FLAG_BANK0_BUSY: FMC bank0 busy flag bit
 819:Drivers/GD32F30x_standard_peripheral/Source/gd32f30x_fmc.c ****       \arg        FMC_FLAG_BANK0_PGERR: FMC bank0 operation error flag bit
 820:Drivers/GD32F30x_standard_peripheral/Source/gd32f30x_fmc.c ****       \arg        FMC_FLAG_BANK0_WPERR: FMC bank0 erase/program protection error flag bit
 821:Drivers/GD32F30x_standard_peripheral/Source/gd32f30x_fmc.c ****       \arg        FMC_FLAG_BANK0_END: FMC bank0 end of operation flag bit
 822:Drivers/GD32F30x_standard_peripheral/Source/gd32f30x_fmc.c ****       \arg        FMC_FLAG_OBERR: FMC option bytes read error flag bit
 823:Drivers/GD32F30x_standard_peripheral/Source/gd32f30x_fmc.c ****       \arg        FMC_FLAG_BANK1_BUSY: FMC bank1 busy flag bit
 824:Drivers/GD32F30x_standard_peripheral/Source/gd32f30x_fmc.c ****       \arg        FMC_FLAG_BANK1_PGERR: FMC bank1 operation error flag bit
 825:Drivers/GD32F30x_standard_peripheral/Source/gd32f30x_fmc.c ****       \arg        FMC_FLAG_BANK1_WPERR: FMC bank1 erase/program protection error flag bit
 826:Drivers/GD32F30x_standard_peripheral/Source/gd32f30x_fmc.c ****       \arg        FMC_FLAG_BANK1_END: FMC bank1 end of operation flag bit
 827:Drivers/GD32F30x_standard_peripheral/Source/gd32f30x_fmc.c ****     \param[out] none
 828:Drivers/GD32F30x_standard_peripheral/Source/gd32f30x_fmc.c ****     \retval     FlagStatus: SET or RESET
 829:Drivers/GD32F30x_standard_peripheral/Source/gd32f30x_fmc.c **** */
 830:Drivers/GD32F30x_standard_peripheral/Source/gd32f30x_fmc.c **** FlagStatus fmc_flag_get(uint32_t flag)
 831:Drivers/GD32F30x_standard_peripheral/Source/gd32f30x_fmc.c **** {
 604              		.loc 1 831 1 is_stmt 1 view -0
 605              		.cfi_startproc
 606              		@ args = 0, pretend = 0, frame = 0
 607              		@ frame_needed = 0, uses_anonymous_args = 0
 608              		@ link register save eliminated.
 832:Drivers/GD32F30x_standard_peripheral/Source/gd32f30x_fmc.c ****     if(RESET != (FMC_REG_VAL(flag) & BIT(FMC_BIT_POS(flag)))){
 609              		.loc 1 832 5 view .LVU113
 610              		.loc 1 832 18 is_stmt 0 view .LVU114
 611 0000 8309     		lsrs	r3, r0, #6
 612 0002 03F18043 		add	r3, r3, #1073741824
 613 0006 03F50833 		add	r3, r3, #139264
 614 000a 1B68     		ldr	r3, [r3]
 615              		.loc 1 832 38 view .LVU115
 616 000c 00F01F00 		and	r0, r0, #31
 617              	.LVL11:
 618              		.loc 1 832 14 view .LVU116
 619 0010 23FA00F0 		lsr	r0, r3, r0
 620              		.loc 1 832 7 view .LVU117
 621 0014 10F0010F 		tst	r0, #1
 622 0018 01D0     		beq	.L52
 833:Drivers/GD32F30x_standard_peripheral/Source/gd32f30x_fmc.c ****         return SET;
 623              		.loc 1 833 16 view .LVU118
ARM GAS  C:\Users\Prog\AppData\Local\Temp\ccKeEkXj.s 			page 26


 624 001a 0120     		movs	r0, #1
 625 001c 7047     		bx	lr
 626              	.L52:
 834:Drivers/GD32F30x_standard_peripheral/Source/gd32f30x_fmc.c ****     }else{
 835:Drivers/GD32F30x_standard_peripheral/Source/gd32f30x_fmc.c ****         return RESET;
 627              		.loc 1 835 16 view .LVU119
 628 001e 0020     		movs	r0, #0
 836:Drivers/GD32F30x_standard_peripheral/Source/gd32f30x_fmc.c ****     }
 837:Drivers/GD32F30x_standard_peripheral/Source/gd32f30x_fmc.c **** }
 629              		.loc 1 837 1 view .LVU120
 630 0020 7047     		bx	lr
 631              		.cfi_endproc
 632              	.LFE143:
 634              		.section	.text.fmc_flag_clear,"ax",%progbits
 635              		.align	1
 636              		.global	fmc_flag_clear
 637              		.syntax unified
 638              		.thumb
 639              		.thumb_func
 640              		.fpu fpv4-sp-d16
 642              	fmc_flag_clear:
 643              	.LVL12:
 644              	.LFB144:
 838:Drivers/GD32F30x_standard_peripheral/Source/gd32f30x_fmc.c **** 
 839:Drivers/GD32F30x_standard_peripheral/Source/gd32f30x_fmc.c **** /*!
 840:Drivers/GD32F30x_standard_peripheral/Source/gd32f30x_fmc.c ****     \brief      clear the FMC flag
 841:Drivers/GD32F30x_standard_peripheral/Source/gd32f30x_fmc.c ****     \param[in]  flag: clear FMC flag
 842:Drivers/GD32F30x_standard_peripheral/Source/gd32f30x_fmc.c ****                 only one parameter can be selected which is shown as below:
 843:Drivers/GD32F30x_standard_peripheral/Source/gd32f30x_fmc.c ****       \arg        FMC_FLAG_BANK0_PGERR: FMC bank0 operation error flag bit
 844:Drivers/GD32F30x_standard_peripheral/Source/gd32f30x_fmc.c ****       \arg        FMC_FLAG_BANK0_WPERR: FMC bank0 erase/program protection error flag bit
 845:Drivers/GD32F30x_standard_peripheral/Source/gd32f30x_fmc.c ****       \arg        FMC_FLAG_BANK0_END: FMC bank0 end of operation flag bit
 846:Drivers/GD32F30x_standard_peripheral/Source/gd32f30x_fmc.c ****       \arg        FMC_FLAG_BANK1_PGERR: FMC bank1 operation error flag bit
 847:Drivers/GD32F30x_standard_peripheral/Source/gd32f30x_fmc.c ****       \arg        FMC_FLAG_BANK1_WPERR: FMC bank1 erase/program protection error flag bit
 848:Drivers/GD32F30x_standard_peripheral/Source/gd32f30x_fmc.c ****       \arg        FMC_FLAG_BANK1_END: FMC bank1 end of operation flag bit
 849:Drivers/GD32F30x_standard_peripheral/Source/gd32f30x_fmc.c ****     \param[out] none
 850:Drivers/GD32F30x_standard_peripheral/Source/gd32f30x_fmc.c ****     \retval     none
 851:Drivers/GD32F30x_standard_peripheral/Source/gd32f30x_fmc.c **** */
 852:Drivers/GD32F30x_standard_peripheral/Source/gd32f30x_fmc.c **** void fmc_flag_clear(uint32_t flag)
 853:Drivers/GD32F30x_standard_peripheral/Source/gd32f30x_fmc.c **** {
 645              		.loc 1 853 1 is_stmt 1 view -0
 646              		.cfi_startproc
 647              		@ args = 0, pretend = 0, frame = 0
 648              		@ frame_needed = 0, uses_anonymous_args = 0
 649              		@ link register save eliminated.
 854:Drivers/GD32F30x_standard_peripheral/Source/gd32f30x_fmc.c ****     FMC_REG_VAL(flag) |= BIT(FMC_BIT_POS(flag));
 650              		.loc 1 854 5 view .LVU122
 651              		.loc 1 854 23 is_stmt 0 view .LVU123
 652 0000 8309     		lsrs	r3, r0, #6
 653 0002 03F18043 		add	r3, r3, #1073741824
 654 0006 03F50833 		add	r3, r3, #139264
 655 000a 1A68     		ldr	r2, [r3]
 656              		.loc 1 854 26 view .LVU124
 657 000c 00F01F00 		and	r0, r0, #31
 658              	.LVL13:
 659              		.loc 1 854 26 view .LVU125
 660 0010 0121     		movs	r1, #1
 661 0012 01FA00F0 		lsl	r0, r1, r0
ARM GAS  C:\Users\Prog\AppData\Local\Temp\ccKeEkXj.s 			page 27


 662              		.loc 1 854 23 view .LVU126
 663 0016 0243     		orrs	r2, r2, r0
 664 0018 1A60     		str	r2, [r3]
 855:Drivers/GD32F30x_standard_peripheral/Source/gd32f30x_fmc.c **** }
 665              		.loc 1 855 1 view .LVU127
 666 001a 7047     		bx	lr
 667              		.cfi_endproc
 668              	.LFE144:
 670              		.section	.text.fmc_interrupt_flag_get,"ax",%progbits
 671              		.align	1
 672              		.global	fmc_interrupt_flag_get
 673              		.syntax unified
 674              		.thumb
 675              		.thumb_func
 676              		.fpu fpv4-sp-d16
 678              	fmc_interrupt_flag_get:
 679              	.LVL14:
 680              	.LFB145:
 856:Drivers/GD32F30x_standard_peripheral/Source/gd32f30x_fmc.c **** 
 857:Drivers/GD32F30x_standard_peripheral/Source/gd32f30x_fmc.c **** /*!
 858:Drivers/GD32F30x_standard_peripheral/Source/gd32f30x_fmc.c ****     \brief      get FMC interrupt flag state
 859:Drivers/GD32F30x_standard_peripheral/Source/gd32f30x_fmc.c ****     \param[in]  flag: FMC interrupt flags, refer to fmc_interrupt_flag_enum
 860:Drivers/GD32F30x_standard_peripheral/Source/gd32f30x_fmc.c ****                 only one parameter can be selected which is shown as below:
 861:Drivers/GD32F30x_standard_peripheral/Source/gd32f30x_fmc.c ****       \arg        FMC_INT_FLAG_BANK0_PGERR: FMC bank0 operation error interrupt flag bit
 862:Drivers/GD32F30x_standard_peripheral/Source/gd32f30x_fmc.c ****       \arg        FMC_INT_FLAG_BANK0_WPERR: FMC bank0 erase/program protection error interrupt flag
 863:Drivers/GD32F30x_standard_peripheral/Source/gd32f30x_fmc.c ****       \arg        FMC_INT_FLAG_BANK0_END: FMC bank0 end of operation interrupt flag bit
 864:Drivers/GD32F30x_standard_peripheral/Source/gd32f30x_fmc.c ****       \arg        FMC_INT_FLAG_BANK1_PGERR: FMC bank1 operation error interrupt flag bit
 865:Drivers/GD32F30x_standard_peripheral/Source/gd32f30x_fmc.c ****       \arg        FMC_INT_FLAG_BANK1_WPERR: FMC bank1 erase/program protection error interrupt flag
 866:Drivers/GD32F30x_standard_peripheral/Source/gd32f30x_fmc.c ****       \arg        FMC_INT_FLAG_BANK1_END: FMC bank1 end of operation interrupt flag bit
 867:Drivers/GD32F30x_standard_peripheral/Source/gd32f30x_fmc.c ****     \param[out] none
 868:Drivers/GD32F30x_standard_peripheral/Source/gd32f30x_fmc.c ****     \retval     FlagStatus: SET or RESET
 869:Drivers/GD32F30x_standard_peripheral/Source/gd32f30x_fmc.c **** */
 870:Drivers/GD32F30x_standard_peripheral/Source/gd32f30x_fmc.c **** FlagStatus fmc_interrupt_flag_get(fmc_interrupt_flag_enum flag)
 871:Drivers/GD32F30x_standard_peripheral/Source/gd32f30x_fmc.c **** {
 681              		.loc 1 871 1 is_stmt 1 view -0
 682              		.cfi_startproc
 683              		@ args = 0, pretend = 0, frame = 0
 684              		@ frame_needed = 0, uses_anonymous_args = 0
 685              		@ link register save eliminated.
 872:Drivers/GD32F30x_standard_peripheral/Source/gd32f30x_fmc.c ****     FlagStatus ret1 = RESET;
 686              		.loc 1 872 5 view .LVU129
 873:Drivers/GD32F30x_standard_peripheral/Source/gd32f30x_fmc.c ****     FlagStatus ret2 = RESET;
 687              		.loc 1 873 5 view .LVU130
 874:Drivers/GD32F30x_standard_peripheral/Source/gd32f30x_fmc.c ****     
 875:Drivers/GD32F30x_standard_peripheral/Source/gd32f30x_fmc.c ****     if(FMC_STAT0_REG_OFFSET == FMC_REG_OFFSET_GET(flag)){
 688              		.loc 1 875 5 view .LVU131
 689              		.loc 1 875 32 is_stmt 0 view .LVU132
 690 0000 030B     		lsrs	r3, r0, #12
 691              		.loc 1 875 7 view .LVU133
 692 0002 0C2B     		cmp	r3, #12
 693 0004 16D0     		beq	.L60
 876:Drivers/GD32F30x_standard_peripheral/Source/gd32f30x_fmc.c ****         /* get the staus of interrupt flag */
 877:Drivers/GD32F30x_standard_peripheral/Source/gd32f30x_fmc.c ****         ret1 = (FlagStatus)(FMC_REG_VALS(flag) & BIT(FMC_BIT_POS0(flag)));
 878:Drivers/GD32F30x_standard_peripheral/Source/gd32f30x_fmc.c ****         /* get the staus of interrupt enale bit */
 879:Drivers/GD32F30x_standard_peripheral/Source/gd32f30x_fmc.c ****         ret2 = (FlagStatus)(FMC_CTL0 & BIT(FMC_BIT_POS1(flag)));
 880:Drivers/GD32F30x_standard_peripheral/Source/gd32f30x_fmc.c ****     }else{
 881:Drivers/GD32F30x_standard_peripheral/Source/gd32f30x_fmc.c ****         /* get the staus of interrupt flag */
ARM GAS  C:\Users\Prog\AppData\Local\Temp\ccKeEkXj.s 			page 28


 882:Drivers/GD32F30x_standard_peripheral/Source/gd32f30x_fmc.c ****         ret1 = (FlagStatus)(FMC_REG_VALS(flag) & BIT(FMC_BIT_POS0(flag)));
 694              		.loc 1 882 9 is_stmt 1 view .LVU134
 695              		.loc 1 882 29 is_stmt 0 view .LVU135
 696 0006 03F18043 		add	r3, r3, #1073741824
 697 000a 03F50833 		add	r3, r3, #139264
 698 000e 1968     		ldr	r1, [r3]
 699              		.loc 1 882 50 view .LVU136
 700 0010 C0F38412 		ubfx	r2, r0, #6, #5
 701 0014 0123     		movs	r3, #1
 702 0016 03FA02F2 		lsl	r2, r3, r2
 703              		.loc 1 882 16 view .LVU137
 704 001a D2B2     		uxtb	r2, r2
 705              		.loc 1 882 14 view .LVU138
 706 001c 0A40     		ands	r2, r2, r1
 707              	.LVL15:
 883:Drivers/GD32F30x_standard_peripheral/Source/gd32f30x_fmc.c ****         /* get the staus of interrupt enale bit */
 884:Drivers/GD32F30x_standard_peripheral/Source/gd32f30x_fmc.c ****         ret2 = (FlagStatus)(FMC_CTL1 & BIT(FMC_BIT_POS1(flag)));
 708              		.loc 1 884 9 is_stmt 1 view .LVU139
 709              		.loc 1 884 29 is_stmt 0 view .LVU140
 710 001e 1249     		ldr	r1, .L61
 711 0020 0968     		ldr	r1, [r1]
 712              		.loc 1 884 40 view .LVU141
 713 0022 00F01F00 		and	r0, r0, #31
 714              	.LVL16:
 715              		.loc 1 884 40 view .LVU142
 716 0026 03FA00F0 		lsl	r0, r3, r0
 717              		.loc 1 884 16 view .LVU143
 718 002a C0B2     		uxtb	r0, r0
 719              		.loc 1 884 14 view .LVU144
 720 002c 0840     		ands	r0, r0, r1
 721              	.LVL17:
 722              	.L56:
 885:Drivers/GD32F30x_standard_peripheral/Source/gd32f30x_fmc.c ****     }
 886:Drivers/GD32F30x_standard_peripheral/Source/gd32f30x_fmc.c **** 
 887:Drivers/GD32F30x_standard_peripheral/Source/gd32f30x_fmc.c ****     if(ret1 && ret2){
 723              		.loc 1 887 5 is_stmt 1 view .LVU145
 724              		.loc 1 887 7 is_stmt 0 view .LVU146
 725 002e B2B1     		cbz	r2, .L58
 726              		.loc 1 887 13 discriminator 1 view .LVU147
 727 0030 B8B9     		cbnz	r0, .L59
 728 0032 7047     		bx	lr
 729              	.LVL18:
 730              	.L60:
 877:Drivers/GD32F30x_standard_peripheral/Source/gd32f30x_fmc.c ****         /* get the staus of interrupt enale bit */
 731              		.loc 1 877 9 is_stmt 1 view .LVU148
 877:Drivers/GD32F30x_standard_peripheral/Source/gd32f30x_fmc.c ****         /* get the staus of interrupt enale bit */
 732              		.loc 1 877 29 is_stmt 0 view .LVU149
 733 0034 03F18043 		add	r3, r3, #1073741824
 734 0038 03F50833 		add	r3, r3, #139264
 735 003c 1A68     		ldr	r2, [r3]
 877:Drivers/GD32F30x_standard_peripheral/Source/gd32f30x_fmc.c ****         /* get the staus of interrupt enale bit */
 736              		.loc 1 877 50 view .LVU150
 737 003e C0F38413 		ubfx	r3, r0, #6, #5
 738 0042 0121     		movs	r1, #1
 739 0044 01FA03F3 		lsl	r3, r1, r3
 877:Drivers/GD32F30x_standard_peripheral/Source/gd32f30x_fmc.c ****         /* get the staus of interrupt enale bit */
 740              		.loc 1 877 16 view .LVU151
ARM GAS  C:\Users\Prog\AppData\Local\Temp\ccKeEkXj.s 			page 29


 741 0048 DBB2     		uxtb	r3, r3
 877:Drivers/GD32F30x_standard_peripheral/Source/gd32f30x_fmc.c ****         /* get the staus of interrupt enale bit */
 742              		.loc 1 877 14 view .LVU152
 743 004a 1A40     		ands	r2, r2, r3
 744              	.LVL19:
 879:Drivers/GD32F30x_standard_peripheral/Source/gd32f30x_fmc.c ****     }else{
 745              		.loc 1 879 9 is_stmt 1 view .LVU153
 879:Drivers/GD32F30x_standard_peripheral/Source/gd32f30x_fmc.c ****     }else{
 746              		.loc 1 879 29 is_stmt 0 view .LVU154
 747 004c 074B     		ldr	r3, .L61+4
 748 004e 1B68     		ldr	r3, [r3]
 879:Drivers/GD32F30x_standard_peripheral/Source/gd32f30x_fmc.c ****     }else{
 749              		.loc 1 879 40 view .LVU155
 750 0050 00F01F00 		and	r0, r0, #31
 751              	.LVL20:
 879:Drivers/GD32F30x_standard_peripheral/Source/gd32f30x_fmc.c ****     }else{
 752              		.loc 1 879 40 view .LVU156
 753 0054 01FA00F0 		lsl	r0, r1, r0
 879:Drivers/GD32F30x_standard_peripheral/Source/gd32f30x_fmc.c ****     }else{
 754              		.loc 1 879 16 view .LVU157
 755 0058 C0B2     		uxtb	r0, r0
 879:Drivers/GD32F30x_standard_peripheral/Source/gd32f30x_fmc.c ****     }else{
 756              		.loc 1 879 14 view .LVU158
 757 005a 1840     		ands	r0, r0, r3
 758              	.LVL21:
 879:Drivers/GD32F30x_standard_peripheral/Source/gd32f30x_fmc.c ****     }else{
 759              		.loc 1 879 14 view .LVU159
 760 005c E7E7     		b	.L56
 761              	.L58:
 888:Drivers/GD32F30x_standard_peripheral/Source/gd32f30x_fmc.c ****         return SET;
 889:Drivers/GD32F30x_standard_peripheral/Source/gd32f30x_fmc.c ****     }else{
 890:Drivers/GD32F30x_standard_peripheral/Source/gd32f30x_fmc.c ****         return RESET;
 762              		.loc 1 890 16 view .LVU160
 763 005e 0020     		movs	r0, #0
 764              	.LVL22:
 765              		.loc 1 890 16 view .LVU161
 766 0060 7047     		bx	lr
 767              	.LVL23:
 768              	.L59:
 888:Drivers/GD32F30x_standard_peripheral/Source/gd32f30x_fmc.c ****         return SET;
 769              		.loc 1 888 16 view .LVU162
 770 0062 0120     		movs	r0, #1
 771              	.LVL24:
 891:Drivers/GD32F30x_standard_peripheral/Source/gd32f30x_fmc.c ****     }
 892:Drivers/GD32F30x_standard_peripheral/Source/gd32f30x_fmc.c **** }
 772              		.loc 1 892 1 view .LVU163
 773 0064 7047     		bx	lr
 774              	.L62:
 775 0066 00BF     		.align	2
 776              	.L61:
 777 0068 50200240 		.word	1073881168
 778 006c 10200240 		.word	1073881104
 779              		.cfi_endproc
 780              	.LFE145:
 782              		.section	.text.fmc_interrupt_flag_clear,"ax",%progbits
 783              		.align	1
 784              		.global	fmc_interrupt_flag_clear
ARM GAS  C:\Users\Prog\AppData\Local\Temp\ccKeEkXj.s 			page 30


 785              		.syntax unified
 786              		.thumb
 787              		.thumb_func
 788              		.fpu fpv4-sp-d16
 790              	fmc_interrupt_flag_clear:
 791              	.LVL25:
 792              	.LFB146:
 893:Drivers/GD32F30x_standard_peripheral/Source/gd32f30x_fmc.c **** 
 894:Drivers/GD32F30x_standard_peripheral/Source/gd32f30x_fmc.c **** /*!
 895:Drivers/GD32F30x_standard_peripheral/Source/gd32f30x_fmc.c ****     \brief      clear FMC interrupt flag state
 896:Drivers/GD32F30x_standard_peripheral/Source/gd32f30x_fmc.c ****     \param[in]  flag: FMC interrupt flags, refer to can_interrupt_flag_enum
 897:Drivers/GD32F30x_standard_peripheral/Source/gd32f30x_fmc.c ****                 only one parameter can be selected which is shown as below:
 898:Drivers/GD32F30x_standard_peripheral/Source/gd32f30x_fmc.c ****       \arg        FMC_INT_FLAG_BANK0_PGERR: FMC bank0 operation error interrupt flag bit
 899:Drivers/GD32F30x_standard_peripheral/Source/gd32f30x_fmc.c ****       \arg        FMC_INT_FLAG_BANK0_WPERR: FMC bank0 erase/program protection error interrupt flag
 900:Drivers/GD32F30x_standard_peripheral/Source/gd32f30x_fmc.c ****       \arg        FMC_INT_FLAG_BANK0_END: FMC bank0 end of operation interrupt flag bit
 901:Drivers/GD32F30x_standard_peripheral/Source/gd32f30x_fmc.c ****       \arg        FMC_INT_FLAG_BANK1_PGERR: FMC bank1 operation error interrupt flag bit
 902:Drivers/GD32F30x_standard_peripheral/Source/gd32f30x_fmc.c ****       \arg        FMC_INT_FLAG_BANK1_WPERR: FMC bank1 erase/program protection error interrupt flag
 903:Drivers/GD32F30x_standard_peripheral/Source/gd32f30x_fmc.c ****       \arg        FMC_INT_FLAG_BANK1_END: FMC bank1 end of operation interrupt flag bit
 904:Drivers/GD32F30x_standard_peripheral/Source/gd32f30x_fmc.c ****     \param[out] none
 905:Drivers/GD32F30x_standard_peripheral/Source/gd32f30x_fmc.c ****     \retval     none
 906:Drivers/GD32F30x_standard_peripheral/Source/gd32f30x_fmc.c **** */
 907:Drivers/GD32F30x_standard_peripheral/Source/gd32f30x_fmc.c **** void fmc_interrupt_flag_clear(fmc_interrupt_flag_enum flag)
 908:Drivers/GD32F30x_standard_peripheral/Source/gd32f30x_fmc.c **** {
 793              		.loc 1 908 1 is_stmt 1 view -0
 794              		.cfi_startproc
 795              		@ args = 0, pretend = 0, frame = 0
 796              		@ frame_needed = 0, uses_anonymous_args = 0
 797              		@ link register save eliminated.
 909:Drivers/GD32F30x_standard_peripheral/Source/gd32f30x_fmc.c ****     FMC_REG_VALS(flag) |= BIT(FMC_BIT_POS0(flag));
 798              		.loc 1 909 5 view .LVU165
 799              		.loc 1 909 24 is_stmt 0 view .LVU166
 800 0000 030B     		lsrs	r3, r0, #12
 801 0002 03F18043 		add	r3, r3, #1073741824
 802 0006 03F50833 		add	r3, r3, #139264
 803 000a 1A68     		ldr	r2, [r3]
 804              		.loc 1 909 27 view .LVU167
 805 000c C0F38410 		ubfx	r0, r0, #6, #5
 806              	.LVL26:
 807              		.loc 1 909 27 view .LVU168
 808 0010 0121     		movs	r1, #1
 809 0012 01FA00F0 		lsl	r0, r1, r0
 810              		.loc 1 909 24 view .LVU169
 811 0016 0243     		orrs	r2, r2, r0
 812 0018 1A60     		str	r2, [r3]
 910:Drivers/GD32F30x_standard_peripheral/Source/gd32f30x_fmc.c **** }
 813              		.loc 1 910 1 view .LVU170
 814 001a 7047     		bx	lr
 815              		.cfi_endproc
 816              	.LFE146:
 818              		.section	.text.fmc_bank0_state_get,"ax",%progbits
 819              		.align	1
 820              		.global	fmc_bank0_state_get
 821              		.syntax unified
 822              		.thumb
 823              		.thumb_func
 824              		.fpu fpv4-sp-d16
 826              	fmc_bank0_state_get:
ARM GAS  C:\Users\Prog\AppData\Local\Temp\ccKeEkXj.s 			page 31


 827              	.LFB147:
 911:Drivers/GD32F30x_standard_peripheral/Source/gd32f30x_fmc.c **** 
 912:Drivers/GD32F30x_standard_peripheral/Source/gd32f30x_fmc.c **** /*!
 913:Drivers/GD32F30x_standard_peripheral/Source/gd32f30x_fmc.c ****     \brief      get the FMC bank0 state
 914:Drivers/GD32F30x_standard_peripheral/Source/gd32f30x_fmc.c ****     \param[in]  none
 915:Drivers/GD32F30x_standard_peripheral/Source/gd32f30x_fmc.c ****     \param[out] none
 916:Drivers/GD32F30x_standard_peripheral/Source/gd32f30x_fmc.c ****     \retval     state of FMC, refer to fmc_state_enum
 917:Drivers/GD32F30x_standard_peripheral/Source/gd32f30x_fmc.c **** */
 918:Drivers/GD32F30x_standard_peripheral/Source/gd32f30x_fmc.c **** fmc_state_enum fmc_bank0_state_get(void)
 919:Drivers/GD32F30x_standard_peripheral/Source/gd32f30x_fmc.c **** {
 828              		.loc 1 919 1 is_stmt 1 view -0
 829              		.cfi_startproc
 830              		@ args = 0, pretend = 0, frame = 0
 831              		@ frame_needed = 0, uses_anonymous_args = 0
 832              		@ link register save eliminated.
 920:Drivers/GD32F30x_standard_peripheral/Source/gd32f30x_fmc.c ****     fmc_state_enum fmc_state = FMC_READY;
 833              		.loc 1 920 5 view .LVU172
 834              	.LVL27:
 921:Drivers/GD32F30x_standard_peripheral/Source/gd32f30x_fmc.c ****   
 922:Drivers/GD32F30x_standard_peripheral/Source/gd32f30x_fmc.c ****     if((uint32_t)0x00U != (FMC_STAT0 & FMC_STAT0_BUSY)){
 835              		.loc 1 922 5 view .LVU173
 836              		.loc 1 922 28 is_stmt 0 view .LVU174
 837 0000 0B4B     		ldr	r3, .L69
 838 0002 1B68     		ldr	r3, [r3]
 839              		.loc 1 922 7 view .LVU175
 840 0004 13F0010F 		tst	r3, #1
 841 0008 0BD1     		bne	.L66
 923:Drivers/GD32F30x_standard_peripheral/Source/gd32f30x_fmc.c ****         fmc_state = FMC_BUSY;
 924:Drivers/GD32F30x_standard_peripheral/Source/gd32f30x_fmc.c ****     }else{
 925:Drivers/GD32F30x_standard_peripheral/Source/gd32f30x_fmc.c ****         if((uint32_t)0x00U != (FMC_STAT0 & FMC_STAT0_WPERR)){
 842              		.loc 1 925 9 is_stmt 1 view .LVU176
 843              		.loc 1 925 32 is_stmt 0 view .LVU177
 844 000a 094B     		ldr	r3, .L69
 845 000c 1B68     		ldr	r3, [r3]
 846              		.loc 1 925 11 view .LVU178
 847 000e 13F0100F 		tst	r3, #16
 848 0012 08D1     		bne	.L67
 926:Drivers/GD32F30x_standard_peripheral/Source/gd32f30x_fmc.c ****             fmc_state = FMC_WPERR;
 927:Drivers/GD32F30x_standard_peripheral/Source/gd32f30x_fmc.c ****         }else{
 928:Drivers/GD32F30x_standard_peripheral/Source/gd32f30x_fmc.c ****             if((uint32_t)0x00U != (FMC_STAT0 & (FMC_STAT0_PGERR))){
 849              		.loc 1 928 13 is_stmt 1 view .LVU179
 850              		.loc 1 928 36 is_stmt 0 view .LVU180
 851 0014 064B     		ldr	r3, .L69
 852 0016 1B68     		ldr	r3, [r3]
 853              		.loc 1 928 15 view .LVU181
 854 0018 13F0040F 		tst	r3, #4
 855 001c 05D1     		bne	.L68
 920:Drivers/GD32F30x_standard_peripheral/Source/gd32f30x_fmc.c ****   
 856              		.loc 1 920 20 view .LVU182
 857 001e 0020     		movs	r0, #0
 858 0020 7047     		bx	lr
 859              	.L66:
 923:Drivers/GD32F30x_standard_peripheral/Source/gd32f30x_fmc.c ****         fmc_state = FMC_BUSY;
 860              		.loc 1 923 19 view .LVU183
 861 0022 0120     		movs	r0, #1
 862 0024 7047     		bx	lr
 863              	.L67:
ARM GAS  C:\Users\Prog\AppData\Local\Temp\ccKeEkXj.s 			page 32


 926:Drivers/GD32F30x_standard_peripheral/Source/gd32f30x_fmc.c ****             fmc_state = FMC_WPERR;
 864              		.loc 1 926 23 view .LVU184
 865 0026 0320     		movs	r0, #3
 866 0028 7047     		bx	lr
 867              	.L68:
 929:Drivers/GD32F30x_standard_peripheral/Source/gd32f30x_fmc.c ****                 fmc_state = FMC_PGERR; 
 868              		.loc 1 929 27 view .LVU185
 869 002a 0220     		movs	r0, #2
 870              	.LVL28:
 930:Drivers/GD32F30x_standard_peripheral/Source/gd32f30x_fmc.c ****             }
 931:Drivers/GD32F30x_standard_peripheral/Source/gd32f30x_fmc.c ****         }
 932:Drivers/GD32F30x_standard_peripheral/Source/gd32f30x_fmc.c ****     }
 933:Drivers/GD32F30x_standard_peripheral/Source/gd32f30x_fmc.c ****     /* return the FMC state */
 934:Drivers/GD32F30x_standard_peripheral/Source/gd32f30x_fmc.c ****     return fmc_state;
 871              		.loc 1 934 5 is_stmt 1 view .LVU186
 935:Drivers/GD32F30x_standard_peripheral/Source/gd32f30x_fmc.c **** }
 872              		.loc 1 935 1 is_stmt 0 view .LVU187
 873 002c 7047     		bx	lr
 874              	.L70:
 875 002e 00BF     		.align	2
 876              	.L69:
 877 0030 0C200240 		.word	1073881100
 878              		.cfi_endproc
 879              	.LFE147:
 881              		.section	.text.fmc_bank1_state_get,"ax",%progbits
 882              		.align	1
 883              		.global	fmc_bank1_state_get
 884              		.syntax unified
 885              		.thumb
 886              		.thumb_func
 887              		.fpu fpv4-sp-d16
 889              	fmc_bank1_state_get:
 890              	.LFB148:
 936:Drivers/GD32F30x_standard_peripheral/Source/gd32f30x_fmc.c **** 
 937:Drivers/GD32F30x_standard_peripheral/Source/gd32f30x_fmc.c **** /*!
 938:Drivers/GD32F30x_standard_peripheral/Source/gd32f30x_fmc.c ****     \brief      get the FMC bank1 state
 939:Drivers/GD32F30x_standard_peripheral/Source/gd32f30x_fmc.c ****     \param[in]  none
 940:Drivers/GD32F30x_standard_peripheral/Source/gd32f30x_fmc.c ****     \param[out] none
 941:Drivers/GD32F30x_standard_peripheral/Source/gd32f30x_fmc.c ****     \retval     state of FMC, refer to fmc_state_enum
 942:Drivers/GD32F30x_standard_peripheral/Source/gd32f30x_fmc.c **** */
 943:Drivers/GD32F30x_standard_peripheral/Source/gd32f30x_fmc.c **** fmc_state_enum fmc_bank1_state_get(void)
 944:Drivers/GD32F30x_standard_peripheral/Source/gd32f30x_fmc.c **** {
 891              		.loc 1 944 1 is_stmt 1 view -0
 892              		.cfi_startproc
 893              		@ args = 0, pretend = 0, frame = 0
 894              		@ frame_needed = 0, uses_anonymous_args = 0
 895              		@ link register save eliminated.
 945:Drivers/GD32F30x_standard_peripheral/Source/gd32f30x_fmc.c ****     fmc_state_enum fmc_state = FMC_READY;
 896              		.loc 1 945 5 view .LVU189
 897              	.LVL29:
 946:Drivers/GD32F30x_standard_peripheral/Source/gd32f30x_fmc.c **** 
 947:Drivers/GD32F30x_standard_peripheral/Source/gd32f30x_fmc.c ****     if((uint32_t)0x00U != (FMC_STAT1 & FMC_STAT1_BUSY)){
 898              		.loc 1 947 5 view .LVU190
 899              		.loc 1 947 28 is_stmt 0 view .LVU191
 900 0000 0B4B     		ldr	r3, .L76
 901 0002 1B68     		ldr	r3, [r3]
 902              		.loc 1 947 7 view .LVU192
ARM GAS  C:\Users\Prog\AppData\Local\Temp\ccKeEkXj.s 			page 33


 903 0004 13F0010F 		tst	r3, #1
 904 0008 0BD1     		bne	.L73
 948:Drivers/GD32F30x_standard_peripheral/Source/gd32f30x_fmc.c ****         fmc_state = FMC_BUSY;
 949:Drivers/GD32F30x_standard_peripheral/Source/gd32f30x_fmc.c ****     }else{
 950:Drivers/GD32F30x_standard_peripheral/Source/gd32f30x_fmc.c ****         if((uint32_t)0x00U != (FMC_STAT1 & FMC_STAT1_WPERR)){
 905              		.loc 1 950 9 is_stmt 1 view .LVU193
 906              		.loc 1 950 32 is_stmt 0 view .LVU194
 907 000a 094B     		ldr	r3, .L76
 908 000c 1B68     		ldr	r3, [r3]
 909              		.loc 1 950 11 view .LVU195
 910 000e 13F0100F 		tst	r3, #16
 911 0012 08D1     		bne	.L74
 951:Drivers/GD32F30x_standard_peripheral/Source/gd32f30x_fmc.c ****             fmc_state = FMC_WPERR;
 952:Drivers/GD32F30x_standard_peripheral/Source/gd32f30x_fmc.c ****         }else{
 953:Drivers/GD32F30x_standard_peripheral/Source/gd32f30x_fmc.c ****             if((uint32_t)0x00U != (FMC_STAT1 & FMC_STAT1_PGERR)){
 912              		.loc 1 953 13 is_stmt 1 view .LVU196
 913              		.loc 1 953 36 is_stmt 0 view .LVU197
 914 0014 064B     		ldr	r3, .L76
 915 0016 1B68     		ldr	r3, [r3]
 916              		.loc 1 953 15 view .LVU198
 917 0018 13F0040F 		tst	r3, #4
 918 001c 05D1     		bne	.L75
 945:Drivers/GD32F30x_standard_peripheral/Source/gd32f30x_fmc.c **** 
 919              		.loc 1 945 20 view .LVU199
 920 001e 0020     		movs	r0, #0
 921 0020 7047     		bx	lr
 922              	.L73:
 948:Drivers/GD32F30x_standard_peripheral/Source/gd32f30x_fmc.c ****         fmc_state = FMC_BUSY;
 923              		.loc 1 948 19 view .LVU200
 924 0022 0120     		movs	r0, #1
 925 0024 7047     		bx	lr
 926              	.L74:
 951:Drivers/GD32F30x_standard_peripheral/Source/gd32f30x_fmc.c ****             fmc_state = FMC_WPERR;
 927              		.loc 1 951 23 view .LVU201
 928 0026 0320     		movs	r0, #3
 929 0028 7047     		bx	lr
 930              	.L75:
 954:Drivers/GD32F30x_standard_peripheral/Source/gd32f30x_fmc.c ****                 fmc_state = FMC_PGERR; 
 931              		.loc 1 954 27 view .LVU202
 932 002a 0220     		movs	r0, #2
 933              	.LVL30:
 955:Drivers/GD32F30x_standard_peripheral/Source/gd32f30x_fmc.c ****             }
 956:Drivers/GD32F30x_standard_peripheral/Source/gd32f30x_fmc.c ****         }
 957:Drivers/GD32F30x_standard_peripheral/Source/gd32f30x_fmc.c ****     }
 958:Drivers/GD32F30x_standard_peripheral/Source/gd32f30x_fmc.c **** 
 959:Drivers/GD32F30x_standard_peripheral/Source/gd32f30x_fmc.c ****     /* return the FMC state */
 960:Drivers/GD32F30x_standard_peripheral/Source/gd32f30x_fmc.c ****     return fmc_state;
 934              		.loc 1 960 5 is_stmt 1 view .LVU203
 961:Drivers/GD32F30x_standard_peripheral/Source/gd32f30x_fmc.c **** }
 935              		.loc 1 961 1 is_stmt 0 view .LVU204
 936 002c 7047     		bx	lr
 937              	.L77:
 938 002e 00BF     		.align	2
 939              	.L76:
 940 0030 4C200240 		.word	1073881164
 941              		.cfi_endproc
 942              	.LFE148:
ARM GAS  C:\Users\Prog\AppData\Local\Temp\ccKeEkXj.s 			page 34


 944              		.section	.text.fmc_bank0_ready_wait,"ax",%progbits
 945              		.align	1
 946              		.global	fmc_bank0_ready_wait
 947              		.syntax unified
 948              		.thumb
 949              		.thumb_func
 950              		.fpu fpv4-sp-d16
 952              	fmc_bank0_ready_wait:
 953              	.LVL31:
 954              	.LFB149:
 962:Drivers/GD32F30x_standard_peripheral/Source/gd32f30x_fmc.c **** 
 963:Drivers/GD32F30x_standard_peripheral/Source/gd32f30x_fmc.c **** /*!
 964:Drivers/GD32F30x_standard_peripheral/Source/gd32f30x_fmc.c ****     \brief      check whether FMC bank0 is ready or not
 965:Drivers/GD32F30x_standard_peripheral/Source/gd32f30x_fmc.c ****     \param[in]  timeout: count of loop
 966:Drivers/GD32F30x_standard_peripheral/Source/gd32f30x_fmc.c ****     \param[out] none
 967:Drivers/GD32F30x_standard_peripheral/Source/gd32f30x_fmc.c ****     \retval     state of FMC, refer to fmc_state_enum
 968:Drivers/GD32F30x_standard_peripheral/Source/gd32f30x_fmc.c **** */
 969:Drivers/GD32F30x_standard_peripheral/Source/gd32f30x_fmc.c **** fmc_state_enum fmc_bank0_ready_wait(uint32_t timeout)
 970:Drivers/GD32F30x_standard_peripheral/Source/gd32f30x_fmc.c **** {
 955              		.loc 1 970 1 is_stmt 1 view -0
 956              		.cfi_startproc
 957              		@ args = 0, pretend = 0, frame = 0
 958              		@ frame_needed = 0, uses_anonymous_args = 0
 959              		.loc 1 970 1 is_stmt 0 view .LVU206
 960 0000 10B5     		push	{r4, lr}
 961              	.LCFI0:
 962              		.cfi_def_cfa_offset 8
 963              		.cfi_offset 4, -8
 964              		.cfi_offset 14, -4
 965 0002 0446     		mov	r4, r0
 971:Drivers/GD32F30x_standard_peripheral/Source/gd32f30x_fmc.c ****     fmc_state_enum fmc_state = FMC_BUSY;
 966              		.loc 1 971 5 is_stmt 1 view .LVU207
 967              	.LVL32:
 968              	.L80:
 972:Drivers/GD32F30x_standard_peripheral/Source/gd32f30x_fmc.c ****   
 973:Drivers/GD32F30x_standard_peripheral/Source/gd32f30x_fmc.c ****     /* wait for FMC ready */
 974:Drivers/GD32F30x_standard_peripheral/Source/gd32f30x_fmc.c ****     do{
 969              		.loc 1 974 5 discriminator 2 view .LVU208
 975:Drivers/GD32F30x_standard_peripheral/Source/gd32f30x_fmc.c ****         /* get FMC state */
 976:Drivers/GD32F30x_standard_peripheral/Source/gd32f30x_fmc.c ****         fmc_state = fmc_bank0_state_get();
 970              		.loc 1 976 9 discriminator 2 view .LVU209
 971              		.loc 1 976 21 is_stmt 0 discriminator 2 view .LVU210
 972 0004 FFF7FEFF 		bl	fmc_bank0_state_get
 973              	.LVL33:
 977:Drivers/GD32F30x_standard_peripheral/Source/gd32f30x_fmc.c ****         timeout--;
 974              		.loc 1 977 9 is_stmt 1 discriminator 2 view .LVU211
 975              		.loc 1 977 16 is_stmt 0 discriminator 2 view .LVU212
 976 0008 013C     		subs	r4, r4, #1
 977              	.LVL34:
 978:Drivers/GD32F30x_standard_peripheral/Source/gd32f30x_fmc.c ****     }while((FMC_BUSY == fmc_state) && (0x00U != timeout));
 978              		.loc 1 978 5 discriminator 2 view .LVU213
 979 000a 0128     		cmp	r0, #1
 980 000c 01D1     		bne	.L79
 981              		.loc 1 978 36 discriminator 1 view .LVU214
 982 000e 002C     		cmp	r4, #0
 983 0010 F8D1     		bne	.L80
 984              	.L79:
ARM GAS  C:\Users\Prog\AppData\Local\Temp\ccKeEkXj.s 			page 35


 979:Drivers/GD32F30x_standard_peripheral/Source/gd32f30x_fmc.c ****     
 980:Drivers/GD32F30x_standard_peripheral/Source/gd32f30x_fmc.c ****     if(FMC_BUSY == fmc_state){
 985              		.loc 1 980 5 is_stmt 1 view .LVU215
 986              		.loc 1 980 7 is_stmt 0 view .LVU216
 987 0012 0128     		cmp	r0, #1
 988 0014 00D0     		beq	.L84
 989              	.LVL35:
 990              	.L81:
 981:Drivers/GD32F30x_standard_peripheral/Source/gd32f30x_fmc.c ****         fmc_state = FMC_TOERR;
 982:Drivers/GD32F30x_standard_peripheral/Source/gd32f30x_fmc.c ****     }
 983:Drivers/GD32F30x_standard_peripheral/Source/gd32f30x_fmc.c ****     /* return the FMC state */
 984:Drivers/GD32F30x_standard_peripheral/Source/gd32f30x_fmc.c ****     return fmc_state;
 991              		.loc 1 984 5 is_stmt 1 view .LVU217
 985:Drivers/GD32F30x_standard_peripheral/Source/gd32f30x_fmc.c **** }
 992              		.loc 1 985 1 is_stmt 0 view .LVU218
 993 0016 10BD     		pop	{r4, pc}
 994              	.LVL36:
 995              	.L84:
 981:Drivers/GD32F30x_standard_peripheral/Source/gd32f30x_fmc.c ****         fmc_state = FMC_TOERR;
 996              		.loc 1 981 19 view .LVU219
 997 0018 0420     		movs	r0, #4
 998              	.LVL37:
 981:Drivers/GD32F30x_standard_peripheral/Source/gd32f30x_fmc.c ****         fmc_state = FMC_TOERR;
 999              		.loc 1 981 19 view .LVU220
 1000 001a FCE7     		b	.L81
 1001              		.cfi_endproc
 1002              	.LFE149:
 1004              		.section	.text.fmc_bank0_erase,"ax",%progbits
 1005              		.align	1
 1006              		.global	fmc_bank0_erase
 1007              		.syntax unified
 1008              		.thumb
 1009              		.thumb_func
 1010              		.fpu fpv4-sp-d16
 1012              	fmc_bank0_erase:
 1013              	.LFB125:
 275:Drivers/GD32F30x_standard_peripheral/Source/gd32f30x_fmc.c ****     fmc_state_enum fmc_state = FMC_READY;
 1014              		.loc 1 275 1 is_stmt 1 view -0
 1015              		.cfi_startproc
 1016              		@ args = 0, pretend = 0, frame = 0
 1017              		@ frame_needed = 0, uses_anonymous_args = 0
 1018 0000 10B5     		push	{r4, lr}
 1019              	.LCFI1:
 1020              		.cfi_def_cfa_offset 8
 1021              		.cfi_offset 4, -8
 1022              		.cfi_offset 14, -4
 276:Drivers/GD32F30x_standard_peripheral/Source/gd32f30x_fmc.c ****     /* wait for the FMC ready */
 1023              		.loc 1 276 5 view .LVU222
 1024              	.LVL38:
 278:Drivers/GD32F30x_standard_peripheral/Source/gd32f30x_fmc.c **** 
 1025              		.loc 1 278 5 view .LVU223
 278:Drivers/GD32F30x_standard_peripheral/Source/gd32f30x_fmc.c **** 
 1026              		.loc 1 278 17 is_stmt 0 view .LVU224
 1027 0002 0C48     		ldr	r0, .L89
 1028 0004 FFF7FEFF 		bl	fmc_bank0_ready_wait
 1029              	.LVL39:
 280:Drivers/GD32F30x_standard_peripheral/Source/gd32f30x_fmc.c ****         /* start FMC bank0 erase */
ARM GAS  C:\Users\Prog\AppData\Local\Temp\ccKeEkXj.s 			page 36


 1030              		.loc 1 280 5 is_stmt 1 view .LVU225
 280:Drivers/GD32F30x_standard_peripheral/Source/gd32f30x_fmc.c ****         /* start FMC bank0 erase */
 1031              		.loc 1 280 7 is_stmt 0 view .LVU226
 1032 0008 0346     		mov	r3, r0
 1033 000a 08B1     		cbz	r0, .L88
 1034              	.LVL40:
 1035              	.L86:
 290:Drivers/GD32F30x_standard_peripheral/Source/gd32f30x_fmc.c **** }
 1036              		.loc 1 290 5 is_stmt 1 view .LVU227
 291:Drivers/GD32F30x_standard_peripheral/Source/gd32f30x_fmc.c **** 
 1037              		.loc 1 291 1 is_stmt 0 view .LVU228
 1038 000c 1846     		mov	r0, r3
 1039 000e 10BD     		pop	{r4, pc}
 1040              	.LVL41:
 1041              	.L88:
 282:Drivers/GD32F30x_standard_peripheral/Source/gd32f30x_fmc.c ****         FMC_CTL0 |= FMC_CTL0_START;
 1042              		.loc 1 282 9 is_stmt 1 view .LVU229
 282:Drivers/GD32F30x_standard_peripheral/Source/gd32f30x_fmc.c ****         FMC_CTL0 |= FMC_CTL0_START;
 1043              		.loc 1 282 18 is_stmt 0 view .LVU230
 1044 0010 094C     		ldr	r4, .L89+4
 1045 0012 2368     		ldr	r3, [r4]
 1046 0014 43F00403 		orr	r3, r3, #4
 1047 0018 2360     		str	r3, [r4]
 283:Drivers/GD32F30x_standard_peripheral/Source/gd32f30x_fmc.c ****         /* wait for the FMC ready */
 1048              		.loc 1 283 9 is_stmt 1 view .LVU231
 283:Drivers/GD32F30x_standard_peripheral/Source/gd32f30x_fmc.c ****         /* wait for the FMC ready */
 1049              		.loc 1 283 18 is_stmt 0 view .LVU232
 1050 001a 2368     		ldr	r3, [r4]
 1051 001c 43F04003 		orr	r3, r3, #64
 1052 0020 2360     		str	r3, [r4]
 285:Drivers/GD32F30x_standard_peripheral/Source/gd32f30x_fmc.c ****         /* reset the MER bit */
 1053              		.loc 1 285 9 is_stmt 1 view .LVU233
 285:Drivers/GD32F30x_standard_peripheral/Source/gd32f30x_fmc.c ****         /* reset the MER bit */
 1054              		.loc 1 285 21 is_stmt 0 view .LVU234
 1055 0022 0448     		ldr	r0, .L89
 1056              	.LVL42:
 285:Drivers/GD32F30x_standard_peripheral/Source/gd32f30x_fmc.c ****         /* reset the MER bit */
 1057              		.loc 1 285 21 view .LVU235
 1058 0024 FFF7FEFF 		bl	fmc_bank0_ready_wait
 1059              	.LVL43:
 1060 0028 0346     		mov	r3, r0
 1061              	.LVL44:
 287:Drivers/GD32F30x_standard_peripheral/Source/gd32f30x_fmc.c ****     }
 1062              		.loc 1 287 9 is_stmt 1 view .LVU236
 287:Drivers/GD32F30x_standard_peripheral/Source/gd32f30x_fmc.c ****     }
 1063              		.loc 1 287 18 is_stmt 0 view .LVU237
 1064 002a 2268     		ldr	r2, [r4]
 1065 002c 22F00402 		bic	r2, r2, #4
 1066 0030 2260     		str	r2, [r4]
 1067 0032 EBE7     		b	.L86
 1068              	.L90:
 1069              		.align	2
 1070              	.L89:
 1071 0034 0000FF0F 		.word	268369920
 1072 0038 10200240 		.word	1073881104
 1073              		.cfi_endproc
 1074              	.LFE125:
ARM GAS  C:\Users\Prog\AppData\Local\Temp\ccKeEkXj.s 			page 37


 1076              		.section	.text.ob_erase,"ax",%progbits
 1077              		.align	1
 1078              		.global	ob_erase
 1079              		.syntax unified
 1080              		.thumb
 1081              		.thumb_func
 1082              		.fpu fpv4-sp-d16
 1084              	ob_erase:
 1085              	.LFB132:
 512:Drivers/GD32F30x_standard_peripheral/Source/gd32f30x_fmc.c ****     uint16_t temp_spc = FMC_NSPC;
 1086              		.loc 1 512 1 is_stmt 1 view -0
 1087              		.cfi_startproc
 1088              		@ args = 0, pretend = 0, frame = 0
 1089              		@ frame_needed = 0, uses_anonymous_args = 0
 1090 0000 38B5     		push	{r3, r4, r5, lr}
 1091              	.LCFI2:
 1092              		.cfi_def_cfa_offset 16
 1093              		.cfi_offset 3, -16
 1094              		.cfi_offset 4, -12
 1095              		.cfi_offset 5, -8
 1096              		.cfi_offset 14, -4
 513:Drivers/GD32F30x_standard_peripheral/Source/gd32f30x_fmc.c **** 
 1097              		.loc 1 513 5 view .LVU239
 1098              	.LVL45:
 515:Drivers/GD32F30x_standard_peripheral/Source/gd32f30x_fmc.c **** 
 1099              		.loc 1 515 5 view .LVU240
 515:Drivers/GD32F30x_standard_peripheral/Source/gd32f30x_fmc.c **** 
 1100              		.loc 1 515 32 is_stmt 0 view .LVU241
 1101 0002 1D48     		ldr	r0, .L99
 1102 0004 FFF7FEFF 		bl	fmc_bank0_ready_wait
 1103              	.LVL46:
 1104 0008 0446     		mov	r4, r0
 1105              	.LVL47:
 518:Drivers/GD32F30x_standard_peripheral/Source/gd32f30x_fmc.c ****         temp_spc = FMC_USPC;  
 1106              		.loc 1 518 5 is_stmt 1 view .LVU242
 518:Drivers/GD32F30x_standard_peripheral/Source/gd32f30x_fmc.c ****         temp_spc = FMC_USPC;  
 1107              		.loc 1 518 17 is_stmt 0 view .LVU243
 1108 000a FFF7FEFF 		bl	ob_spc_get
 1109              	.LVL48:
 518:Drivers/GD32F30x_standard_peripheral/Source/gd32f30x_fmc.c ****         temp_spc = FMC_USPC;  
 1110              		.loc 1 518 7 view .LVU244
 1111 000e 18B9     		cbnz	r0, .L95
 513:Drivers/GD32F30x_standard_peripheral/Source/gd32f30x_fmc.c **** 
 1112              		.loc 1 513 14 view .LVU245
 1113 0010 A525     		movs	r5, #165
 1114              	.L92:
 1115              	.LVL49:
 522:Drivers/GD32F30x_standard_peripheral/Source/gd32f30x_fmc.c **** 
 1116              		.loc 1 522 5 is_stmt 1 view .LVU246
 522:Drivers/GD32F30x_standard_peripheral/Source/gd32f30x_fmc.c **** 
 1117              		.loc 1 522 7 is_stmt 0 view .LVU247
 1118 0012 1CB1     		cbz	r4, .L97
 1119              	.LVL50:
 1120              	.L93:
 552:Drivers/GD32F30x_standard_peripheral/Source/gd32f30x_fmc.c **** }
 1121              		.loc 1 552 5 is_stmt 1 view .LVU248
 553:Drivers/GD32F30x_standard_peripheral/Source/gd32f30x_fmc.c **** 
ARM GAS  C:\Users\Prog\AppData\Local\Temp\ccKeEkXj.s 			page 38


 1122              		.loc 1 553 1 is_stmt 0 view .LVU249
 1123 0014 2046     		mov	r0, r4
 1124 0016 38BD     		pop	{r3, r4, r5, pc}
 1125              	.LVL51:
 1126              	.L95:
 519:Drivers/GD32F30x_standard_peripheral/Source/gd32f30x_fmc.c ****     }
 1127              		.loc 1 519 18 view .LVU250
 1128 0018 BB25     		movs	r5, #187
 1129 001a FAE7     		b	.L92
 1130              	.LVL52:
 1131              	.L97:
 525:Drivers/GD32F30x_standard_peripheral/Source/gd32f30x_fmc.c ****         FMC_CTL0 |= FMC_CTL0_START;
 1132              		.loc 1 525 9 is_stmt 1 view .LVU251
 525:Drivers/GD32F30x_standard_peripheral/Source/gd32f30x_fmc.c ****         FMC_CTL0 |= FMC_CTL0_START;
 1133              		.loc 1 525 18 is_stmt 0 view .LVU252
 1134 001c 174B     		ldr	r3, .L99+4
 1135 001e 1A68     		ldr	r2, [r3]
 1136 0020 42F02002 		orr	r2, r2, #32
 1137 0024 1A60     		str	r2, [r3]
 526:Drivers/GD32F30x_standard_peripheral/Source/gd32f30x_fmc.c **** 
 1138              		.loc 1 526 9 is_stmt 1 view .LVU253
 526:Drivers/GD32F30x_standard_peripheral/Source/gd32f30x_fmc.c **** 
 1139              		.loc 1 526 18 is_stmt 0 view .LVU254
 1140 0026 1A68     		ldr	r2, [r3]
 1141 0028 42F04002 		orr	r2, r2, #64
 1142 002c 1A60     		str	r2, [r3]
 529:Drivers/GD32F30x_standard_peripheral/Source/gd32f30x_fmc.c ****     
 1143              		.loc 1 529 9 is_stmt 1 view .LVU255
 529:Drivers/GD32F30x_standard_peripheral/Source/gd32f30x_fmc.c ****     
 1144              		.loc 1 529 21 is_stmt 0 view .LVU256
 1145 002e 1248     		ldr	r0, .L99
 1146 0030 FFF7FEFF 		bl	fmc_bank0_ready_wait
 1147              	.LVL53:
 531:Drivers/GD32F30x_standard_peripheral/Source/gd32f30x_fmc.c ****             /* reset the OBER bit */
 1148              		.loc 1 531 9 is_stmt 1 view .LVU257
 531:Drivers/GD32F30x_standard_peripheral/Source/gd32f30x_fmc.c ****             /* reset the OBER bit */
 1149              		.loc 1 531 11 is_stmt 0 view .LVU258
 1150 0034 0446     		mov	r4, r0
 1151 0036 38B1     		cbz	r0, .L98
 545:Drivers/GD32F30x_standard_peripheral/Source/gd32f30x_fmc.c ****                 /* reset the OBPG bit */
 1152              		.loc 1 545 13 is_stmt 1 view .LVU259
 545:Drivers/GD32F30x_standard_peripheral/Source/gd32f30x_fmc.c ****                 /* reset the OBPG bit */
 1153              		.loc 1 545 15 is_stmt 0 view .LVU260
 1154 0038 0428     		cmp	r0, #4
 1155 003a EBD0     		beq	.L93
 547:Drivers/GD32F30x_standard_peripheral/Source/gd32f30x_fmc.c ****             }
 1156              		.loc 1 547 17 is_stmt 1 view .LVU261
 547:Drivers/GD32F30x_standard_peripheral/Source/gd32f30x_fmc.c ****             }
 1157              		.loc 1 547 26 is_stmt 0 view .LVU262
 1158 003c 0F4A     		ldr	r2, .L99+4
 1159 003e 1368     		ldr	r3, [r2]
 1160 0040 23F01003 		bic	r3, r3, #16
 1161 0044 1360     		str	r3, [r2]
 1162 0046 E5E7     		b	.L93
 1163              	.L98:
 533:Drivers/GD32F30x_standard_peripheral/Source/gd32f30x_fmc.c ****             /* set the OBPG bit */
 1164              		.loc 1 533 13 is_stmt 1 view .LVU263
ARM GAS  C:\Users\Prog\AppData\Local\Temp\ccKeEkXj.s 			page 39


 533:Drivers/GD32F30x_standard_peripheral/Source/gd32f30x_fmc.c ****             /* set the OBPG bit */
 1165              		.loc 1 533 22 is_stmt 0 view .LVU264
 1166 0048 0C4B     		ldr	r3, .L99+4
 1167 004a 1A68     		ldr	r2, [r3]
 1168 004c 22F02002 		bic	r2, r2, #32
 1169 0050 1A60     		str	r2, [r3]
 535:Drivers/GD32F30x_standard_peripheral/Source/gd32f30x_fmc.c ****             /* no security protection */
 1170              		.loc 1 535 13 is_stmt 1 view .LVU265
 535:Drivers/GD32F30x_standard_peripheral/Source/gd32f30x_fmc.c ****             /* no security protection */
 1171              		.loc 1 535 22 is_stmt 0 view .LVU266
 1172 0052 1A68     		ldr	r2, [r3]
 1173 0054 42F01002 		orr	r2, r2, #16
 1174 0058 1A60     		str	r2, [r3]
 537:Drivers/GD32F30x_standard_peripheral/Source/gd32f30x_fmc.c ****             /* wait for the FMC ready */
 1175              		.loc 1 537 13 is_stmt 1 view .LVU267
 537:Drivers/GD32F30x_standard_peripheral/Source/gd32f30x_fmc.c ****             /* wait for the FMC ready */
 1176              		.loc 1 537 20 is_stmt 0 view .LVU268
 1177 005a 094B     		ldr	r3, .L99+8
 1178 005c 1D80     		strh	r5, [r3]	@ movhi
 539:Drivers/GD32F30x_standard_peripheral/Source/gd32f30x_fmc.c ****             if(FMC_TOERR != fmc_state){
 1179              		.loc 1 539 13 is_stmt 1 view .LVU269
 539:Drivers/GD32F30x_standard_peripheral/Source/gd32f30x_fmc.c ****             if(FMC_TOERR != fmc_state){
 1180              		.loc 1 539 25 is_stmt 0 view .LVU270
 1181 005e 0648     		ldr	r0, .L99
 1182              	.LVL54:
 539:Drivers/GD32F30x_standard_peripheral/Source/gd32f30x_fmc.c ****             if(FMC_TOERR != fmc_state){
 1183              		.loc 1 539 25 view .LVU271
 1184 0060 FFF7FEFF 		bl	fmc_bank0_ready_wait
 1185              	.LVL55:
 1186 0064 0446     		mov	r4, r0
 1187              	.LVL56:
 540:Drivers/GD32F30x_standard_peripheral/Source/gd32f30x_fmc.c ****                 /* reset the OBPG bit */
 1188              		.loc 1 540 13 is_stmt 1 view .LVU272
 540:Drivers/GD32F30x_standard_peripheral/Source/gd32f30x_fmc.c ****                 /* reset the OBPG bit */
 1189              		.loc 1 540 15 is_stmt 0 view .LVU273
 1190 0066 0428     		cmp	r0, #4
 1191 0068 D4D0     		beq	.L93
 542:Drivers/GD32F30x_standard_peripheral/Source/gd32f30x_fmc.c ****             }
 1192              		.loc 1 542 17 is_stmt 1 view .LVU274
 542:Drivers/GD32F30x_standard_peripheral/Source/gd32f30x_fmc.c ****             }
 1193              		.loc 1 542 26 is_stmt 0 view .LVU275
 1194 006a 044A     		ldr	r2, .L99+4
 1195 006c 1368     		ldr	r3, [r2]
 1196 006e 23F01003 		bic	r3, r3, #16
 1197 0072 1360     		str	r3, [r2]
 1198 0074 CEE7     		b	.L93
 1199              	.L100:
 1200 0076 00BF     		.align	2
 1201              	.L99:
 1202 0078 0000FF0F 		.word	268369920
 1203 007c 10200240 		.word	1073881104
 1204 0080 00F8FF1F 		.word	536868864
 1205              		.cfi_endproc
 1206              	.LFE132:
 1208              		.section	.text.ob_write_protection_enable,"ax",%progbits
 1209              		.align	1
 1210              		.global	ob_write_protection_enable
ARM GAS  C:\Users\Prog\AppData\Local\Temp\ccKeEkXj.s 			page 40


 1211              		.syntax unified
 1212              		.thumb
 1213              		.thumb_func
 1214              		.fpu fpv4-sp-d16
 1216              	ob_write_protection_enable:
 1217              	.LVL57:
 1218              	.LFB133:
 564:Drivers/GD32F30x_standard_peripheral/Source/gd32f30x_fmc.c ****     uint16_t temp_wp0, temp_wp1, temp_wp2, temp_wp3;
 1219              		.loc 1 564 1 is_stmt 1 view -0
 1220              		.cfi_startproc
 1221              		@ args = 0, pretend = 0, frame = 0
 1222              		@ frame_needed = 0, uses_anonymous_args = 0
 564:Drivers/GD32F30x_standard_peripheral/Source/gd32f30x_fmc.c ****     uint16_t temp_wp0, temp_wp1, temp_wp2, temp_wp3;
 1223              		.loc 1 564 1 is_stmt 0 view .LVU277
 1224 0000 70B5     		push	{r4, r5, r6, lr}
 1225              	.LCFI3:
 1226              		.cfi_def_cfa_offset 16
 1227              		.cfi_offset 4, -16
 1228              		.cfi_offset 5, -12
 1229              		.cfi_offset 6, -8
 1230              		.cfi_offset 14, -4
 1231 0002 0446     		mov	r4, r0
 565:Drivers/GD32F30x_standard_peripheral/Source/gd32f30x_fmc.c **** 
 1232              		.loc 1 565 5 is_stmt 1 view .LVU278
 567:Drivers/GD32F30x_standard_peripheral/Source/gd32f30x_fmc.c **** 
 1233              		.loc 1 567 5 view .LVU279
 567:Drivers/GD32F30x_standard_peripheral/Source/gd32f30x_fmc.c **** 
 1234              		.loc 1 567 32 is_stmt 0 view .LVU280
 1235 0004 2048     		ldr	r0, .L112
 1236              	.LVL58:
 567:Drivers/GD32F30x_standard_peripheral/Source/gd32f30x_fmc.c **** 
 1237              		.loc 1 567 32 view .LVU281
 1238 0006 FFF7FEFF 		bl	fmc_bank0_ready_wait
 1239              	.LVL59:
 569:Drivers/GD32F30x_standard_peripheral/Source/gd32f30x_fmc.c ****     temp_wp0 = (uint16_t)(ob_wp & OB_WP0_WP0);
 1240              		.loc 1 569 5 is_stmt 1 view .LVU282
 569:Drivers/GD32F30x_standard_peripheral/Source/gd32f30x_fmc.c ****     temp_wp0 = (uint16_t)(ob_wp & OB_WP0_WP0);
 1241              		.loc 1 569 11 is_stmt 0 view .LVU283
 1242 000a E343     		mvns	r3, r4
 1243              	.LVL60:
 570:Drivers/GD32F30x_standard_peripheral/Source/gd32f30x_fmc.c ****     temp_wp1 = (uint16_t)((ob_wp & OB_WP1_WP1) >> 8U);
 1244              		.loc 1 570 5 is_stmt 1 view .LVU284
 570:Drivers/GD32F30x_standard_peripheral/Source/gd32f30x_fmc.c ****     temp_wp1 = (uint16_t)((ob_wp & OB_WP1_WP1) >> 8U);
 1245              		.loc 1 570 14 is_stmt 0 view .LVU285
 1246 000c D9B2     		uxtb	r1, r3
 1247              	.LVL61:
 571:Drivers/GD32F30x_standard_peripheral/Source/gd32f30x_fmc.c ****     temp_wp2 = (uint16_t)((ob_wp & OB_WP2_WP2) >> 16U);
 1248              		.loc 1 571 5 is_stmt 1 view .LVU286
 571:Drivers/GD32F30x_standard_peripheral/Source/gd32f30x_fmc.c ****     temp_wp2 = (uint16_t)((ob_wp & OB_WP2_WP2) >> 16U);
 1249              		.loc 1 571 14 is_stmt 0 view .LVU287
 1250 000e C3F30726 		ubfx	r6, r3, #8, #8
 1251              	.LVL62:
 572:Drivers/GD32F30x_standard_peripheral/Source/gd32f30x_fmc.c ****     temp_wp3 = (uint16_t)((ob_wp & OB_WP3_WP3) >> 24U);
 1252              		.loc 1 572 5 is_stmt 1 view .LVU288
 572:Drivers/GD32F30x_standard_peripheral/Source/gd32f30x_fmc.c ****     temp_wp3 = (uint16_t)((ob_wp & OB_WP3_WP3) >> 24U);
 1253              		.loc 1 572 14 is_stmt 0 view .LVU289
 1254 0012 C3F30745 		ubfx	r5, r3, #16, #8
ARM GAS  C:\Users\Prog\AppData\Local\Temp\ccKeEkXj.s 			page 41


 1255              	.LVL63:
 573:Drivers/GD32F30x_standard_peripheral/Source/gd32f30x_fmc.c **** 
 1256              		.loc 1 573 5 is_stmt 1 view .LVU290
 573:Drivers/GD32F30x_standard_peripheral/Source/gd32f30x_fmc.c **** 
 1257              		.loc 1 573 14 is_stmt 0 view .LVU291
 1258 0016 1C0E     		lsrs	r4, r3, #24
 1259              	.LVL64:
 575:Drivers/GD32F30x_standard_peripheral/Source/gd32f30x_fmc.c ****     
 1260              		.loc 1 575 5 is_stmt 1 view .LVU292
 575:Drivers/GD32F30x_standard_peripheral/Source/gd32f30x_fmc.c ****     
 1261              		.loc 1 575 7 is_stmt 0 view .LVU293
 1262 0018 0346     		mov	r3, r0
 1263              	.LVL65:
 575:Drivers/GD32F30x_standard_peripheral/Source/gd32f30x_fmc.c ****     
 1264              		.loc 1 575 7 view .LVU294
 1265 001a B0B9     		cbnz	r0, .L102
 578:Drivers/GD32F30x_standard_peripheral/Source/gd32f30x_fmc.c **** 
 1266              		.loc 1 578 9 is_stmt 1 view .LVU295
 578:Drivers/GD32F30x_standard_peripheral/Source/gd32f30x_fmc.c **** 
 1267              		.loc 1 578 18 is_stmt 0 view .LVU296
 1268 001c 1B48     		ldr	r0, .L112+4
 1269              	.LVL66:
 578:Drivers/GD32F30x_standard_peripheral/Source/gd32f30x_fmc.c **** 
 1270              		.loc 1 578 18 view .LVU297
 1271 001e 0268     		ldr	r2, [r0]
 1272 0020 42F01002 		orr	r2, r2, #16
 1273 0024 0260     		str	r2, [r0]
 580:Drivers/GD32F30x_standard_peripheral/Source/gd32f30x_fmc.c ****             OB_WP0 = temp_wp0;
 1274              		.loc 1 580 9 is_stmt 1 view .LVU298
 580:Drivers/GD32F30x_standard_peripheral/Source/gd32f30x_fmc.c ****             OB_WP0 = temp_wp0;
 1275              		.loc 1 580 11 is_stmt 0 view .LVU299
 1276 0026 FF29     		cmp	r1, #255
 1277 0028 11D1     		bne	.L108
 1278              	.LVL67:
 1279              	.L103:
 586:Drivers/GD32F30x_standard_peripheral/Source/gd32f30x_fmc.c ****             OB_WP1 = temp_wp1;
 1280              		.loc 1 586 9 is_stmt 1 view .LVU300
 586:Drivers/GD32F30x_standard_peripheral/Source/gd32f30x_fmc.c ****             OB_WP1 = temp_wp1;
 1281              		.loc 1 586 11 is_stmt 0 view .LVU301
 1282 002a 0BB9     		cbnz	r3, .L104
 586:Drivers/GD32F30x_standard_peripheral/Source/gd32f30x_fmc.c ****             OB_WP1 = temp_wp1;
 1283              		.loc 1 586 37 discriminator 1 view .LVU302
 1284 002c FF2E     		cmp	r6, #255
 1285 002e 15D1     		bne	.L109
 1286              	.L104:
 592:Drivers/GD32F30x_standard_peripheral/Source/gd32f30x_fmc.c ****             OB_WP2 = temp_wp2;
 1287              		.loc 1 592 9 is_stmt 1 view .LVU303
 592:Drivers/GD32F30x_standard_peripheral/Source/gd32f30x_fmc.c ****             OB_WP2 = temp_wp2;
 1288              		.loc 1 592 11 is_stmt 0 view .LVU304
 1289 0030 0BB9     		cbnz	r3, .L105
 592:Drivers/GD32F30x_standard_peripheral/Source/gd32f30x_fmc.c ****             OB_WP2 = temp_wp2;
 1290              		.loc 1 592 37 discriminator 1 view .LVU305
 1291 0032 FF2D     		cmp	r5, #255
 1292 0034 19D1     		bne	.L110
 1293              	.L105:
 598:Drivers/GD32F30x_standard_peripheral/Source/gd32f30x_fmc.c ****             OB_WP3 = temp_wp3;
 1294              		.loc 1 598 9 is_stmt 1 view .LVU306
ARM GAS  C:\Users\Prog\AppData\Local\Temp\ccKeEkXj.s 			page 42


 598:Drivers/GD32F30x_standard_peripheral/Source/gd32f30x_fmc.c ****             OB_WP3 = temp_wp3;
 1295              		.loc 1 598 11 is_stmt 0 view .LVU307
 1296 0036 0BB9     		cbnz	r3, .L106
 598:Drivers/GD32F30x_standard_peripheral/Source/gd32f30x_fmc.c ****             OB_WP3 = temp_wp3;
 1297              		.loc 1 598 37 discriminator 1 view .LVU308
 1298 0038 FF2C     		cmp	r4, #255
 1299 003a 1DD1     		bne	.L111
 1300              	.L106:
 604:Drivers/GD32F30x_standard_peripheral/Source/gd32f30x_fmc.c ****             /* reset the OBPG bit */
 1301              		.loc 1 604 9 is_stmt 1 view .LVU309
 604:Drivers/GD32F30x_standard_peripheral/Source/gd32f30x_fmc.c ****             /* reset the OBPG bit */
 1302              		.loc 1 604 11 is_stmt 0 view .LVU310
 1303 003c 042B     		cmp	r3, #4
 1304 003e 04D0     		beq	.L102
 606:Drivers/GD32F30x_standard_peripheral/Source/gd32f30x_fmc.c ****         }
 1305              		.loc 1 606 13 is_stmt 1 view .LVU311
 606:Drivers/GD32F30x_standard_peripheral/Source/gd32f30x_fmc.c ****         }
 1306              		.loc 1 606 22 is_stmt 0 view .LVU312
 1307 0040 1249     		ldr	r1, .L112+4
 1308 0042 0A68     		ldr	r2, [r1]
 1309 0044 22F01002 		bic	r2, r2, #16
 1310 0048 0A60     		str	r2, [r1]
 1311              	.LVL68:
 1312              	.L102:
 610:Drivers/GD32F30x_standard_peripheral/Source/gd32f30x_fmc.c **** }
 1313              		.loc 1 610 5 is_stmt 1 view .LVU313
 611:Drivers/GD32F30x_standard_peripheral/Source/gd32f30x_fmc.c **** 
 1314              		.loc 1 611 1 is_stmt 0 view .LVU314
 1315 004a 1846     		mov	r0, r3
 1316 004c 70BD     		pop	{r4, r5, r6, pc}
 1317              	.LVL69:
 1318              	.L108:
 581:Drivers/GD32F30x_standard_peripheral/Source/gd32f30x_fmc.c ****       
 1319              		.loc 1 581 13 is_stmt 1 view .LVU315
 581:Drivers/GD32F30x_standard_peripheral/Source/gd32f30x_fmc.c ****       
 1320              		.loc 1 581 20 is_stmt 0 view .LVU316
 1321 004e 104B     		ldr	r3, .L112+8
 1322 0050 1980     		strh	r1, [r3]	@ movhi
 584:Drivers/GD32F30x_standard_peripheral/Source/gd32f30x_fmc.c ****         }
 1323              		.loc 1 584 13 is_stmt 1 view .LVU317
 584:Drivers/GD32F30x_standard_peripheral/Source/gd32f30x_fmc.c ****         }
 1324              		.loc 1 584 25 is_stmt 0 view .LVU318
 1325 0052 0D48     		ldr	r0, .L112
 1326 0054 FFF7FEFF 		bl	fmc_bank0_ready_wait
 1327              	.LVL70:
 584:Drivers/GD32F30x_standard_peripheral/Source/gd32f30x_fmc.c ****         }
 1328              		.loc 1 584 25 view .LVU319
 1329 0058 0346     		mov	r3, r0
 1330              	.LVL71:
 584:Drivers/GD32F30x_standard_peripheral/Source/gd32f30x_fmc.c ****         }
 1331              		.loc 1 584 25 view .LVU320
 1332 005a E6E7     		b	.L103
 1333              	.L109:
 587:Drivers/GD32F30x_standard_peripheral/Source/gd32f30x_fmc.c ****       
 1334              		.loc 1 587 13 is_stmt 1 view .LVU321
 587:Drivers/GD32F30x_standard_peripheral/Source/gd32f30x_fmc.c ****       
 1335              		.loc 1 587 20 is_stmt 0 view .LVU322
ARM GAS  C:\Users\Prog\AppData\Local\Temp\ccKeEkXj.s 			page 43


 1336 005c 0D4B     		ldr	r3, .L112+12
 1337              	.LVL72:
 587:Drivers/GD32F30x_standard_peripheral/Source/gd32f30x_fmc.c ****       
 1338              		.loc 1 587 20 view .LVU323
 1339 005e 1E80     		strh	r6, [r3]	@ movhi
 590:Drivers/GD32F30x_standard_peripheral/Source/gd32f30x_fmc.c ****         }
 1340              		.loc 1 590 13 is_stmt 1 view .LVU324
 590:Drivers/GD32F30x_standard_peripheral/Source/gd32f30x_fmc.c ****         }
 1341              		.loc 1 590 25 is_stmt 0 view .LVU325
 1342 0060 0948     		ldr	r0, .L112
 1343 0062 FFF7FEFF 		bl	fmc_bank0_ready_wait
 1344              	.LVL73:
 1345 0066 0346     		mov	r3, r0
 1346              	.LVL74:
 590:Drivers/GD32F30x_standard_peripheral/Source/gd32f30x_fmc.c ****         }
 1347              		.loc 1 590 25 view .LVU326
 1348 0068 E2E7     		b	.L104
 1349              	.L110:
 593:Drivers/GD32F30x_standard_peripheral/Source/gd32f30x_fmc.c ****       
 1350              		.loc 1 593 13 is_stmt 1 view .LVU327
 593:Drivers/GD32F30x_standard_peripheral/Source/gd32f30x_fmc.c ****       
 1351              		.loc 1 593 20 is_stmt 0 view .LVU328
 1352 006a 0B4B     		ldr	r3, .L112+16
 1353              	.LVL75:
 593:Drivers/GD32F30x_standard_peripheral/Source/gd32f30x_fmc.c ****       
 1354              		.loc 1 593 20 view .LVU329
 1355 006c 1D80     		strh	r5, [r3]	@ movhi
 596:Drivers/GD32F30x_standard_peripheral/Source/gd32f30x_fmc.c ****         }
 1356              		.loc 1 596 13 is_stmt 1 view .LVU330
 596:Drivers/GD32F30x_standard_peripheral/Source/gd32f30x_fmc.c ****         }
 1357              		.loc 1 596 25 is_stmt 0 view .LVU331
 1358 006e 0648     		ldr	r0, .L112
 1359 0070 FFF7FEFF 		bl	fmc_bank0_ready_wait
 1360              	.LVL76:
 1361 0074 0346     		mov	r3, r0
 1362              	.LVL77:
 596:Drivers/GD32F30x_standard_peripheral/Source/gd32f30x_fmc.c ****         }
 1363              		.loc 1 596 25 view .LVU332
 1364 0076 DEE7     		b	.L105
 1365              	.L111:
 599:Drivers/GD32F30x_standard_peripheral/Source/gd32f30x_fmc.c ****       
 1366              		.loc 1 599 13 is_stmt 1 view .LVU333
 599:Drivers/GD32F30x_standard_peripheral/Source/gd32f30x_fmc.c ****       
 1367              		.loc 1 599 20 is_stmt 0 view .LVU334
 1368 0078 084B     		ldr	r3, .L112+20
 1369              	.LVL78:
 599:Drivers/GD32F30x_standard_peripheral/Source/gd32f30x_fmc.c ****       
 1370              		.loc 1 599 20 view .LVU335
 1371 007a 1C80     		strh	r4, [r3]	@ movhi
 602:Drivers/GD32F30x_standard_peripheral/Source/gd32f30x_fmc.c ****         }
 1372              		.loc 1 602 13 is_stmt 1 view .LVU336
 602:Drivers/GD32F30x_standard_peripheral/Source/gd32f30x_fmc.c ****         }
 1373              		.loc 1 602 25 is_stmt 0 view .LVU337
 1374 007c 0248     		ldr	r0, .L112
 1375 007e FFF7FEFF 		bl	fmc_bank0_ready_wait
 1376              	.LVL79:
 1377 0082 0346     		mov	r3, r0
ARM GAS  C:\Users\Prog\AppData\Local\Temp\ccKeEkXj.s 			page 44


 1378              	.LVL80:
 602:Drivers/GD32F30x_standard_peripheral/Source/gd32f30x_fmc.c ****         }
 1379              		.loc 1 602 25 view .LVU338
 1380 0084 DAE7     		b	.L106
 1381              	.L113:
 1382 0086 00BF     		.align	2
 1383              	.L112:
 1384 0088 0000FF0F 		.word	268369920
 1385 008c 10200240 		.word	1073881104
 1386 0090 08F8FF1F 		.word	536868872
 1387 0094 0AF8FF1F 		.word	536868874
 1388 0098 0CF8FF1F 		.word	536868876
 1389 009c 0EF8FF1F 		.word	536868878
 1390              		.cfi_endproc
 1391              	.LFE133:
 1393              		.section	.text.ob_security_protection_config,"ax",%progbits
 1394              		.align	1
 1395              		.global	ob_security_protection_config
 1396              		.syntax unified
 1397              		.thumb
 1398              		.thumb_func
 1399              		.fpu fpv4-sp-d16
 1401              	ob_security_protection_config:
 1402              	.LVL81:
 1403              	.LFB134:
 622:Drivers/GD32F30x_standard_peripheral/Source/gd32f30x_fmc.c ****     fmc_state_enum fmc_state = fmc_bank0_ready_wait(FMC_TIMEOUT_COUNT);
 1404              		.loc 1 622 1 is_stmt 1 view -0
 1405              		.cfi_startproc
 1406              		@ args = 0, pretend = 0, frame = 0
 1407              		@ frame_needed = 0, uses_anonymous_args = 0
 622:Drivers/GD32F30x_standard_peripheral/Source/gd32f30x_fmc.c ****     fmc_state_enum fmc_state = fmc_bank0_ready_wait(FMC_TIMEOUT_COUNT);
 1408              		.loc 1 622 1 is_stmt 0 view .LVU340
 1409 0000 10B5     		push	{r4, lr}
 1410              	.LCFI4:
 1411              		.cfi_def_cfa_offset 8
 1412              		.cfi_offset 4, -8
 1413              		.cfi_offset 14, -4
 1414 0002 0446     		mov	r4, r0
 623:Drivers/GD32F30x_standard_peripheral/Source/gd32f30x_fmc.c **** 
 1415              		.loc 1 623 5 is_stmt 1 view .LVU341
 623:Drivers/GD32F30x_standard_peripheral/Source/gd32f30x_fmc.c **** 
 1416              		.loc 1 623 32 is_stmt 0 view .LVU342
 1417 0004 1A48     		ldr	r0, .L120
 1418              	.LVL82:
 623:Drivers/GD32F30x_standard_peripheral/Source/gd32f30x_fmc.c **** 
 1419              		.loc 1 623 32 view .LVU343
 1420 0006 FFF7FEFF 		bl	fmc_bank0_ready_wait
 1421              	.LVL83:
 625:Drivers/GD32F30x_standard_peripheral/Source/gd32f30x_fmc.c ****         FMC_CTL0 |= FMC_CTL0_OBER;
 1422              		.loc 1 625 5 is_stmt 1 view .LVU344
 625:Drivers/GD32F30x_standard_peripheral/Source/gd32f30x_fmc.c ****         FMC_CTL0 |= FMC_CTL0_OBER;
 1423              		.loc 1 625 7 is_stmt 0 view .LVU345
 1424 000a 0346     		mov	r3, r0
 1425 000c 08B1     		cbz	r0, .L118
 1426              	.L115:
 1427              	.LVL84:
 656:Drivers/GD32F30x_standard_peripheral/Source/gd32f30x_fmc.c **** }
ARM GAS  C:\Users\Prog\AppData\Local\Temp\ccKeEkXj.s 			page 45


 1428              		.loc 1 656 5 is_stmt 1 view .LVU346
 657:Drivers/GD32F30x_standard_peripheral/Source/gd32f30x_fmc.c **** 
 1429              		.loc 1 657 1 is_stmt 0 view .LVU347
 1430 000e 1846     		mov	r0, r3
 1431 0010 10BD     		pop	{r4, pc}
 1432              	.LVL85:
 1433              	.L118:
 626:Drivers/GD32F30x_standard_peripheral/Source/gd32f30x_fmc.c ****         FMC_CTL0 |= FMC_CTL0_START;
 1434              		.loc 1 626 9 is_stmt 1 view .LVU348
 626:Drivers/GD32F30x_standard_peripheral/Source/gd32f30x_fmc.c ****         FMC_CTL0 |= FMC_CTL0_START;
 1435              		.loc 1 626 18 is_stmt 0 view .LVU349
 1436 0012 184B     		ldr	r3, .L120+4
 1437 0014 1A68     		ldr	r2, [r3]
 1438 0016 42F02002 		orr	r2, r2, #32
 1439 001a 1A60     		str	r2, [r3]
 627:Drivers/GD32F30x_standard_peripheral/Source/gd32f30x_fmc.c ****     
 1440              		.loc 1 627 9 is_stmt 1 view .LVU350
 627:Drivers/GD32F30x_standard_peripheral/Source/gd32f30x_fmc.c ****     
 1441              		.loc 1 627 18 is_stmt 0 view .LVU351
 1442 001c 1A68     		ldr	r2, [r3]
 1443 001e 42F04002 		orr	r2, r2, #64
 1444 0022 1A60     		str	r2, [r3]
 630:Drivers/GD32F30x_standard_peripheral/Source/gd32f30x_fmc.c ****     
 1445              		.loc 1 630 9 is_stmt 1 view .LVU352
 630:Drivers/GD32F30x_standard_peripheral/Source/gd32f30x_fmc.c ****     
 1446              		.loc 1 630 21 is_stmt 0 view .LVU353
 1447 0024 1248     		ldr	r0, .L120
 1448              	.LVL86:
 630:Drivers/GD32F30x_standard_peripheral/Source/gd32f30x_fmc.c ****     
 1449              		.loc 1 630 21 view .LVU354
 1450 0026 FFF7FEFF 		bl	fmc_bank0_ready_wait
 1451              	.LVL87:
 632:Drivers/GD32F30x_standard_peripheral/Source/gd32f30x_fmc.c ****             /* reset the OBER bit */
 1452              		.loc 1 632 9 is_stmt 1 view .LVU355
 632:Drivers/GD32F30x_standard_peripheral/Source/gd32f30x_fmc.c ****             /* reset the OBER bit */
 1453              		.loc 1 632 11 is_stmt 0 view .LVU356
 1454 002a 0346     		mov	r3, r0
 1455 002c 38B1     		cbz	r0, .L119
 649:Drivers/GD32F30x_standard_peripheral/Source/gd32f30x_fmc.c ****                 /* reset the OBER bit */
 1456              		.loc 1 649 13 is_stmt 1 view .LVU357
 649:Drivers/GD32F30x_standard_peripheral/Source/gd32f30x_fmc.c ****                 /* reset the OBER bit */
 1457              		.loc 1 649 15 is_stmt 0 view .LVU358
 1458 002e 0428     		cmp	r0, #4
 1459 0030 EDD0     		beq	.L115
 651:Drivers/GD32F30x_standard_peripheral/Source/gd32f30x_fmc.c ****             }
 1460              		.loc 1 651 17 is_stmt 1 view .LVU359
 651:Drivers/GD32F30x_standard_peripheral/Source/gd32f30x_fmc.c ****             }
 1461              		.loc 1 651 26 is_stmt 0 view .LVU360
 1462 0032 1049     		ldr	r1, .L120+4
 1463 0034 0A68     		ldr	r2, [r1]
 1464 0036 22F02002 		bic	r2, r2, #32
 1465 003a 0A60     		str	r2, [r1]
 1466 003c E7E7     		b	.L115
 1467              	.L119:
 634:Drivers/GD32F30x_standard_peripheral/Source/gd32f30x_fmc.c ****       
 1468              		.loc 1 634 13 is_stmt 1 view .LVU361
 634:Drivers/GD32F30x_standard_peripheral/Source/gd32f30x_fmc.c ****       
ARM GAS  C:\Users\Prog\AppData\Local\Temp\ccKeEkXj.s 			page 46


 1469              		.loc 1 634 22 is_stmt 0 view .LVU362
 1470 003e 0D4B     		ldr	r3, .L120+4
 1471 0040 1A68     		ldr	r2, [r3]
 1472 0042 22F02002 		bic	r2, r2, #32
 1473 0046 1A60     		str	r2, [r3]
 637:Drivers/GD32F30x_standard_peripheral/Source/gd32f30x_fmc.c ****        
 1474              		.loc 1 637 13 is_stmt 1 view .LVU363
 637:Drivers/GD32F30x_standard_peripheral/Source/gd32f30x_fmc.c ****        
 1475              		.loc 1 637 22 is_stmt 0 view .LVU364
 1476 0048 1A68     		ldr	r2, [r3]
 1477 004a 42F01002 		orr	r2, r2, #16
 1478 004e 1A60     		str	r2, [r3]
 639:Drivers/GD32F30x_standard_peripheral/Source/gd32f30x_fmc.c **** 
 1479              		.loc 1 639 13 is_stmt 1 view .LVU365
 639:Drivers/GD32F30x_standard_peripheral/Source/gd32f30x_fmc.c **** 
 1480              		.loc 1 639 22 is_stmt 0 view .LVU366
 1481 0050 A4B2     		uxth	r4, r4
 639:Drivers/GD32F30x_standard_peripheral/Source/gd32f30x_fmc.c **** 
 1482              		.loc 1 639 20 view .LVU367
 1483 0052 094B     		ldr	r3, .L120+8
 1484 0054 1C80     		strh	r4, [r3]	@ movhi
 642:Drivers/GD32F30x_standard_peripheral/Source/gd32f30x_fmc.c ****     
 1485              		.loc 1 642 13 is_stmt 1 view .LVU368
 642:Drivers/GD32F30x_standard_peripheral/Source/gd32f30x_fmc.c ****     
 1486              		.loc 1 642 25 is_stmt 0 view .LVU369
 1487 0056 0648     		ldr	r0, .L120
 1488              	.LVL88:
 642:Drivers/GD32F30x_standard_peripheral/Source/gd32f30x_fmc.c ****     
 1489              		.loc 1 642 25 view .LVU370
 1490 0058 FFF7FEFF 		bl	fmc_bank0_ready_wait
 1491              	.LVL89:
 1492 005c 0346     		mov	r3, r0
 1493              	.LVL90:
 644:Drivers/GD32F30x_standard_peripheral/Source/gd32f30x_fmc.c ****                 /* reset the OBPG bit */
 1494              		.loc 1 644 13 is_stmt 1 view .LVU371
 644:Drivers/GD32F30x_standard_peripheral/Source/gd32f30x_fmc.c ****                 /* reset the OBPG bit */
 1495              		.loc 1 644 15 is_stmt 0 view .LVU372
 1496 005e 0428     		cmp	r0, #4
 1497 0060 D5D0     		beq	.L115
 646:Drivers/GD32F30x_standard_peripheral/Source/gd32f30x_fmc.c ****             }
 1498              		.loc 1 646 17 is_stmt 1 view .LVU373
 646:Drivers/GD32F30x_standard_peripheral/Source/gd32f30x_fmc.c ****             }
 1499              		.loc 1 646 26 is_stmt 0 view .LVU374
 1500 0062 0449     		ldr	r1, .L120+4
 1501 0064 0A68     		ldr	r2, [r1]
 1502 0066 22F01002 		bic	r2, r2, #16
 1503 006a 0A60     		str	r2, [r1]
 1504 006c CFE7     		b	.L115
 1505              	.L121:
 1506 006e 00BF     		.align	2
 1507              	.L120:
 1508 0070 0000FF0F 		.word	268369920
 1509 0074 10200240 		.word	1073881104
 1510 0078 00F8FF1F 		.word	536868864
 1511              		.cfi_endproc
 1512              	.LFE134:
 1514              		.section	.text.ob_user_write,"ax",%progbits
ARM GAS  C:\Users\Prog\AppData\Local\Temp\ccKeEkXj.s 			page 47


 1515              		.align	1
 1516              		.global	ob_user_write
 1517              		.syntax unified
 1518              		.thumb
 1519              		.thumb_func
 1520              		.fpu fpv4-sp-d16
 1522              	ob_user_write:
 1523              	.LVL91:
 1524              	.LFB135:
 677:Drivers/GD32F30x_standard_peripheral/Source/gd32f30x_fmc.c ****     fmc_state_enum fmc_state = FMC_READY;
 1525              		.loc 1 677 1 is_stmt 1 view -0
 1526              		.cfi_startproc
 1527              		@ args = 0, pretend = 0, frame = 0
 1528              		@ frame_needed = 0, uses_anonymous_args = 0
 677:Drivers/GD32F30x_standard_peripheral/Source/gd32f30x_fmc.c ****     fmc_state_enum fmc_state = FMC_READY;
 1529              		.loc 1 677 1 is_stmt 0 view .LVU376
 1530 0000 F8B5     		push	{r3, r4, r5, r6, r7, lr}
 1531              	.LCFI5:
 1532              		.cfi_def_cfa_offset 24
 1533              		.cfi_offset 3, -24
 1534              		.cfi_offset 4, -20
 1535              		.cfi_offset 5, -16
 1536              		.cfi_offset 6, -12
 1537              		.cfi_offset 7, -8
 1538              		.cfi_offset 14, -4
 1539 0002 0746     		mov	r7, r0
 1540 0004 0E46     		mov	r6, r1
 1541 0006 1546     		mov	r5, r2
 1542 0008 1C46     		mov	r4, r3
 678:Drivers/GD32F30x_standard_peripheral/Source/gd32f30x_fmc.c ****     uint8_t temp;
 1543              		.loc 1 678 5 is_stmt 1 view .LVU377
 1544              	.LVL92:
 679:Drivers/GD32F30x_standard_peripheral/Source/gd32f30x_fmc.c **** 
 1545              		.loc 1 679 5 view .LVU378
 682:Drivers/GD32F30x_standard_peripheral/Source/gd32f30x_fmc.c ****   
 1546              		.loc 1 682 5 view .LVU379
 682:Drivers/GD32F30x_standard_peripheral/Source/gd32f30x_fmc.c ****   
 1547              		.loc 1 682 17 is_stmt 0 view .LVU380
 1548 000a 0F48     		ldr	r0, .L126
 1549              	.LVL93:
 682:Drivers/GD32F30x_standard_peripheral/Source/gd32f30x_fmc.c ****   
 1550              		.loc 1 682 17 view .LVU381
 1551 000c FFF7FEFF 		bl	fmc_bank0_ready_wait
 1552              	.LVL94:
 684:Drivers/GD32F30x_standard_peripheral/Source/gd32f30x_fmc.c ****         /* set the OBPG bit*/
 1553              		.loc 1 684 5 is_stmt 1 view .LVU382
 684:Drivers/GD32F30x_standard_peripheral/Source/gd32f30x_fmc.c ****         /* set the OBPG bit*/
 1554              		.loc 1 684 7 is_stmt 0 view .LVU383
 1555 0010 0346     		mov	r3, r0
 1556 0012 08B1     		cbz	r0, .L125
 1557              	.L123:
 1558              	.LVL95:
 700:Drivers/GD32F30x_standard_peripheral/Source/gd32f30x_fmc.c **** }
 1559              		.loc 1 700 5 is_stmt 1 view .LVU384
 701:Drivers/GD32F30x_standard_peripheral/Source/gd32f30x_fmc.c **** 
 1560              		.loc 1 701 1 is_stmt 0 view .LVU385
 1561 0014 1846     		mov	r0, r3
ARM GAS  C:\Users\Prog\AppData\Local\Temp\ccKeEkXj.s 			page 48


 1562 0016 F8BD     		pop	{r3, r4, r5, r6, r7, pc}
 1563              	.LVL96:
 1564              	.L125:
 686:Drivers/GD32F30x_standard_peripheral/Source/gd32f30x_fmc.c **** 
 1565              		.loc 1 686 9 is_stmt 1 view .LVU386
 686:Drivers/GD32F30x_standard_peripheral/Source/gd32f30x_fmc.c **** 
 1566              		.loc 1 686 18 is_stmt 0 view .LVU387
 1567 0018 0C4A     		ldr	r2, .L126+4
 1568 001a 1368     		ldr	r3, [r2]
 1569 001c 43F01003 		orr	r3, r3, #16
 1570 0020 1360     		str	r3, [r2]
 688:Drivers/GD32F30x_standard_peripheral/Source/gd32f30x_fmc.c ****         OB_USER = (uint16_t)temp;
 1571              		.loc 1 688 9 is_stmt 1 view .LVU388
 688:Drivers/GD32F30x_standard_peripheral/Source/gd32f30x_fmc.c ****         OB_USER = (uint16_t)temp;
 1572              		.loc 1 688 37 is_stmt 0 view .LVU389
 1573 0022 3C43     		orrs	r4, r4, r7
 688:Drivers/GD32F30x_standard_peripheral/Source/gd32f30x_fmc.c ****         OB_USER = (uint16_t)temp;
 1574              		.loc 1 688 27 view .LVU390
 1575 0024 3443     		orrs	r4, r4, r6
 688:Drivers/GD32F30x_standard_peripheral/Source/gd32f30x_fmc.c ****         OB_USER = (uint16_t)temp;
 1576              		.loc 1 688 17 view .LVU391
 1577 0026 2C43     		orrs	r4, r4, r5
 1578              	.LVL97:
 689:Drivers/GD32F30x_standard_peripheral/Source/gd32f30x_fmc.c ****     
 1579              		.loc 1 689 9 is_stmt 1 view .LVU392
 689:Drivers/GD32F30x_standard_peripheral/Source/gd32f30x_fmc.c ****     
 1580              		.loc 1 689 19 is_stmt 0 view .LVU393
 1581 0028 44F0F004 		orr	r4, r4, #240
 1582              	.LVL98:
 689:Drivers/GD32F30x_standard_peripheral/Source/gd32f30x_fmc.c ****     
 1583              		.loc 1 689 17 view .LVU394
 1584 002c 084B     		ldr	r3, .L126+8
 1585 002e 1C80     		strh	r4, [r3]	@ movhi
 692:Drivers/GD32F30x_standard_peripheral/Source/gd32f30x_fmc.c **** 
 1586              		.loc 1 692 9 is_stmt 1 view .LVU395
 692:Drivers/GD32F30x_standard_peripheral/Source/gd32f30x_fmc.c **** 
 1587              		.loc 1 692 21 is_stmt 0 view .LVU396
 1588 0030 0548     		ldr	r0, .L126
 1589              	.LVL99:
 692:Drivers/GD32F30x_standard_peripheral/Source/gd32f30x_fmc.c **** 
 1590              		.loc 1 692 21 view .LVU397
 1591 0032 FFF7FEFF 		bl	fmc_bank0_ready_wait
 1592              	.LVL100:
 1593 0036 0346     		mov	r3, r0
 1594              	.LVL101:
 694:Drivers/GD32F30x_standard_peripheral/Source/gd32f30x_fmc.c ****             /* reset the OBPG bit */
 1595              		.loc 1 694 9 is_stmt 1 view .LVU398
 694:Drivers/GD32F30x_standard_peripheral/Source/gd32f30x_fmc.c ****             /* reset the OBPG bit */
 1596              		.loc 1 694 11 is_stmt 0 view .LVU399
 1597 0038 0428     		cmp	r0, #4
 1598 003a EBD0     		beq	.L123
 696:Drivers/GD32F30x_standard_peripheral/Source/gd32f30x_fmc.c ****         }
 1599              		.loc 1 696 13 is_stmt 1 view .LVU400
 696:Drivers/GD32F30x_standard_peripheral/Source/gd32f30x_fmc.c ****         }
 1600              		.loc 1 696 22 is_stmt 0 view .LVU401
 1601 003c 0349     		ldr	r1, .L126+4
 1602 003e 0A68     		ldr	r2, [r1]
ARM GAS  C:\Users\Prog\AppData\Local\Temp\ccKeEkXj.s 			page 49


 1603 0040 22F01002 		bic	r2, r2, #16
 1604 0044 0A60     		str	r2, [r1]
 1605 0046 E5E7     		b	.L123
 1606              	.L127:
 1607              		.align	2
 1608              	.L126:
 1609 0048 0000FF0F 		.word	268369920
 1610 004c 10200240 		.word	1073881104
 1611 0050 02F8FF1F 		.word	536868866
 1612              		.cfi_endproc
 1613              	.LFE135:
 1615              		.section	.text.ob_data_program,"ax",%progbits
 1616              		.align	1
 1617              		.global	ob_data_program
 1618              		.syntax unified
 1619              		.thumb
 1620              		.thumb_func
 1621              		.fpu fpv4-sp-d16
 1623              	ob_data_program:
 1624              	.LVL102:
 1625              	.LFB136:
 711:Drivers/GD32F30x_standard_peripheral/Source/gd32f30x_fmc.c ****     fmc_state_enum fmc_state = fmc_bank0_ready_wait(FMC_TIMEOUT_COUNT);
 1626              		.loc 1 711 1 is_stmt 1 view -0
 1627              		.cfi_startproc
 1628              		@ args = 0, pretend = 0, frame = 0
 1629              		@ frame_needed = 0, uses_anonymous_args = 0
 711:Drivers/GD32F30x_standard_peripheral/Source/gd32f30x_fmc.c ****     fmc_state_enum fmc_state = fmc_bank0_ready_wait(FMC_TIMEOUT_COUNT);
 1630              		.loc 1 711 1 is_stmt 0 view .LVU403
 1631 0000 38B5     		push	{r3, r4, r5, lr}
 1632              	.LCFI6:
 1633              		.cfi_def_cfa_offset 16
 1634              		.cfi_offset 3, -16
 1635              		.cfi_offset 4, -12
 1636              		.cfi_offset 5, -8
 1637              		.cfi_offset 14, -4
 1638 0002 0546     		mov	r5, r0
 1639 0004 0C46     		mov	r4, r1
 712:Drivers/GD32F30x_standard_peripheral/Source/gd32f30x_fmc.c **** 
 1640              		.loc 1 712 5 is_stmt 1 view .LVU404
 712:Drivers/GD32F30x_standard_peripheral/Source/gd32f30x_fmc.c **** 
 1641              		.loc 1 712 32 is_stmt 0 view .LVU405
 1642 0006 0D48     		ldr	r0, .L132
 1643              	.LVL103:
 712:Drivers/GD32F30x_standard_peripheral/Source/gd32f30x_fmc.c **** 
 1644              		.loc 1 712 32 view .LVU406
 1645 0008 FFF7FEFF 		bl	fmc_bank0_ready_wait
 1646              	.LVL104:
 714:Drivers/GD32F30x_standard_peripheral/Source/gd32f30x_fmc.c ****         /* set the OBPG bit */
 1647              		.loc 1 714 5 is_stmt 1 view .LVU407
 714:Drivers/GD32F30x_standard_peripheral/Source/gd32f30x_fmc.c ****         /* set the OBPG bit */
 1648              		.loc 1 714 7 is_stmt 0 view .LVU408
 1649 000c 0346     		mov	r3, r0
 1650 000e 08B1     		cbz	r0, .L131
 1651              	.L129:
 1652              	.LVL105:
 728:Drivers/GD32F30x_standard_peripheral/Source/gd32f30x_fmc.c **** }
 1653              		.loc 1 728 5 is_stmt 1 view .LVU409
ARM GAS  C:\Users\Prog\AppData\Local\Temp\ccKeEkXj.s 			page 50


 729:Drivers/GD32F30x_standard_peripheral/Source/gd32f30x_fmc.c **** 
 1654              		.loc 1 729 1 is_stmt 0 view .LVU410
 1655 0010 1846     		mov	r0, r3
 1656 0012 38BD     		pop	{r3, r4, r5, pc}
 1657              	.LVL106:
 1658              	.L131:
 716:Drivers/GD32F30x_standard_peripheral/Source/gd32f30x_fmc.c ****         REG16(address) = data;
 1659              		.loc 1 716 9 is_stmt 1 view .LVU411
 716:Drivers/GD32F30x_standard_peripheral/Source/gd32f30x_fmc.c ****         REG16(address) = data;
 1660              		.loc 1 716 18 is_stmt 0 view .LVU412
 1661 0014 0A4A     		ldr	r2, .L132+4
 1662 0016 1368     		ldr	r3, [r2]
 1663 0018 43F01003 		orr	r3, r3, #16
 1664 001c 1360     		str	r3, [r2]
 717:Drivers/GD32F30x_standard_peripheral/Source/gd32f30x_fmc.c ****     
 1665              		.loc 1 717 9 is_stmt 1 view .LVU413
 717:Drivers/GD32F30x_standard_peripheral/Source/gd32f30x_fmc.c ****     
 1666              		.loc 1 717 24 is_stmt 0 view .LVU414
 1667 001e A4B2     		uxth	r4, r4
 1668 0020 2C80     		strh	r4, [r5]	@ movhi
 720:Drivers/GD32F30x_standard_peripheral/Source/gd32f30x_fmc.c ****     
 1669              		.loc 1 720 9 is_stmt 1 view .LVU415
 720:Drivers/GD32F30x_standard_peripheral/Source/gd32f30x_fmc.c ****     
 1670              		.loc 1 720 21 is_stmt 0 view .LVU416
 1671 0022 0648     		ldr	r0, .L132
 1672              	.LVL107:
 720:Drivers/GD32F30x_standard_peripheral/Source/gd32f30x_fmc.c ****     
 1673              		.loc 1 720 21 view .LVU417
 1674 0024 FFF7FEFF 		bl	fmc_bank0_ready_wait
 1675              	.LVL108:
 1676 0028 0346     		mov	r3, r0
 1677              	.LVL109:
 722:Drivers/GD32F30x_standard_peripheral/Source/gd32f30x_fmc.c ****             /* reset the OBPG bit */
 1678              		.loc 1 722 9 is_stmt 1 view .LVU418
 722:Drivers/GD32F30x_standard_peripheral/Source/gd32f30x_fmc.c ****             /* reset the OBPG bit */
 1679              		.loc 1 722 11 is_stmt 0 view .LVU419
 1680 002a 0428     		cmp	r0, #4
 1681 002c F0D0     		beq	.L129
 724:Drivers/GD32F30x_standard_peripheral/Source/gd32f30x_fmc.c ****         }
 1682              		.loc 1 724 13 is_stmt 1 view .LVU420
 724:Drivers/GD32F30x_standard_peripheral/Source/gd32f30x_fmc.c ****         }
 1683              		.loc 1 724 22 is_stmt 0 view .LVU421
 1684 002e 0449     		ldr	r1, .L132+4
 1685 0030 0A68     		ldr	r2, [r1]
 1686 0032 22F01002 		bic	r2, r2, #16
 1687 0036 0A60     		str	r2, [r1]
 1688 0038 EAE7     		b	.L129
 1689              	.L133:
 1690 003a 00BF     		.align	2
 1691              	.L132:
 1692 003c 0000FF0F 		.word	268369920
 1693 0040 10200240 		.word	1073881104
 1694              		.cfi_endproc
 1695              	.LFE136:
 1697              		.section	.text.fmc_bank1_ready_wait,"ax",%progbits
 1698              		.align	1
 1699              		.global	fmc_bank1_ready_wait
ARM GAS  C:\Users\Prog\AppData\Local\Temp\ccKeEkXj.s 			page 51


 1700              		.syntax unified
 1701              		.thumb
 1702              		.thumb_func
 1703              		.fpu fpv4-sp-d16
 1705              	fmc_bank1_ready_wait:
 1706              	.LVL110:
 1707              	.LFB150:
 986:Drivers/GD32F30x_standard_peripheral/Source/gd32f30x_fmc.c **** 
 987:Drivers/GD32F30x_standard_peripheral/Source/gd32f30x_fmc.c **** /*!
 988:Drivers/GD32F30x_standard_peripheral/Source/gd32f30x_fmc.c ****     \brief      check whether FMC bank1 is ready or not
 989:Drivers/GD32F30x_standard_peripheral/Source/gd32f30x_fmc.c ****     \param[in]  timeout: count of loop
 990:Drivers/GD32F30x_standard_peripheral/Source/gd32f30x_fmc.c ****     \param[out] none
 991:Drivers/GD32F30x_standard_peripheral/Source/gd32f30x_fmc.c ****     \retval     state of FMC, refer to fmc_state_enum
 992:Drivers/GD32F30x_standard_peripheral/Source/gd32f30x_fmc.c **** */
 993:Drivers/GD32F30x_standard_peripheral/Source/gd32f30x_fmc.c **** fmc_state_enum fmc_bank1_ready_wait(uint32_t timeout)
 994:Drivers/GD32F30x_standard_peripheral/Source/gd32f30x_fmc.c **** {
 1708              		.loc 1 994 1 is_stmt 1 view -0
 1709              		.cfi_startproc
 1710              		@ args = 0, pretend = 0, frame = 0
 1711              		@ frame_needed = 0, uses_anonymous_args = 0
 1712              		.loc 1 994 1 is_stmt 0 view .LVU423
 1713 0000 10B5     		push	{r4, lr}
 1714              	.LCFI7:
 1715              		.cfi_def_cfa_offset 8
 1716              		.cfi_offset 4, -8
 1717              		.cfi_offset 14, -4
 1718 0002 0446     		mov	r4, r0
 995:Drivers/GD32F30x_standard_peripheral/Source/gd32f30x_fmc.c ****     fmc_state_enum fmc_state = FMC_BUSY;
 1719              		.loc 1 995 5 is_stmt 1 view .LVU424
 1720              	.LVL111:
 1721              	.L136:
 996:Drivers/GD32F30x_standard_peripheral/Source/gd32f30x_fmc.c ****   
 997:Drivers/GD32F30x_standard_peripheral/Source/gd32f30x_fmc.c ****     /* wait for FMC ready */
 998:Drivers/GD32F30x_standard_peripheral/Source/gd32f30x_fmc.c ****     do{
 1722              		.loc 1 998 5 discriminator 2 view .LVU425
 999:Drivers/GD32F30x_standard_peripheral/Source/gd32f30x_fmc.c ****         /* get FMC state */
1000:Drivers/GD32F30x_standard_peripheral/Source/gd32f30x_fmc.c ****         fmc_state = fmc_bank1_state_get();
 1723              		.loc 1 1000 9 discriminator 2 view .LVU426
 1724              		.loc 1 1000 21 is_stmt 0 discriminator 2 view .LVU427
 1725 0004 FFF7FEFF 		bl	fmc_bank1_state_get
 1726              	.LVL112:
1001:Drivers/GD32F30x_standard_peripheral/Source/gd32f30x_fmc.c ****         timeout--;
 1727              		.loc 1 1001 9 is_stmt 1 discriminator 2 view .LVU428
 1728              		.loc 1 1001 16 is_stmt 0 discriminator 2 view .LVU429
 1729 0008 013C     		subs	r4, r4, #1
 1730              	.LVL113:
1002:Drivers/GD32F30x_standard_peripheral/Source/gd32f30x_fmc.c ****     }while((FMC_BUSY == fmc_state) && (0x00U != timeout));
 1731              		.loc 1 1002 5 discriminator 2 view .LVU430
 1732 000a 0128     		cmp	r0, #1
 1733 000c 01D1     		bne	.L135
 1734              		.loc 1 1002 36 discriminator 1 view .LVU431
 1735 000e 002C     		cmp	r4, #0
 1736 0010 F8D1     		bne	.L136
 1737              	.L135:
1003:Drivers/GD32F30x_standard_peripheral/Source/gd32f30x_fmc.c ****     
1004:Drivers/GD32F30x_standard_peripheral/Source/gd32f30x_fmc.c ****     if(FMC_BUSY == fmc_state){
 1738              		.loc 1 1004 5 is_stmt 1 view .LVU432
ARM GAS  C:\Users\Prog\AppData\Local\Temp\ccKeEkXj.s 			page 52


 1739              		.loc 1 1004 7 is_stmt 0 view .LVU433
 1740 0012 0128     		cmp	r0, #1
 1741 0014 00D0     		beq	.L140
 1742              	.LVL114:
 1743              	.L137:
1005:Drivers/GD32F30x_standard_peripheral/Source/gd32f30x_fmc.c ****         fmc_state = FMC_TOERR;
1006:Drivers/GD32F30x_standard_peripheral/Source/gd32f30x_fmc.c ****     }
1007:Drivers/GD32F30x_standard_peripheral/Source/gd32f30x_fmc.c ****     /* return the FMC state */
1008:Drivers/GD32F30x_standard_peripheral/Source/gd32f30x_fmc.c ****     return fmc_state;
 1744              		.loc 1 1008 5 is_stmt 1 view .LVU434
1009:Drivers/GD32F30x_standard_peripheral/Source/gd32f30x_fmc.c **** }
 1745              		.loc 1 1009 1 is_stmt 0 view .LVU435
 1746 0016 10BD     		pop	{r4, pc}
 1747              	.LVL115:
 1748              	.L140:
1005:Drivers/GD32F30x_standard_peripheral/Source/gd32f30x_fmc.c ****         fmc_state = FMC_TOERR;
 1749              		.loc 1 1005 19 view .LVU436
 1750 0018 0420     		movs	r0, #4
 1751              	.LVL116:
1005:Drivers/GD32F30x_standard_peripheral/Source/gd32f30x_fmc.c ****         fmc_state = FMC_TOERR;
 1752              		.loc 1 1005 19 view .LVU437
 1753 001a FCE7     		b	.L137
 1754              		.cfi_endproc
 1755              	.LFE150:
 1757              		.section	.text.fmc_page_erase,"ax",%progbits
 1758              		.align	1
 1759              		.global	fmc_page_erase
 1760              		.syntax unified
 1761              		.thumb
 1762              		.thumb_func
 1763              		.fpu fpv4-sp-d16
 1765              	fmc_page_erase:
 1766              	.LVL117:
 1767              	.LFB123:
 168:Drivers/GD32F30x_standard_peripheral/Source/gd32f30x_fmc.c ****     fmc_state_enum fmc_state;
 1768              		.loc 1 168 1 is_stmt 1 view -0
 1769              		.cfi_startproc
 1770              		@ args = 0, pretend = 0, frame = 0
 1771              		@ frame_needed = 0, uses_anonymous_args = 0
 168:Drivers/GD32F30x_standard_peripheral/Source/gd32f30x_fmc.c ****     fmc_state_enum fmc_state;
 1772              		.loc 1 168 1 is_stmt 0 view .LVU439
 1773 0000 38B5     		push	{r3, r4, r5, lr}
 1774              	.LCFI8:
 1775              		.cfi_def_cfa_offset 16
 1776              		.cfi_offset 3, -16
 1777              		.cfi_offset 4, -12
 1778              		.cfi_offset 5, -8
 1779              		.cfi_offset 14, -4
 1780 0002 0446     		mov	r4, r0
 169:Drivers/GD32F30x_standard_peripheral/Source/gd32f30x_fmc.c ****     
 1781              		.loc 1 169 5 is_stmt 1 view .LVU440
 171:Drivers/GD32F30x_standard_peripheral/Source/gd32f30x_fmc.c ****         if(FMC_BANK0_END_ADDRESS > page_address){
 1782              		.loc 1 171 5 view .LVU441
 171:Drivers/GD32F30x_standard_peripheral/Source/gd32f30x_fmc.c ****         if(FMC_BANK0_END_ADDRESS > page_address){
 1783              		.loc 1 171 25 is_stmt 0 view .LVU442
 1784 0004 2F4B     		ldr	r3, .L148
 1785 0006 1B88     		ldrh	r3, [r3]
ARM GAS  C:\Users\Prog\AppData\Local\Temp\ccKeEkXj.s 			page 53


 171:Drivers/GD32F30x_standard_peripheral/Source/gd32f30x_fmc.c ****         if(FMC_BANK0_END_ADDRESS > page_address){
 1786              		.loc 1 171 7 view .LVU443
 1787 0008 B3F5007F 		cmp	r3, #512
 1788 000c 3FD9     		bls	.L142
 172:Drivers/GD32F30x_standard_peripheral/Source/gd32f30x_fmc.c ****             fmc_state = fmc_bank0_ready_wait(FMC_TIMEOUT_COUNT);
 1789              		.loc 1 172 9 is_stmt 1 view .LVU444
 172:Drivers/GD32F30x_standard_peripheral/Source/gd32f30x_fmc.c ****             fmc_state = fmc_bank0_ready_wait(FMC_TIMEOUT_COUNT);
 1790              		.loc 1 172 11 is_stmt 0 view .LVU445
 1791 000e 2E4B     		ldr	r3, .L148+4
 1792 0010 9842     		cmp	r0, r3
 1793 0012 1AD8     		bhi	.L143
 173:Drivers/GD32F30x_standard_peripheral/Source/gd32f30x_fmc.c ****             /* if the last operation is completed, start page erase */
 1794              		.loc 1 173 13 is_stmt 1 view .LVU446
 173:Drivers/GD32F30x_standard_peripheral/Source/gd32f30x_fmc.c ****             /* if the last operation is completed, start page erase */
 1795              		.loc 1 173 25 is_stmt 0 view .LVU447
 1796 0014 2D48     		ldr	r0, .L148+8
 1797              	.LVL118:
 173:Drivers/GD32F30x_standard_peripheral/Source/gd32f30x_fmc.c ****             /* if the last operation is completed, start page erase */
 1798              		.loc 1 173 25 view .LVU448
 1799 0016 FFF7FEFF 		bl	fmc_bank0_ready_wait
 1800              	.LVL119:
 175:Drivers/GD32F30x_standard_peripheral/Source/gd32f30x_fmc.c ****                 FMC_CTL0 |= FMC_CTL0_PER;
 1801              		.loc 1 175 13 is_stmt 1 view .LVU449
 175:Drivers/GD32F30x_standard_peripheral/Source/gd32f30x_fmc.c ****                 FMC_CTL0 |= FMC_CTL0_PER;
 1802              		.loc 1 175 15 is_stmt 0 view .LVU450
 1803 001a 0346     		mov	r3, r0
 1804 001c 08B1     		cbz	r0, .L147
 1805              	.LVL120:
 1806              	.L144:
 215:Drivers/GD32F30x_standard_peripheral/Source/gd32f30x_fmc.c **** }
 1807              		.loc 1 215 5 is_stmt 1 view .LVU451
 216:Drivers/GD32F30x_standard_peripheral/Source/gd32f30x_fmc.c **** 
 1808              		.loc 1 216 1 is_stmt 0 view .LVU452
 1809 001e 1846     		mov	r0, r3
 1810 0020 38BD     		pop	{r3, r4, r5, pc}
 1811              	.LVL121:
 1812              	.L147:
 176:Drivers/GD32F30x_standard_peripheral/Source/gd32f30x_fmc.c ****                 FMC_ADDR0 = page_address;
 1813              		.loc 1 176 17 is_stmt 1 view .LVU453
 176:Drivers/GD32F30x_standard_peripheral/Source/gd32f30x_fmc.c ****                 FMC_ADDR0 = page_address;
 1814              		.loc 1 176 26 is_stmt 0 view .LVU454
 1815 0022 2B4D     		ldr	r5, .L148+12
 1816 0024 2B68     		ldr	r3, [r5]
 1817 0026 43F00203 		orr	r3, r3, #2
 1818 002a 2B60     		str	r3, [r5]
 177:Drivers/GD32F30x_standard_peripheral/Source/gd32f30x_fmc.c ****                 FMC_CTL0 |= FMC_CTL0_START;
 1819              		.loc 1 177 17 is_stmt 1 view .LVU455
 177:Drivers/GD32F30x_standard_peripheral/Source/gd32f30x_fmc.c ****                 FMC_CTL0 |= FMC_CTL0_START;
 1820              		.loc 1 177 27 is_stmt 0 view .LVU456
 1821 002c 294B     		ldr	r3, .L148+16
 1822 002e 1C60     		str	r4, [r3]
 178:Drivers/GD32F30x_standard_peripheral/Source/gd32f30x_fmc.c ****                 /* wait for the FMC ready */
 1823              		.loc 1 178 17 is_stmt 1 view .LVU457
 178:Drivers/GD32F30x_standard_peripheral/Source/gd32f30x_fmc.c ****                 /* wait for the FMC ready */
 1824              		.loc 1 178 26 is_stmt 0 view .LVU458
 1825 0030 2B68     		ldr	r3, [r5]
 1826 0032 43F04003 		orr	r3, r3, #64
ARM GAS  C:\Users\Prog\AppData\Local\Temp\ccKeEkXj.s 			page 54


 1827 0036 2B60     		str	r3, [r5]
 180:Drivers/GD32F30x_standard_peripheral/Source/gd32f30x_fmc.c ****                 /* reset the PER bit */
 1828              		.loc 1 180 17 is_stmt 1 view .LVU459
 180:Drivers/GD32F30x_standard_peripheral/Source/gd32f30x_fmc.c ****                 /* reset the PER bit */
 1829              		.loc 1 180 29 is_stmt 0 view .LVU460
 1830 0038 2448     		ldr	r0, .L148+8
 1831              	.LVL122:
 180:Drivers/GD32F30x_standard_peripheral/Source/gd32f30x_fmc.c ****                 /* reset the PER bit */
 1832              		.loc 1 180 29 view .LVU461
 1833 003a FFF7FEFF 		bl	fmc_bank0_ready_wait
 1834              	.LVL123:
 1835 003e 0346     		mov	r3, r0
 1836              	.LVL124:
 182:Drivers/GD32F30x_standard_peripheral/Source/gd32f30x_fmc.c ****             }
 1837              		.loc 1 182 17 is_stmt 1 view .LVU462
 182:Drivers/GD32F30x_standard_peripheral/Source/gd32f30x_fmc.c ****             }
 1838              		.loc 1 182 26 is_stmt 0 view .LVU463
 1839 0040 2A68     		ldr	r2, [r5]
 1840 0042 22F00202 		bic	r2, r2, #2
 1841 0046 2A60     		str	r2, [r5]
 1842 0048 E9E7     		b	.L144
 1843              	.LVL125:
 1844              	.L143:
 186:Drivers/GD32F30x_standard_peripheral/Source/gd32f30x_fmc.c ****             /* if the last operation is completed, start page erase */
 1845              		.loc 1 186 13 is_stmt 1 view .LVU464
 186:Drivers/GD32F30x_standard_peripheral/Source/gd32f30x_fmc.c ****             /* if the last operation is completed, start page erase */
 1846              		.loc 1 186 25 is_stmt 0 view .LVU465
 1847 004a 2048     		ldr	r0, .L148+8
 1848              	.LVL126:
 186:Drivers/GD32F30x_standard_peripheral/Source/gd32f30x_fmc.c ****             /* if the last operation is completed, start page erase */
 1849              		.loc 1 186 25 view .LVU466
 1850 004c FFF7FEFF 		bl	fmc_bank1_ready_wait
 1851              	.LVL127:
 188:Drivers/GD32F30x_standard_peripheral/Source/gd32f30x_fmc.c ****                 FMC_CTL1 |= FMC_CTL1_PER;
 1852              		.loc 1 188 13 is_stmt 1 view .LVU467
 188:Drivers/GD32F30x_standard_peripheral/Source/gd32f30x_fmc.c ****                 FMC_CTL1 |= FMC_CTL1_PER;
 1853              		.loc 1 188 15 is_stmt 0 view .LVU468
 1854 0050 0346     		mov	r3, r0
 1855 0052 0028     		cmp	r0, #0
 1856 0054 E3D1     		bne	.L144
 189:Drivers/GD32F30x_standard_peripheral/Source/gd32f30x_fmc.c ****                 FMC_ADDR1 = page_address;
 1857              		.loc 1 189 17 is_stmt 1 view .LVU469
 189:Drivers/GD32F30x_standard_peripheral/Source/gd32f30x_fmc.c ****                 FMC_ADDR1 = page_address;
 1858              		.loc 1 189 26 is_stmt 0 view .LVU470
 1859 0056 204A     		ldr	r2, .L148+20
 1860 0058 1368     		ldr	r3, [r2]
 1861 005a 43F00203 		orr	r3, r3, #2
 1862 005e 1360     		str	r3, [r2]
 190:Drivers/GD32F30x_standard_peripheral/Source/gd32f30x_fmc.c ****                 if(FMC_OBSTAT & FMC_OBSTAT_SPC){
 1863              		.loc 1 190 17 is_stmt 1 view .LVU471
 190:Drivers/GD32F30x_standard_peripheral/Source/gd32f30x_fmc.c ****                 if(FMC_OBSTAT & FMC_OBSTAT_SPC){
 1864              		.loc 1 190 27 is_stmt 0 view .LVU472
 1865 0060 1E4B     		ldr	r3, .L148+24
 1866 0062 1C60     		str	r4, [r3]
 191:Drivers/GD32F30x_standard_peripheral/Source/gd32f30x_fmc.c ****                     FMC_ADDR0 = page_address;
 1867              		.loc 1 191 17 is_stmt 1 view .LVU473
 191:Drivers/GD32F30x_standard_peripheral/Source/gd32f30x_fmc.c ****                     FMC_ADDR0 = page_address;
ARM GAS  C:\Users\Prog\AppData\Local\Temp\ccKeEkXj.s 			page 55


 1868              		.loc 1 191 20 is_stmt 0 view .LVU474
 1869 0064 383B     		subs	r3, r3, #56
 1870 0066 1B68     		ldr	r3, [r3]
 191:Drivers/GD32F30x_standard_peripheral/Source/gd32f30x_fmc.c ****                     FMC_ADDR0 = page_address;
 1871              		.loc 1 191 19 view .LVU475
 1872 0068 13F0020F 		tst	r3, #2
 1873 006c 01D0     		beq	.L145
 192:Drivers/GD32F30x_standard_peripheral/Source/gd32f30x_fmc.c ****                 }
 1874              		.loc 1 192 21 is_stmt 1 view .LVU476
 192:Drivers/GD32F30x_standard_peripheral/Source/gd32f30x_fmc.c ****                 }
 1875              		.loc 1 192 31 is_stmt 0 view .LVU477
 1876 006e 194B     		ldr	r3, .L148+16
 1877 0070 1C60     		str	r4, [r3]
 1878              	.L145:
 194:Drivers/GD32F30x_standard_peripheral/Source/gd32f30x_fmc.c ****                 /* wait for the FMC ready */
 1879              		.loc 1 194 17 is_stmt 1 view .LVU478
 194:Drivers/GD32F30x_standard_peripheral/Source/gd32f30x_fmc.c ****                 /* wait for the FMC ready */
 1880              		.loc 1 194 26 is_stmt 0 view .LVU479
 1881 0072 194C     		ldr	r4, .L148+20
 1882              	.LVL128:
 194:Drivers/GD32F30x_standard_peripheral/Source/gd32f30x_fmc.c ****                 /* wait for the FMC ready */
 1883              		.loc 1 194 26 view .LVU480
 1884 0074 2368     		ldr	r3, [r4]
 1885 0076 43F04003 		orr	r3, r3, #64
 1886 007a 2360     		str	r3, [r4]
 196:Drivers/GD32F30x_standard_peripheral/Source/gd32f30x_fmc.c ****                 /* reset the PER bit */
 1887              		.loc 1 196 17 is_stmt 1 view .LVU481
 196:Drivers/GD32F30x_standard_peripheral/Source/gd32f30x_fmc.c ****                 /* reset the PER bit */
 1888              		.loc 1 196 29 is_stmt 0 view .LVU482
 1889 007c 1348     		ldr	r0, .L148+8
 1890              	.LVL129:
 196:Drivers/GD32F30x_standard_peripheral/Source/gd32f30x_fmc.c ****                 /* reset the PER bit */
 1891              		.loc 1 196 29 view .LVU483
 1892 007e FFF7FEFF 		bl	fmc_bank1_ready_wait
 1893              	.LVL130:
 1894 0082 0346     		mov	r3, r0
 1895              	.LVL131:
 198:Drivers/GD32F30x_standard_peripheral/Source/gd32f30x_fmc.c ****             }
 1896              		.loc 1 198 17 is_stmt 1 view .LVU484
 198:Drivers/GD32F30x_standard_peripheral/Source/gd32f30x_fmc.c ****             }
 1897              		.loc 1 198 26 is_stmt 0 view .LVU485
 1898 0084 2268     		ldr	r2, [r4]
 1899 0086 22F00202 		bic	r2, r2, #2
 1900 008a 2260     		str	r2, [r4]
 1901 008c C7E7     		b	.L144
 1902              	.LVL132:
 1903              	.L142:
 202:Drivers/GD32F30x_standard_peripheral/Source/gd32f30x_fmc.c ****         /* if the last operation is completed, start page erase */
 1904              		.loc 1 202 9 is_stmt 1 view .LVU486
 202:Drivers/GD32F30x_standard_peripheral/Source/gd32f30x_fmc.c ****         /* if the last operation is completed, start page erase */
 1905              		.loc 1 202 21 is_stmt 0 view .LVU487
 1906 008e 0F48     		ldr	r0, .L148+8
 1907              	.LVL133:
 202:Drivers/GD32F30x_standard_peripheral/Source/gd32f30x_fmc.c ****         /* if the last operation is completed, start page erase */
 1908              		.loc 1 202 21 view .LVU488
 1909 0090 FFF7FEFF 		bl	fmc_bank0_ready_wait
 1910              	.LVL134:
ARM GAS  C:\Users\Prog\AppData\Local\Temp\ccKeEkXj.s 			page 56


 204:Drivers/GD32F30x_standard_peripheral/Source/gd32f30x_fmc.c ****             FMC_CTL0 |= FMC_CTL0_PER;
 1911              		.loc 1 204 9 is_stmt 1 view .LVU489
 204:Drivers/GD32F30x_standard_peripheral/Source/gd32f30x_fmc.c ****             FMC_CTL0 |= FMC_CTL0_PER;
 1912              		.loc 1 204 11 is_stmt 0 view .LVU490
 1913 0094 0346     		mov	r3, r0
 1914 0096 0028     		cmp	r0, #0
 1915 0098 C1D1     		bne	.L144
 205:Drivers/GD32F30x_standard_peripheral/Source/gd32f30x_fmc.c ****             FMC_ADDR0 = page_address;
 1916              		.loc 1 205 13 is_stmt 1 view .LVU491
 205:Drivers/GD32F30x_standard_peripheral/Source/gd32f30x_fmc.c ****             FMC_ADDR0 = page_address;
 1917              		.loc 1 205 22 is_stmt 0 view .LVU492
 1918 009a 0D4D     		ldr	r5, .L148+12
 1919 009c 2B68     		ldr	r3, [r5]
 1920 009e 43F00203 		orr	r3, r3, #2
 1921 00a2 2B60     		str	r3, [r5]
 206:Drivers/GD32F30x_standard_peripheral/Source/gd32f30x_fmc.c ****             FMC_CTL0 |= FMC_CTL0_START;
 1922              		.loc 1 206 13 is_stmt 1 view .LVU493
 206:Drivers/GD32F30x_standard_peripheral/Source/gd32f30x_fmc.c ****             FMC_CTL0 |= FMC_CTL0_START;
 1923              		.loc 1 206 23 is_stmt 0 view .LVU494
 1924 00a4 0B4B     		ldr	r3, .L148+16
 1925 00a6 1C60     		str	r4, [r3]
 207:Drivers/GD32F30x_standard_peripheral/Source/gd32f30x_fmc.c ****             /* wait for the FMC ready */
 1926              		.loc 1 207 13 is_stmt 1 view .LVU495
 207:Drivers/GD32F30x_standard_peripheral/Source/gd32f30x_fmc.c ****             /* wait for the FMC ready */
 1927              		.loc 1 207 22 is_stmt 0 view .LVU496
 1928 00a8 2B68     		ldr	r3, [r5]
 1929 00aa 43F04003 		orr	r3, r3, #64
 1930 00ae 2B60     		str	r3, [r5]
 209:Drivers/GD32F30x_standard_peripheral/Source/gd32f30x_fmc.c ****             /* reset the PER bit */
 1931              		.loc 1 209 13 is_stmt 1 view .LVU497
 209:Drivers/GD32F30x_standard_peripheral/Source/gd32f30x_fmc.c ****             /* reset the PER bit */
 1932              		.loc 1 209 25 is_stmt 0 view .LVU498
 1933 00b0 0648     		ldr	r0, .L148+8
 1934              	.LVL135:
 209:Drivers/GD32F30x_standard_peripheral/Source/gd32f30x_fmc.c ****             /* reset the PER bit */
 1935              		.loc 1 209 25 view .LVU499
 1936 00b2 FFF7FEFF 		bl	fmc_bank0_ready_wait
 1937              	.LVL136:
 1938 00b6 0346     		mov	r3, r0
 1939              	.LVL137:
 211:Drivers/GD32F30x_standard_peripheral/Source/gd32f30x_fmc.c ****         }
 1940              		.loc 1 211 13 is_stmt 1 view .LVU500
 211:Drivers/GD32F30x_standard_peripheral/Source/gd32f30x_fmc.c ****         }
 1941              		.loc 1 211 22 is_stmt 0 view .LVU501
 1942 00b8 2A68     		ldr	r2, [r5]
 1943 00ba 22F00202 		bic	r2, r2, #2
 1944 00be 2A60     		str	r2, [r5]
 1945 00c0 ADE7     		b	.L144
 1946              	.L149:
 1947 00c2 00BF     		.align	2
 1948              	.L148:
 1949 00c4 E0F7FF1F 		.word	536868832
 1950 00c8 FEFF0708 		.word	134742014
 1951 00cc 0000FF0F 		.word	268369920
 1952 00d0 10200240 		.word	1073881104
 1953 00d4 14200240 		.word	1073881108
 1954 00d8 50200240 		.word	1073881168
ARM GAS  C:\Users\Prog\AppData\Local\Temp\ccKeEkXj.s 			page 57


 1955 00dc 54200240 		.word	1073881172
 1956              		.cfi_endproc
 1957              	.LFE123:
 1959              		.section	.text.fmc_mass_erase,"ax",%progbits
 1960              		.align	1
 1961              		.global	fmc_mass_erase
 1962              		.syntax unified
 1963              		.thumb
 1964              		.thumb_func
 1965              		.fpu fpv4-sp-d16
 1967              	fmc_mass_erase:
 1968              	.LFB124:
 225:Drivers/GD32F30x_standard_peripheral/Source/gd32f30x_fmc.c ****     fmc_state_enum fmc_state;
 1969              		.loc 1 225 1 is_stmt 1 view -0
 1970              		.cfi_startproc
 1971              		@ args = 0, pretend = 0, frame = 0
 1972              		@ frame_needed = 0, uses_anonymous_args = 0
 1973 0000 10B5     		push	{r4, lr}
 1974              	.LCFI9:
 1975              		.cfi_def_cfa_offset 8
 1976              		.cfi_offset 4, -8
 1977              		.cfi_offset 14, -4
 226:Drivers/GD32F30x_standard_peripheral/Source/gd32f30x_fmc.c ****     if(FMC_BANK0_SIZE < FMC_SIZE){
 1978              		.loc 1 226 5 view .LVU503
 227:Drivers/GD32F30x_standard_peripheral/Source/gd32f30x_fmc.c ****         /* wait for the FMC ready */
 1979              		.loc 1 227 5 view .LVU504
 227:Drivers/GD32F30x_standard_peripheral/Source/gd32f30x_fmc.c ****         /* wait for the FMC ready */
 1980              		.loc 1 227 25 is_stmt 0 view .LVU505
 1981 0002 264B     		ldr	r3, .L156
 1982 0004 1B88     		ldrh	r3, [r3]
 227:Drivers/GD32F30x_standard_peripheral/Source/gd32f30x_fmc.c ****         /* wait for the FMC ready */
 1983              		.loc 1 227 7 view .LVU506
 1984 0006 B3F5007F 		cmp	r3, #512
 1985 000a 2DD9     		bls	.L151
 229:Drivers/GD32F30x_standard_peripheral/Source/gd32f30x_fmc.c ****         if(FMC_READY == fmc_state){
 1986              		.loc 1 229 9 is_stmt 1 view .LVU507
 229:Drivers/GD32F30x_standard_peripheral/Source/gd32f30x_fmc.c ****         if(FMC_READY == fmc_state){
 1987              		.loc 1 229 21 is_stmt 0 view .LVU508
 1988 000c 2448     		ldr	r0, .L156+4
 1989 000e FFF7FEFF 		bl	fmc_bank0_ready_wait
 1990              	.LVL138:
 230:Drivers/GD32F30x_standard_peripheral/Source/gd32f30x_fmc.c ****             /* start whole chip erase */
 1991              		.loc 1 230 9 is_stmt 1 view .LVU509
 230:Drivers/GD32F30x_standard_peripheral/Source/gd32f30x_fmc.c ****             /* start whole chip erase */
 1992              		.loc 1 230 11 is_stmt 0 view .LVU510
 1993 0012 90B9     		cbnz	r0, .L152
 232:Drivers/GD32F30x_standard_peripheral/Source/gd32f30x_fmc.c ****             FMC_CTL0 |= FMC_CTL0_START;
 1994              		.loc 1 232 13 is_stmt 1 view .LVU511
 232:Drivers/GD32F30x_standard_peripheral/Source/gd32f30x_fmc.c ****             FMC_CTL0 |= FMC_CTL0_START;
 1995              		.loc 1 232 22 is_stmt 0 view .LVU512
 1996 0014 234B     		ldr	r3, .L156+8
 1997 0016 1A68     		ldr	r2, [r3]
 1998 0018 42F00402 		orr	r2, r2, #4
 1999 001c 1A60     		str	r2, [r3]
 233:Drivers/GD32F30x_standard_peripheral/Source/gd32f30x_fmc.c ****             /* wait for the FMC ready */
 2000              		.loc 1 233 13 is_stmt 1 view .LVU513
 233:Drivers/GD32F30x_standard_peripheral/Source/gd32f30x_fmc.c ****             /* wait for the FMC ready */
ARM GAS  C:\Users\Prog\AppData\Local\Temp\ccKeEkXj.s 			page 58


 2001              		.loc 1 233 22 is_stmt 0 view .LVU514
 2002 001e 1A68     		ldr	r2, [r3]
 2003 0020 42F04002 		orr	r2, r2, #64
 2004 0024 1A60     		str	r2, [r3]
 235:Drivers/GD32F30x_standard_peripheral/Source/gd32f30x_fmc.c ****             if(FMC_READY != fmc_state){
 2005              		.loc 1 235 13 is_stmt 1 view .LVU515
 235:Drivers/GD32F30x_standard_peripheral/Source/gd32f30x_fmc.c ****             if(FMC_READY != fmc_state){
 2006              		.loc 1 235 25 is_stmt 0 view .LVU516
 2007 0026 1E48     		ldr	r0, .L156+4
 2008              	.LVL139:
 235:Drivers/GD32F30x_standard_peripheral/Source/gd32f30x_fmc.c ****             if(FMC_READY != fmc_state){
 2009              		.loc 1 235 25 view .LVU517
 2010 0028 FFF7FEFF 		bl	fmc_bank0_ready_wait
 2011              	.LVL140:
 236:Drivers/GD32F30x_standard_peripheral/Source/gd32f30x_fmc.c ****                 return fmc_state;
 2012              		.loc 1 236 13 is_stmt 1 view .LVU518
 236:Drivers/GD32F30x_standard_peripheral/Source/gd32f30x_fmc.c ****                 return fmc_state;
 2013              		.loc 1 236 15 is_stmt 0 view .LVU519
 2014 002c 0346     		mov	r3, r0
 2015 002e 00BB     		cbnz	r0, .L153
 240:Drivers/GD32F30x_standard_peripheral/Source/gd32f30x_fmc.c ****         }
 2016              		.loc 1 240 13 is_stmt 1 view .LVU520
 240:Drivers/GD32F30x_standard_peripheral/Source/gd32f30x_fmc.c ****         }
 2017              		.loc 1 240 22 is_stmt 0 view .LVU521
 2018 0030 1C4A     		ldr	r2, .L156+8
 2019 0032 1368     		ldr	r3, [r2]
 2020 0034 23F00403 		bic	r3, r3, #4
 2021 0038 1360     		str	r3, [r2]
 2022              	.L152:
 242:Drivers/GD32F30x_standard_peripheral/Source/gd32f30x_fmc.c ****         if(FMC_READY == fmc_state){
 2023              		.loc 1 242 9 is_stmt 1 view .LVU522
 242:Drivers/GD32F30x_standard_peripheral/Source/gd32f30x_fmc.c ****         if(FMC_READY == fmc_state){
 2024              		.loc 1 242 21 is_stmt 0 view .LVU523
 2025 003a 1948     		ldr	r0, .L156+4
 2026              	.LVL141:
 242:Drivers/GD32F30x_standard_peripheral/Source/gd32f30x_fmc.c ****         if(FMC_READY == fmc_state){
 2027              		.loc 1 242 21 view .LVU524
 2028 003c FFF7FEFF 		bl	fmc_bank1_ready_wait
 2029              	.LVL142:
 243:Drivers/GD32F30x_standard_peripheral/Source/gd32f30x_fmc.c ****             /* start whole chip erase */
 2030              		.loc 1 243 9 is_stmt 1 view .LVU525
 243:Drivers/GD32F30x_standard_peripheral/Source/gd32f30x_fmc.c ****             /* start whole chip erase */
 2031              		.loc 1 243 11 is_stmt 0 view .LVU526
 2032 0040 0346     		mov	r3, r0
 2033 0042 B0B9     		cbnz	r0, .L153
 245:Drivers/GD32F30x_standard_peripheral/Source/gd32f30x_fmc.c ****             FMC_CTL1 |= FMC_CTL1_START;
 2034              		.loc 1 245 13 is_stmt 1 view .LVU527
 245:Drivers/GD32F30x_standard_peripheral/Source/gd32f30x_fmc.c ****             FMC_CTL1 |= FMC_CTL1_START;
 2035              		.loc 1 245 22 is_stmt 0 view .LVU528
 2036 0044 184C     		ldr	r4, .L156+12
 2037 0046 2368     		ldr	r3, [r4]
 2038 0048 43F00403 		orr	r3, r3, #4
 2039 004c 2360     		str	r3, [r4]
 246:Drivers/GD32F30x_standard_peripheral/Source/gd32f30x_fmc.c ****             /* wait for the FMC ready */
 2040              		.loc 1 246 13 is_stmt 1 view .LVU529
 246:Drivers/GD32F30x_standard_peripheral/Source/gd32f30x_fmc.c ****             /* wait for the FMC ready */
 2041              		.loc 1 246 22 is_stmt 0 view .LVU530
ARM GAS  C:\Users\Prog\AppData\Local\Temp\ccKeEkXj.s 			page 59


 2042 004e 2368     		ldr	r3, [r4]
 2043 0050 43F04003 		orr	r3, r3, #64
 2044 0054 2360     		str	r3, [r4]
 248:Drivers/GD32F30x_standard_peripheral/Source/gd32f30x_fmc.c ****             /* reset the MER bit */
 2045              		.loc 1 248 13 is_stmt 1 view .LVU531
 248:Drivers/GD32F30x_standard_peripheral/Source/gd32f30x_fmc.c ****             /* reset the MER bit */
 2046              		.loc 1 248 25 is_stmt 0 view .LVU532
 2047 0056 1248     		ldr	r0, .L156+4
 2048              	.LVL143:
 248:Drivers/GD32F30x_standard_peripheral/Source/gd32f30x_fmc.c ****             /* reset the MER bit */
 2049              		.loc 1 248 25 view .LVU533
 2050 0058 FFF7FEFF 		bl	fmc_bank1_ready_wait
 2051              	.LVL144:
 2052 005c 0346     		mov	r3, r0
 2053              	.LVL145:
 250:Drivers/GD32F30x_standard_peripheral/Source/gd32f30x_fmc.c ****         }
 2054              		.loc 1 250 13 is_stmt 1 view .LVU534
 250:Drivers/GD32F30x_standard_peripheral/Source/gd32f30x_fmc.c ****         }
 2055              		.loc 1 250 22 is_stmt 0 view .LVU535
 2056 005e 2268     		ldr	r2, [r4]
 2057 0060 22F00402 		bic	r2, r2, #4
 2058 0064 2260     		str	r2, [r4]
 2059 0066 04E0     		b	.L153
 2060              	.LVL146:
 2061              	.L151:
 253:Drivers/GD32F30x_standard_peripheral/Source/gd32f30x_fmc.c ****         if(FMC_READY == fmc_state){
 2062              		.loc 1 253 9 is_stmt 1 view .LVU536
 253:Drivers/GD32F30x_standard_peripheral/Source/gd32f30x_fmc.c ****         if(FMC_READY == fmc_state){
 2063              		.loc 1 253 21 is_stmt 0 view .LVU537
 2064 0068 0D48     		ldr	r0, .L156+4
 2065 006a FFF7FEFF 		bl	fmc_bank0_ready_wait
 2066              	.LVL147:
 254:Drivers/GD32F30x_standard_peripheral/Source/gd32f30x_fmc.c ****             /* start whole chip erase */
 2067              		.loc 1 254 9 is_stmt 1 view .LVU538
 254:Drivers/GD32F30x_standard_peripheral/Source/gd32f30x_fmc.c ****             /* start whole chip erase */
 2068              		.loc 1 254 11 is_stmt 0 view .LVU539
 2069 006e 0346     		mov	r3, r0
 2070 0070 08B1     		cbz	r0, .L155
 2071              	.LVL148:
 2072              	.L153:
 266:Drivers/GD32F30x_standard_peripheral/Source/gd32f30x_fmc.c **** 
 2073              		.loc 1 266 1 view .LVU540
 2074 0072 1846     		mov	r0, r3
 2075 0074 10BD     		pop	{r4, pc}
 2076              	.LVL149:
 2077              	.L155:
 256:Drivers/GD32F30x_standard_peripheral/Source/gd32f30x_fmc.c ****             FMC_CTL0 |= FMC_CTL0_START;    
 2078              		.loc 1 256 13 is_stmt 1 view .LVU541
 256:Drivers/GD32F30x_standard_peripheral/Source/gd32f30x_fmc.c ****             FMC_CTL0 |= FMC_CTL0_START;    
 2079              		.loc 1 256 22 is_stmt 0 view .LVU542
 2080 0076 0B4C     		ldr	r4, .L156+8
 2081 0078 2368     		ldr	r3, [r4]
 2082 007a 43F00403 		orr	r3, r3, #4
 2083 007e 2360     		str	r3, [r4]
 257:Drivers/GD32F30x_standard_peripheral/Source/gd32f30x_fmc.c ****             /* wait for the FMC ready */
 2084              		.loc 1 257 13 is_stmt 1 view .LVU543
 257:Drivers/GD32F30x_standard_peripheral/Source/gd32f30x_fmc.c ****             /* wait for the FMC ready */
ARM GAS  C:\Users\Prog\AppData\Local\Temp\ccKeEkXj.s 			page 60


 2085              		.loc 1 257 22 is_stmt 0 view .LVU544
 2086 0080 2368     		ldr	r3, [r4]
 2087 0082 43F04003 		orr	r3, r3, #64
 2088 0086 2360     		str	r3, [r4]
 259:Drivers/GD32F30x_standard_peripheral/Source/gd32f30x_fmc.c ****             /* reset the MER bit */
 2089              		.loc 1 259 13 is_stmt 1 view .LVU545
 259:Drivers/GD32F30x_standard_peripheral/Source/gd32f30x_fmc.c ****             /* reset the MER bit */
 2090              		.loc 1 259 25 is_stmt 0 view .LVU546
 2091 0088 0548     		ldr	r0, .L156+4
 2092              	.LVL150:
 259:Drivers/GD32F30x_standard_peripheral/Source/gd32f30x_fmc.c ****             /* reset the MER bit */
 2093              		.loc 1 259 25 view .LVU547
 2094 008a FFF7FEFF 		bl	fmc_bank0_ready_wait
 2095              	.LVL151:
 2096 008e 0346     		mov	r3, r0
 2097              	.LVL152:
 261:Drivers/GD32F30x_standard_peripheral/Source/gd32f30x_fmc.c ****         }
 2098              		.loc 1 261 13 is_stmt 1 view .LVU548
 261:Drivers/GD32F30x_standard_peripheral/Source/gd32f30x_fmc.c ****         }
 2099              		.loc 1 261 22 is_stmt 0 view .LVU549
 2100 0090 2268     		ldr	r2, [r4]
 2101 0092 22F00402 		bic	r2, r2, #4
 2102 0096 2260     		str	r2, [r4]
 2103 0098 EBE7     		b	.L153
 2104              	.L157:
 2105 009a 00BF     		.align	2
 2106              	.L156:
 2107 009c E0F7FF1F 		.word	536868832
 2108 00a0 0000FF0F 		.word	268369920
 2109 00a4 10200240 		.word	1073881104
 2110 00a8 50200240 		.word	1073881168
 2111              		.cfi_endproc
 2112              	.LFE124:
 2114              		.section	.text.fmc_bank1_erase,"ax",%progbits
 2115              		.align	1
 2116              		.global	fmc_bank1_erase
 2117              		.syntax unified
 2118              		.thumb
 2119              		.thumb_func
 2120              		.fpu fpv4-sp-d16
 2122              	fmc_bank1_erase:
 2123              	.LFB126:
 300:Drivers/GD32F30x_standard_peripheral/Source/gd32f30x_fmc.c ****     fmc_state_enum fmc_state = FMC_READY;
 2124              		.loc 1 300 1 is_stmt 1 view -0
 2125              		.cfi_startproc
 2126              		@ args = 0, pretend = 0, frame = 0
 2127              		@ frame_needed = 0, uses_anonymous_args = 0
 2128 0000 10B5     		push	{r4, lr}
 2129              	.LCFI10:
 2130              		.cfi_def_cfa_offset 8
 2131              		.cfi_offset 4, -8
 2132              		.cfi_offset 14, -4
 301:Drivers/GD32F30x_standard_peripheral/Source/gd32f30x_fmc.c ****     /* wait for the FMC ready */
 2133              		.loc 1 301 5 view .LVU551
 2134              	.LVL153:
 303:Drivers/GD32F30x_standard_peripheral/Source/gd32f30x_fmc.c ****   
 2135              		.loc 1 303 5 view .LVU552
ARM GAS  C:\Users\Prog\AppData\Local\Temp\ccKeEkXj.s 			page 61


 303:Drivers/GD32F30x_standard_peripheral/Source/gd32f30x_fmc.c ****   
 2136              		.loc 1 303 17 is_stmt 0 view .LVU553
 2137 0002 0C48     		ldr	r0, .L162
 2138 0004 FFF7FEFF 		bl	fmc_bank1_ready_wait
 2139              	.LVL154:
 305:Drivers/GD32F30x_standard_peripheral/Source/gd32f30x_fmc.c ****         /* start FMC bank1 erase */
 2140              		.loc 1 305 4 is_stmt 1 view .LVU554
 305:Drivers/GD32F30x_standard_peripheral/Source/gd32f30x_fmc.c ****         /* start FMC bank1 erase */
 2141              		.loc 1 305 6 is_stmt 0 view .LVU555
 2142 0008 0346     		mov	r3, r0
 2143 000a 08B1     		cbz	r0, .L161
 2144              	.LVL155:
 2145              	.L159:
 315:Drivers/GD32F30x_standard_peripheral/Source/gd32f30x_fmc.c **** }
 2146              		.loc 1 315 5 is_stmt 1 view .LVU556
 316:Drivers/GD32F30x_standard_peripheral/Source/gd32f30x_fmc.c **** 
 2147              		.loc 1 316 1 is_stmt 0 view .LVU557
 2148 000c 1846     		mov	r0, r3
 2149 000e 10BD     		pop	{r4, pc}
 2150              	.LVL156:
 2151              	.L161:
 307:Drivers/GD32F30x_standard_peripheral/Source/gd32f30x_fmc.c ****         FMC_CTL1 |= FMC_CTL1_START;
 2152              		.loc 1 307 9 is_stmt 1 view .LVU558
 307:Drivers/GD32F30x_standard_peripheral/Source/gd32f30x_fmc.c ****         FMC_CTL1 |= FMC_CTL1_START;
 2153              		.loc 1 307 18 is_stmt 0 view .LVU559
 2154 0010 094C     		ldr	r4, .L162+4
 2155 0012 2368     		ldr	r3, [r4]
 2156 0014 43F00403 		orr	r3, r3, #4
 2157 0018 2360     		str	r3, [r4]
 308:Drivers/GD32F30x_standard_peripheral/Source/gd32f30x_fmc.c ****         /* wait for the FMC ready */
 2158              		.loc 1 308 9 is_stmt 1 view .LVU560
 308:Drivers/GD32F30x_standard_peripheral/Source/gd32f30x_fmc.c ****         /* wait for the FMC ready */
 2159              		.loc 1 308 18 is_stmt 0 view .LVU561
 2160 001a 2368     		ldr	r3, [r4]
 2161 001c 43F04003 		orr	r3, r3, #64
 2162 0020 2360     		str	r3, [r4]
 310:Drivers/GD32F30x_standard_peripheral/Source/gd32f30x_fmc.c ****         /* reset the MER bit */
 2163              		.loc 1 310 9 is_stmt 1 view .LVU562
 310:Drivers/GD32F30x_standard_peripheral/Source/gd32f30x_fmc.c ****         /* reset the MER bit */
 2164              		.loc 1 310 21 is_stmt 0 view .LVU563
 2165 0022 0448     		ldr	r0, .L162
 2166              	.LVL157:
 310:Drivers/GD32F30x_standard_peripheral/Source/gd32f30x_fmc.c ****         /* reset the MER bit */
 2167              		.loc 1 310 21 view .LVU564
 2168 0024 FFF7FEFF 		bl	fmc_bank1_ready_wait
 2169              	.LVL158:
 2170 0028 0346     		mov	r3, r0
 2171              	.LVL159:
 312:Drivers/GD32F30x_standard_peripheral/Source/gd32f30x_fmc.c ****     }
 2172              		.loc 1 312 9 is_stmt 1 view .LVU565
 312:Drivers/GD32F30x_standard_peripheral/Source/gd32f30x_fmc.c ****     }
 2173              		.loc 1 312 18 is_stmt 0 view .LVU566
 2174 002a 2268     		ldr	r2, [r4]
 2175 002c 22F00402 		bic	r2, r2, #4
 2176 0030 2260     		str	r2, [r4]
 2177 0032 EBE7     		b	.L159
 2178              	.L163:
ARM GAS  C:\Users\Prog\AppData\Local\Temp\ccKeEkXj.s 			page 62


 2179              		.align	2
 2180              	.L162:
 2181 0034 0000FF0F 		.word	268369920
 2182 0038 50200240 		.word	1073881168
 2183              		.cfi_endproc
 2184              	.LFE126:
 2186              		.section	.text.fmc_word_program,"ax",%progbits
 2187              		.align	1
 2188              		.global	fmc_word_program
 2189              		.syntax unified
 2190              		.thumb
 2191              		.thumb_func
 2192              		.fpu fpv4-sp-d16
 2194              	fmc_word_program:
 2195              	.LVL160:
 2196              	.LFB127:
 326:Drivers/GD32F30x_standard_peripheral/Source/gd32f30x_fmc.c ****     fmc_state_enum fmc_state = FMC_READY;
 2197              		.loc 1 326 1 is_stmt 1 view -0
 2198              		.cfi_startproc
 2199              		@ args = 0, pretend = 0, frame = 0
 2200              		@ frame_needed = 0, uses_anonymous_args = 0
 326:Drivers/GD32F30x_standard_peripheral/Source/gd32f30x_fmc.c ****     fmc_state_enum fmc_state = FMC_READY;
 2201              		.loc 1 326 1 is_stmt 0 view .LVU568
 2202 0000 70B5     		push	{r4, r5, r6, lr}
 2203              	.LCFI11:
 2204              		.cfi_def_cfa_offset 16
 2205              		.cfi_offset 4, -16
 2206              		.cfi_offset 5, -12
 2207              		.cfi_offset 6, -8
 2208              		.cfi_offset 14, -4
 2209 0002 0446     		mov	r4, r0
 2210 0004 0D46     		mov	r5, r1
 327:Drivers/GD32F30x_standard_peripheral/Source/gd32f30x_fmc.c ****     if(FMC_BANK0_SIZE < FMC_SIZE){
 2211              		.loc 1 327 5 is_stmt 1 view .LVU569
 2212              	.LVL161:
 328:Drivers/GD32F30x_standard_peripheral/Source/gd32f30x_fmc.c ****         if(FMC_BANK0_END_ADDRESS > address){
 2213              		.loc 1 328 5 view .LVU570
 328:Drivers/GD32F30x_standard_peripheral/Source/gd32f30x_fmc.c ****         if(FMC_BANK0_END_ADDRESS > address){
 2214              		.loc 1 328 25 is_stmt 0 view .LVU571
 2215 0006 244B     		ldr	r3, .L170
 2216 0008 1B88     		ldrh	r3, [r3]
 328:Drivers/GD32F30x_standard_peripheral/Source/gd32f30x_fmc.c ****         if(FMC_BANK0_END_ADDRESS > address){
 2217              		.loc 1 328 7 view .LVU572
 2218 000a B3F5007F 		cmp	r3, #512
 2219 000e 2DD9     		bls	.L165
 329:Drivers/GD32F30x_standard_peripheral/Source/gd32f30x_fmc.c ****             fmc_state = fmc_bank0_ready_wait(FMC_TIMEOUT_COUNT); 
 2220              		.loc 1 329 9 is_stmt 1 view .LVU573
 329:Drivers/GD32F30x_standard_peripheral/Source/gd32f30x_fmc.c ****             fmc_state = fmc_bank0_ready_wait(FMC_TIMEOUT_COUNT); 
 2221              		.loc 1 329 11 is_stmt 0 view .LVU574
 2222 0010 224B     		ldr	r3, .L170+4
 2223 0012 9842     		cmp	r0, r3
 2224 0014 15D8     		bhi	.L166
 330:Drivers/GD32F30x_standard_peripheral/Source/gd32f30x_fmc.c ****   
 2225              		.loc 1 330 13 is_stmt 1 view .LVU575
 330:Drivers/GD32F30x_standard_peripheral/Source/gd32f30x_fmc.c ****   
 2226              		.loc 1 330 25 is_stmt 0 view .LVU576
 2227 0016 2248     		ldr	r0, .L170+8
ARM GAS  C:\Users\Prog\AppData\Local\Temp\ccKeEkXj.s 			page 63


 2228              	.LVL162:
 330:Drivers/GD32F30x_standard_peripheral/Source/gd32f30x_fmc.c ****   
 2229              		.loc 1 330 25 view .LVU577
 2230 0018 FFF7FEFF 		bl	fmc_bank0_ready_wait
 2231              	.LVL163:
 332:Drivers/GD32F30x_standard_peripheral/Source/gd32f30x_fmc.c ****                 /* set the PG bit to start program */
 2232              		.loc 1 332 13 is_stmt 1 view .LVU578
 332:Drivers/GD32F30x_standard_peripheral/Source/gd32f30x_fmc.c ****                 /* set the PG bit to start program */
 2233              		.loc 1 332 15 is_stmt 0 view .LVU579
 2234 001c 0346     		mov	r3, r0
 2235 001e 08B1     		cbz	r0, .L169
 2236              	.LVL164:
 2237              	.L167:
 368:Drivers/GD32F30x_standard_peripheral/Source/gd32f30x_fmc.c **** }
 2238              		.loc 1 368 5 is_stmt 1 view .LVU580
 369:Drivers/GD32F30x_standard_peripheral/Source/gd32f30x_fmc.c **** 
 2239              		.loc 1 369 1 is_stmt 0 view .LVU581
 2240 0020 1846     		mov	r0, r3
 2241 0022 70BD     		pop	{r4, r5, r6, pc}
 2242              	.LVL165:
 2243              	.L169:
 334:Drivers/GD32F30x_standard_peripheral/Source/gd32f30x_fmc.c ****                 REG32(address) = data;
 2244              		.loc 1 334 17 is_stmt 1 view .LVU582
 334:Drivers/GD32F30x_standard_peripheral/Source/gd32f30x_fmc.c ****                 REG32(address) = data;
 2245              		.loc 1 334 26 is_stmt 0 view .LVU583
 2246 0024 1F4E     		ldr	r6, .L170+12
 2247 0026 3368     		ldr	r3, [r6]
 2248 0028 43F00103 		orr	r3, r3, #1
 2249 002c 3360     		str	r3, [r6]
 335:Drivers/GD32F30x_standard_peripheral/Source/gd32f30x_fmc.c ****                 /* wait for the FMC ready */
 2250              		.loc 1 335 17 is_stmt 1 view .LVU584
 335:Drivers/GD32F30x_standard_peripheral/Source/gd32f30x_fmc.c ****                 /* wait for the FMC ready */
 2251              		.loc 1 335 32 is_stmt 0 view .LVU585
 2252 002e 2560     		str	r5, [r4]
 337:Drivers/GD32F30x_standard_peripheral/Source/gd32f30x_fmc.c ****                 /* reset the PG bit */
 2253              		.loc 1 337 17 is_stmt 1 view .LVU586
 337:Drivers/GD32F30x_standard_peripheral/Source/gd32f30x_fmc.c ****                 /* reset the PG bit */
 2254              		.loc 1 337 29 is_stmt 0 view .LVU587
 2255 0030 1B48     		ldr	r0, .L170+8
 2256              	.LVL166:
 337:Drivers/GD32F30x_standard_peripheral/Source/gd32f30x_fmc.c ****                 /* reset the PG bit */
 2257              		.loc 1 337 29 view .LVU588
 2258 0032 FFF7FEFF 		bl	fmc_bank0_ready_wait
 2259              	.LVL167:
 2260 0036 0346     		mov	r3, r0
 2261              	.LVL168:
 339:Drivers/GD32F30x_standard_peripheral/Source/gd32f30x_fmc.c ****             }
 2262              		.loc 1 339 17 is_stmt 1 view .LVU589
 339:Drivers/GD32F30x_standard_peripheral/Source/gd32f30x_fmc.c ****             }
 2263              		.loc 1 339 26 is_stmt 0 view .LVU590
 2264 0038 3268     		ldr	r2, [r6]
 2265 003a 22F00102 		bic	r2, r2, #1
 2266 003e 3260     		str	r2, [r6]
 2267 0040 EEE7     		b	.L167
 2268              	.LVL169:
 2269              	.L166:
 342:Drivers/GD32F30x_standard_peripheral/Source/gd32f30x_fmc.c ****   
ARM GAS  C:\Users\Prog\AppData\Local\Temp\ccKeEkXj.s 			page 64


 2270              		.loc 1 342 13 is_stmt 1 view .LVU591
 342:Drivers/GD32F30x_standard_peripheral/Source/gd32f30x_fmc.c ****   
 2271              		.loc 1 342 25 is_stmt 0 view .LVU592
 2272 0042 1748     		ldr	r0, .L170+8
 2273              	.LVL170:
 342:Drivers/GD32F30x_standard_peripheral/Source/gd32f30x_fmc.c ****   
 2274              		.loc 1 342 25 view .LVU593
 2275 0044 FFF7FEFF 		bl	fmc_bank1_ready_wait
 2276              	.LVL171:
 344:Drivers/GD32F30x_standard_peripheral/Source/gd32f30x_fmc.c ****                 /* set the PG bit to start program */
 2277              		.loc 1 344 13 is_stmt 1 view .LVU594
 344:Drivers/GD32F30x_standard_peripheral/Source/gd32f30x_fmc.c ****                 /* set the PG bit to start program */
 2278              		.loc 1 344 15 is_stmt 0 view .LVU595
 2279 0048 0346     		mov	r3, r0
 2280 004a 0028     		cmp	r0, #0
 2281 004c E8D1     		bne	.L167
 346:Drivers/GD32F30x_standard_peripheral/Source/gd32f30x_fmc.c ****                 REG32(address) = data;
 2282              		.loc 1 346 17 is_stmt 1 view .LVU596
 346:Drivers/GD32F30x_standard_peripheral/Source/gd32f30x_fmc.c ****                 REG32(address) = data;
 2283              		.loc 1 346 26 is_stmt 0 view .LVU597
 2284 004e 164E     		ldr	r6, .L170+16
 2285 0050 3368     		ldr	r3, [r6]
 2286 0052 43F00103 		orr	r3, r3, #1
 2287 0056 3360     		str	r3, [r6]
 347:Drivers/GD32F30x_standard_peripheral/Source/gd32f30x_fmc.c ****                 /* wait for the FMC ready */
 2288              		.loc 1 347 17 is_stmt 1 view .LVU598
 347:Drivers/GD32F30x_standard_peripheral/Source/gd32f30x_fmc.c ****                 /* wait for the FMC ready */
 2289              		.loc 1 347 32 is_stmt 0 view .LVU599
 2290 0058 2560     		str	r5, [r4]
 349:Drivers/GD32F30x_standard_peripheral/Source/gd32f30x_fmc.c ****                 /* reset the PG bit */
 2291              		.loc 1 349 17 is_stmt 1 view .LVU600
 349:Drivers/GD32F30x_standard_peripheral/Source/gd32f30x_fmc.c ****                 /* reset the PG bit */
 2292              		.loc 1 349 29 is_stmt 0 view .LVU601
 2293 005a 1148     		ldr	r0, .L170+8
 2294              	.LVL172:
 349:Drivers/GD32F30x_standard_peripheral/Source/gd32f30x_fmc.c ****                 /* reset the PG bit */
 2295              		.loc 1 349 29 view .LVU602
 2296 005c FFF7FEFF 		bl	fmc_bank1_ready_wait
 2297              	.LVL173:
 2298 0060 0346     		mov	r3, r0
 2299              	.LVL174:
 351:Drivers/GD32F30x_standard_peripheral/Source/gd32f30x_fmc.c ****             }
 2300              		.loc 1 351 17 is_stmt 1 view .LVU603
 351:Drivers/GD32F30x_standard_peripheral/Source/gd32f30x_fmc.c ****             }
 2301              		.loc 1 351 26 is_stmt 0 view .LVU604
 2302 0062 3268     		ldr	r2, [r6]
 2303 0064 22F00102 		bic	r2, r2, #1
 2304 0068 3260     		str	r2, [r6]
 2305 006a D9E7     		b	.L167
 2306              	.LVL175:
 2307              	.L165:
 355:Drivers/GD32F30x_standard_peripheral/Source/gd32f30x_fmc.c ****   
 2308              		.loc 1 355 9 is_stmt 1 view .LVU605
 355:Drivers/GD32F30x_standard_peripheral/Source/gd32f30x_fmc.c ****   
 2309              		.loc 1 355 21 is_stmt 0 view .LVU606
 2310 006c 0C48     		ldr	r0, .L170+8
 2311              	.LVL176:
ARM GAS  C:\Users\Prog\AppData\Local\Temp\ccKeEkXj.s 			page 65


 355:Drivers/GD32F30x_standard_peripheral/Source/gd32f30x_fmc.c ****   
 2312              		.loc 1 355 21 view .LVU607
 2313 006e FFF7FEFF 		bl	fmc_bank0_ready_wait
 2314              	.LVL177:
 357:Drivers/GD32F30x_standard_peripheral/Source/gd32f30x_fmc.c ****             /* set the PG bit to start program */
 2315              		.loc 1 357 9 is_stmt 1 view .LVU608
 357:Drivers/GD32F30x_standard_peripheral/Source/gd32f30x_fmc.c ****             /* set the PG bit to start program */
 2316              		.loc 1 357 11 is_stmt 0 view .LVU609
 2317 0072 0346     		mov	r3, r0
 2318 0074 0028     		cmp	r0, #0
 2319 0076 D3D1     		bne	.L167
 359:Drivers/GD32F30x_standard_peripheral/Source/gd32f30x_fmc.c ****             REG32(address) = data;
 2320              		.loc 1 359 13 is_stmt 1 view .LVU610
 359:Drivers/GD32F30x_standard_peripheral/Source/gd32f30x_fmc.c ****             REG32(address) = data;
 2321              		.loc 1 359 22 is_stmt 0 view .LVU611
 2322 0078 0A4E     		ldr	r6, .L170+12
 2323 007a 3368     		ldr	r3, [r6]
 2324 007c 43F00103 		orr	r3, r3, #1
 2325 0080 3360     		str	r3, [r6]
 360:Drivers/GD32F30x_standard_peripheral/Source/gd32f30x_fmc.c ****             /* wait for the FMC ready */
 2326              		.loc 1 360 13 is_stmt 1 view .LVU612
 360:Drivers/GD32F30x_standard_peripheral/Source/gd32f30x_fmc.c ****             /* wait for the FMC ready */
 2327              		.loc 1 360 28 is_stmt 0 view .LVU613
 2328 0082 2560     		str	r5, [r4]
 362:Drivers/GD32F30x_standard_peripheral/Source/gd32f30x_fmc.c ****             /* reset the PG bit */
 2329              		.loc 1 362 13 is_stmt 1 view .LVU614
 362:Drivers/GD32F30x_standard_peripheral/Source/gd32f30x_fmc.c ****             /* reset the PG bit */
 2330              		.loc 1 362 25 is_stmt 0 view .LVU615
 2331 0084 0648     		ldr	r0, .L170+8
 2332              	.LVL178:
 362:Drivers/GD32F30x_standard_peripheral/Source/gd32f30x_fmc.c ****             /* reset the PG bit */
 2333              		.loc 1 362 25 view .LVU616
 2334 0086 FFF7FEFF 		bl	fmc_bank0_ready_wait
 2335              	.LVL179:
 2336 008a 0346     		mov	r3, r0
 2337              	.LVL180:
 364:Drivers/GD32F30x_standard_peripheral/Source/gd32f30x_fmc.c ****         } 
 2338              		.loc 1 364 13 is_stmt 1 view .LVU617
 364:Drivers/GD32F30x_standard_peripheral/Source/gd32f30x_fmc.c ****         } 
 2339              		.loc 1 364 22 is_stmt 0 view .LVU618
 2340 008c 3268     		ldr	r2, [r6]
 2341 008e 22F00102 		bic	r2, r2, #1
 2342 0092 3260     		str	r2, [r6]
 2343 0094 C4E7     		b	.L167
 2344              	.L171:
 2345 0096 00BF     		.align	2
 2346              	.L170:
 2347 0098 E0F7FF1F 		.word	536868832
 2348 009c FEFF0708 		.word	134742014
 2349 00a0 0000FF0F 		.word	268369920
 2350 00a4 10200240 		.word	1073881104
 2351 00a8 50200240 		.word	1073881168
 2352              		.cfi_endproc
 2353              	.LFE127:
 2355              		.section	.text.fmc_halfword_program,"ax",%progbits
 2356              		.align	1
 2357              		.global	fmc_halfword_program
ARM GAS  C:\Users\Prog\AppData\Local\Temp\ccKeEkXj.s 			page 66


 2358              		.syntax unified
 2359              		.thumb
 2360              		.thumb_func
 2361              		.fpu fpv4-sp-d16
 2363              	fmc_halfword_program:
 2364              	.LVL181:
 2365              	.LFB128:
 379:Drivers/GD32F30x_standard_peripheral/Source/gd32f30x_fmc.c ****     fmc_state_enum fmc_state = FMC_READY;
 2366              		.loc 1 379 1 is_stmt 1 view -0
 2367              		.cfi_startproc
 2368              		@ args = 0, pretend = 0, frame = 0
 2369              		@ frame_needed = 0, uses_anonymous_args = 0
 379:Drivers/GD32F30x_standard_peripheral/Source/gd32f30x_fmc.c ****     fmc_state_enum fmc_state = FMC_READY;
 2370              		.loc 1 379 1 is_stmt 0 view .LVU620
 2371 0000 70B5     		push	{r4, r5, r6, lr}
 2372              	.LCFI12:
 2373              		.cfi_def_cfa_offset 16
 2374              		.cfi_offset 4, -16
 2375              		.cfi_offset 5, -12
 2376              		.cfi_offset 6, -8
 2377              		.cfi_offset 14, -4
 2378 0002 0446     		mov	r4, r0
 2379 0004 0D46     		mov	r5, r1
 380:Drivers/GD32F30x_standard_peripheral/Source/gd32f30x_fmc.c ****     if(FMC_BANK0_SIZE < FMC_SIZE){
 2380              		.loc 1 380 5 is_stmt 1 view .LVU621
 2381              	.LVL182:
 381:Drivers/GD32F30x_standard_peripheral/Source/gd32f30x_fmc.c ****         if(FMC_BANK0_END_ADDRESS > address){
 2382              		.loc 1 381 5 view .LVU622
 381:Drivers/GD32F30x_standard_peripheral/Source/gd32f30x_fmc.c ****         if(FMC_BANK0_END_ADDRESS > address){
 2383              		.loc 1 381 25 is_stmt 0 view .LVU623
 2384 0006 244B     		ldr	r3, .L178
 2385 0008 1B88     		ldrh	r3, [r3]
 381:Drivers/GD32F30x_standard_peripheral/Source/gd32f30x_fmc.c ****         if(FMC_BANK0_END_ADDRESS > address){
 2386              		.loc 1 381 7 view .LVU624
 2387 000a B3F5007F 		cmp	r3, #512
 2388 000e 2DD9     		bls	.L173
 382:Drivers/GD32F30x_standard_peripheral/Source/gd32f30x_fmc.c ****             fmc_state = fmc_bank0_ready_wait(FMC_TIMEOUT_COUNT); 
 2389              		.loc 1 382 9 is_stmt 1 view .LVU625
 382:Drivers/GD32F30x_standard_peripheral/Source/gd32f30x_fmc.c ****             fmc_state = fmc_bank0_ready_wait(FMC_TIMEOUT_COUNT); 
 2390              		.loc 1 382 11 is_stmt 0 view .LVU626
 2391 0010 224B     		ldr	r3, .L178+4
 2392 0012 9842     		cmp	r0, r3
 2393 0014 15D8     		bhi	.L174
 383:Drivers/GD32F30x_standard_peripheral/Source/gd32f30x_fmc.c ****   
 2394              		.loc 1 383 13 is_stmt 1 view .LVU627
 383:Drivers/GD32F30x_standard_peripheral/Source/gd32f30x_fmc.c ****   
 2395              		.loc 1 383 25 is_stmt 0 view .LVU628
 2396 0016 2248     		ldr	r0, .L178+8
 2397              	.LVL183:
 383:Drivers/GD32F30x_standard_peripheral/Source/gd32f30x_fmc.c ****   
 2398              		.loc 1 383 25 view .LVU629
 2399 0018 FFF7FEFF 		bl	fmc_bank0_ready_wait
 2400              	.LVL184:
 385:Drivers/GD32F30x_standard_peripheral/Source/gd32f30x_fmc.c ****                 /* set the PG bit to start program */
 2401              		.loc 1 385 13 is_stmt 1 view .LVU630
 385:Drivers/GD32F30x_standard_peripheral/Source/gd32f30x_fmc.c ****                 /* set the PG bit to start program */
 2402              		.loc 1 385 15 is_stmt 0 view .LVU631
ARM GAS  C:\Users\Prog\AppData\Local\Temp\ccKeEkXj.s 			page 67


 2403 001c 0346     		mov	r3, r0
 2404 001e 08B1     		cbz	r0, .L177
 2405              	.LVL185:
 2406              	.L175:
 421:Drivers/GD32F30x_standard_peripheral/Source/gd32f30x_fmc.c **** }
 2407              		.loc 1 421 5 is_stmt 1 view .LVU632
 422:Drivers/GD32F30x_standard_peripheral/Source/gd32f30x_fmc.c **** 
 2408              		.loc 1 422 1 is_stmt 0 view .LVU633
 2409 0020 1846     		mov	r0, r3
 2410 0022 70BD     		pop	{r4, r5, r6, pc}
 2411              	.LVL186:
 2412              	.L177:
 387:Drivers/GD32F30x_standard_peripheral/Source/gd32f30x_fmc.c ****                 REG16(address) = data;
 2413              		.loc 1 387 17 is_stmt 1 view .LVU634
 387:Drivers/GD32F30x_standard_peripheral/Source/gd32f30x_fmc.c ****                 REG16(address) = data;
 2414              		.loc 1 387 26 is_stmt 0 view .LVU635
 2415 0024 1F4E     		ldr	r6, .L178+12
 2416 0026 3368     		ldr	r3, [r6]
 2417 0028 43F00103 		orr	r3, r3, #1
 2418 002c 3360     		str	r3, [r6]
 388:Drivers/GD32F30x_standard_peripheral/Source/gd32f30x_fmc.c ****                 /* wait for the FMC ready */
 2419              		.loc 1 388 17 is_stmt 1 view .LVU636
 388:Drivers/GD32F30x_standard_peripheral/Source/gd32f30x_fmc.c ****                 /* wait for the FMC ready */
 2420              		.loc 1 388 32 is_stmt 0 view .LVU637
 2421 002e 2580     		strh	r5, [r4]	@ movhi
 390:Drivers/GD32F30x_standard_peripheral/Source/gd32f30x_fmc.c ****                 /* reset the PG bit */
 2422              		.loc 1 390 17 is_stmt 1 view .LVU638
 390:Drivers/GD32F30x_standard_peripheral/Source/gd32f30x_fmc.c ****                 /* reset the PG bit */
 2423              		.loc 1 390 29 is_stmt 0 view .LVU639
 2424 0030 1B48     		ldr	r0, .L178+8
 2425              	.LVL187:
 390:Drivers/GD32F30x_standard_peripheral/Source/gd32f30x_fmc.c ****                 /* reset the PG bit */
 2426              		.loc 1 390 29 view .LVU640
 2427 0032 FFF7FEFF 		bl	fmc_bank0_ready_wait
 2428              	.LVL188:
 2429 0036 0346     		mov	r3, r0
 2430              	.LVL189:
 392:Drivers/GD32F30x_standard_peripheral/Source/gd32f30x_fmc.c ****             }
 2431              		.loc 1 392 17 is_stmt 1 view .LVU641
 392:Drivers/GD32F30x_standard_peripheral/Source/gd32f30x_fmc.c ****             }
 2432              		.loc 1 392 26 is_stmt 0 view .LVU642
 2433 0038 3268     		ldr	r2, [r6]
 2434 003a 22F00102 		bic	r2, r2, #1
 2435 003e 3260     		str	r2, [r6]
 2436 0040 EEE7     		b	.L175
 2437              	.LVL190:
 2438              	.L174:
 395:Drivers/GD32F30x_standard_peripheral/Source/gd32f30x_fmc.c ****   
 2439              		.loc 1 395 13 is_stmt 1 view .LVU643
 395:Drivers/GD32F30x_standard_peripheral/Source/gd32f30x_fmc.c ****   
 2440              		.loc 1 395 25 is_stmt 0 view .LVU644
 2441 0042 1748     		ldr	r0, .L178+8
 2442              	.LVL191:
 395:Drivers/GD32F30x_standard_peripheral/Source/gd32f30x_fmc.c ****   
 2443              		.loc 1 395 25 view .LVU645
 2444 0044 FFF7FEFF 		bl	fmc_bank1_ready_wait
 2445              	.LVL192:
ARM GAS  C:\Users\Prog\AppData\Local\Temp\ccKeEkXj.s 			page 68


 397:Drivers/GD32F30x_standard_peripheral/Source/gd32f30x_fmc.c ****                 /* set the PG bit to start program */
 2446              		.loc 1 397 13 is_stmt 1 view .LVU646
 397:Drivers/GD32F30x_standard_peripheral/Source/gd32f30x_fmc.c ****                 /* set the PG bit to start program */
 2447              		.loc 1 397 15 is_stmt 0 view .LVU647
 2448 0048 0346     		mov	r3, r0
 2449 004a 0028     		cmp	r0, #0
 2450 004c E8D1     		bne	.L175
 399:Drivers/GD32F30x_standard_peripheral/Source/gd32f30x_fmc.c ****                 REG16(address) = data;
 2451              		.loc 1 399 17 is_stmt 1 view .LVU648
 399:Drivers/GD32F30x_standard_peripheral/Source/gd32f30x_fmc.c ****                 REG16(address) = data;
 2452              		.loc 1 399 26 is_stmt 0 view .LVU649
 2453 004e 164E     		ldr	r6, .L178+16
 2454 0050 3368     		ldr	r3, [r6]
 2455 0052 43F00103 		orr	r3, r3, #1
 2456 0056 3360     		str	r3, [r6]
 400:Drivers/GD32F30x_standard_peripheral/Source/gd32f30x_fmc.c ****                 /* wait for the FMC ready */
 2457              		.loc 1 400 17 is_stmt 1 view .LVU650
 400:Drivers/GD32F30x_standard_peripheral/Source/gd32f30x_fmc.c ****                 /* wait for the FMC ready */
 2458              		.loc 1 400 32 is_stmt 0 view .LVU651
 2459 0058 2580     		strh	r5, [r4]	@ movhi
 402:Drivers/GD32F30x_standard_peripheral/Source/gd32f30x_fmc.c ****                 /* reset the PG bit */
 2460              		.loc 1 402 17 is_stmt 1 view .LVU652
 402:Drivers/GD32F30x_standard_peripheral/Source/gd32f30x_fmc.c ****                 /* reset the PG bit */
 2461              		.loc 1 402 29 is_stmt 0 view .LVU653
 2462 005a 1148     		ldr	r0, .L178+8
 2463              	.LVL193:
 402:Drivers/GD32F30x_standard_peripheral/Source/gd32f30x_fmc.c ****                 /* reset the PG bit */
 2464              		.loc 1 402 29 view .LVU654
 2465 005c FFF7FEFF 		bl	fmc_bank1_ready_wait
 2466              	.LVL194:
 2467 0060 0346     		mov	r3, r0
 2468              	.LVL195:
 404:Drivers/GD32F30x_standard_peripheral/Source/gd32f30x_fmc.c ****             }
 2469              		.loc 1 404 17 is_stmt 1 view .LVU655
 404:Drivers/GD32F30x_standard_peripheral/Source/gd32f30x_fmc.c ****             }
 2470              		.loc 1 404 26 is_stmt 0 view .LVU656
 2471 0062 3268     		ldr	r2, [r6]
 2472 0064 22F00102 		bic	r2, r2, #1
 2473 0068 3260     		str	r2, [r6]
 2474 006a D9E7     		b	.L175
 2475              	.LVL196:
 2476              	.L173:
 408:Drivers/GD32F30x_standard_peripheral/Source/gd32f30x_fmc.c ****   
 2477              		.loc 1 408 9 is_stmt 1 view .LVU657
 408:Drivers/GD32F30x_standard_peripheral/Source/gd32f30x_fmc.c ****   
 2478              		.loc 1 408 21 is_stmt 0 view .LVU658
 2479 006c 0C48     		ldr	r0, .L178+8
 2480              	.LVL197:
 408:Drivers/GD32F30x_standard_peripheral/Source/gd32f30x_fmc.c ****   
 2481              		.loc 1 408 21 view .LVU659
 2482 006e FFF7FEFF 		bl	fmc_bank0_ready_wait
 2483              	.LVL198:
 410:Drivers/GD32F30x_standard_peripheral/Source/gd32f30x_fmc.c ****             /* set the PG bit to start program */
 2484              		.loc 1 410 9 is_stmt 1 view .LVU660
 410:Drivers/GD32F30x_standard_peripheral/Source/gd32f30x_fmc.c ****             /* set the PG bit to start program */
 2485              		.loc 1 410 11 is_stmt 0 view .LVU661
 2486 0072 0346     		mov	r3, r0
ARM GAS  C:\Users\Prog\AppData\Local\Temp\ccKeEkXj.s 			page 69


 2487 0074 0028     		cmp	r0, #0
 2488 0076 D3D1     		bne	.L175
 412:Drivers/GD32F30x_standard_peripheral/Source/gd32f30x_fmc.c ****             REG16(address) = data;
 2489              		.loc 1 412 13 is_stmt 1 view .LVU662
 412:Drivers/GD32F30x_standard_peripheral/Source/gd32f30x_fmc.c ****             REG16(address) = data;
 2490              		.loc 1 412 22 is_stmt 0 view .LVU663
 2491 0078 0A4E     		ldr	r6, .L178+12
 2492 007a 3368     		ldr	r3, [r6]
 2493 007c 43F00103 		orr	r3, r3, #1
 2494 0080 3360     		str	r3, [r6]
 413:Drivers/GD32F30x_standard_peripheral/Source/gd32f30x_fmc.c ****             /* wait for the FMC ready */
 2495              		.loc 1 413 13 is_stmt 1 view .LVU664
 413:Drivers/GD32F30x_standard_peripheral/Source/gd32f30x_fmc.c ****             /* wait for the FMC ready */
 2496              		.loc 1 413 28 is_stmt 0 view .LVU665
 2497 0082 2580     		strh	r5, [r4]	@ movhi
 415:Drivers/GD32F30x_standard_peripheral/Source/gd32f30x_fmc.c ****             /* reset the PG bit */
 2498              		.loc 1 415 13 is_stmt 1 view .LVU666
 415:Drivers/GD32F30x_standard_peripheral/Source/gd32f30x_fmc.c ****             /* reset the PG bit */
 2499              		.loc 1 415 25 is_stmt 0 view .LVU667
 2500 0084 0648     		ldr	r0, .L178+8
 2501              	.LVL199:
 415:Drivers/GD32F30x_standard_peripheral/Source/gd32f30x_fmc.c ****             /* reset the PG bit */
 2502              		.loc 1 415 25 view .LVU668
 2503 0086 FFF7FEFF 		bl	fmc_bank0_ready_wait
 2504              	.LVL200:
 2505 008a 0346     		mov	r3, r0
 2506              	.LVL201:
 417:Drivers/GD32F30x_standard_peripheral/Source/gd32f30x_fmc.c ****         } 
 2507              		.loc 1 417 13 is_stmt 1 view .LVU669
 417:Drivers/GD32F30x_standard_peripheral/Source/gd32f30x_fmc.c ****         } 
 2508              		.loc 1 417 22 is_stmt 0 view .LVU670
 2509 008c 3268     		ldr	r2, [r6]
 2510 008e 22F00102 		bic	r2, r2, #1
 2511 0092 3260     		str	r2, [r6]
 2512 0094 C4E7     		b	.L175
 2513              	.L179:
 2514 0096 00BF     		.align	2
 2515              	.L178:
 2516 0098 E0F7FF1F 		.word	536868832
 2517 009c FEFF0708 		.word	134742014
 2518 00a0 0000FF0F 		.word	268369920
 2519 00a4 10200240 		.word	1073881104
 2520 00a8 50200240 		.word	1073881168
 2521              		.cfi_endproc
 2522              	.LFE128:
 2524              		.section	.text.fmc_word_reprogram,"ax",%progbits
 2525              		.align	1
 2526              		.global	fmc_word_reprogram
 2527              		.syntax unified
 2528              		.thumb
 2529              		.thumb_func
 2530              		.fpu fpv4-sp-d16
 2532              	fmc_word_reprogram:
 2533              	.LVL202:
 2534              	.LFB129:
 432:Drivers/GD32F30x_standard_peripheral/Source/gd32f30x_fmc.c ****     fmc_state_enum fmc_state = FMC_READY;
 2535              		.loc 1 432 1 is_stmt 1 view -0
ARM GAS  C:\Users\Prog\AppData\Local\Temp\ccKeEkXj.s 			page 70


 2536              		.cfi_startproc
 2537              		@ args = 0, pretend = 0, frame = 0
 2538              		@ frame_needed = 0, uses_anonymous_args = 0
 432:Drivers/GD32F30x_standard_peripheral/Source/gd32f30x_fmc.c ****     fmc_state_enum fmc_state = FMC_READY;
 2539              		.loc 1 432 1 is_stmt 0 view .LVU672
 2540 0000 70B5     		push	{r4, r5, r6, lr}
 2541              	.LCFI13:
 2542              		.cfi_def_cfa_offset 16
 2543              		.cfi_offset 4, -16
 2544              		.cfi_offset 5, -12
 2545              		.cfi_offset 6, -8
 2546              		.cfi_offset 14, -4
 2547 0002 0446     		mov	r4, r0
 2548 0004 0D46     		mov	r5, r1
 433:Drivers/GD32F30x_standard_peripheral/Source/gd32f30x_fmc.c ****     if(FMC_BANK0_SIZE < FMC_SIZE){
 2549              		.loc 1 433 5 is_stmt 1 view .LVU673
 2550              	.LVL203:
 434:Drivers/GD32F30x_standard_peripheral/Source/gd32f30x_fmc.c ****         if(FMC_BANK0_END_ADDRESS > address){
 2551              		.loc 1 434 5 view .LVU674
 434:Drivers/GD32F30x_standard_peripheral/Source/gd32f30x_fmc.c ****         if(FMC_BANK0_END_ADDRESS > address){
 2552              		.loc 1 434 25 is_stmt 0 view .LVU675
 2553 0006 2B4B     		ldr	r3, .L186
 2554 0008 1B88     		ldrh	r3, [r3]
 434:Drivers/GD32F30x_standard_peripheral/Source/gd32f30x_fmc.c ****         if(FMC_BANK0_END_ADDRESS > address){
 2555              		.loc 1 434 7 view .LVU676
 2556 000a B3F5007F 		cmp	r3, #512
 2557 000e 37D9     		bls	.L181
 435:Drivers/GD32F30x_standard_peripheral/Source/gd32f30x_fmc.c ****             fmc_state = fmc_bank0_ready_wait(FMC_TIMEOUT_COUNT); 
 2558              		.loc 1 435 9 is_stmt 1 view .LVU677
 435:Drivers/GD32F30x_standard_peripheral/Source/gd32f30x_fmc.c ****             fmc_state = fmc_bank0_ready_wait(FMC_TIMEOUT_COUNT); 
 2559              		.loc 1 435 11 is_stmt 0 view .LVU678
 2560 0010 294B     		ldr	r3, .L186+4
 2561 0012 9842     		cmp	r0, r3
 2562 0014 1AD8     		bhi	.L182
 436:Drivers/GD32F30x_standard_peripheral/Source/gd32f30x_fmc.c ****             FMC_WSEN |= FMC_WSEN_BPEN;
 2563              		.loc 1 436 13 is_stmt 1 view .LVU679
 436:Drivers/GD32F30x_standard_peripheral/Source/gd32f30x_fmc.c ****             FMC_WSEN |= FMC_WSEN_BPEN;
 2564              		.loc 1 436 25 is_stmt 0 view .LVU680
 2565 0016 2948     		ldr	r0, .L186+8
 2566              	.LVL204:
 436:Drivers/GD32F30x_standard_peripheral/Source/gd32f30x_fmc.c ****             FMC_WSEN |= FMC_WSEN_BPEN;
 2567              		.loc 1 436 25 view .LVU681
 2568 0018 FFF7FEFF 		bl	fmc_bank0_ready_wait
 2569              	.LVL205:
 437:Drivers/GD32F30x_standard_peripheral/Source/gd32f30x_fmc.c ****             if(FMC_READY == fmc_state){
 2570              		.loc 1 437 13 is_stmt 1 view .LVU682
 437:Drivers/GD32F30x_standard_peripheral/Source/gd32f30x_fmc.c ****             if(FMC_READY == fmc_state){
 2571              		.loc 1 437 22 is_stmt 0 view .LVU683
 2572 001c 284A     		ldr	r2, .L186+12
 2573 001e 1368     		ldr	r3, [r2]
 2574 0020 43F00203 		orr	r3, r3, #2
 2575 0024 1360     		str	r3, [r2]
 438:Drivers/GD32F30x_standard_peripheral/Source/gd32f30x_fmc.c ****                 /* set the PG bit to start program */
 2576              		.loc 1 438 13 is_stmt 1 view .LVU684
 438:Drivers/GD32F30x_standard_peripheral/Source/gd32f30x_fmc.c ****                 /* set the PG bit to start program */
 2577              		.loc 1 438 15 is_stmt 0 view .LVU685
 2578 0026 0346     		mov	r3, r0
ARM GAS  C:\Users\Prog\AppData\Local\Temp\ccKeEkXj.s 			page 71


 2579 0028 08B1     		cbz	r0, .L185
 2580              	.LVL206:
 2581              	.L183:
 474:Drivers/GD32F30x_standard_peripheral/Source/gd32f30x_fmc.c **** }
 2582              		.loc 1 474 5 is_stmt 1 view .LVU686
 475:Drivers/GD32F30x_standard_peripheral/Source/gd32f30x_fmc.c **** 
 2583              		.loc 1 475 1 is_stmt 0 view .LVU687
 2584 002a 1846     		mov	r0, r3
 2585 002c 70BD     		pop	{r4, r5, r6, pc}
 2586              	.LVL207:
 2587              	.L185:
 440:Drivers/GD32F30x_standard_peripheral/Source/gd32f30x_fmc.c ****                 REG32(address) = data;
 2588              		.loc 1 440 17 is_stmt 1 view .LVU688
 440:Drivers/GD32F30x_standard_peripheral/Source/gd32f30x_fmc.c ****                 REG32(address) = data;
 2589              		.loc 1 440 26 is_stmt 0 view .LVU689
 2590 002e 254E     		ldr	r6, .L186+16
 2591 0030 3368     		ldr	r3, [r6]
 2592 0032 43F00103 		orr	r3, r3, #1
 2593 0036 3360     		str	r3, [r6]
 441:Drivers/GD32F30x_standard_peripheral/Source/gd32f30x_fmc.c ****                 /* wait for the FMC ready */
 2594              		.loc 1 441 17 is_stmt 1 view .LVU690
 441:Drivers/GD32F30x_standard_peripheral/Source/gd32f30x_fmc.c ****                 /* wait for the FMC ready */
 2595              		.loc 1 441 32 is_stmt 0 view .LVU691
 2596 0038 2560     		str	r5, [r4]
 443:Drivers/GD32F30x_standard_peripheral/Source/gd32f30x_fmc.c ****                 /* reset the PG bit */
 2597              		.loc 1 443 17 is_stmt 1 view .LVU692
 443:Drivers/GD32F30x_standard_peripheral/Source/gd32f30x_fmc.c ****                 /* reset the PG bit */
 2598              		.loc 1 443 29 is_stmt 0 view .LVU693
 2599 003a 2048     		ldr	r0, .L186+8
 2600              	.LVL208:
 443:Drivers/GD32F30x_standard_peripheral/Source/gd32f30x_fmc.c ****                 /* reset the PG bit */
 2601              		.loc 1 443 29 view .LVU694
 2602 003c FFF7FEFF 		bl	fmc_bank0_ready_wait
 2603              	.LVL209:
 2604 0040 0346     		mov	r3, r0
 2605              	.LVL210:
 445:Drivers/GD32F30x_standard_peripheral/Source/gd32f30x_fmc.c ****             }
 2606              		.loc 1 445 17 is_stmt 1 view .LVU695
 445:Drivers/GD32F30x_standard_peripheral/Source/gd32f30x_fmc.c ****             }
 2607              		.loc 1 445 26 is_stmt 0 view .LVU696
 2608 0042 3268     		ldr	r2, [r6]
 2609 0044 22F00102 		bic	r2, r2, #1
 2610 0048 3260     		str	r2, [r6]
 2611 004a EEE7     		b	.L183
 2612              	.LVL211:
 2613              	.L182:
 448:Drivers/GD32F30x_standard_peripheral/Source/gd32f30x_fmc.c ****             FMC_WSEN |= FMC_WSEN_BPEN;
 2614              		.loc 1 448 13 is_stmt 1 view .LVU697
 448:Drivers/GD32F30x_standard_peripheral/Source/gd32f30x_fmc.c ****             FMC_WSEN |= FMC_WSEN_BPEN;
 2615              		.loc 1 448 25 is_stmt 0 view .LVU698
 2616 004c 1B48     		ldr	r0, .L186+8
 2617              	.LVL212:
 448:Drivers/GD32F30x_standard_peripheral/Source/gd32f30x_fmc.c ****             FMC_WSEN |= FMC_WSEN_BPEN;
 2618              		.loc 1 448 25 view .LVU699
 2619 004e FFF7FEFF 		bl	fmc_bank1_ready_wait
 2620              	.LVL213:
 449:Drivers/GD32F30x_standard_peripheral/Source/gd32f30x_fmc.c ****             if(FMC_READY == fmc_state){
ARM GAS  C:\Users\Prog\AppData\Local\Temp\ccKeEkXj.s 			page 72


 2621              		.loc 1 449 13 is_stmt 1 view .LVU700
 449:Drivers/GD32F30x_standard_peripheral/Source/gd32f30x_fmc.c ****             if(FMC_READY == fmc_state){
 2622              		.loc 1 449 22 is_stmt 0 view .LVU701
 2623 0052 1B4A     		ldr	r2, .L186+12
 2624 0054 1368     		ldr	r3, [r2]
 2625 0056 43F00203 		orr	r3, r3, #2
 2626 005a 1360     		str	r3, [r2]
 450:Drivers/GD32F30x_standard_peripheral/Source/gd32f30x_fmc.c ****                 /* set the PG bit to start program */
 2627              		.loc 1 450 13 is_stmt 1 view .LVU702
 450:Drivers/GD32F30x_standard_peripheral/Source/gd32f30x_fmc.c ****                 /* set the PG bit to start program */
 2628              		.loc 1 450 15 is_stmt 0 view .LVU703
 2629 005c 0346     		mov	r3, r0
 2630 005e 0028     		cmp	r0, #0
 2631 0060 E3D1     		bne	.L183
 452:Drivers/GD32F30x_standard_peripheral/Source/gd32f30x_fmc.c ****                 REG32(address) = data;
 2632              		.loc 1 452 17 is_stmt 1 view .LVU704
 452:Drivers/GD32F30x_standard_peripheral/Source/gd32f30x_fmc.c ****                 REG32(address) = data;
 2633              		.loc 1 452 26 is_stmt 0 view .LVU705
 2634 0062 194E     		ldr	r6, .L186+20
 2635 0064 3368     		ldr	r3, [r6]
 2636 0066 43F00103 		orr	r3, r3, #1
 2637 006a 3360     		str	r3, [r6]
 453:Drivers/GD32F30x_standard_peripheral/Source/gd32f30x_fmc.c ****                 /* wait for the FMC ready */
 2638              		.loc 1 453 17 is_stmt 1 view .LVU706
 453:Drivers/GD32F30x_standard_peripheral/Source/gd32f30x_fmc.c ****                 /* wait for the FMC ready */
 2639              		.loc 1 453 32 is_stmt 0 view .LVU707
 2640 006c 2560     		str	r5, [r4]
 455:Drivers/GD32F30x_standard_peripheral/Source/gd32f30x_fmc.c ****                 /* reset the PG bit */
 2641              		.loc 1 455 17 is_stmt 1 view .LVU708
 455:Drivers/GD32F30x_standard_peripheral/Source/gd32f30x_fmc.c ****                 /* reset the PG bit */
 2642              		.loc 1 455 29 is_stmt 0 view .LVU709
 2643 006e 1348     		ldr	r0, .L186+8
 2644              	.LVL214:
 455:Drivers/GD32F30x_standard_peripheral/Source/gd32f30x_fmc.c ****                 /* reset the PG bit */
 2645              		.loc 1 455 29 view .LVU710
 2646 0070 FFF7FEFF 		bl	fmc_bank1_ready_wait
 2647              	.LVL215:
 2648 0074 0346     		mov	r3, r0
 2649              	.LVL216:
 457:Drivers/GD32F30x_standard_peripheral/Source/gd32f30x_fmc.c ****             }
 2650              		.loc 1 457 17 is_stmt 1 view .LVU711
 457:Drivers/GD32F30x_standard_peripheral/Source/gd32f30x_fmc.c ****             }
 2651              		.loc 1 457 26 is_stmt 0 view .LVU712
 2652 0076 3268     		ldr	r2, [r6]
 2653 0078 22F00102 		bic	r2, r2, #1
 2654 007c 3260     		str	r2, [r6]
 2655 007e D4E7     		b	.L183
 2656              	.LVL217:
 2657              	.L181:
 461:Drivers/GD32F30x_standard_peripheral/Source/gd32f30x_fmc.c ****         FMC_WSEN |= FMC_WSEN_BPEN;
 2658              		.loc 1 461 9 is_stmt 1 view .LVU713
 461:Drivers/GD32F30x_standard_peripheral/Source/gd32f30x_fmc.c ****         FMC_WSEN |= FMC_WSEN_BPEN;
 2659              		.loc 1 461 21 is_stmt 0 view .LVU714
 2660 0080 0E48     		ldr	r0, .L186+8
 2661              	.LVL218:
 461:Drivers/GD32F30x_standard_peripheral/Source/gd32f30x_fmc.c ****         FMC_WSEN |= FMC_WSEN_BPEN;
 2662              		.loc 1 461 21 view .LVU715
ARM GAS  C:\Users\Prog\AppData\Local\Temp\ccKeEkXj.s 			page 73


 2663 0082 FFF7FEFF 		bl	fmc_bank0_ready_wait
 2664              	.LVL219:
 462:Drivers/GD32F30x_standard_peripheral/Source/gd32f30x_fmc.c ****         if(FMC_READY == fmc_state){
 2665              		.loc 1 462 9 is_stmt 1 view .LVU716
 462:Drivers/GD32F30x_standard_peripheral/Source/gd32f30x_fmc.c ****         if(FMC_READY == fmc_state){
 2666              		.loc 1 462 18 is_stmt 0 view .LVU717
 2667 0086 0E4A     		ldr	r2, .L186+12
 2668 0088 1368     		ldr	r3, [r2]
 2669 008a 43F00203 		orr	r3, r3, #2
 2670 008e 1360     		str	r3, [r2]
 463:Drivers/GD32F30x_standard_peripheral/Source/gd32f30x_fmc.c ****             /* set the PG bit to start program */
 2671              		.loc 1 463 9 is_stmt 1 view .LVU718
 463:Drivers/GD32F30x_standard_peripheral/Source/gd32f30x_fmc.c ****             /* set the PG bit to start program */
 2672              		.loc 1 463 11 is_stmt 0 view .LVU719
 2673 0090 0346     		mov	r3, r0
 2674 0092 0028     		cmp	r0, #0
 2675 0094 C9D1     		bne	.L183
 465:Drivers/GD32F30x_standard_peripheral/Source/gd32f30x_fmc.c ****             REG32(address) = data;
 2676              		.loc 1 465 13 is_stmt 1 view .LVU720
 465:Drivers/GD32F30x_standard_peripheral/Source/gd32f30x_fmc.c ****             REG32(address) = data;
 2677              		.loc 1 465 22 is_stmt 0 view .LVU721
 2678 0096 0B4E     		ldr	r6, .L186+16
 2679 0098 3368     		ldr	r3, [r6]
 2680 009a 43F00103 		orr	r3, r3, #1
 2681 009e 3360     		str	r3, [r6]
 466:Drivers/GD32F30x_standard_peripheral/Source/gd32f30x_fmc.c ****             /* wait for the FMC ready */
 2682              		.loc 1 466 13 is_stmt 1 view .LVU722
 466:Drivers/GD32F30x_standard_peripheral/Source/gd32f30x_fmc.c ****             /* wait for the FMC ready */
 2683              		.loc 1 466 28 is_stmt 0 view .LVU723
 2684 00a0 2560     		str	r5, [r4]
 468:Drivers/GD32F30x_standard_peripheral/Source/gd32f30x_fmc.c ****             /* reset the PG bit */
 2685              		.loc 1 468 13 is_stmt 1 view .LVU724
 468:Drivers/GD32F30x_standard_peripheral/Source/gd32f30x_fmc.c ****             /* reset the PG bit */
 2686              		.loc 1 468 25 is_stmt 0 view .LVU725
 2687 00a2 0648     		ldr	r0, .L186+8
 2688              	.LVL220:
 468:Drivers/GD32F30x_standard_peripheral/Source/gd32f30x_fmc.c ****             /* reset the PG bit */
 2689              		.loc 1 468 25 view .LVU726
 2690 00a4 FFF7FEFF 		bl	fmc_bank0_ready_wait
 2691              	.LVL221:
 2692 00a8 0346     		mov	r3, r0
 2693              	.LVL222:
 470:Drivers/GD32F30x_standard_peripheral/Source/gd32f30x_fmc.c ****         } 
 2694              		.loc 1 470 13 is_stmt 1 view .LVU727
 470:Drivers/GD32F30x_standard_peripheral/Source/gd32f30x_fmc.c ****         } 
 2695              		.loc 1 470 22 is_stmt 0 view .LVU728
 2696 00aa 3268     		ldr	r2, [r6]
 2697 00ac 22F00102 		bic	r2, r2, #1
 2698 00b0 3260     		str	r2, [r6]
 2699 00b2 BAE7     		b	.L183
 2700              	.L187:
 2701              		.align	2
 2702              	.L186:
 2703 00b4 E0F7FF1F 		.word	536868832
 2704 00b8 FEFF0708 		.word	134742014
 2705 00bc 0000FF0F 		.word	268369920
 2706 00c0 FC200240 		.word	1073881340
ARM GAS  C:\Users\Prog\AppData\Local\Temp\ccKeEkXj.s 			page 74


 2707 00c4 10200240 		.word	1073881104
 2708 00c8 50200240 		.word	1073881168
 2709              		.cfi_endproc
 2710              	.LFE129:
 2712              		.text
 2713              	.Letext0:
 2714              		.file 2 "d:\\embedded_gcc\\arm_gcc\\arm-none-eabi\\include\\machine\\_default_types.h"
 2715              		.file 3 "d:\\embedded_gcc\\arm_gcc\\arm-none-eabi\\include\\sys\\_stdint.h"
 2716              		.file 4 "Drivers/CMSIS/core_cm4.h"
 2717              		.file 5 "Drivers/CMSIS/GD/GD32F30x/Include/system_gd32f30x.h"
 2718              		.file 6 "Drivers/CMSIS/GD/GD32F30x/Include/gd32f30x.h"
 2719              		.file 7 "Drivers/GD32F30x_standard_peripheral/Include/gd32f30x_fmc.h"
ARM GAS  C:\Users\Prog\AppData\Local\Temp\ccKeEkXj.s 			page 75


DEFINED SYMBOLS
                            *ABS*:0000000000000000 gd32f30x_fmc.c
C:\Users\Prog\AppData\Local\Temp\ccKeEkXj.s:18     .text.fmc_wscnt_set:0000000000000000 $t
C:\Users\Prog\AppData\Local\Temp\ccKeEkXj.s:26     .text.fmc_wscnt_set:0000000000000000 fmc_wscnt_set
C:\Users\Prog\AppData\Local\Temp\ccKeEkXj.s:56     .text.fmc_wscnt_set:0000000000000010 $d
C:\Users\Prog\AppData\Local\Temp\ccKeEkXj.s:61     .text.fmc_unlock:0000000000000000 $t
C:\Users\Prog\AppData\Local\Temp\ccKeEkXj.s:68     .text.fmc_unlock:0000000000000000 fmc_unlock
C:\Users\Prog\AppData\Local\Temp\ccKeEkXj.s:121    .text.fmc_unlock:0000000000000038 $d
C:\Users\Prog\AppData\Local\Temp\ccKeEkXj.s:131    .text.fmc_bank0_unlock:0000000000000000 $t
C:\Users\Prog\AppData\Local\Temp\ccKeEkXj.s:138    .text.fmc_bank0_unlock:0000000000000000 fmc_bank0_unlock
C:\Users\Prog\AppData\Local\Temp\ccKeEkXj.s:167    .text.fmc_bank0_unlock:0000000000000018 $d
C:\Users\Prog\AppData\Local\Temp\ccKeEkXj.s:174    .text.fmc_bank1_unlock:0000000000000000 $t
C:\Users\Prog\AppData\Local\Temp\ccKeEkXj.s:181    .text.fmc_bank1_unlock:0000000000000000 fmc_bank1_unlock
C:\Users\Prog\AppData\Local\Temp\ccKeEkXj.s:210    .text.fmc_bank1_unlock:0000000000000018 $d
C:\Users\Prog\AppData\Local\Temp\ccKeEkXj.s:217    .text.fmc_lock:0000000000000000 $t
C:\Users\Prog\AppData\Local\Temp\ccKeEkXj.s:224    .text.fmc_lock:0000000000000000 fmc_lock
C:\Users\Prog\AppData\Local\Temp\ccKeEkXj.s:256    .text.fmc_lock:0000000000000020 $d
C:\Users\Prog\AppData\Local\Temp\ccKeEkXj.s:262    .text.fmc_bank0_lock:0000000000000000 $t
C:\Users\Prog\AppData\Local\Temp\ccKeEkXj.s:269    .text.fmc_bank0_lock:0000000000000000 fmc_bank0_lock
C:\Users\Prog\AppData\Local\Temp\ccKeEkXj.s:287    .text.fmc_bank0_lock:000000000000000c $d
C:\Users\Prog\AppData\Local\Temp\ccKeEkXj.s:292    .text.fmc_bank1_lock:0000000000000000 $t
C:\Users\Prog\AppData\Local\Temp\ccKeEkXj.s:299    .text.fmc_bank1_lock:0000000000000000 fmc_bank1_lock
C:\Users\Prog\AppData\Local\Temp\ccKeEkXj.s:317    .text.fmc_bank1_lock:000000000000000c $d
C:\Users\Prog\AppData\Local\Temp\ccKeEkXj.s:322    .text.ob_unlock:0000000000000000 $t
C:\Users\Prog\AppData\Local\Temp\ccKeEkXj.s:329    .text.ob_unlock:0000000000000000 ob_unlock
C:\Users\Prog\AppData\Local\Temp\ccKeEkXj.s:358    .text.ob_unlock:0000000000000018 $d
C:\Users\Prog\AppData\Local\Temp\ccKeEkXj.s:365    .text.ob_lock:0000000000000000 $t
C:\Users\Prog\AppData\Local\Temp\ccKeEkXj.s:372    .text.ob_lock:0000000000000000 ob_lock
C:\Users\Prog\AppData\Local\Temp\ccKeEkXj.s:390    .text.ob_lock:000000000000000c $d
C:\Users\Prog\AppData\Local\Temp\ccKeEkXj.s:395    .text.ob_user_get:0000000000000000 $t
C:\Users\Prog\AppData\Local\Temp\ccKeEkXj.s:402    .text.ob_user_get:0000000000000000 ob_user_get
C:\Users\Prog\AppData\Local\Temp\ccKeEkXj.s:419    .text.ob_user_get:000000000000000c $d
C:\Users\Prog\AppData\Local\Temp\ccKeEkXj.s:424    .text.ob_data_get:0000000000000000 $t
C:\Users\Prog\AppData\Local\Temp\ccKeEkXj.s:431    .text.ob_data_get:0000000000000000 ob_data_get
C:\Users\Prog\AppData\Local\Temp\ccKeEkXj.s:448    .text.ob_data_get:000000000000000c $d
C:\Users\Prog\AppData\Local\Temp\ccKeEkXj.s:453    .text.ob_write_protection_get:0000000000000000 $t
C:\Users\Prog\AppData\Local\Temp\ccKeEkXj.s:460    .text.ob_write_protection_get:0000000000000000 ob_write_protection_get
C:\Users\Prog\AppData\Local\Temp\ccKeEkXj.s:476    .text.ob_write_protection_get:0000000000000008 $d
C:\Users\Prog\AppData\Local\Temp\ccKeEkXj.s:481    .text.ob_spc_get:0000000000000000 $t
C:\Users\Prog\AppData\Local\Temp\ccKeEkXj.s:488    .text.ob_spc_get:0000000000000000 ob_spc_get
C:\Users\Prog\AppData\Local\Temp\ccKeEkXj.s:517    .text.ob_spc_get:0000000000000014 $d
C:\Users\Prog\AppData\Local\Temp\ccKeEkXj.s:522    .text.fmc_interrupt_enable:0000000000000000 $t
C:\Users\Prog\AppData\Local\Temp\ccKeEkXj.s:529    .text.fmc_interrupt_enable:0000000000000000 fmc_interrupt_enable
C:\Users\Prog\AppData\Local\Temp\ccKeEkXj.s:558    .text.fmc_interrupt_disable:0000000000000000 $t
C:\Users\Prog\AppData\Local\Temp\ccKeEkXj.s:565    .text.fmc_interrupt_disable:0000000000000000 fmc_interrupt_disable
C:\Users\Prog\AppData\Local\Temp\ccKeEkXj.s:594    .text.fmc_flag_get:0000000000000000 $t
C:\Users\Prog\AppData\Local\Temp\ccKeEkXj.s:601    .text.fmc_flag_get:0000000000000000 fmc_flag_get
C:\Users\Prog\AppData\Local\Temp\ccKeEkXj.s:635    .text.fmc_flag_clear:0000000000000000 $t
C:\Users\Prog\AppData\Local\Temp\ccKeEkXj.s:642    .text.fmc_flag_clear:0000000000000000 fmc_flag_clear
C:\Users\Prog\AppData\Local\Temp\ccKeEkXj.s:671    .text.fmc_interrupt_flag_get:0000000000000000 $t
C:\Users\Prog\AppData\Local\Temp\ccKeEkXj.s:678    .text.fmc_interrupt_flag_get:0000000000000000 fmc_interrupt_flag_get
C:\Users\Prog\AppData\Local\Temp\ccKeEkXj.s:777    .text.fmc_interrupt_flag_get:0000000000000068 $d
C:\Users\Prog\AppData\Local\Temp\ccKeEkXj.s:783    .text.fmc_interrupt_flag_clear:0000000000000000 $t
C:\Users\Prog\AppData\Local\Temp\ccKeEkXj.s:790    .text.fmc_interrupt_flag_clear:0000000000000000 fmc_interrupt_flag_clear
C:\Users\Prog\AppData\Local\Temp\ccKeEkXj.s:819    .text.fmc_bank0_state_get:0000000000000000 $t
C:\Users\Prog\AppData\Local\Temp\ccKeEkXj.s:826    .text.fmc_bank0_state_get:0000000000000000 fmc_bank0_state_get
C:\Users\Prog\AppData\Local\Temp\ccKeEkXj.s:877    .text.fmc_bank0_state_get:0000000000000030 $d
ARM GAS  C:\Users\Prog\AppData\Local\Temp\ccKeEkXj.s 			page 76


C:\Users\Prog\AppData\Local\Temp\ccKeEkXj.s:882    .text.fmc_bank1_state_get:0000000000000000 $t
C:\Users\Prog\AppData\Local\Temp\ccKeEkXj.s:889    .text.fmc_bank1_state_get:0000000000000000 fmc_bank1_state_get
C:\Users\Prog\AppData\Local\Temp\ccKeEkXj.s:940    .text.fmc_bank1_state_get:0000000000000030 $d
C:\Users\Prog\AppData\Local\Temp\ccKeEkXj.s:945    .text.fmc_bank0_ready_wait:0000000000000000 $t
C:\Users\Prog\AppData\Local\Temp\ccKeEkXj.s:952    .text.fmc_bank0_ready_wait:0000000000000000 fmc_bank0_ready_wait
C:\Users\Prog\AppData\Local\Temp\ccKeEkXj.s:1005   .text.fmc_bank0_erase:0000000000000000 $t
C:\Users\Prog\AppData\Local\Temp\ccKeEkXj.s:1012   .text.fmc_bank0_erase:0000000000000000 fmc_bank0_erase
C:\Users\Prog\AppData\Local\Temp\ccKeEkXj.s:1071   .text.fmc_bank0_erase:0000000000000034 $d
C:\Users\Prog\AppData\Local\Temp\ccKeEkXj.s:1077   .text.ob_erase:0000000000000000 $t
C:\Users\Prog\AppData\Local\Temp\ccKeEkXj.s:1084   .text.ob_erase:0000000000000000 ob_erase
C:\Users\Prog\AppData\Local\Temp\ccKeEkXj.s:1202   .text.ob_erase:0000000000000078 $d
C:\Users\Prog\AppData\Local\Temp\ccKeEkXj.s:1209   .text.ob_write_protection_enable:0000000000000000 $t
C:\Users\Prog\AppData\Local\Temp\ccKeEkXj.s:1216   .text.ob_write_protection_enable:0000000000000000 ob_write_protection_enable
C:\Users\Prog\AppData\Local\Temp\ccKeEkXj.s:1384   .text.ob_write_protection_enable:0000000000000088 $d
C:\Users\Prog\AppData\Local\Temp\ccKeEkXj.s:1394   .text.ob_security_protection_config:0000000000000000 $t
C:\Users\Prog\AppData\Local\Temp\ccKeEkXj.s:1401   .text.ob_security_protection_config:0000000000000000 ob_security_protection_config
C:\Users\Prog\AppData\Local\Temp\ccKeEkXj.s:1508   .text.ob_security_protection_config:0000000000000070 $d
C:\Users\Prog\AppData\Local\Temp\ccKeEkXj.s:1515   .text.ob_user_write:0000000000000000 $t
C:\Users\Prog\AppData\Local\Temp\ccKeEkXj.s:1522   .text.ob_user_write:0000000000000000 ob_user_write
C:\Users\Prog\AppData\Local\Temp\ccKeEkXj.s:1609   .text.ob_user_write:0000000000000048 $d
C:\Users\Prog\AppData\Local\Temp\ccKeEkXj.s:1616   .text.ob_data_program:0000000000000000 $t
C:\Users\Prog\AppData\Local\Temp\ccKeEkXj.s:1623   .text.ob_data_program:0000000000000000 ob_data_program
C:\Users\Prog\AppData\Local\Temp\ccKeEkXj.s:1692   .text.ob_data_program:000000000000003c $d
C:\Users\Prog\AppData\Local\Temp\ccKeEkXj.s:1698   .text.fmc_bank1_ready_wait:0000000000000000 $t
C:\Users\Prog\AppData\Local\Temp\ccKeEkXj.s:1705   .text.fmc_bank1_ready_wait:0000000000000000 fmc_bank1_ready_wait
C:\Users\Prog\AppData\Local\Temp\ccKeEkXj.s:1758   .text.fmc_page_erase:0000000000000000 $t
C:\Users\Prog\AppData\Local\Temp\ccKeEkXj.s:1765   .text.fmc_page_erase:0000000000000000 fmc_page_erase
C:\Users\Prog\AppData\Local\Temp\ccKeEkXj.s:1949   .text.fmc_page_erase:00000000000000c4 $d
C:\Users\Prog\AppData\Local\Temp\ccKeEkXj.s:1960   .text.fmc_mass_erase:0000000000000000 $t
C:\Users\Prog\AppData\Local\Temp\ccKeEkXj.s:1967   .text.fmc_mass_erase:0000000000000000 fmc_mass_erase
C:\Users\Prog\AppData\Local\Temp\ccKeEkXj.s:2107   .text.fmc_mass_erase:000000000000009c $d
C:\Users\Prog\AppData\Local\Temp\ccKeEkXj.s:2115   .text.fmc_bank1_erase:0000000000000000 $t
C:\Users\Prog\AppData\Local\Temp\ccKeEkXj.s:2122   .text.fmc_bank1_erase:0000000000000000 fmc_bank1_erase
C:\Users\Prog\AppData\Local\Temp\ccKeEkXj.s:2181   .text.fmc_bank1_erase:0000000000000034 $d
C:\Users\Prog\AppData\Local\Temp\ccKeEkXj.s:2187   .text.fmc_word_program:0000000000000000 $t
C:\Users\Prog\AppData\Local\Temp\ccKeEkXj.s:2194   .text.fmc_word_program:0000000000000000 fmc_word_program
C:\Users\Prog\AppData\Local\Temp\ccKeEkXj.s:2347   .text.fmc_word_program:0000000000000098 $d
C:\Users\Prog\AppData\Local\Temp\ccKeEkXj.s:2356   .text.fmc_halfword_program:0000000000000000 $t
C:\Users\Prog\AppData\Local\Temp\ccKeEkXj.s:2363   .text.fmc_halfword_program:0000000000000000 fmc_halfword_program
C:\Users\Prog\AppData\Local\Temp\ccKeEkXj.s:2516   .text.fmc_halfword_program:0000000000000098 $d
C:\Users\Prog\AppData\Local\Temp\ccKeEkXj.s:2525   .text.fmc_word_reprogram:0000000000000000 $t
C:\Users\Prog\AppData\Local\Temp\ccKeEkXj.s:2532   .text.fmc_word_reprogram:0000000000000000 fmc_word_reprogram
C:\Users\Prog\AppData\Local\Temp\ccKeEkXj.s:2703   .text.fmc_word_reprogram:00000000000000b4 $d

NO UNDEFINED SYMBOLS
