ARM GAS  C:\Users\Prog\AppData\Local\Temp\ccmlzHib.s 			page 1


   1              		.cpu cortex-m4
   2              		.eabi_attribute 27, 1
   3              		.eabi_attribute 28, 1
   4              		.eabi_attribute 20, 1
   5              		.eabi_attribute 21, 1
   6              		.eabi_attribute 23, 3
   7              		.eabi_attribute 24, 1
   8              		.eabi_attribute 25, 1
   9              		.eabi_attribute 26, 1
  10              		.eabi_attribute 30, 1
  11              		.eabi_attribute 34, 1
  12              		.eabi_attribute 18, 4
  13              		.file	"gd32f30x_dac.c"
  14              		.text
  15              	.Ltext0:
  16              		.cfi_sections	.debug_frame
  17              		.section	.text.dac_deinit,"ax",%progbits
  18              		.align	1
  19              		.global	dac_deinit
  20              		.arch armv7e-m
  21              		.syntax unified
  22              		.thumb
  23              		.thumb_func
  24              		.fpu fpv4-sp-d16
  26              	dac_deinit:
  27              	.LFB116:
  28              		.file 1 "Drivers/GD32F30x_standard_peripheral/Source/gd32f30x_dac.c"
   1:Drivers/GD32F30x_standard_peripheral/Source/gd32f30x_dac.c **** /*!
   2:Drivers/GD32F30x_standard_peripheral/Source/gd32f30x_dac.c ****     \file    gd32f30x_dac.c
   3:Drivers/GD32F30x_standard_peripheral/Source/gd32f30x_dac.c ****     \brief   DAC driver
   4:Drivers/GD32F30x_standard_peripheral/Source/gd32f30x_dac.c **** 
   5:Drivers/GD32F30x_standard_peripheral/Source/gd32f30x_dac.c ****     \version 2017-02-10, V1.0.0, firmware for GD32F30x
   6:Drivers/GD32F30x_standard_peripheral/Source/gd32f30x_dac.c ****     \version 2018-10-10, V1.1.0, firmware for GD32F30x
   7:Drivers/GD32F30x_standard_peripheral/Source/gd32f30x_dac.c ****     \version 2018-12-25, V2.0.0, firmware for GD32F30x
   8:Drivers/GD32F30x_standard_peripheral/Source/gd32f30x_dac.c ****     \version 2020-09-30, V2.1.0, firmware for GD32F30x
   9:Drivers/GD32F30x_standard_peripheral/Source/gd32f30x_dac.c **** */
  10:Drivers/GD32F30x_standard_peripheral/Source/gd32f30x_dac.c **** 
  11:Drivers/GD32F30x_standard_peripheral/Source/gd32f30x_dac.c **** /*
  12:Drivers/GD32F30x_standard_peripheral/Source/gd32f30x_dac.c ****     Copyright (c) 2020, GigaDevice Semiconductor Inc.
  13:Drivers/GD32F30x_standard_peripheral/Source/gd32f30x_dac.c **** 
  14:Drivers/GD32F30x_standard_peripheral/Source/gd32f30x_dac.c ****     Redistribution and use in source and binary forms, with or without modification, 
  15:Drivers/GD32F30x_standard_peripheral/Source/gd32f30x_dac.c **** are permitted provided that the following conditions are met:
  16:Drivers/GD32F30x_standard_peripheral/Source/gd32f30x_dac.c **** 
  17:Drivers/GD32F30x_standard_peripheral/Source/gd32f30x_dac.c ****     1. Redistributions of source code must retain the above copyright notice, this 
  18:Drivers/GD32F30x_standard_peripheral/Source/gd32f30x_dac.c ****        list of conditions and the following disclaimer.
  19:Drivers/GD32F30x_standard_peripheral/Source/gd32f30x_dac.c ****     2. Redistributions in binary form must reproduce the above copyright notice, 
  20:Drivers/GD32F30x_standard_peripheral/Source/gd32f30x_dac.c ****        this list of conditions and the following disclaimer in the documentation 
  21:Drivers/GD32F30x_standard_peripheral/Source/gd32f30x_dac.c ****        and/or other materials provided with the distribution.
  22:Drivers/GD32F30x_standard_peripheral/Source/gd32f30x_dac.c ****     3. Neither the name of the copyright holder nor the names of its contributors 
  23:Drivers/GD32F30x_standard_peripheral/Source/gd32f30x_dac.c ****        may be used to endorse or promote products derived from this software without 
  24:Drivers/GD32F30x_standard_peripheral/Source/gd32f30x_dac.c ****        specific prior written permission.
  25:Drivers/GD32F30x_standard_peripheral/Source/gd32f30x_dac.c **** 
  26:Drivers/GD32F30x_standard_peripheral/Source/gd32f30x_dac.c ****     THIS SOFTWARE IS PROVIDED BY THE COPYRIGHT HOLDERS AND CONTRIBUTORS "AS IS" 
  27:Drivers/GD32F30x_standard_peripheral/Source/gd32f30x_dac.c **** AND ANY EXPRESS OR IMPLIED WARRANTIES, INCLUDING, BUT NOT LIMITED TO, THE IMPLIED 
  28:Drivers/GD32F30x_standard_peripheral/Source/gd32f30x_dac.c **** WARRANTIES OF MERCHANTABILITY AND FITNESS FOR A PARTICULAR PURPOSE ARE DISCLAIMED. 
  29:Drivers/GD32F30x_standard_peripheral/Source/gd32f30x_dac.c **** IN NO EVENT SHALL THE COPYRIGHT HOLDER OR CONTRIBUTORS BE LIABLE FOR ANY DIRECT, 
  30:Drivers/GD32F30x_standard_peripheral/Source/gd32f30x_dac.c **** INDIRECT, INCIDENTAL, SPECIAL, EXEMPLARY, OR CONSEQUENTIAL DAMAGES (INCLUDING, BUT 
ARM GAS  C:\Users\Prog\AppData\Local\Temp\ccmlzHib.s 			page 2


  31:Drivers/GD32F30x_standard_peripheral/Source/gd32f30x_dac.c **** NOT LIMITED TO, PROCUREMENT OF SUBSTITUTE GOODS OR SERVICES; LOSS OF USE, DATA, OR 
  32:Drivers/GD32F30x_standard_peripheral/Source/gd32f30x_dac.c **** PROFITS; OR BUSINESS INTERRUPTION) HOWEVER CAUSED AND ON ANY THEORY OF LIABILITY, 
  33:Drivers/GD32F30x_standard_peripheral/Source/gd32f30x_dac.c **** WHETHER IN CONTRACT, STRICT LIABILITY, OR TORT (INCLUDING NEGLIGENCE OR OTHERWISE) 
  34:Drivers/GD32F30x_standard_peripheral/Source/gd32f30x_dac.c **** ARISING IN ANY WAY OUT OF THE USE OF THIS SOFTWARE, EVEN IF ADVISED OF THE POSSIBILITY 
  35:Drivers/GD32F30x_standard_peripheral/Source/gd32f30x_dac.c **** OF SUCH DAMAGE.
  36:Drivers/GD32F30x_standard_peripheral/Source/gd32f30x_dac.c **** */
  37:Drivers/GD32F30x_standard_peripheral/Source/gd32f30x_dac.c **** 
  38:Drivers/GD32F30x_standard_peripheral/Source/gd32f30x_dac.c **** #include "gd32f30x_dac.h"
  39:Drivers/GD32F30x_standard_peripheral/Source/gd32f30x_dac.c **** 
  40:Drivers/GD32F30x_standard_peripheral/Source/gd32f30x_dac.c **** /* DAC register bit offset */
  41:Drivers/GD32F30x_standard_peripheral/Source/gd32f30x_dac.c **** #define DAC1_REG_OFFSET             ((uint32_t)16U)
  42:Drivers/GD32F30x_standard_peripheral/Source/gd32f30x_dac.c **** #define DH_12BIT_OFFSET             ((uint32_t)16U)
  43:Drivers/GD32F30x_standard_peripheral/Source/gd32f30x_dac.c **** #define DH_8BIT_OFFSET              ((uint32_t)8U)
  44:Drivers/GD32F30x_standard_peripheral/Source/gd32f30x_dac.c **** 
  45:Drivers/GD32F30x_standard_peripheral/Source/gd32f30x_dac.c **** /*!
  46:Drivers/GD32F30x_standard_peripheral/Source/gd32f30x_dac.c ****     \brief      deinitialize DAC
  47:Drivers/GD32F30x_standard_peripheral/Source/gd32f30x_dac.c ****     \param[in]  none
  48:Drivers/GD32F30x_standard_peripheral/Source/gd32f30x_dac.c ****     \param[out] none
  49:Drivers/GD32F30x_standard_peripheral/Source/gd32f30x_dac.c ****     \retval     none
  50:Drivers/GD32F30x_standard_peripheral/Source/gd32f30x_dac.c **** */
  51:Drivers/GD32F30x_standard_peripheral/Source/gd32f30x_dac.c **** void dac_deinit(void)
  52:Drivers/GD32F30x_standard_peripheral/Source/gd32f30x_dac.c **** {
  29              		.loc 1 52 1 view -0
  30              		.cfi_startproc
  31              		@ args = 0, pretend = 0, frame = 0
  32              		@ frame_needed = 0, uses_anonymous_args = 0
  33 0000 08B5     		push	{r3, lr}
  34              	.LCFI0:
  35              		.cfi_def_cfa_offset 8
  36              		.cfi_offset 3, -8
  37              		.cfi_offset 14, -4
  53:Drivers/GD32F30x_standard_peripheral/Source/gd32f30x_dac.c ****     rcu_periph_reset_enable(RCU_DACRST);
  38              		.loc 1 53 5 view .LVU1
  39 0002 40F21D40 		movw	r0, #1053
  40 0006 FFF7FEFF 		bl	rcu_periph_reset_enable
  41              	.LVL0:
  54:Drivers/GD32F30x_standard_peripheral/Source/gd32f30x_dac.c ****     rcu_periph_reset_disable(RCU_DACRST);
  42              		.loc 1 54 5 view .LVU2
  43 000a 40F21D40 		movw	r0, #1053
  44 000e FFF7FEFF 		bl	rcu_periph_reset_disable
  45              	.LVL1:
  55:Drivers/GD32F30x_standard_peripheral/Source/gd32f30x_dac.c **** }
  46              		.loc 1 55 1 is_stmt 0 view .LVU3
  47 0012 08BD     		pop	{r3, pc}
  48              		.cfi_endproc
  49              	.LFE116:
  51              		.section	.text.dac_enable,"ax",%progbits
  52              		.align	1
  53              		.global	dac_enable
  54              		.syntax unified
  55              		.thumb
  56              		.thumb_func
  57              		.fpu fpv4-sp-d16
  59              	dac_enable:
  60              	.LVL2:
  61              	.LFB117:
  56:Drivers/GD32F30x_standard_peripheral/Source/gd32f30x_dac.c **** 
ARM GAS  C:\Users\Prog\AppData\Local\Temp\ccmlzHib.s 			page 3


  57:Drivers/GD32F30x_standard_peripheral/Source/gd32f30x_dac.c **** /*!
  58:Drivers/GD32F30x_standard_peripheral/Source/gd32f30x_dac.c ****     \brief      enable DAC
  59:Drivers/GD32F30x_standard_peripheral/Source/gd32f30x_dac.c ****     \param[in]  dac_periph: DACx(x = 0,1)
  60:Drivers/GD32F30x_standard_peripheral/Source/gd32f30x_dac.c ****     \param[out] none
  61:Drivers/GD32F30x_standard_peripheral/Source/gd32f30x_dac.c ****     \retval     none
  62:Drivers/GD32F30x_standard_peripheral/Source/gd32f30x_dac.c **** */
  63:Drivers/GD32F30x_standard_peripheral/Source/gd32f30x_dac.c **** void dac_enable(uint32_t dac_periph)
  64:Drivers/GD32F30x_standard_peripheral/Source/gd32f30x_dac.c **** {
  62              		.loc 1 64 1 is_stmt 1 view -0
  63              		.cfi_startproc
  64              		@ args = 0, pretend = 0, frame = 0
  65              		@ frame_needed = 0, uses_anonymous_args = 0
  66              		@ link register save eliminated.
  65:Drivers/GD32F30x_standard_peripheral/Source/gd32f30x_dac.c ****     if(DAC0 == dac_periph){
  67              		.loc 1 65 5 view .LVU5
  68              		.loc 1 65 7 is_stmt 0 view .LVU6
  69 0000 38B9     		cbnz	r0, .L4
  66:Drivers/GD32F30x_standard_peripheral/Source/gd32f30x_dac.c ****         DAC_CTL |= DAC_CTL_DEN0;
  70              		.loc 1 66 9 is_stmt 1 view .LVU7
  71              		.loc 1 66 17 is_stmt 0 view .LVU8
  72 0002 084A     		ldr	r2, .L6
  73 0004 D2F80034 		ldr	r3, [r2, #1024]
  74 0008 43F00103 		orr	r3, r3, #1
  75 000c C2F80034 		str	r3, [r2, #1024]
  76 0010 7047     		bx	lr
  77              	.L4:
  67:Drivers/GD32F30x_standard_peripheral/Source/gd32f30x_dac.c ****     }else{
  68:Drivers/GD32F30x_standard_peripheral/Source/gd32f30x_dac.c ****         DAC_CTL |= DAC_CTL_DEN1;
  78              		.loc 1 68 9 is_stmt 1 view .LVU9
  79              		.loc 1 68 17 is_stmt 0 view .LVU10
  80 0012 044A     		ldr	r2, .L6
  81 0014 D2F80034 		ldr	r3, [r2, #1024]
  82 0018 43F48033 		orr	r3, r3, #65536
  83 001c C2F80034 		str	r3, [r2, #1024]
  69:Drivers/GD32F30x_standard_peripheral/Source/gd32f30x_dac.c ****     }
  70:Drivers/GD32F30x_standard_peripheral/Source/gd32f30x_dac.c **** } 
  84              		.loc 1 70 1 view .LVU11
  85 0020 7047     		bx	lr
  86              	.L7:
  87 0022 00BF     		.align	2
  88              	.L6:
  89 0024 00700040 		.word	1073770496
  90              		.cfi_endproc
  91              	.LFE117:
  93              		.section	.text.dac_disable,"ax",%progbits
  94              		.align	1
  95              		.global	dac_disable
  96              		.syntax unified
  97              		.thumb
  98              		.thumb_func
  99              		.fpu fpv4-sp-d16
 101              	dac_disable:
 102              	.LVL3:
 103              	.LFB118:
  71:Drivers/GD32F30x_standard_peripheral/Source/gd32f30x_dac.c **** 
  72:Drivers/GD32F30x_standard_peripheral/Source/gd32f30x_dac.c **** /*!
  73:Drivers/GD32F30x_standard_peripheral/Source/gd32f30x_dac.c ****     \brief      disable DAC
ARM GAS  C:\Users\Prog\AppData\Local\Temp\ccmlzHib.s 			page 4


  74:Drivers/GD32F30x_standard_peripheral/Source/gd32f30x_dac.c ****     \param[in]  dac_periph: DACx(x = 0,1)
  75:Drivers/GD32F30x_standard_peripheral/Source/gd32f30x_dac.c ****     \param[out] none
  76:Drivers/GD32F30x_standard_peripheral/Source/gd32f30x_dac.c ****     \retval     none
  77:Drivers/GD32F30x_standard_peripheral/Source/gd32f30x_dac.c **** */
  78:Drivers/GD32F30x_standard_peripheral/Source/gd32f30x_dac.c **** void dac_disable(uint32_t dac_periph)
  79:Drivers/GD32F30x_standard_peripheral/Source/gd32f30x_dac.c **** {
 104              		.loc 1 79 1 is_stmt 1 view -0
 105              		.cfi_startproc
 106              		@ args = 0, pretend = 0, frame = 0
 107              		@ frame_needed = 0, uses_anonymous_args = 0
 108              		@ link register save eliminated.
  80:Drivers/GD32F30x_standard_peripheral/Source/gd32f30x_dac.c ****     if(DAC0 == dac_periph){
 109              		.loc 1 80 5 view .LVU13
 110              		.loc 1 80 7 is_stmt 0 view .LVU14
 111 0000 38B9     		cbnz	r0, .L9
  81:Drivers/GD32F30x_standard_peripheral/Source/gd32f30x_dac.c ****         DAC_CTL &= ~DAC_CTL_DEN0;
 112              		.loc 1 81 9 is_stmt 1 view .LVU15
 113              		.loc 1 81 17 is_stmt 0 view .LVU16
 114 0002 084A     		ldr	r2, .L11
 115 0004 D2F80034 		ldr	r3, [r2, #1024]
 116 0008 23F00103 		bic	r3, r3, #1
 117 000c C2F80034 		str	r3, [r2, #1024]
 118 0010 7047     		bx	lr
 119              	.L9:
  82:Drivers/GD32F30x_standard_peripheral/Source/gd32f30x_dac.c ****     }else{
  83:Drivers/GD32F30x_standard_peripheral/Source/gd32f30x_dac.c ****         DAC_CTL &= ~DAC_CTL_DEN1;
 120              		.loc 1 83 9 is_stmt 1 view .LVU17
 121              		.loc 1 83 17 is_stmt 0 view .LVU18
 122 0012 044A     		ldr	r2, .L11
 123 0014 D2F80034 		ldr	r3, [r2, #1024]
 124 0018 23F48033 		bic	r3, r3, #65536
 125 001c C2F80034 		str	r3, [r2, #1024]
  84:Drivers/GD32F30x_standard_peripheral/Source/gd32f30x_dac.c ****     }
  85:Drivers/GD32F30x_standard_peripheral/Source/gd32f30x_dac.c **** }
 126              		.loc 1 85 1 view .LVU19
 127 0020 7047     		bx	lr
 128              	.L12:
 129 0022 00BF     		.align	2
 130              	.L11:
 131 0024 00700040 		.word	1073770496
 132              		.cfi_endproc
 133              	.LFE118:
 135              		.section	.text.dac_dma_enable,"ax",%progbits
 136              		.align	1
 137              		.global	dac_dma_enable
 138              		.syntax unified
 139              		.thumb
 140              		.thumb_func
 141              		.fpu fpv4-sp-d16
 143              	dac_dma_enable:
 144              	.LVL4:
 145              	.LFB119:
  86:Drivers/GD32F30x_standard_peripheral/Source/gd32f30x_dac.c **** 
  87:Drivers/GD32F30x_standard_peripheral/Source/gd32f30x_dac.c **** /*!
  88:Drivers/GD32F30x_standard_peripheral/Source/gd32f30x_dac.c ****     \brief      enable DAC DMA function
  89:Drivers/GD32F30x_standard_peripheral/Source/gd32f30x_dac.c ****     \param[in]  dac_periph: DACx(x = 0,1)
  90:Drivers/GD32F30x_standard_peripheral/Source/gd32f30x_dac.c ****     \param[out] none
ARM GAS  C:\Users\Prog\AppData\Local\Temp\ccmlzHib.s 			page 5


  91:Drivers/GD32F30x_standard_peripheral/Source/gd32f30x_dac.c ****     \retval     none
  92:Drivers/GD32F30x_standard_peripheral/Source/gd32f30x_dac.c **** */
  93:Drivers/GD32F30x_standard_peripheral/Source/gd32f30x_dac.c **** void dac_dma_enable(uint32_t dac_periph)
  94:Drivers/GD32F30x_standard_peripheral/Source/gd32f30x_dac.c **** {
 146              		.loc 1 94 1 is_stmt 1 view -0
 147              		.cfi_startproc
 148              		@ args = 0, pretend = 0, frame = 0
 149              		@ frame_needed = 0, uses_anonymous_args = 0
 150              		@ link register save eliminated.
  95:Drivers/GD32F30x_standard_peripheral/Source/gd32f30x_dac.c ****     if(DAC0 == dac_periph){
 151              		.loc 1 95 5 view .LVU21
 152              		.loc 1 95 7 is_stmt 0 view .LVU22
 153 0000 38B9     		cbnz	r0, .L14
  96:Drivers/GD32F30x_standard_peripheral/Source/gd32f30x_dac.c ****         DAC_CTL |= DAC_CTL_DDMAEN0;
 154              		.loc 1 96 9 is_stmt 1 view .LVU23
 155              		.loc 1 96 17 is_stmt 0 view .LVU24
 156 0002 084A     		ldr	r2, .L16
 157 0004 D2F80034 		ldr	r3, [r2, #1024]
 158 0008 43F48053 		orr	r3, r3, #4096
 159 000c C2F80034 		str	r3, [r2, #1024]
 160 0010 7047     		bx	lr
 161              	.L14:
  97:Drivers/GD32F30x_standard_peripheral/Source/gd32f30x_dac.c ****     }else{
  98:Drivers/GD32F30x_standard_peripheral/Source/gd32f30x_dac.c ****         DAC_CTL |= DAC_CTL_DDMAEN1;
 162              		.loc 1 98 9 is_stmt 1 view .LVU25
 163              		.loc 1 98 17 is_stmt 0 view .LVU26
 164 0012 044A     		ldr	r2, .L16
 165 0014 D2F80034 		ldr	r3, [r2, #1024]
 166 0018 43F08053 		orr	r3, r3, #268435456
 167 001c C2F80034 		str	r3, [r2, #1024]
  99:Drivers/GD32F30x_standard_peripheral/Source/gd32f30x_dac.c ****     }
 100:Drivers/GD32F30x_standard_peripheral/Source/gd32f30x_dac.c **** }
 168              		.loc 1 100 1 view .LVU27
 169 0020 7047     		bx	lr
 170              	.L17:
 171 0022 00BF     		.align	2
 172              	.L16:
 173 0024 00700040 		.word	1073770496
 174              		.cfi_endproc
 175              	.LFE119:
 177              		.section	.text.dac_dma_disable,"ax",%progbits
 178              		.align	1
 179              		.global	dac_dma_disable
 180              		.syntax unified
 181              		.thumb
 182              		.thumb_func
 183              		.fpu fpv4-sp-d16
 185              	dac_dma_disable:
 186              	.LVL5:
 187              	.LFB120:
 101:Drivers/GD32F30x_standard_peripheral/Source/gd32f30x_dac.c **** 
 102:Drivers/GD32F30x_standard_peripheral/Source/gd32f30x_dac.c **** /*!
 103:Drivers/GD32F30x_standard_peripheral/Source/gd32f30x_dac.c ****     \brief      disable DAC DMA function
 104:Drivers/GD32F30x_standard_peripheral/Source/gd32f30x_dac.c ****     \param[in]  dac_periph: DACx(x = 0,1)
 105:Drivers/GD32F30x_standard_peripheral/Source/gd32f30x_dac.c ****     \param[out] none
 106:Drivers/GD32F30x_standard_peripheral/Source/gd32f30x_dac.c ****     \retval     none
 107:Drivers/GD32F30x_standard_peripheral/Source/gd32f30x_dac.c **** */
ARM GAS  C:\Users\Prog\AppData\Local\Temp\ccmlzHib.s 			page 6


 108:Drivers/GD32F30x_standard_peripheral/Source/gd32f30x_dac.c **** void dac_dma_disable(uint32_t dac_periph)
 109:Drivers/GD32F30x_standard_peripheral/Source/gd32f30x_dac.c **** {
 188              		.loc 1 109 1 is_stmt 1 view -0
 189              		.cfi_startproc
 190              		@ args = 0, pretend = 0, frame = 0
 191              		@ frame_needed = 0, uses_anonymous_args = 0
 192              		@ link register save eliminated.
 110:Drivers/GD32F30x_standard_peripheral/Source/gd32f30x_dac.c ****     if(DAC0 == dac_periph){
 193              		.loc 1 110 5 view .LVU29
 194              		.loc 1 110 7 is_stmt 0 view .LVU30
 195 0000 38B9     		cbnz	r0, .L19
 111:Drivers/GD32F30x_standard_peripheral/Source/gd32f30x_dac.c ****         DAC_CTL &= ~DAC_CTL_DDMAEN0;
 196              		.loc 1 111 9 is_stmt 1 view .LVU31
 197              		.loc 1 111 17 is_stmt 0 view .LVU32
 198 0002 084A     		ldr	r2, .L21
 199 0004 D2F80034 		ldr	r3, [r2, #1024]
 200 0008 23F48053 		bic	r3, r3, #4096
 201 000c C2F80034 		str	r3, [r2, #1024]
 202 0010 7047     		bx	lr
 203              	.L19:
 112:Drivers/GD32F30x_standard_peripheral/Source/gd32f30x_dac.c ****     }else{
 113:Drivers/GD32F30x_standard_peripheral/Source/gd32f30x_dac.c ****         DAC_CTL &= ~DAC_CTL_DDMAEN1;
 204              		.loc 1 113 9 is_stmt 1 view .LVU33
 205              		.loc 1 113 17 is_stmt 0 view .LVU34
 206 0012 044A     		ldr	r2, .L21
 207 0014 D2F80034 		ldr	r3, [r2, #1024]
 208 0018 23F08053 		bic	r3, r3, #268435456
 209 001c C2F80034 		str	r3, [r2, #1024]
 114:Drivers/GD32F30x_standard_peripheral/Source/gd32f30x_dac.c ****     }
 115:Drivers/GD32F30x_standard_peripheral/Source/gd32f30x_dac.c **** }
 210              		.loc 1 115 1 view .LVU35
 211 0020 7047     		bx	lr
 212              	.L22:
 213 0022 00BF     		.align	2
 214              	.L21:
 215 0024 00700040 		.word	1073770496
 216              		.cfi_endproc
 217              	.LFE120:
 219              		.section	.text.dac_output_buffer_enable,"ax",%progbits
 220              		.align	1
 221              		.global	dac_output_buffer_enable
 222              		.syntax unified
 223              		.thumb
 224              		.thumb_func
 225              		.fpu fpv4-sp-d16
 227              	dac_output_buffer_enable:
 228              	.LVL6:
 229              	.LFB121:
 116:Drivers/GD32F30x_standard_peripheral/Source/gd32f30x_dac.c **** 
 117:Drivers/GD32F30x_standard_peripheral/Source/gd32f30x_dac.c **** /*!
 118:Drivers/GD32F30x_standard_peripheral/Source/gd32f30x_dac.c ****     \brief      enable DAC output buffer
 119:Drivers/GD32F30x_standard_peripheral/Source/gd32f30x_dac.c ****     \param[in]  dac_periph: DACx(x = 0,1)
 120:Drivers/GD32F30x_standard_peripheral/Source/gd32f30x_dac.c ****     \param[out] none
 121:Drivers/GD32F30x_standard_peripheral/Source/gd32f30x_dac.c ****     \retval     none
 122:Drivers/GD32F30x_standard_peripheral/Source/gd32f30x_dac.c **** */
 123:Drivers/GD32F30x_standard_peripheral/Source/gd32f30x_dac.c **** void dac_output_buffer_enable(uint32_t dac_periph)
 124:Drivers/GD32F30x_standard_peripheral/Source/gd32f30x_dac.c **** {
ARM GAS  C:\Users\Prog\AppData\Local\Temp\ccmlzHib.s 			page 7


 230              		.loc 1 124 1 is_stmt 1 view -0
 231              		.cfi_startproc
 232              		@ args = 0, pretend = 0, frame = 0
 233              		@ frame_needed = 0, uses_anonymous_args = 0
 234              		@ link register save eliminated.
 125:Drivers/GD32F30x_standard_peripheral/Source/gd32f30x_dac.c ****     if(DAC0 == dac_periph){
 235              		.loc 1 125 5 view .LVU37
 236              		.loc 1 125 7 is_stmt 0 view .LVU38
 237 0000 38B9     		cbnz	r0, .L24
 126:Drivers/GD32F30x_standard_peripheral/Source/gd32f30x_dac.c ****         DAC_CTL &= ~DAC_CTL_DBOFF0;
 238              		.loc 1 126 9 is_stmt 1 view .LVU39
 239              		.loc 1 126 17 is_stmt 0 view .LVU40
 240 0002 084A     		ldr	r2, .L26
 241 0004 D2F80034 		ldr	r3, [r2, #1024]
 242 0008 23F00203 		bic	r3, r3, #2
 243 000c C2F80034 		str	r3, [r2, #1024]
 244 0010 7047     		bx	lr
 245              	.L24:
 127:Drivers/GD32F30x_standard_peripheral/Source/gd32f30x_dac.c ****     }else{
 128:Drivers/GD32F30x_standard_peripheral/Source/gd32f30x_dac.c ****         DAC_CTL &= ~DAC_CTL_DBOFF1;
 246              		.loc 1 128 9 is_stmt 1 view .LVU41
 247              		.loc 1 128 17 is_stmt 0 view .LVU42
 248 0012 044A     		ldr	r2, .L26
 249 0014 D2F80034 		ldr	r3, [r2, #1024]
 250 0018 23F40033 		bic	r3, r3, #131072
 251 001c C2F80034 		str	r3, [r2, #1024]
 129:Drivers/GD32F30x_standard_peripheral/Source/gd32f30x_dac.c ****     }
 130:Drivers/GD32F30x_standard_peripheral/Source/gd32f30x_dac.c **** }
 252              		.loc 1 130 1 view .LVU43
 253 0020 7047     		bx	lr
 254              	.L27:
 255 0022 00BF     		.align	2
 256              	.L26:
 257 0024 00700040 		.word	1073770496
 258              		.cfi_endproc
 259              	.LFE121:
 261              		.section	.text.dac_output_buffer_disable,"ax",%progbits
 262              		.align	1
 263              		.global	dac_output_buffer_disable
 264              		.syntax unified
 265              		.thumb
 266              		.thumb_func
 267              		.fpu fpv4-sp-d16
 269              	dac_output_buffer_disable:
 270              	.LVL7:
 271              	.LFB122:
 131:Drivers/GD32F30x_standard_peripheral/Source/gd32f30x_dac.c **** 
 132:Drivers/GD32F30x_standard_peripheral/Source/gd32f30x_dac.c **** /*!
 133:Drivers/GD32F30x_standard_peripheral/Source/gd32f30x_dac.c ****     \brief      disable DAC output buffer
 134:Drivers/GD32F30x_standard_peripheral/Source/gd32f30x_dac.c ****     \param[in]  dac_periph: DACx(x = 0,1)
 135:Drivers/GD32F30x_standard_peripheral/Source/gd32f30x_dac.c ****     \param[out] none
 136:Drivers/GD32F30x_standard_peripheral/Source/gd32f30x_dac.c ****     \retval     none
 137:Drivers/GD32F30x_standard_peripheral/Source/gd32f30x_dac.c **** */
 138:Drivers/GD32F30x_standard_peripheral/Source/gd32f30x_dac.c **** void dac_output_buffer_disable(uint32_t dac_periph)
 139:Drivers/GD32F30x_standard_peripheral/Source/gd32f30x_dac.c **** {
 272              		.loc 1 139 1 is_stmt 1 view -0
 273              		.cfi_startproc
ARM GAS  C:\Users\Prog\AppData\Local\Temp\ccmlzHib.s 			page 8


 274              		@ args = 0, pretend = 0, frame = 0
 275              		@ frame_needed = 0, uses_anonymous_args = 0
 276              		@ link register save eliminated.
 140:Drivers/GD32F30x_standard_peripheral/Source/gd32f30x_dac.c ****     if(DAC0 == dac_periph){
 277              		.loc 1 140 5 view .LVU45
 278              		.loc 1 140 7 is_stmt 0 view .LVU46
 279 0000 38B9     		cbnz	r0, .L29
 141:Drivers/GD32F30x_standard_peripheral/Source/gd32f30x_dac.c ****         DAC_CTL |= DAC_CTL_DBOFF0;
 280              		.loc 1 141 9 is_stmt 1 view .LVU47
 281              		.loc 1 141 17 is_stmt 0 view .LVU48
 282 0002 084A     		ldr	r2, .L31
 283 0004 D2F80034 		ldr	r3, [r2, #1024]
 284 0008 43F00203 		orr	r3, r3, #2
 285 000c C2F80034 		str	r3, [r2, #1024]
 286 0010 7047     		bx	lr
 287              	.L29:
 142:Drivers/GD32F30x_standard_peripheral/Source/gd32f30x_dac.c ****     }else{
 143:Drivers/GD32F30x_standard_peripheral/Source/gd32f30x_dac.c ****         DAC_CTL |= DAC_CTL_DBOFF1;
 288              		.loc 1 143 9 is_stmt 1 view .LVU49
 289              		.loc 1 143 17 is_stmt 0 view .LVU50
 290 0012 044A     		ldr	r2, .L31
 291 0014 D2F80034 		ldr	r3, [r2, #1024]
 292 0018 43F40033 		orr	r3, r3, #131072
 293 001c C2F80034 		str	r3, [r2, #1024]
 144:Drivers/GD32F30x_standard_peripheral/Source/gd32f30x_dac.c ****     }
 145:Drivers/GD32F30x_standard_peripheral/Source/gd32f30x_dac.c **** }
 294              		.loc 1 145 1 view .LVU51
 295 0020 7047     		bx	lr
 296              	.L32:
 297 0022 00BF     		.align	2
 298              	.L31:
 299 0024 00700040 		.word	1073770496
 300              		.cfi_endproc
 301              	.LFE122:
 303              		.section	.text.dac_output_value_get,"ax",%progbits
 304              		.align	1
 305              		.global	dac_output_value_get
 306              		.syntax unified
 307              		.thumb
 308              		.thumb_func
 309              		.fpu fpv4-sp-d16
 311              	dac_output_value_get:
 312              	.LVL8:
 313              	.LFB123:
 146:Drivers/GD32F30x_standard_peripheral/Source/gd32f30x_dac.c **** 
 147:Drivers/GD32F30x_standard_peripheral/Source/gd32f30x_dac.c **** /*!
 148:Drivers/GD32F30x_standard_peripheral/Source/gd32f30x_dac.c ****     \brief      get DAC output value
 149:Drivers/GD32F30x_standard_peripheral/Source/gd32f30x_dac.c ****     \param[in]  dac_periph: DACx(x = 0,1)
 150:Drivers/GD32F30x_standard_peripheral/Source/gd32f30x_dac.c ****     \param[out] none
 151:Drivers/GD32F30x_standard_peripheral/Source/gd32f30x_dac.c ****     \retval     DAC output data
 152:Drivers/GD32F30x_standard_peripheral/Source/gd32f30x_dac.c **** */
 153:Drivers/GD32F30x_standard_peripheral/Source/gd32f30x_dac.c **** uint16_t dac_output_value_get(uint32_t dac_periph)
 154:Drivers/GD32F30x_standard_peripheral/Source/gd32f30x_dac.c **** {
 314              		.loc 1 154 1 is_stmt 1 view -0
 315              		.cfi_startproc
 316              		@ args = 0, pretend = 0, frame = 0
 317              		@ frame_needed = 0, uses_anonymous_args = 0
ARM GAS  C:\Users\Prog\AppData\Local\Temp\ccmlzHib.s 			page 9


 318              		@ link register save eliminated.
 155:Drivers/GD32F30x_standard_peripheral/Source/gd32f30x_dac.c ****     uint16_t data = 0U;
 319              		.loc 1 155 5 view .LVU53
 156:Drivers/GD32F30x_standard_peripheral/Source/gd32f30x_dac.c ****     if(DAC0 == dac_periph){
 320              		.loc 1 156 5 view .LVU54
 321              		.loc 1 156 7 is_stmt 0 view .LVU55
 322 0000 20B9     		cbnz	r0, .L34
 157:Drivers/GD32F30x_standard_peripheral/Source/gd32f30x_dac.c ****         /* store the DAC0 output value */
 158:Drivers/GD32F30x_standard_peripheral/Source/gd32f30x_dac.c ****         data = (uint16_t)DAC0_DO;
 323              		.loc 1 158 9 is_stmt 1 view .LVU56
 324              		.loc 1 158 26 is_stmt 0 view .LVU57
 325 0002 054B     		ldr	r3, .L36
 326 0004 D3F82C04 		ldr	r0, [r3, #1068]
 327              	.LVL9:
 328              		.loc 1 158 14 view .LVU58
 329 0008 80B2     		uxth	r0, r0
 330              	.LVL10:
 331              		.loc 1 158 14 view .LVU59
 332 000a 7047     		bx	lr
 333              	.LVL11:
 334              	.L34:
 159:Drivers/GD32F30x_standard_peripheral/Source/gd32f30x_dac.c ****     }else{
 160:Drivers/GD32F30x_standard_peripheral/Source/gd32f30x_dac.c ****         /* store the DAC1 output value */
 161:Drivers/GD32F30x_standard_peripheral/Source/gd32f30x_dac.c ****         data = (uint16_t)DAC1_DO;
 335              		.loc 1 161 9 is_stmt 1 view .LVU60
 336              		.loc 1 161 26 is_stmt 0 view .LVU61
 337 000c 024B     		ldr	r3, .L36
 338 000e D3F83004 		ldr	r0, [r3, #1072]
 339              	.LVL12:
 340              		.loc 1 161 14 view .LVU62
 341 0012 80B2     		uxth	r0, r0
 342              	.LVL13:
 162:Drivers/GD32F30x_standard_peripheral/Source/gd32f30x_dac.c ****     }
 163:Drivers/GD32F30x_standard_peripheral/Source/gd32f30x_dac.c ****     return data;
 343              		.loc 1 163 5 is_stmt 1 view .LVU63
 164:Drivers/GD32F30x_standard_peripheral/Source/gd32f30x_dac.c **** }
 344              		.loc 1 164 1 is_stmt 0 view .LVU64
 345 0014 7047     		bx	lr
 346              	.L37:
 347 0016 00BF     		.align	2
 348              	.L36:
 349 0018 00700040 		.word	1073770496
 350              		.cfi_endproc
 351              	.LFE123:
 353              		.section	.text.dac_data_set,"ax",%progbits
 354              		.align	1
 355              		.global	dac_data_set
 356              		.syntax unified
 357              		.thumb
 358              		.thumb_func
 359              		.fpu fpv4-sp-d16
 361              	dac_data_set:
 362              	.LVL14:
 363              	.LFB124:
 165:Drivers/GD32F30x_standard_peripheral/Source/gd32f30x_dac.c **** 
 166:Drivers/GD32F30x_standard_peripheral/Source/gd32f30x_dac.c **** /*!
 167:Drivers/GD32F30x_standard_peripheral/Source/gd32f30x_dac.c ****     \brief      set the DAC specified data holding register value
ARM GAS  C:\Users\Prog\AppData\Local\Temp\ccmlzHib.s 			page 10


 168:Drivers/GD32F30x_standard_peripheral/Source/gd32f30x_dac.c ****     \param[in]  dac_periph: DACx(x = 0,1)
 169:Drivers/GD32F30x_standard_peripheral/Source/gd32f30x_dac.c ****     \param[in]  dac_align: data alignment
 170:Drivers/GD32F30x_standard_peripheral/Source/gd32f30x_dac.c ****                 only one parameter can be selected which is shown as below:
 171:Drivers/GD32F30x_standard_peripheral/Source/gd32f30x_dac.c ****       \arg        DAC_ALIGN_8B_R: data right 8 bit alignment
 172:Drivers/GD32F30x_standard_peripheral/Source/gd32f30x_dac.c ****       \arg        DAC_ALIGN_12B_R: data right 12 bit alignment
 173:Drivers/GD32F30x_standard_peripheral/Source/gd32f30x_dac.c ****       \arg        DAC_ALIGN_12B_L: data left 12 bit alignment
 174:Drivers/GD32F30x_standard_peripheral/Source/gd32f30x_dac.c ****     \param[in]  data: data to be loaded
 175:Drivers/GD32F30x_standard_peripheral/Source/gd32f30x_dac.c ****     \param[out] none
 176:Drivers/GD32F30x_standard_peripheral/Source/gd32f30x_dac.c ****     \retval     none
 177:Drivers/GD32F30x_standard_peripheral/Source/gd32f30x_dac.c **** */
 178:Drivers/GD32F30x_standard_peripheral/Source/gd32f30x_dac.c **** void dac_data_set(uint32_t dac_periph, uint32_t dac_align, uint16_t data)
 179:Drivers/GD32F30x_standard_peripheral/Source/gd32f30x_dac.c **** {
 364              		.loc 1 179 1 is_stmt 1 view -0
 365              		.cfi_startproc
 366              		@ args = 0, pretend = 0, frame = 0
 367              		@ frame_needed = 0, uses_anonymous_args = 0
 368              		@ link register save eliminated.
 180:Drivers/GD32F30x_standard_peripheral/Source/gd32f30x_dac.c ****     if(DAC0 == dac_periph){
 369              		.loc 1 180 5 view .LVU66
 370              		.loc 1 180 7 is_stmt 0 view .LVU67
 371 0000 88B9     		cbnz	r0, .L39
 181:Drivers/GD32F30x_standard_peripheral/Source/gd32f30x_dac.c ****         switch(dac_align){
 372              		.loc 1 181 9 is_stmt 1 view .LVU68
 373 0002 0129     		cmp	r1, #1
 374 0004 07D0     		beq	.L40
 375 0006 0229     		cmp	r1, #2
 376 0008 09D0     		beq	.L41
 377 000a 01B1     		cbz	r1, .L45
 378              	.L38:
 182:Drivers/GD32F30x_standard_peripheral/Source/gd32f30x_dac.c ****         /* data right 12 bit alignment */
 183:Drivers/GD32F30x_standard_peripheral/Source/gd32f30x_dac.c ****         case DAC_ALIGN_12B_R:
 184:Drivers/GD32F30x_standard_peripheral/Source/gd32f30x_dac.c ****             DAC0_R12DH = data;
 185:Drivers/GD32F30x_standard_peripheral/Source/gd32f30x_dac.c ****             break;
 186:Drivers/GD32F30x_standard_peripheral/Source/gd32f30x_dac.c ****         /* data left 12 bit alignment */
 187:Drivers/GD32F30x_standard_peripheral/Source/gd32f30x_dac.c ****         case DAC_ALIGN_12B_L:
 188:Drivers/GD32F30x_standard_peripheral/Source/gd32f30x_dac.c ****             DAC0_L12DH = data;
 189:Drivers/GD32F30x_standard_peripheral/Source/gd32f30x_dac.c ****             break;
 190:Drivers/GD32F30x_standard_peripheral/Source/gd32f30x_dac.c ****         /* data right 8 bit alignment */
 191:Drivers/GD32F30x_standard_peripheral/Source/gd32f30x_dac.c ****         case DAC_ALIGN_8B_R:
 192:Drivers/GD32F30x_standard_peripheral/Source/gd32f30x_dac.c ****             DAC0_R8DH = data;
 193:Drivers/GD32F30x_standard_peripheral/Source/gd32f30x_dac.c ****             break;
 194:Drivers/GD32F30x_standard_peripheral/Source/gd32f30x_dac.c ****         default:
 195:Drivers/GD32F30x_standard_peripheral/Source/gd32f30x_dac.c ****             break;
 196:Drivers/GD32F30x_standard_peripheral/Source/gd32f30x_dac.c ****         }
 197:Drivers/GD32F30x_standard_peripheral/Source/gd32f30x_dac.c ****     }else{
 198:Drivers/GD32F30x_standard_peripheral/Source/gd32f30x_dac.c ****         switch(dac_align){
 199:Drivers/GD32F30x_standard_peripheral/Source/gd32f30x_dac.c ****         /* data right 12 bit alignment */
 200:Drivers/GD32F30x_standard_peripheral/Source/gd32f30x_dac.c ****         case DAC_ALIGN_12B_R:
 201:Drivers/GD32F30x_standard_peripheral/Source/gd32f30x_dac.c ****             DAC1_R12DH = data;
 202:Drivers/GD32F30x_standard_peripheral/Source/gd32f30x_dac.c ****             break;
 203:Drivers/GD32F30x_standard_peripheral/Source/gd32f30x_dac.c ****         /* data left 12 bit alignment */
 204:Drivers/GD32F30x_standard_peripheral/Source/gd32f30x_dac.c ****         case DAC_ALIGN_12B_L:
 205:Drivers/GD32F30x_standard_peripheral/Source/gd32f30x_dac.c ****             DAC1_L12DH = data;
 206:Drivers/GD32F30x_standard_peripheral/Source/gd32f30x_dac.c ****             break;
 207:Drivers/GD32F30x_standard_peripheral/Source/gd32f30x_dac.c ****         /* data right 8 bit alignment */
 208:Drivers/GD32F30x_standard_peripheral/Source/gd32f30x_dac.c ****         case DAC_ALIGN_8B_R:
 209:Drivers/GD32F30x_standard_peripheral/Source/gd32f30x_dac.c ****             DAC1_R8DH = data;
ARM GAS  C:\Users\Prog\AppData\Local\Temp\ccmlzHib.s 			page 11


 210:Drivers/GD32F30x_standard_peripheral/Source/gd32f30x_dac.c ****             break;
 211:Drivers/GD32F30x_standard_peripheral/Source/gd32f30x_dac.c ****         default:
 212:Drivers/GD32F30x_standard_peripheral/Source/gd32f30x_dac.c ****             break;
 213:Drivers/GD32F30x_standard_peripheral/Source/gd32f30x_dac.c ****         }
 214:Drivers/GD32F30x_standard_peripheral/Source/gd32f30x_dac.c ****     }
 215:Drivers/GD32F30x_standard_peripheral/Source/gd32f30x_dac.c **** }
 379              		.loc 1 215 1 is_stmt 0 view .LVU69
 380 000c 7047     		bx	lr
 381              	.L45:
 184:Drivers/GD32F30x_standard_peripheral/Source/gd32f30x_dac.c ****             break;
 382              		.loc 1 184 13 is_stmt 1 view .LVU70
 184:Drivers/GD32F30x_standard_peripheral/Source/gd32f30x_dac.c ****             break;
 383              		.loc 1 184 24 is_stmt 0 view .LVU71
 384 000e 0F4B     		ldr	r3, .L46
 385 0010 C3F80824 		str	r2, [r3, #1032]
 185:Drivers/GD32F30x_standard_peripheral/Source/gd32f30x_dac.c ****         /* data left 12 bit alignment */
 386              		.loc 1 185 13 is_stmt 1 view .LVU72
 387 0014 7047     		bx	lr
 388              	.L40:
 188:Drivers/GD32F30x_standard_peripheral/Source/gd32f30x_dac.c ****             break;
 389              		.loc 1 188 13 view .LVU73
 188:Drivers/GD32F30x_standard_peripheral/Source/gd32f30x_dac.c ****             break;
 390              		.loc 1 188 24 is_stmt 0 view .LVU74
 391 0016 0D4B     		ldr	r3, .L46
 392 0018 C3F80C24 		str	r2, [r3, #1036]
 189:Drivers/GD32F30x_standard_peripheral/Source/gd32f30x_dac.c ****         /* data right 8 bit alignment */
 393              		.loc 1 189 13 is_stmt 1 view .LVU75
 394 001c 7047     		bx	lr
 395              	.L41:
 192:Drivers/GD32F30x_standard_peripheral/Source/gd32f30x_dac.c ****             break;
 396              		.loc 1 192 13 view .LVU76
 192:Drivers/GD32F30x_standard_peripheral/Source/gd32f30x_dac.c ****             break;
 397              		.loc 1 192 23 is_stmt 0 view .LVU77
 398 001e 0B4B     		ldr	r3, .L46
 399 0020 C3F81024 		str	r2, [r3, #1040]
 193:Drivers/GD32F30x_standard_peripheral/Source/gd32f30x_dac.c ****         default:
 400              		.loc 1 193 13 is_stmt 1 view .LVU78
 401 0024 7047     		bx	lr
 402              	.L39:
 198:Drivers/GD32F30x_standard_peripheral/Source/gd32f30x_dac.c ****         /* data right 12 bit alignment */
 403              		.loc 1 198 9 view .LVU79
 404 0026 0129     		cmp	r1, #1
 405 0028 07D0     		beq	.L43
 406 002a 0229     		cmp	r1, #2
 407 002c 09D0     		beq	.L44
 408 002e 0029     		cmp	r1, #0
 409 0030 ECD1     		bne	.L38
 201:Drivers/GD32F30x_standard_peripheral/Source/gd32f30x_dac.c ****             break;
 410              		.loc 1 201 13 view .LVU80
 201:Drivers/GD32F30x_standard_peripheral/Source/gd32f30x_dac.c ****             break;
 411              		.loc 1 201 24 is_stmt 0 view .LVU81
 412 0032 064B     		ldr	r3, .L46
 413 0034 C3F81424 		str	r2, [r3, #1044]
 202:Drivers/GD32F30x_standard_peripheral/Source/gd32f30x_dac.c ****         /* data left 12 bit alignment */
 414              		.loc 1 202 13 is_stmt 1 view .LVU82
 415 0038 7047     		bx	lr
 416              	.L43:
ARM GAS  C:\Users\Prog\AppData\Local\Temp\ccmlzHib.s 			page 12


 205:Drivers/GD32F30x_standard_peripheral/Source/gd32f30x_dac.c ****             break;
 417              		.loc 1 205 13 view .LVU83
 205:Drivers/GD32F30x_standard_peripheral/Source/gd32f30x_dac.c ****             break;
 418              		.loc 1 205 24 is_stmt 0 view .LVU84
 419 003a 044B     		ldr	r3, .L46
 420 003c C3F81824 		str	r2, [r3, #1048]
 206:Drivers/GD32F30x_standard_peripheral/Source/gd32f30x_dac.c ****         /* data right 8 bit alignment */
 421              		.loc 1 206 13 is_stmt 1 view .LVU85
 422 0040 7047     		bx	lr
 423              	.L44:
 209:Drivers/GD32F30x_standard_peripheral/Source/gd32f30x_dac.c ****             break;
 424              		.loc 1 209 13 view .LVU86
 209:Drivers/GD32F30x_standard_peripheral/Source/gd32f30x_dac.c ****             break;
 425              		.loc 1 209 23 is_stmt 0 view .LVU87
 426 0042 024B     		ldr	r3, .L46
 427 0044 C3F81C24 		str	r2, [r3, #1052]
 210:Drivers/GD32F30x_standard_peripheral/Source/gd32f30x_dac.c ****         default:
 428              		.loc 1 210 13 is_stmt 1 view .LVU88
 429              		.loc 1 215 1 is_stmt 0 view .LVU89
 430 0048 E0E7     		b	.L38
 431              	.L47:
 432 004a 00BF     		.align	2
 433              	.L46:
 434 004c 00700040 		.word	1073770496
 435              		.cfi_endproc
 436              	.LFE124:
 438              		.section	.text.dac_trigger_enable,"ax",%progbits
 439              		.align	1
 440              		.global	dac_trigger_enable
 441              		.syntax unified
 442              		.thumb
 443              		.thumb_func
 444              		.fpu fpv4-sp-d16
 446              	dac_trigger_enable:
 447              	.LVL15:
 448              	.LFB125:
 216:Drivers/GD32F30x_standard_peripheral/Source/gd32f30x_dac.c **** 
 217:Drivers/GD32F30x_standard_peripheral/Source/gd32f30x_dac.c **** /*!
 218:Drivers/GD32F30x_standard_peripheral/Source/gd32f30x_dac.c ****     \brief      enable DAC trigger
 219:Drivers/GD32F30x_standard_peripheral/Source/gd32f30x_dac.c ****     \param[in]  dac_periph: DACx(x = 0,1)
 220:Drivers/GD32F30x_standard_peripheral/Source/gd32f30x_dac.c ****     \param[out] none
 221:Drivers/GD32F30x_standard_peripheral/Source/gd32f30x_dac.c ****     \retval     none
 222:Drivers/GD32F30x_standard_peripheral/Source/gd32f30x_dac.c **** */
 223:Drivers/GD32F30x_standard_peripheral/Source/gd32f30x_dac.c **** void dac_trigger_enable(uint32_t dac_periph)
 224:Drivers/GD32F30x_standard_peripheral/Source/gd32f30x_dac.c **** {
 449              		.loc 1 224 1 is_stmt 1 view -0
 450              		.cfi_startproc
 451              		@ args = 0, pretend = 0, frame = 0
 452              		@ frame_needed = 0, uses_anonymous_args = 0
 453              		@ link register save eliminated.
 225:Drivers/GD32F30x_standard_peripheral/Source/gd32f30x_dac.c ****     if(DAC0 == dac_periph){
 454              		.loc 1 225 5 view .LVU91
 455              		.loc 1 225 7 is_stmt 0 view .LVU92
 456 0000 38B9     		cbnz	r0, .L49
 226:Drivers/GD32F30x_standard_peripheral/Source/gd32f30x_dac.c ****         DAC_CTL |= DAC_CTL_DTEN0;
 457              		.loc 1 226 9 is_stmt 1 view .LVU93
 458              		.loc 1 226 17 is_stmt 0 view .LVU94
ARM GAS  C:\Users\Prog\AppData\Local\Temp\ccmlzHib.s 			page 13


 459 0002 084A     		ldr	r2, .L51
 460 0004 D2F80034 		ldr	r3, [r2, #1024]
 461 0008 43F00403 		orr	r3, r3, #4
 462 000c C2F80034 		str	r3, [r2, #1024]
 463 0010 7047     		bx	lr
 464              	.L49:
 227:Drivers/GD32F30x_standard_peripheral/Source/gd32f30x_dac.c ****     }else{
 228:Drivers/GD32F30x_standard_peripheral/Source/gd32f30x_dac.c ****         DAC_CTL |= DAC_CTL_DTEN1;
 465              		.loc 1 228 9 is_stmt 1 view .LVU95
 466              		.loc 1 228 17 is_stmt 0 view .LVU96
 467 0012 044A     		ldr	r2, .L51
 468 0014 D2F80034 		ldr	r3, [r2, #1024]
 469 0018 43F48023 		orr	r3, r3, #262144
 470 001c C2F80034 		str	r3, [r2, #1024]
 229:Drivers/GD32F30x_standard_peripheral/Source/gd32f30x_dac.c ****     }
 230:Drivers/GD32F30x_standard_peripheral/Source/gd32f30x_dac.c **** }
 471              		.loc 1 230 1 view .LVU97
 472 0020 7047     		bx	lr
 473              	.L52:
 474 0022 00BF     		.align	2
 475              	.L51:
 476 0024 00700040 		.word	1073770496
 477              		.cfi_endproc
 478              	.LFE125:
 480              		.section	.text.dac_trigger_disable,"ax",%progbits
 481              		.align	1
 482              		.global	dac_trigger_disable
 483              		.syntax unified
 484              		.thumb
 485              		.thumb_func
 486              		.fpu fpv4-sp-d16
 488              	dac_trigger_disable:
 489              	.LVL16:
 490              	.LFB126:
 231:Drivers/GD32F30x_standard_peripheral/Source/gd32f30x_dac.c **** 
 232:Drivers/GD32F30x_standard_peripheral/Source/gd32f30x_dac.c **** /*!
 233:Drivers/GD32F30x_standard_peripheral/Source/gd32f30x_dac.c ****     \brief      disable DAC trigger
 234:Drivers/GD32F30x_standard_peripheral/Source/gd32f30x_dac.c ****     \param[in]  dac_periph: DACx(x = 0,1)
 235:Drivers/GD32F30x_standard_peripheral/Source/gd32f30x_dac.c ****     \param[out] none
 236:Drivers/GD32F30x_standard_peripheral/Source/gd32f30x_dac.c ****     \retval     none
 237:Drivers/GD32F30x_standard_peripheral/Source/gd32f30x_dac.c **** */
 238:Drivers/GD32F30x_standard_peripheral/Source/gd32f30x_dac.c **** void dac_trigger_disable(uint32_t dac_periph)
 239:Drivers/GD32F30x_standard_peripheral/Source/gd32f30x_dac.c **** {
 491              		.loc 1 239 1 is_stmt 1 view -0
 492              		.cfi_startproc
 493              		@ args = 0, pretend = 0, frame = 0
 494              		@ frame_needed = 0, uses_anonymous_args = 0
 495              		@ link register save eliminated.
 240:Drivers/GD32F30x_standard_peripheral/Source/gd32f30x_dac.c ****     if(DAC0 == dac_periph){
 496              		.loc 1 240 5 view .LVU99
 497              		.loc 1 240 7 is_stmt 0 view .LVU100
 498 0000 38B9     		cbnz	r0, .L54
 241:Drivers/GD32F30x_standard_peripheral/Source/gd32f30x_dac.c ****         DAC_CTL &= ~DAC_CTL_DTEN0;
 499              		.loc 1 241 9 is_stmt 1 view .LVU101
 500              		.loc 1 241 17 is_stmt 0 view .LVU102
 501 0002 084A     		ldr	r2, .L56
 502 0004 D2F80034 		ldr	r3, [r2, #1024]
ARM GAS  C:\Users\Prog\AppData\Local\Temp\ccmlzHib.s 			page 14


 503 0008 23F00403 		bic	r3, r3, #4
 504 000c C2F80034 		str	r3, [r2, #1024]
 505 0010 7047     		bx	lr
 506              	.L54:
 242:Drivers/GD32F30x_standard_peripheral/Source/gd32f30x_dac.c ****     }else{
 243:Drivers/GD32F30x_standard_peripheral/Source/gd32f30x_dac.c ****         DAC_CTL &= ~DAC_CTL_DTEN1;
 507              		.loc 1 243 9 is_stmt 1 view .LVU103
 508              		.loc 1 243 17 is_stmt 0 view .LVU104
 509 0012 044A     		ldr	r2, .L56
 510 0014 D2F80034 		ldr	r3, [r2, #1024]
 511 0018 23F48023 		bic	r3, r3, #262144
 512 001c C2F80034 		str	r3, [r2, #1024]
 244:Drivers/GD32F30x_standard_peripheral/Source/gd32f30x_dac.c ****     }
 245:Drivers/GD32F30x_standard_peripheral/Source/gd32f30x_dac.c **** }
 513              		.loc 1 245 1 view .LVU105
 514 0020 7047     		bx	lr
 515              	.L57:
 516 0022 00BF     		.align	2
 517              	.L56:
 518 0024 00700040 		.word	1073770496
 519              		.cfi_endproc
 520              	.LFE126:
 522              		.section	.text.dac_trigger_source_config,"ax",%progbits
 523              		.align	1
 524              		.global	dac_trigger_source_config
 525              		.syntax unified
 526              		.thumb
 527              		.thumb_func
 528              		.fpu fpv4-sp-d16
 530              	dac_trigger_source_config:
 531              	.LVL17:
 532              	.LFB127:
 246:Drivers/GD32F30x_standard_peripheral/Source/gd32f30x_dac.c **** 
 247:Drivers/GD32F30x_standard_peripheral/Source/gd32f30x_dac.c **** /*!
 248:Drivers/GD32F30x_standard_peripheral/Source/gd32f30x_dac.c ****     \brief      set DAC trigger source
 249:Drivers/GD32F30x_standard_peripheral/Source/gd32f30x_dac.c ****     \param[in]  dac_periph: DACx(x = 0,1)
 250:Drivers/GD32F30x_standard_peripheral/Source/gd32f30x_dac.c ****     \param[in]  triggersource: external triggers of DAC
 251:Drivers/GD32F30x_standard_peripheral/Source/gd32f30x_dac.c ****                 only one parameter can be selected which is shown as below:
 252:Drivers/GD32F30x_standard_peripheral/Source/gd32f30x_dac.c ****       \arg        DAC_TRIGGER_T1_TRGO: TIMER1 TRGO
 253:Drivers/GD32F30x_standard_peripheral/Source/gd32f30x_dac.c ****       \arg        DAC_TRIGGER_T2_TRGO: TIMER2 TRGO (for GD32F30X_CL)
 254:Drivers/GD32F30x_standard_peripheral/Source/gd32f30x_dac.c ****       \arg        DAC_TRIGGER_T3_TRGO: TIMER3 TRGO
 255:Drivers/GD32F30x_standard_peripheral/Source/gd32f30x_dac.c ****       \arg        DAC_TRIGGER_T4_TRGO: TIMER4 TRGO
 256:Drivers/GD32F30x_standard_peripheral/Source/gd32f30x_dac.c ****       \arg        DAC_TRIGGER_T5_TRGO: TIMER5 TRGO
 257:Drivers/GD32F30x_standard_peripheral/Source/gd32f30x_dac.c ****       \arg        DAC_TRIGGER_T6_TRGO: TIMER6 TRGO
 258:Drivers/GD32F30x_standard_peripheral/Source/gd32f30x_dac.c ****       \arg        DAC_TRIGGER_T7_TRGO: TIMER7 TRGO (for GD32F30X_HD and GD32F30X_XD)
 259:Drivers/GD32F30x_standard_peripheral/Source/gd32f30x_dac.c ****       \arg        DAC_TRIGGER_EXTI_9: EXTI interrupt line9 event
 260:Drivers/GD32F30x_standard_peripheral/Source/gd32f30x_dac.c ****       \arg        DAC_TRIGGER_SOFTWARE: software trigger
 261:Drivers/GD32F30x_standard_peripheral/Source/gd32f30x_dac.c ****     \param[out] none
 262:Drivers/GD32F30x_standard_peripheral/Source/gd32f30x_dac.c ****     \retval     none
 263:Drivers/GD32F30x_standard_peripheral/Source/gd32f30x_dac.c **** */
 264:Drivers/GD32F30x_standard_peripheral/Source/gd32f30x_dac.c **** void dac_trigger_source_config(uint32_t dac_periph,uint32_t triggersource)
 265:Drivers/GD32F30x_standard_peripheral/Source/gd32f30x_dac.c **** {
 533              		.loc 1 265 1 is_stmt 1 view -0
 534              		.cfi_startproc
 535              		@ args = 0, pretend = 0, frame = 0
 536              		@ frame_needed = 0, uses_anonymous_args = 0
 537              		@ link register save eliminated.
ARM GAS  C:\Users\Prog\AppData\Local\Temp\ccmlzHib.s 			page 15


 266:Drivers/GD32F30x_standard_peripheral/Source/gd32f30x_dac.c ****     if(DAC0 == dac_periph){
 538              		.loc 1 266 5 view .LVU107
 539              		.loc 1 266 7 is_stmt 0 view .LVU108
 540 0000 60B9     		cbnz	r0, .L59
 267:Drivers/GD32F30x_standard_peripheral/Source/gd32f30x_dac.c ****         /* configure DAC0 trigger source */
 268:Drivers/GD32F30x_standard_peripheral/Source/gd32f30x_dac.c ****         DAC_CTL &= ~DAC_CTL_DTSEL0;
 541              		.loc 1 268 9 is_stmt 1 view .LVU109
 542              		.loc 1 268 17 is_stmt 0 view .LVU110
 543 0002 0D4B     		ldr	r3, .L61
 544 0004 D3F80024 		ldr	r2, [r3, #1024]
 545 0008 22F03802 		bic	r2, r2, #56
 546 000c C3F80024 		str	r2, [r3, #1024]
 269:Drivers/GD32F30x_standard_peripheral/Source/gd32f30x_dac.c ****         DAC_CTL |= triggersource;
 547              		.loc 1 269 9 is_stmt 1 view .LVU111
 548              		.loc 1 269 17 is_stmt 0 view .LVU112
 549 0010 D3F80024 		ldr	r2, [r3, #1024]
 550 0014 1143     		orrs	r1, r1, r2
 551              	.LVL18:
 552              		.loc 1 269 17 view .LVU113
 553 0016 C3F80014 		str	r1, [r3, #1024]
 554 001a 7047     		bx	lr
 555              	.LVL19:
 556              	.L59:
 270:Drivers/GD32F30x_standard_peripheral/Source/gd32f30x_dac.c ****     }else{
 271:Drivers/GD32F30x_standard_peripheral/Source/gd32f30x_dac.c ****         /* configure DAC1 trigger source */
 272:Drivers/GD32F30x_standard_peripheral/Source/gd32f30x_dac.c ****         DAC_CTL &= ~DAC_CTL_DTSEL1;
 557              		.loc 1 272 9 is_stmt 1 view .LVU114
 558              		.loc 1 272 17 is_stmt 0 view .LVU115
 559 001c 064B     		ldr	r3, .L61
 560 001e D3F80024 		ldr	r2, [r3, #1024]
 561 0022 22F46012 		bic	r2, r2, #3670016
 562 0026 C3F80024 		str	r2, [r3, #1024]
 273:Drivers/GD32F30x_standard_peripheral/Source/gd32f30x_dac.c ****         DAC_CTL |= (triggersource << DAC1_REG_OFFSET);
 563              		.loc 1 273 9 is_stmt 1 view .LVU116
 564              		.loc 1 273 17 is_stmt 0 view .LVU117
 565 002a D3F80024 		ldr	r2, [r3, #1024]
 566 002e 42EA0141 		orr	r1, r2, r1, lsl #16
 567              	.LVL20:
 568              		.loc 1 273 17 view .LVU118
 569 0032 C3F80014 		str	r1, [r3, #1024]
 274:Drivers/GD32F30x_standard_peripheral/Source/gd32f30x_dac.c ****     }
 275:Drivers/GD32F30x_standard_peripheral/Source/gd32f30x_dac.c **** }
 570              		.loc 1 275 1 view .LVU119
 571 0036 7047     		bx	lr
 572              	.L62:
 573              		.align	2
 574              	.L61:
 575 0038 00700040 		.word	1073770496
 576              		.cfi_endproc
 577              	.LFE127:
 579              		.section	.text.dac_software_trigger_enable,"ax",%progbits
 580              		.align	1
 581              		.global	dac_software_trigger_enable
 582              		.syntax unified
 583              		.thumb
 584              		.thumb_func
 585              		.fpu fpv4-sp-d16
ARM GAS  C:\Users\Prog\AppData\Local\Temp\ccmlzHib.s 			page 16


 587              	dac_software_trigger_enable:
 588              	.LVL21:
 589              	.LFB128:
 276:Drivers/GD32F30x_standard_peripheral/Source/gd32f30x_dac.c **** 
 277:Drivers/GD32F30x_standard_peripheral/Source/gd32f30x_dac.c **** /*!
 278:Drivers/GD32F30x_standard_peripheral/Source/gd32f30x_dac.c ****     \brief      enable DAC software trigger
 279:Drivers/GD32F30x_standard_peripheral/Source/gd32f30x_dac.c ****     \param[in]  dac_periph: DACx(x = 0,1)
 280:Drivers/GD32F30x_standard_peripheral/Source/gd32f30x_dac.c ****     \retval     none
 281:Drivers/GD32F30x_standard_peripheral/Source/gd32f30x_dac.c **** */
 282:Drivers/GD32F30x_standard_peripheral/Source/gd32f30x_dac.c **** void dac_software_trigger_enable(uint32_t dac_periph)
 283:Drivers/GD32F30x_standard_peripheral/Source/gd32f30x_dac.c **** {
 590              		.loc 1 283 1 is_stmt 1 view -0
 591              		.cfi_startproc
 592              		@ args = 0, pretend = 0, frame = 0
 593              		@ frame_needed = 0, uses_anonymous_args = 0
 594              		@ link register save eliminated.
 284:Drivers/GD32F30x_standard_peripheral/Source/gd32f30x_dac.c ****     if(DAC0 == dac_periph){
 595              		.loc 1 284 5 view .LVU121
 596              		.loc 1 284 7 is_stmt 0 view .LVU122
 597 0000 38B9     		cbnz	r0, .L64
 285:Drivers/GD32F30x_standard_peripheral/Source/gd32f30x_dac.c ****         DAC_SWT |= DAC_SWT_SWTR0;
 598              		.loc 1 285 9 is_stmt 1 view .LVU123
 599              		.loc 1 285 17 is_stmt 0 view .LVU124
 600 0002 084A     		ldr	r2, .L66
 601 0004 D2F80434 		ldr	r3, [r2, #1028]
 602 0008 43F00103 		orr	r3, r3, #1
 603 000c C2F80434 		str	r3, [r2, #1028]
 604 0010 7047     		bx	lr
 605              	.L64:
 286:Drivers/GD32F30x_standard_peripheral/Source/gd32f30x_dac.c ****     }else{
 287:Drivers/GD32F30x_standard_peripheral/Source/gd32f30x_dac.c ****         DAC_SWT |= DAC_SWT_SWTR1;
 606              		.loc 1 287 9 is_stmt 1 view .LVU125
 607              		.loc 1 287 17 is_stmt 0 view .LVU126
 608 0012 044A     		ldr	r2, .L66
 609 0014 D2F80434 		ldr	r3, [r2, #1028]
 610 0018 43F00203 		orr	r3, r3, #2
 611 001c C2F80434 		str	r3, [r2, #1028]
 288:Drivers/GD32F30x_standard_peripheral/Source/gd32f30x_dac.c ****     }
 289:Drivers/GD32F30x_standard_peripheral/Source/gd32f30x_dac.c **** }
 612              		.loc 1 289 1 view .LVU127
 613 0020 7047     		bx	lr
 614              	.L67:
 615 0022 00BF     		.align	2
 616              	.L66:
 617 0024 00700040 		.word	1073770496
 618              		.cfi_endproc
 619              	.LFE128:
 621              		.section	.text.dac_software_trigger_disable,"ax",%progbits
 622              		.align	1
 623              		.global	dac_software_trigger_disable
 624              		.syntax unified
 625              		.thumb
 626              		.thumb_func
 627              		.fpu fpv4-sp-d16
 629              	dac_software_trigger_disable:
 630              	.LVL22:
 631              	.LFB129:
ARM GAS  C:\Users\Prog\AppData\Local\Temp\ccmlzHib.s 			page 17


 290:Drivers/GD32F30x_standard_peripheral/Source/gd32f30x_dac.c **** 
 291:Drivers/GD32F30x_standard_peripheral/Source/gd32f30x_dac.c **** /*!
 292:Drivers/GD32F30x_standard_peripheral/Source/gd32f30x_dac.c ****     \brief      disable DAC software trigger
 293:Drivers/GD32F30x_standard_peripheral/Source/gd32f30x_dac.c ****     \param[in]  dac_periph: DACx(x = 0,1)
 294:Drivers/GD32F30x_standard_peripheral/Source/gd32f30x_dac.c ****     \param[out] none
 295:Drivers/GD32F30x_standard_peripheral/Source/gd32f30x_dac.c ****     \retval     none
 296:Drivers/GD32F30x_standard_peripheral/Source/gd32f30x_dac.c **** */
 297:Drivers/GD32F30x_standard_peripheral/Source/gd32f30x_dac.c **** void dac_software_trigger_disable(uint32_t dac_periph)
 298:Drivers/GD32F30x_standard_peripheral/Source/gd32f30x_dac.c **** {
 632              		.loc 1 298 1 is_stmt 1 view -0
 633              		.cfi_startproc
 634              		@ args = 0, pretend = 0, frame = 0
 635              		@ frame_needed = 0, uses_anonymous_args = 0
 636              		@ link register save eliminated.
 299:Drivers/GD32F30x_standard_peripheral/Source/gd32f30x_dac.c ****     if(DAC0 == dac_periph){
 637              		.loc 1 299 5 view .LVU129
 638              		.loc 1 299 7 is_stmt 0 view .LVU130
 639 0000 38B9     		cbnz	r0, .L69
 300:Drivers/GD32F30x_standard_peripheral/Source/gd32f30x_dac.c ****         DAC_SWT &= ~DAC_SWT_SWTR0;
 640              		.loc 1 300 9 is_stmt 1 view .LVU131
 641              		.loc 1 300 17 is_stmt 0 view .LVU132
 642 0002 084A     		ldr	r2, .L71
 643 0004 D2F80434 		ldr	r3, [r2, #1028]
 644 0008 23F00103 		bic	r3, r3, #1
 645 000c C2F80434 		str	r3, [r2, #1028]
 646 0010 7047     		bx	lr
 647              	.L69:
 301:Drivers/GD32F30x_standard_peripheral/Source/gd32f30x_dac.c ****     }else{
 302:Drivers/GD32F30x_standard_peripheral/Source/gd32f30x_dac.c ****         DAC_SWT &= ~DAC_SWT_SWTR1;
 648              		.loc 1 302 9 is_stmt 1 view .LVU133
 649              		.loc 1 302 17 is_stmt 0 view .LVU134
 650 0012 044A     		ldr	r2, .L71
 651 0014 D2F80434 		ldr	r3, [r2, #1028]
 652 0018 23F00203 		bic	r3, r3, #2
 653 001c C2F80434 		str	r3, [r2, #1028]
 303:Drivers/GD32F30x_standard_peripheral/Source/gd32f30x_dac.c ****     }
 304:Drivers/GD32F30x_standard_peripheral/Source/gd32f30x_dac.c **** }
 654              		.loc 1 304 1 view .LVU135
 655 0020 7047     		bx	lr
 656              	.L72:
 657 0022 00BF     		.align	2
 658              	.L71:
 659 0024 00700040 		.word	1073770496
 660              		.cfi_endproc
 661              	.LFE129:
 663              		.section	.text.dac_wave_mode_config,"ax",%progbits
 664              		.align	1
 665              		.global	dac_wave_mode_config
 666              		.syntax unified
 667              		.thumb
 668              		.thumb_func
 669              		.fpu fpv4-sp-d16
 671              	dac_wave_mode_config:
 672              	.LVL23:
 673              	.LFB130:
 305:Drivers/GD32F30x_standard_peripheral/Source/gd32f30x_dac.c **** 
 306:Drivers/GD32F30x_standard_peripheral/Source/gd32f30x_dac.c **** /*!
ARM GAS  C:\Users\Prog\AppData\Local\Temp\ccmlzHib.s 			page 18


 307:Drivers/GD32F30x_standard_peripheral/Source/gd32f30x_dac.c ****     \brief      configure DAC wave mode
 308:Drivers/GD32F30x_standard_peripheral/Source/gd32f30x_dac.c ****     \param[in]  dac_periph: DACx(x = 0,1)
 309:Drivers/GD32F30x_standard_peripheral/Source/gd32f30x_dac.c ****     \param[in]  wave_mode: noise wave mode
 310:Drivers/GD32F30x_standard_peripheral/Source/gd32f30x_dac.c ****                 only one parameter can be selected which is shown as below:
 311:Drivers/GD32F30x_standard_peripheral/Source/gd32f30x_dac.c ****       \arg        DAC_WAVE_DISABLE: wave disable
 312:Drivers/GD32F30x_standard_peripheral/Source/gd32f30x_dac.c ****       \arg        DAC_WAVE_MODE_LFSR: LFSR noise mode
 313:Drivers/GD32F30x_standard_peripheral/Source/gd32f30x_dac.c ****       \arg        DAC_WAVE_MODE_TRIANGLE: triangle noise mode
 314:Drivers/GD32F30x_standard_peripheral/Source/gd32f30x_dac.c ****     \param[out] none
 315:Drivers/GD32F30x_standard_peripheral/Source/gd32f30x_dac.c ****     \retval     none
 316:Drivers/GD32F30x_standard_peripheral/Source/gd32f30x_dac.c **** */
 317:Drivers/GD32F30x_standard_peripheral/Source/gd32f30x_dac.c **** void dac_wave_mode_config(uint32_t dac_periph, uint32_t wave_mode)
 318:Drivers/GD32F30x_standard_peripheral/Source/gd32f30x_dac.c **** {
 674              		.loc 1 318 1 is_stmt 1 view -0
 675              		.cfi_startproc
 676              		@ args = 0, pretend = 0, frame = 0
 677              		@ frame_needed = 0, uses_anonymous_args = 0
 678              		@ link register save eliminated.
 319:Drivers/GD32F30x_standard_peripheral/Source/gd32f30x_dac.c ****     if(DAC0 == dac_periph){
 679              		.loc 1 319 5 view .LVU137
 680              		.loc 1 319 7 is_stmt 0 view .LVU138
 681 0000 60B9     		cbnz	r0, .L74
 320:Drivers/GD32F30x_standard_peripheral/Source/gd32f30x_dac.c ****         /* configure DAC0 wave mode */
 321:Drivers/GD32F30x_standard_peripheral/Source/gd32f30x_dac.c ****         DAC_CTL &= ~DAC_CTL_DWM0;
 682              		.loc 1 321 9 is_stmt 1 view .LVU139
 683              		.loc 1 321 17 is_stmt 0 view .LVU140
 684 0002 0D4B     		ldr	r3, .L76
 685 0004 D3F80024 		ldr	r2, [r3, #1024]
 686 0008 22F0C002 		bic	r2, r2, #192
 687 000c C3F80024 		str	r2, [r3, #1024]
 322:Drivers/GD32F30x_standard_peripheral/Source/gd32f30x_dac.c ****         DAC_CTL |= wave_mode;
 688              		.loc 1 322 9 is_stmt 1 view .LVU141
 689              		.loc 1 322 17 is_stmt 0 view .LVU142
 690 0010 D3F80024 		ldr	r2, [r3, #1024]
 691 0014 1143     		orrs	r1, r1, r2
 692              	.LVL24:
 693              		.loc 1 322 17 view .LVU143
 694 0016 C3F80014 		str	r1, [r3, #1024]
 695 001a 7047     		bx	lr
 696              	.LVL25:
 697              	.L74:
 323:Drivers/GD32F30x_standard_peripheral/Source/gd32f30x_dac.c ****     }else{
 324:Drivers/GD32F30x_standard_peripheral/Source/gd32f30x_dac.c ****         /* configure DAC1 wave mode */
 325:Drivers/GD32F30x_standard_peripheral/Source/gd32f30x_dac.c ****         DAC_CTL &= ~DAC_CTL_DWM1;
 698              		.loc 1 325 9 is_stmt 1 view .LVU144
 699              		.loc 1 325 17 is_stmt 0 view .LVU145
 700 001c 064B     		ldr	r3, .L76
 701 001e D3F80024 		ldr	r2, [r3, #1024]
 702 0022 22F44002 		bic	r2, r2, #12582912
 703 0026 C3F80024 		str	r2, [r3, #1024]
 326:Drivers/GD32F30x_standard_peripheral/Source/gd32f30x_dac.c ****         DAC_CTL |= (wave_mode << DAC1_REG_OFFSET);
 704              		.loc 1 326 9 is_stmt 1 view .LVU146
 705              		.loc 1 326 17 is_stmt 0 view .LVU147
 706 002a D3F80024 		ldr	r2, [r3, #1024]
 707 002e 42EA0141 		orr	r1, r2, r1, lsl #16
 708              	.LVL26:
 709              		.loc 1 326 17 view .LVU148
 710 0032 C3F80014 		str	r1, [r3, #1024]
ARM GAS  C:\Users\Prog\AppData\Local\Temp\ccmlzHib.s 			page 19


 327:Drivers/GD32F30x_standard_peripheral/Source/gd32f30x_dac.c ****     }
 328:Drivers/GD32F30x_standard_peripheral/Source/gd32f30x_dac.c **** }
 711              		.loc 1 328 1 view .LVU149
 712 0036 7047     		bx	lr
 713              	.L77:
 714              		.align	2
 715              	.L76:
 716 0038 00700040 		.word	1073770496
 717              		.cfi_endproc
 718              	.LFE130:
 720              		.section	.text.dac_wave_bit_width_config,"ax",%progbits
 721              		.align	1
 722              		.global	dac_wave_bit_width_config
 723              		.syntax unified
 724              		.thumb
 725              		.thumb_func
 726              		.fpu fpv4-sp-d16
 728              	dac_wave_bit_width_config:
 729              	.LVL27:
 730              	.LFB131:
 329:Drivers/GD32F30x_standard_peripheral/Source/gd32f30x_dac.c **** 
 330:Drivers/GD32F30x_standard_peripheral/Source/gd32f30x_dac.c **** /*!
 331:Drivers/GD32F30x_standard_peripheral/Source/gd32f30x_dac.c ****     \brief      configure DAC wave bit width
 332:Drivers/GD32F30x_standard_peripheral/Source/gd32f30x_dac.c ****     \param[in]  dac_periph: DACx(x = 0,1)
 333:Drivers/GD32F30x_standard_peripheral/Source/gd32f30x_dac.c ****     \param[in]  bit_width: noise wave bit width
 334:Drivers/GD32F30x_standard_peripheral/Source/gd32f30x_dac.c ****                 only one parameter can be selected which is shown as below:
 335:Drivers/GD32F30x_standard_peripheral/Source/gd32f30x_dac.c ****       \arg        DAC_WAVE_BIT_WIDTH_1: bit width of the wave signal is 1
 336:Drivers/GD32F30x_standard_peripheral/Source/gd32f30x_dac.c ****       \arg        DAC_WAVE_BIT_WIDTH_2: bit width of the wave signal is 2
 337:Drivers/GD32F30x_standard_peripheral/Source/gd32f30x_dac.c ****       \arg        DAC_WAVE_BIT_WIDTH_3: bit width of the wave signal is 3
 338:Drivers/GD32F30x_standard_peripheral/Source/gd32f30x_dac.c ****       \arg        DAC_WAVE_BIT_WIDTH_4: bit width of the wave signal is 4
 339:Drivers/GD32F30x_standard_peripheral/Source/gd32f30x_dac.c ****       \arg        DAC_WAVE_BIT_WIDTH_5: bit width of the wave signal is 5
 340:Drivers/GD32F30x_standard_peripheral/Source/gd32f30x_dac.c ****       \arg        DAC_WAVE_BIT_WIDTH_6: bit width of the wave signal is 6
 341:Drivers/GD32F30x_standard_peripheral/Source/gd32f30x_dac.c ****       \arg        DAC_WAVE_BIT_WIDTH_7: bit width of the wave signal is 7
 342:Drivers/GD32F30x_standard_peripheral/Source/gd32f30x_dac.c ****       \arg        DAC_WAVE_BIT_WIDTH_8: bit width of the wave signal is 8
 343:Drivers/GD32F30x_standard_peripheral/Source/gd32f30x_dac.c ****       \arg        DAC_WAVE_BIT_WIDTH_9: bit width of the wave signal is 9
 344:Drivers/GD32F30x_standard_peripheral/Source/gd32f30x_dac.c ****       \arg        DAC_WAVE_BIT_WIDTH_10: bit width of the wave signal is 10
 345:Drivers/GD32F30x_standard_peripheral/Source/gd32f30x_dac.c ****       \arg        DAC_WAVE_BIT_WIDTH_11: bit width of the wave signal is 11
 346:Drivers/GD32F30x_standard_peripheral/Source/gd32f30x_dac.c ****       \arg        DAC_WAVE_BIT_WIDTH_12: bit width of the wave signal is 12
 347:Drivers/GD32F30x_standard_peripheral/Source/gd32f30x_dac.c ****     \param[out] none
 348:Drivers/GD32F30x_standard_peripheral/Source/gd32f30x_dac.c ****     \retval     none
 349:Drivers/GD32F30x_standard_peripheral/Source/gd32f30x_dac.c **** */
 350:Drivers/GD32F30x_standard_peripheral/Source/gd32f30x_dac.c **** void dac_wave_bit_width_config(uint32_t dac_periph, uint32_t bit_width)
 351:Drivers/GD32F30x_standard_peripheral/Source/gd32f30x_dac.c **** {
 731              		.loc 1 351 1 is_stmt 1 view -0
 732              		.cfi_startproc
 733              		@ args = 0, pretend = 0, frame = 0
 734              		@ frame_needed = 0, uses_anonymous_args = 0
 735              		@ link register save eliminated.
 352:Drivers/GD32F30x_standard_peripheral/Source/gd32f30x_dac.c ****     if(DAC0 == dac_periph){
 736              		.loc 1 352 5 view .LVU151
 737              		.loc 1 352 7 is_stmt 0 view .LVU152
 738 0000 60B9     		cbnz	r0, .L79
 353:Drivers/GD32F30x_standard_peripheral/Source/gd32f30x_dac.c ****         /* configure DAC0 wave bit width */
 354:Drivers/GD32F30x_standard_peripheral/Source/gd32f30x_dac.c ****         DAC_CTL &= ~DAC_CTL_DWBW0;
 739              		.loc 1 354 9 is_stmt 1 view .LVU153
 740              		.loc 1 354 17 is_stmt 0 view .LVU154
 741 0002 0D4B     		ldr	r3, .L81
ARM GAS  C:\Users\Prog\AppData\Local\Temp\ccmlzHib.s 			page 20


 742 0004 D3F80024 		ldr	r2, [r3, #1024]
 743 0008 22F47062 		bic	r2, r2, #3840
 744 000c C3F80024 		str	r2, [r3, #1024]
 355:Drivers/GD32F30x_standard_peripheral/Source/gd32f30x_dac.c ****         DAC_CTL |= bit_width;
 745              		.loc 1 355 9 is_stmt 1 view .LVU155
 746              		.loc 1 355 17 is_stmt 0 view .LVU156
 747 0010 D3F80024 		ldr	r2, [r3, #1024]
 748 0014 1143     		orrs	r1, r1, r2
 749              	.LVL28:
 750              		.loc 1 355 17 view .LVU157
 751 0016 C3F80014 		str	r1, [r3, #1024]
 752 001a 7047     		bx	lr
 753              	.LVL29:
 754              	.L79:
 356:Drivers/GD32F30x_standard_peripheral/Source/gd32f30x_dac.c ****     }else{
 357:Drivers/GD32F30x_standard_peripheral/Source/gd32f30x_dac.c ****         /* configure DAC1 wave bit width */
 358:Drivers/GD32F30x_standard_peripheral/Source/gd32f30x_dac.c ****         DAC_CTL &= ~DAC_CTL_DWBW1;
 755              		.loc 1 358 9 is_stmt 1 view .LVU158
 756              		.loc 1 358 17 is_stmt 0 view .LVU159
 757 001c 064B     		ldr	r3, .L81
 758 001e D3F80024 		ldr	r2, [r3, #1024]
 759 0022 22F07062 		bic	r2, r2, #251658240
 760 0026 C3F80024 		str	r2, [r3, #1024]
 359:Drivers/GD32F30x_standard_peripheral/Source/gd32f30x_dac.c ****         DAC_CTL |= (bit_width << DAC1_REG_OFFSET);
 761              		.loc 1 359 9 is_stmt 1 view .LVU160
 762              		.loc 1 359 17 is_stmt 0 view .LVU161
 763 002a D3F80024 		ldr	r2, [r3, #1024]
 764 002e 42EA0141 		orr	r1, r2, r1, lsl #16
 765              	.LVL30:
 766              		.loc 1 359 17 view .LVU162
 767 0032 C3F80014 		str	r1, [r3, #1024]
 360:Drivers/GD32F30x_standard_peripheral/Source/gd32f30x_dac.c ****     }
 361:Drivers/GD32F30x_standard_peripheral/Source/gd32f30x_dac.c **** }
 768              		.loc 1 361 1 view .LVU163
 769 0036 7047     		bx	lr
 770              	.L82:
 771              		.align	2
 772              	.L81:
 773 0038 00700040 		.word	1073770496
 774              		.cfi_endproc
 775              	.LFE131:
 777              		.section	.text.dac_lfsr_noise_config,"ax",%progbits
 778              		.align	1
 779              		.global	dac_lfsr_noise_config
 780              		.syntax unified
 781              		.thumb
 782              		.thumb_func
 783              		.fpu fpv4-sp-d16
 785              	dac_lfsr_noise_config:
 786              	.LVL31:
 787              	.LFB132:
 362:Drivers/GD32F30x_standard_peripheral/Source/gd32f30x_dac.c **** 
 363:Drivers/GD32F30x_standard_peripheral/Source/gd32f30x_dac.c **** /*!
 364:Drivers/GD32F30x_standard_peripheral/Source/gd32f30x_dac.c ****     \brief      configure DAC LFSR noise mode
 365:Drivers/GD32F30x_standard_peripheral/Source/gd32f30x_dac.c ****     \param[in]  dac_periph: DACx(x = 0,1)
 366:Drivers/GD32F30x_standard_peripheral/Source/gd32f30x_dac.c ****     \param[in]  unmask_bits: unmask LFSR bits in DAC LFSR noise mode
 367:Drivers/GD32F30x_standard_peripheral/Source/gd32f30x_dac.c ****                 only one parameter can be selected which is shown as below:
ARM GAS  C:\Users\Prog\AppData\Local\Temp\ccmlzHib.s 			page 21


 368:Drivers/GD32F30x_standard_peripheral/Source/gd32f30x_dac.c ****       \arg        DAC_LFSR_BIT0: unmask the LFSR bit0
 369:Drivers/GD32F30x_standard_peripheral/Source/gd32f30x_dac.c ****       \arg        DAC_LFSR_BITS1_0: unmask the LFSR bits[1:0]
 370:Drivers/GD32F30x_standard_peripheral/Source/gd32f30x_dac.c ****       \arg        DAC_LFSR_BITS2_0: unmask the LFSR bits[2:0]
 371:Drivers/GD32F30x_standard_peripheral/Source/gd32f30x_dac.c ****       \arg        DAC_LFSR_BITS3_0: unmask the LFSR bits[3:0]
 372:Drivers/GD32F30x_standard_peripheral/Source/gd32f30x_dac.c ****       \arg        DAC_LFSR_BITS4_0: unmask the LFSR bits[4:0]
 373:Drivers/GD32F30x_standard_peripheral/Source/gd32f30x_dac.c ****       \arg        DAC_LFSR_BITS5_0: unmask the LFSR bits[5:0]
 374:Drivers/GD32F30x_standard_peripheral/Source/gd32f30x_dac.c ****       \arg        DAC_LFSR_BITS6_0: unmask the LFSR bits[6:0]
 375:Drivers/GD32F30x_standard_peripheral/Source/gd32f30x_dac.c ****       \arg        DAC_LFSR_BITS7_0: unmask the LFSR bits[7:0]
 376:Drivers/GD32F30x_standard_peripheral/Source/gd32f30x_dac.c ****       \arg        DAC_LFSR_BITS8_0: unmask the LFSR bits[8:0]
 377:Drivers/GD32F30x_standard_peripheral/Source/gd32f30x_dac.c ****       \arg        DAC_LFSR_BITS9_0: unmask the LFSR bits[9:0]
 378:Drivers/GD32F30x_standard_peripheral/Source/gd32f30x_dac.c ****       \arg        DAC_LFSR_BITS10_0: unmask the LFSR bits[10:0]
 379:Drivers/GD32F30x_standard_peripheral/Source/gd32f30x_dac.c ****       \arg        DAC_LFSR_BITS11_0: unmask the LFSR bits[11:0]
 380:Drivers/GD32F30x_standard_peripheral/Source/gd32f30x_dac.c ****     \param[out] none
 381:Drivers/GD32F30x_standard_peripheral/Source/gd32f30x_dac.c ****     \retval     none
 382:Drivers/GD32F30x_standard_peripheral/Source/gd32f30x_dac.c **** */
 383:Drivers/GD32F30x_standard_peripheral/Source/gd32f30x_dac.c **** void dac_lfsr_noise_config(uint32_t dac_periph, uint32_t unmask_bits)
 384:Drivers/GD32F30x_standard_peripheral/Source/gd32f30x_dac.c **** {
 788              		.loc 1 384 1 is_stmt 1 view -0
 789              		.cfi_startproc
 790              		@ args = 0, pretend = 0, frame = 0
 791              		@ frame_needed = 0, uses_anonymous_args = 0
 792              		@ link register save eliminated.
 385:Drivers/GD32F30x_standard_peripheral/Source/gd32f30x_dac.c ****     if(DAC0 == dac_periph){
 793              		.loc 1 385 5 view .LVU165
 794              		.loc 1 385 7 is_stmt 0 view .LVU166
 795 0000 60B9     		cbnz	r0, .L84
 386:Drivers/GD32F30x_standard_peripheral/Source/gd32f30x_dac.c ****         /* configure DAC0 LFSR noise mode */
 387:Drivers/GD32F30x_standard_peripheral/Source/gd32f30x_dac.c ****         DAC_CTL &= ~DAC_CTL_DWBW0;
 796              		.loc 1 387 9 is_stmt 1 view .LVU167
 797              		.loc 1 387 17 is_stmt 0 view .LVU168
 798 0002 0D4B     		ldr	r3, .L86
 799 0004 D3F80024 		ldr	r2, [r3, #1024]
 800 0008 22F47062 		bic	r2, r2, #3840
 801 000c C3F80024 		str	r2, [r3, #1024]
 388:Drivers/GD32F30x_standard_peripheral/Source/gd32f30x_dac.c ****         DAC_CTL |= unmask_bits;
 802              		.loc 1 388 9 is_stmt 1 view .LVU169
 803              		.loc 1 388 17 is_stmt 0 view .LVU170
 804 0010 D3F80024 		ldr	r2, [r3, #1024]
 805 0014 1143     		orrs	r1, r1, r2
 806              	.LVL32:
 807              		.loc 1 388 17 view .LVU171
 808 0016 C3F80014 		str	r1, [r3, #1024]
 809 001a 7047     		bx	lr
 810              	.LVL33:
 811              	.L84:
 389:Drivers/GD32F30x_standard_peripheral/Source/gd32f30x_dac.c ****     }else{
 390:Drivers/GD32F30x_standard_peripheral/Source/gd32f30x_dac.c ****         /* configure DAC1 LFSR noise mode */
 391:Drivers/GD32F30x_standard_peripheral/Source/gd32f30x_dac.c ****         DAC_CTL &= ~DAC_CTL_DWBW1;
 812              		.loc 1 391 9 is_stmt 1 view .LVU172
 813              		.loc 1 391 17 is_stmt 0 view .LVU173
 814 001c 064B     		ldr	r3, .L86
 815 001e D3F80024 		ldr	r2, [r3, #1024]
 816 0022 22F07062 		bic	r2, r2, #251658240
 817 0026 C3F80024 		str	r2, [r3, #1024]
 392:Drivers/GD32F30x_standard_peripheral/Source/gd32f30x_dac.c ****         DAC_CTL |= (unmask_bits << DAC1_REG_OFFSET);
 818              		.loc 1 392 9 is_stmt 1 view .LVU174
 819              		.loc 1 392 17 is_stmt 0 view .LVU175
ARM GAS  C:\Users\Prog\AppData\Local\Temp\ccmlzHib.s 			page 22


 820 002a D3F80024 		ldr	r2, [r3, #1024]
 821 002e 42EA0141 		orr	r1, r2, r1, lsl #16
 822              	.LVL34:
 823              		.loc 1 392 17 view .LVU176
 824 0032 C3F80014 		str	r1, [r3, #1024]
 393:Drivers/GD32F30x_standard_peripheral/Source/gd32f30x_dac.c ****     }
 394:Drivers/GD32F30x_standard_peripheral/Source/gd32f30x_dac.c **** }
 825              		.loc 1 394 1 view .LVU177
 826 0036 7047     		bx	lr
 827              	.L87:
 828              		.align	2
 829              	.L86:
 830 0038 00700040 		.word	1073770496
 831              		.cfi_endproc
 832              	.LFE132:
 834              		.section	.text.dac_triangle_noise_config,"ax",%progbits
 835              		.align	1
 836              		.global	dac_triangle_noise_config
 837              		.syntax unified
 838              		.thumb
 839              		.thumb_func
 840              		.fpu fpv4-sp-d16
 842              	dac_triangle_noise_config:
 843              	.LVL35:
 844              	.LFB133:
 395:Drivers/GD32F30x_standard_peripheral/Source/gd32f30x_dac.c **** 
 396:Drivers/GD32F30x_standard_peripheral/Source/gd32f30x_dac.c **** /*!
 397:Drivers/GD32F30x_standard_peripheral/Source/gd32f30x_dac.c ****     \brief      configure DAC triangle noise mode
 398:Drivers/GD32F30x_standard_peripheral/Source/gd32f30x_dac.c ****     \param[in]  dac_periph: DACx(x = 0,1)
 399:Drivers/GD32F30x_standard_peripheral/Source/gd32f30x_dac.c ****     \param[in]  amplitude: triangle amplitude in DAC triangle noise mode
 400:Drivers/GD32F30x_standard_peripheral/Source/gd32f30x_dac.c ****                 only one parameter can be selected which is shown as below:
 401:Drivers/GD32F30x_standard_peripheral/Source/gd32f30x_dac.c ****       \arg        DAC_TRIANGLE_AMPLITUDE_1: triangle amplitude is 1
 402:Drivers/GD32F30x_standard_peripheral/Source/gd32f30x_dac.c ****       \arg        DAC_TRIANGLE_AMPLITUDE_3: triangle amplitude is 3
 403:Drivers/GD32F30x_standard_peripheral/Source/gd32f30x_dac.c ****       \arg        DAC_TRIANGLE_AMPLITUDE_7: triangle amplitude is 7
 404:Drivers/GD32F30x_standard_peripheral/Source/gd32f30x_dac.c ****       \arg        DAC_TRIANGLE_AMPLITUDE_15: triangle amplitude is 15
 405:Drivers/GD32F30x_standard_peripheral/Source/gd32f30x_dac.c ****       \arg        DAC_TRIANGLE_AMPLITUDE_31: triangle amplitude is 31
 406:Drivers/GD32F30x_standard_peripheral/Source/gd32f30x_dac.c ****       \arg        DAC_TRIANGLE_AMPLITUDE_63: triangle amplitude is 63
 407:Drivers/GD32F30x_standard_peripheral/Source/gd32f30x_dac.c ****       \arg        DAC_TRIANGLE_AMPLITUDE_127: triangle amplitude is 127
 408:Drivers/GD32F30x_standard_peripheral/Source/gd32f30x_dac.c ****       \arg        DAC_TRIANGLE_AMPLITUDE_255: triangle amplitude is 255
 409:Drivers/GD32F30x_standard_peripheral/Source/gd32f30x_dac.c ****       \arg        DAC_TRIANGLE_AMPLITUDE_511: triangle amplitude is 511
 410:Drivers/GD32F30x_standard_peripheral/Source/gd32f30x_dac.c ****       \arg        DAC_TRIANGLE_AMPLITUDE_1023: triangle amplitude is 1023
 411:Drivers/GD32F30x_standard_peripheral/Source/gd32f30x_dac.c ****       \arg        DAC_TRIANGLE_AMPLITUDE_2047: triangle amplitude is 2047
 412:Drivers/GD32F30x_standard_peripheral/Source/gd32f30x_dac.c ****       \arg        DAC_TRIANGLE_AMPLITUDE_4095: triangle amplitude is 4095
 413:Drivers/GD32F30x_standard_peripheral/Source/gd32f30x_dac.c ****     \param[out] none
 414:Drivers/GD32F30x_standard_peripheral/Source/gd32f30x_dac.c ****     \retval     none
 415:Drivers/GD32F30x_standard_peripheral/Source/gd32f30x_dac.c **** */
 416:Drivers/GD32F30x_standard_peripheral/Source/gd32f30x_dac.c **** void dac_triangle_noise_config(uint32_t dac_periph, uint32_t amplitude)
 417:Drivers/GD32F30x_standard_peripheral/Source/gd32f30x_dac.c **** {
 845              		.loc 1 417 1 is_stmt 1 view -0
 846              		.cfi_startproc
 847              		@ args = 0, pretend = 0, frame = 0
 848              		@ frame_needed = 0, uses_anonymous_args = 0
 849              		@ link register save eliminated.
 418:Drivers/GD32F30x_standard_peripheral/Source/gd32f30x_dac.c ****     if(DAC0 == dac_periph){
 850              		.loc 1 418 5 view .LVU179
 851              		.loc 1 418 7 is_stmt 0 view .LVU180
 852 0000 60B9     		cbnz	r0, .L89
ARM GAS  C:\Users\Prog\AppData\Local\Temp\ccmlzHib.s 			page 23


 419:Drivers/GD32F30x_standard_peripheral/Source/gd32f30x_dac.c ****         /* configure DAC0 triangle noise mode */
 420:Drivers/GD32F30x_standard_peripheral/Source/gd32f30x_dac.c ****         DAC_CTL &= ~DAC_CTL_DWBW0;
 853              		.loc 1 420 9 is_stmt 1 view .LVU181
 854              		.loc 1 420 17 is_stmt 0 view .LVU182
 855 0002 0D4B     		ldr	r3, .L91
 856 0004 D3F80024 		ldr	r2, [r3, #1024]
 857 0008 22F47062 		bic	r2, r2, #3840
 858 000c C3F80024 		str	r2, [r3, #1024]
 421:Drivers/GD32F30x_standard_peripheral/Source/gd32f30x_dac.c ****         DAC_CTL |= amplitude;
 859              		.loc 1 421 9 is_stmt 1 view .LVU183
 860              		.loc 1 421 17 is_stmt 0 view .LVU184
 861 0010 D3F80024 		ldr	r2, [r3, #1024]
 862 0014 1143     		orrs	r1, r1, r2
 863              	.LVL36:
 864              		.loc 1 421 17 view .LVU185
 865 0016 C3F80014 		str	r1, [r3, #1024]
 866 001a 7047     		bx	lr
 867              	.LVL37:
 868              	.L89:
 422:Drivers/GD32F30x_standard_peripheral/Source/gd32f30x_dac.c ****     }else{
 423:Drivers/GD32F30x_standard_peripheral/Source/gd32f30x_dac.c ****         /* configure DAC1 triangle noise mode */
 424:Drivers/GD32F30x_standard_peripheral/Source/gd32f30x_dac.c ****         DAC_CTL &= ~DAC_CTL_DWBW1;
 869              		.loc 1 424 9 is_stmt 1 view .LVU186
 870              		.loc 1 424 17 is_stmt 0 view .LVU187
 871 001c 064B     		ldr	r3, .L91
 872 001e D3F80024 		ldr	r2, [r3, #1024]
 873 0022 22F07062 		bic	r2, r2, #251658240
 874 0026 C3F80024 		str	r2, [r3, #1024]
 425:Drivers/GD32F30x_standard_peripheral/Source/gd32f30x_dac.c ****         DAC_CTL |= (amplitude << DAC1_REG_OFFSET);
 875              		.loc 1 425 9 is_stmt 1 view .LVU188
 876              		.loc 1 425 17 is_stmt 0 view .LVU189
 877 002a D3F80024 		ldr	r2, [r3, #1024]
 878 002e 42EA0141 		orr	r1, r2, r1, lsl #16
 879              	.LVL38:
 880              		.loc 1 425 17 view .LVU190
 881 0032 C3F80014 		str	r1, [r3, #1024]
 426:Drivers/GD32F30x_standard_peripheral/Source/gd32f30x_dac.c ****     }
 427:Drivers/GD32F30x_standard_peripheral/Source/gd32f30x_dac.c **** }
 882              		.loc 1 427 1 view .LVU191
 883 0036 7047     		bx	lr
 884              	.L92:
 885              		.align	2
 886              	.L91:
 887 0038 00700040 		.word	1073770496
 888              		.cfi_endproc
 889              	.LFE133:
 891              		.section	.text.dac_concurrent_enable,"ax",%progbits
 892              		.align	1
 893              		.global	dac_concurrent_enable
 894              		.syntax unified
 895              		.thumb
 896              		.thumb_func
 897              		.fpu fpv4-sp-d16
 899              	dac_concurrent_enable:
 900              	.LFB134:
 428:Drivers/GD32F30x_standard_peripheral/Source/gd32f30x_dac.c **** 
 429:Drivers/GD32F30x_standard_peripheral/Source/gd32f30x_dac.c **** /*!
ARM GAS  C:\Users\Prog\AppData\Local\Temp\ccmlzHib.s 			page 24


 430:Drivers/GD32F30x_standard_peripheral/Source/gd32f30x_dac.c ****     \brief      enable DAC concurrent mode
 431:Drivers/GD32F30x_standard_peripheral/Source/gd32f30x_dac.c ****     \param[in]  none
 432:Drivers/GD32F30x_standard_peripheral/Source/gd32f30x_dac.c ****     \param[out] none
 433:Drivers/GD32F30x_standard_peripheral/Source/gd32f30x_dac.c ****     \retval     none
 434:Drivers/GD32F30x_standard_peripheral/Source/gd32f30x_dac.c **** */
 435:Drivers/GD32F30x_standard_peripheral/Source/gd32f30x_dac.c **** void dac_concurrent_enable(void)
 436:Drivers/GD32F30x_standard_peripheral/Source/gd32f30x_dac.c **** {
 901              		.loc 1 436 1 is_stmt 1 view -0
 902              		.cfi_startproc
 903              		@ args = 0, pretend = 0, frame = 0
 904              		@ frame_needed = 0, uses_anonymous_args = 0
 905              		@ link register save eliminated.
 437:Drivers/GD32F30x_standard_peripheral/Source/gd32f30x_dac.c ****     uint32_t ctl = 0U;
 906              		.loc 1 437 5 view .LVU193
 907              	.LVL39:
 438:Drivers/GD32F30x_standard_peripheral/Source/gd32f30x_dac.c ****     ctl = DAC_CTL_DEN0 | DAC_CTL_DEN1;
 908              		.loc 1 438 5 view .LVU194
 439:Drivers/GD32F30x_standard_peripheral/Source/gd32f30x_dac.c ****     DAC_CTL |= (ctl);
 909              		.loc 1 439 5 view .LVU195
 910              		.loc 1 439 13 is_stmt 0 view .LVU196
 911 0000 034A     		ldr	r2, .L94
 912 0002 D2F80034 		ldr	r3, [r2, #1024]
 913 0006 43F00113 		orr	r3, r3, #65537
 914 000a C2F80034 		str	r3, [r2, #1024]
 440:Drivers/GD32F30x_standard_peripheral/Source/gd32f30x_dac.c **** }
 915              		.loc 1 440 1 view .LVU197
 916 000e 7047     		bx	lr
 917              	.L95:
 918              		.align	2
 919              	.L94:
 920 0010 00700040 		.word	1073770496
 921              		.cfi_endproc
 922              	.LFE134:
 924              		.section	.text.dac_concurrent_disable,"ax",%progbits
 925              		.align	1
 926              		.global	dac_concurrent_disable
 927              		.syntax unified
 928              		.thumb
 929              		.thumb_func
 930              		.fpu fpv4-sp-d16
 932              	dac_concurrent_disable:
 933              	.LFB135:
 441:Drivers/GD32F30x_standard_peripheral/Source/gd32f30x_dac.c **** 
 442:Drivers/GD32F30x_standard_peripheral/Source/gd32f30x_dac.c **** /*!
 443:Drivers/GD32F30x_standard_peripheral/Source/gd32f30x_dac.c ****     \brief      disable DAC concurrent mode
 444:Drivers/GD32F30x_standard_peripheral/Source/gd32f30x_dac.c ****     \param[in]  none
 445:Drivers/GD32F30x_standard_peripheral/Source/gd32f30x_dac.c ****     \param[out] none
 446:Drivers/GD32F30x_standard_peripheral/Source/gd32f30x_dac.c ****     \retval     none
 447:Drivers/GD32F30x_standard_peripheral/Source/gd32f30x_dac.c **** */
 448:Drivers/GD32F30x_standard_peripheral/Source/gd32f30x_dac.c **** void dac_concurrent_disable(void)
 449:Drivers/GD32F30x_standard_peripheral/Source/gd32f30x_dac.c **** {
 934              		.loc 1 449 1 is_stmt 1 view -0
 935              		.cfi_startproc
 936              		@ args = 0, pretend = 0, frame = 0
 937              		@ frame_needed = 0, uses_anonymous_args = 0
 938              		@ link register save eliminated.
 450:Drivers/GD32F30x_standard_peripheral/Source/gd32f30x_dac.c ****     uint32_t ctl = 0U;
ARM GAS  C:\Users\Prog\AppData\Local\Temp\ccmlzHib.s 			page 25


 939              		.loc 1 450 5 view .LVU199
 940              	.LVL40:
 451:Drivers/GD32F30x_standard_peripheral/Source/gd32f30x_dac.c ****     ctl = DAC_CTL_DEN0 | DAC_CTL_DEN1;
 941              		.loc 1 451 5 view .LVU200
 452:Drivers/GD32F30x_standard_peripheral/Source/gd32f30x_dac.c ****     DAC_CTL &= (~ctl);
 942              		.loc 1 452 5 view .LVU201
 943              		.loc 1 452 13 is_stmt 0 view .LVU202
 944 0000 034A     		ldr	r2, .L97
 945 0002 D2F80034 		ldr	r3, [r2, #1024]
 946 0006 23F00113 		bic	r3, r3, #65537
 947 000a C2F80034 		str	r3, [r2, #1024]
 453:Drivers/GD32F30x_standard_peripheral/Source/gd32f30x_dac.c **** }
 948              		.loc 1 453 1 view .LVU203
 949 000e 7047     		bx	lr
 950              	.L98:
 951              		.align	2
 952              	.L97:
 953 0010 00700040 		.word	1073770496
 954              		.cfi_endproc
 955              	.LFE135:
 957              		.section	.text.dac_concurrent_software_trigger_enable,"ax",%progbits
 958              		.align	1
 959              		.global	dac_concurrent_software_trigger_enable
 960              		.syntax unified
 961              		.thumb
 962              		.thumb_func
 963              		.fpu fpv4-sp-d16
 965              	dac_concurrent_software_trigger_enable:
 966              	.LFB136:
 454:Drivers/GD32F30x_standard_peripheral/Source/gd32f30x_dac.c **** 
 455:Drivers/GD32F30x_standard_peripheral/Source/gd32f30x_dac.c **** /*!
 456:Drivers/GD32F30x_standard_peripheral/Source/gd32f30x_dac.c ****     \brief      enable DAC concurrent software trigger function
 457:Drivers/GD32F30x_standard_peripheral/Source/gd32f30x_dac.c ****     \param[in]  none
 458:Drivers/GD32F30x_standard_peripheral/Source/gd32f30x_dac.c ****     \param[out] none
 459:Drivers/GD32F30x_standard_peripheral/Source/gd32f30x_dac.c ****     \retval     none
 460:Drivers/GD32F30x_standard_peripheral/Source/gd32f30x_dac.c **** */
 461:Drivers/GD32F30x_standard_peripheral/Source/gd32f30x_dac.c **** void dac_concurrent_software_trigger_enable(void)
 462:Drivers/GD32F30x_standard_peripheral/Source/gd32f30x_dac.c **** {
 967              		.loc 1 462 1 is_stmt 1 view -0
 968              		.cfi_startproc
 969              		@ args = 0, pretend = 0, frame = 0
 970              		@ frame_needed = 0, uses_anonymous_args = 0
 971              		@ link register save eliminated.
 463:Drivers/GD32F30x_standard_peripheral/Source/gd32f30x_dac.c ****     uint32_t swt = 0U;
 972              		.loc 1 463 5 view .LVU205
 973              	.LVL41:
 464:Drivers/GD32F30x_standard_peripheral/Source/gd32f30x_dac.c ****     swt = DAC_SWT_SWTR0 | DAC_SWT_SWTR1;
 974              		.loc 1 464 5 view .LVU206
 465:Drivers/GD32F30x_standard_peripheral/Source/gd32f30x_dac.c ****     DAC_SWT |= (swt); 
 975              		.loc 1 465 5 view .LVU207
 976              		.loc 1 465 13 is_stmt 0 view .LVU208
 977 0000 034A     		ldr	r2, .L100
 978 0002 D2F80434 		ldr	r3, [r2, #1028]
 979 0006 43F00303 		orr	r3, r3, #3
 980 000a C2F80434 		str	r3, [r2, #1028]
 466:Drivers/GD32F30x_standard_peripheral/Source/gd32f30x_dac.c **** }
 981              		.loc 1 466 1 view .LVU209
ARM GAS  C:\Users\Prog\AppData\Local\Temp\ccmlzHib.s 			page 26


 982 000e 7047     		bx	lr
 983              	.L101:
 984              		.align	2
 985              	.L100:
 986 0010 00700040 		.word	1073770496
 987              		.cfi_endproc
 988              	.LFE136:
 990              		.section	.text.dac_concurrent_software_trigger_disable,"ax",%progbits
 991              		.align	1
 992              		.global	dac_concurrent_software_trigger_disable
 993              		.syntax unified
 994              		.thumb
 995              		.thumb_func
 996              		.fpu fpv4-sp-d16
 998              	dac_concurrent_software_trigger_disable:
 999              	.LFB137:
 467:Drivers/GD32F30x_standard_peripheral/Source/gd32f30x_dac.c **** 
 468:Drivers/GD32F30x_standard_peripheral/Source/gd32f30x_dac.c **** /*!
 469:Drivers/GD32F30x_standard_peripheral/Source/gd32f30x_dac.c ****     \brief      disable DAC concurrent software trigger function
 470:Drivers/GD32F30x_standard_peripheral/Source/gd32f30x_dac.c ****     \param[in]  none
 471:Drivers/GD32F30x_standard_peripheral/Source/gd32f30x_dac.c ****     \param[out] none
 472:Drivers/GD32F30x_standard_peripheral/Source/gd32f30x_dac.c ****     \retval     none
 473:Drivers/GD32F30x_standard_peripheral/Source/gd32f30x_dac.c **** */
 474:Drivers/GD32F30x_standard_peripheral/Source/gd32f30x_dac.c **** void dac_concurrent_software_trigger_disable(void)
 475:Drivers/GD32F30x_standard_peripheral/Source/gd32f30x_dac.c **** {
 1000              		.loc 1 475 1 is_stmt 1 view -0
 1001              		.cfi_startproc
 1002              		@ args = 0, pretend = 0, frame = 0
 1003              		@ frame_needed = 0, uses_anonymous_args = 0
 1004              		@ link register save eliminated.
 476:Drivers/GD32F30x_standard_peripheral/Source/gd32f30x_dac.c ****     uint32_t swt = 0U;
 1005              		.loc 1 476 5 view .LVU211
 1006              	.LVL42:
 477:Drivers/GD32F30x_standard_peripheral/Source/gd32f30x_dac.c ****     swt = DAC_SWT_SWTR0 | DAC_SWT_SWTR1;
 1007              		.loc 1 477 5 view .LVU212
 478:Drivers/GD32F30x_standard_peripheral/Source/gd32f30x_dac.c ****     DAC_SWT &= (~swt);
 1008              		.loc 1 478 5 view .LVU213
 1009              		.loc 1 478 13 is_stmt 0 view .LVU214
 1010 0000 034A     		ldr	r2, .L103
 1011 0002 D2F80434 		ldr	r3, [r2, #1028]
 1012 0006 23F00303 		bic	r3, r3, #3
 1013 000a C2F80434 		str	r3, [r2, #1028]
 479:Drivers/GD32F30x_standard_peripheral/Source/gd32f30x_dac.c **** }
 1014              		.loc 1 479 1 view .LVU215
 1015 000e 7047     		bx	lr
 1016              	.L104:
 1017              		.align	2
 1018              	.L103:
 1019 0010 00700040 		.word	1073770496
 1020              		.cfi_endproc
 1021              	.LFE137:
 1023              		.section	.text.dac_concurrent_output_buffer_enable,"ax",%progbits
 1024              		.align	1
 1025              		.global	dac_concurrent_output_buffer_enable
 1026              		.syntax unified
 1027              		.thumb
 1028              		.thumb_func
ARM GAS  C:\Users\Prog\AppData\Local\Temp\ccmlzHib.s 			page 27


 1029              		.fpu fpv4-sp-d16
 1031              	dac_concurrent_output_buffer_enable:
 1032              	.LFB138:
 480:Drivers/GD32F30x_standard_peripheral/Source/gd32f30x_dac.c **** 
 481:Drivers/GD32F30x_standard_peripheral/Source/gd32f30x_dac.c **** /*!
 482:Drivers/GD32F30x_standard_peripheral/Source/gd32f30x_dac.c ****     \brief      enable DAC concurrent buffer function
 483:Drivers/GD32F30x_standard_peripheral/Source/gd32f30x_dac.c ****     \param[in]  none
 484:Drivers/GD32F30x_standard_peripheral/Source/gd32f30x_dac.c ****     \param[out] none
 485:Drivers/GD32F30x_standard_peripheral/Source/gd32f30x_dac.c ****     \retval     none
 486:Drivers/GD32F30x_standard_peripheral/Source/gd32f30x_dac.c **** */
 487:Drivers/GD32F30x_standard_peripheral/Source/gd32f30x_dac.c **** void dac_concurrent_output_buffer_enable(void)
 488:Drivers/GD32F30x_standard_peripheral/Source/gd32f30x_dac.c **** {
 1033              		.loc 1 488 1 is_stmt 1 view -0
 1034              		.cfi_startproc
 1035              		@ args = 0, pretend = 0, frame = 0
 1036              		@ frame_needed = 0, uses_anonymous_args = 0
 1037              		@ link register save eliminated.
 489:Drivers/GD32F30x_standard_peripheral/Source/gd32f30x_dac.c ****     uint32_t ctl = 0U;
 1038              		.loc 1 489 5 view .LVU217
 1039              	.LVL43:
 490:Drivers/GD32F30x_standard_peripheral/Source/gd32f30x_dac.c ****     ctl = DAC_CTL_DBOFF0 | DAC_CTL_DBOFF1;
 1040              		.loc 1 490 5 view .LVU218
 491:Drivers/GD32F30x_standard_peripheral/Source/gd32f30x_dac.c ****     DAC_CTL &= (~ctl);
 1041              		.loc 1 491 5 view .LVU219
 1042              		.loc 1 491 13 is_stmt 0 view .LVU220
 1043 0000 034A     		ldr	r2, .L106
 1044 0002 D2F80034 		ldr	r3, [r2, #1024]
 1045 0006 23F00213 		bic	r3, r3, #131074
 1046 000a C2F80034 		str	r3, [r2, #1024]
 492:Drivers/GD32F30x_standard_peripheral/Source/gd32f30x_dac.c **** }
 1047              		.loc 1 492 1 view .LVU221
 1048 000e 7047     		bx	lr
 1049              	.L107:
 1050              		.align	2
 1051              	.L106:
 1052 0010 00700040 		.word	1073770496
 1053              		.cfi_endproc
 1054              	.LFE138:
 1056              		.section	.text.dac_concurrent_output_buffer_disable,"ax",%progbits
 1057              		.align	1
 1058              		.global	dac_concurrent_output_buffer_disable
 1059              		.syntax unified
 1060              		.thumb
 1061              		.thumb_func
 1062              		.fpu fpv4-sp-d16
 1064              	dac_concurrent_output_buffer_disable:
 1065              	.LFB139:
 493:Drivers/GD32F30x_standard_peripheral/Source/gd32f30x_dac.c **** 
 494:Drivers/GD32F30x_standard_peripheral/Source/gd32f30x_dac.c **** /*!
 495:Drivers/GD32F30x_standard_peripheral/Source/gd32f30x_dac.c ****     \brief      disable DAC concurrent buffer function
 496:Drivers/GD32F30x_standard_peripheral/Source/gd32f30x_dac.c ****     \param[in]  none
 497:Drivers/GD32F30x_standard_peripheral/Source/gd32f30x_dac.c ****     \param[out] none
 498:Drivers/GD32F30x_standard_peripheral/Source/gd32f30x_dac.c ****     \retval     none
 499:Drivers/GD32F30x_standard_peripheral/Source/gd32f30x_dac.c **** */
 500:Drivers/GD32F30x_standard_peripheral/Source/gd32f30x_dac.c **** void dac_concurrent_output_buffer_disable(void)
 501:Drivers/GD32F30x_standard_peripheral/Source/gd32f30x_dac.c **** {
 1066              		.loc 1 501 1 is_stmt 1 view -0
ARM GAS  C:\Users\Prog\AppData\Local\Temp\ccmlzHib.s 			page 28


 1067              		.cfi_startproc
 1068              		@ args = 0, pretend = 0, frame = 0
 1069              		@ frame_needed = 0, uses_anonymous_args = 0
 1070              		@ link register save eliminated.
 502:Drivers/GD32F30x_standard_peripheral/Source/gd32f30x_dac.c ****     uint32_t ctl = 0U;
 1071              		.loc 1 502 5 view .LVU223
 1072              	.LVL44:
 503:Drivers/GD32F30x_standard_peripheral/Source/gd32f30x_dac.c ****     ctl = DAC_CTL_DBOFF0 | DAC_CTL_DBOFF1;
 1073              		.loc 1 503 5 view .LVU224
 504:Drivers/GD32F30x_standard_peripheral/Source/gd32f30x_dac.c ****     DAC_CTL |= (ctl);
 1074              		.loc 1 504 5 view .LVU225
 1075              		.loc 1 504 13 is_stmt 0 view .LVU226
 1076 0000 034A     		ldr	r2, .L109
 1077 0002 D2F80034 		ldr	r3, [r2, #1024]
 1078 0006 43F00213 		orr	r3, r3, #131074
 1079 000a C2F80034 		str	r3, [r2, #1024]
 505:Drivers/GD32F30x_standard_peripheral/Source/gd32f30x_dac.c **** }
 1080              		.loc 1 505 1 view .LVU227
 1081 000e 7047     		bx	lr
 1082              	.L110:
 1083              		.align	2
 1084              	.L109:
 1085 0010 00700040 		.word	1073770496
 1086              		.cfi_endproc
 1087              	.LFE139:
 1089              		.section	.text.dac_concurrent_data_set,"ax",%progbits
 1090              		.align	1
 1091              		.global	dac_concurrent_data_set
 1092              		.syntax unified
 1093              		.thumb
 1094              		.thumb_func
 1095              		.fpu fpv4-sp-d16
 1097              	dac_concurrent_data_set:
 1098              	.LVL45:
 1099              	.LFB140:
 506:Drivers/GD32F30x_standard_peripheral/Source/gd32f30x_dac.c **** 
 507:Drivers/GD32F30x_standard_peripheral/Source/gd32f30x_dac.c **** /*!
 508:Drivers/GD32F30x_standard_peripheral/Source/gd32f30x_dac.c ****     \brief      set DAC concurrent mode data holding register value
 509:Drivers/GD32F30x_standard_peripheral/Source/gd32f30x_dac.c ****     \param[in]  dac_align: data alignment
 510:Drivers/GD32F30x_standard_peripheral/Source/gd32f30x_dac.c ****                 only one parameter can be selected which is shown as below:
 511:Drivers/GD32F30x_standard_peripheral/Source/gd32f30x_dac.c ****       \arg        DAC_ALIGN_8B_R: data right 8b alignment
 512:Drivers/GD32F30x_standard_peripheral/Source/gd32f30x_dac.c ****       \arg        DAC_ALIGN_12B_R: data right 12b alignment
 513:Drivers/GD32F30x_standard_peripheral/Source/gd32f30x_dac.c ****       \arg        DAC_ALIGN_12B_L: data left 12b alignment
 514:Drivers/GD32F30x_standard_peripheral/Source/gd32f30x_dac.c ****     \param[in]  data0: data to be loaded
 515:Drivers/GD32F30x_standard_peripheral/Source/gd32f30x_dac.c ****     \param[in]  data1: data to be loaded
 516:Drivers/GD32F30x_standard_peripheral/Source/gd32f30x_dac.c ****     \param[out] none
 517:Drivers/GD32F30x_standard_peripheral/Source/gd32f30x_dac.c ****     \retval     none
 518:Drivers/GD32F30x_standard_peripheral/Source/gd32f30x_dac.c **** */
 519:Drivers/GD32F30x_standard_peripheral/Source/gd32f30x_dac.c **** void dac_concurrent_data_set(uint32_t dac_align, uint16_t data0, uint16_t data1)
 520:Drivers/GD32F30x_standard_peripheral/Source/gd32f30x_dac.c **** {
 1100              		.loc 1 520 1 is_stmt 1 view -0
 1101              		.cfi_startproc
 1102              		@ args = 0, pretend = 0, frame = 0
 1103              		@ frame_needed = 0, uses_anonymous_args = 0
 1104              		@ link register save eliminated.
 521:Drivers/GD32F30x_standard_peripheral/Source/gd32f30x_dac.c ****     uint32_t data = 0U;
 1105              		.loc 1 521 5 view .LVU229
ARM GAS  C:\Users\Prog\AppData\Local\Temp\ccmlzHib.s 			page 29


 522:Drivers/GD32F30x_standard_peripheral/Source/gd32f30x_dac.c ****     switch(dac_align){
 1106              		.loc 1 522 5 view .LVU230
 1107 0000 0128     		cmp	r0, #1
 1108 0002 09D0     		beq	.L112
 1109 0004 0228     		cmp	r0, #2
 1110 0006 0DD0     		beq	.L113
 1111 0008 00B1     		cbz	r0, .L115
 1112              	.LVL46:
 1113              	.L111:
 523:Drivers/GD32F30x_standard_peripheral/Source/gd32f30x_dac.c ****     /* data right 12b alignment */
 524:Drivers/GD32F30x_standard_peripheral/Source/gd32f30x_dac.c ****     case DAC_ALIGN_12B_R:
 525:Drivers/GD32F30x_standard_peripheral/Source/gd32f30x_dac.c ****         data = ((uint32_t)data1 << DH_12BIT_OFFSET) | data0;
 526:Drivers/GD32F30x_standard_peripheral/Source/gd32f30x_dac.c ****         DACC_R12DH = data;
 527:Drivers/GD32F30x_standard_peripheral/Source/gd32f30x_dac.c ****         break;
 528:Drivers/GD32F30x_standard_peripheral/Source/gd32f30x_dac.c ****     /* data left 12b alignment */
 529:Drivers/GD32F30x_standard_peripheral/Source/gd32f30x_dac.c ****     case DAC_ALIGN_12B_L:
 530:Drivers/GD32F30x_standard_peripheral/Source/gd32f30x_dac.c ****         data = ((uint32_t)data1 << DH_12BIT_OFFSET) | data0;
 531:Drivers/GD32F30x_standard_peripheral/Source/gd32f30x_dac.c ****         DACC_L12DH = data;
 532:Drivers/GD32F30x_standard_peripheral/Source/gd32f30x_dac.c ****         break;
 533:Drivers/GD32F30x_standard_peripheral/Source/gd32f30x_dac.c ****     /* data right 8b alignment */
 534:Drivers/GD32F30x_standard_peripheral/Source/gd32f30x_dac.c ****     case DAC_ALIGN_8B_R:
 535:Drivers/GD32F30x_standard_peripheral/Source/gd32f30x_dac.c ****         data = ((uint32_t)data1 << DH_8BIT_OFFSET) | data0;
 536:Drivers/GD32F30x_standard_peripheral/Source/gd32f30x_dac.c ****         DACC_R8DH = data;
 537:Drivers/GD32F30x_standard_peripheral/Source/gd32f30x_dac.c ****         break;
 538:Drivers/GD32F30x_standard_peripheral/Source/gd32f30x_dac.c ****     default:
 539:Drivers/GD32F30x_standard_peripheral/Source/gd32f30x_dac.c ****         break;
 540:Drivers/GD32F30x_standard_peripheral/Source/gd32f30x_dac.c ****     }
 541:Drivers/GD32F30x_standard_peripheral/Source/gd32f30x_dac.c **** }
 1114              		.loc 1 541 1 is_stmt 0 view .LVU231
 1115 000a 7047     		bx	lr
 1116              	.LVL47:
 1117              	.L115:
 525:Drivers/GD32F30x_standard_peripheral/Source/gd32f30x_dac.c ****         DACC_R12DH = data;
 1118              		.loc 1 525 9 is_stmt 1 view .LVU232
 525:Drivers/GD32F30x_standard_peripheral/Source/gd32f30x_dac.c ****         DACC_R12DH = data;
 1119              		.loc 1 525 14 is_stmt 0 view .LVU233
 1120 000c 41EA0241 		orr	r1, r1, r2, lsl #16
 1121              	.LVL48:
 526:Drivers/GD32F30x_standard_peripheral/Source/gd32f30x_dac.c ****         break;
 1122              		.loc 1 526 9 is_stmt 1 view .LVU234
 526:Drivers/GD32F30x_standard_peripheral/Source/gd32f30x_dac.c ****         break;
 1123              		.loc 1 526 20 is_stmt 0 view .LVU235
 1124 0010 074B     		ldr	r3, .L116
 1125 0012 C3F82014 		str	r1, [r3, #1056]
 527:Drivers/GD32F30x_standard_peripheral/Source/gd32f30x_dac.c ****     /* data left 12b alignment */
 1126              		.loc 1 527 9 is_stmt 1 view .LVU236
 1127 0016 7047     		bx	lr
 1128              	.LVL49:
 1129              	.L112:
 530:Drivers/GD32F30x_standard_peripheral/Source/gd32f30x_dac.c ****         DACC_L12DH = data;
 1130              		.loc 1 530 9 view .LVU237
 530:Drivers/GD32F30x_standard_peripheral/Source/gd32f30x_dac.c ****         DACC_L12DH = data;
 1131              		.loc 1 530 14 is_stmt 0 view .LVU238
 1132 0018 41EA0241 		orr	r1, r1, r2, lsl #16
 1133              	.LVL50:
 531:Drivers/GD32F30x_standard_peripheral/Source/gd32f30x_dac.c ****         break;
 1134              		.loc 1 531 9 is_stmt 1 view .LVU239
ARM GAS  C:\Users\Prog\AppData\Local\Temp\ccmlzHib.s 			page 30


 531:Drivers/GD32F30x_standard_peripheral/Source/gd32f30x_dac.c ****         break;
 1135              		.loc 1 531 20 is_stmt 0 view .LVU240
 1136 001c 044B     		ldr	r3, .L116
 1137 001e C3F82414 		str	r1, [r3, #1060]
 532:Drivers/GD32F30x_standard_peripheral/Source/gd32f30x_dac.c ****     /* data right 8b alignment */
 1138              		.loc 1 532 9 is_stmt 1 view .LVU241
 1139 0022 7047     		bx	lr
 1140              	.LVL51:
 1141              	.L113:
 535:Drivers/GD32F30x_standard_peripheral/Source/gd32f30x_dac.c ****         DACC_R8DH = data;
 1142              		.loc 1 535 9 view .LVU242
 535:Drivers/GD32F30x_standard_peripheral/Source/gd32f30x_dac.c ****         DACC_R8DH = data;
 1143              		.loc 1 535 14 is_stmt 0 view .LVU243
 1144 0024 41EA0221 		orr	r1, r1, r2, lsl #8
 1145              	.LVL52:
 536:Drivers/GD32F30x_standard_peripheral/Source/gd32f30x_dac.c ****         break;
 1146              		.loc 1 536 9 is_stmt 1 view .LVU244
 536:Drivers/GD32F30x_standard_peripheral/Source/gd32f30x_dac.c ****         break;
 1147              		.loc 1 536 19 is_stmt 0 view .LVU245
 1148 0028 014B     		ldr	r3, .L116
 1149 002a C3F82814 		str	r1, [r3, #1064]
 537:Drivers/GD32F30x_standard_peripheral/Source/gd32f30x_dac.c ****     default:
 1150              		.loc 1 537 9 is_stmt 1 view .LVU246
 1151              		.loc 1 541 1 is_stmt 0 view .LVU247
 1152 002e ECE7     		b	.L111
 1153              	.L117:
 1154              		.align	2
 1155              	.L116:
 1156 0030 00700040 		.word	1073770496
 1157              		.cfi_endproc
 1158              	.LFE140:
 1160              		.text
 1161              	.Letext0:
 1162              		.file 2 "c:\\programdata\\chocolatey\\lib\\gcc-arm-embedded\\tools\\gcc-arm-none-eabi-10-2020-q4-m
 1163              		.file 3 "c:\\programdata\\chocolatey\\lib\\gcc-arm-embedded\\tools\\gcc-arm-none-eabi-10-2020-q4-m
 1164              		.file 4 "Drivers/GD32F30x_standard_peripheral/Include/gd32f30x_rcu.h"
ARM GAS  C:\Users\Prog\AppData\Local\Temp\ccmlzHib.s 			page 31


DEFINED SYMBOLS
                            *ABS*:00000000 gd32f30x_dac.c
C:\Users\Prog\AppData\Local\Temp\ccmlzHib.s:18     .text.dac_deinit:00000000 $t
C:\Users\Prog\AppData\Local\Temp\ccmlzHib.s:26     .text.dac_deinit:00000000 dac_deinit
C:\Users\Prog\AppData\Local\Temp\ccmlzHib.s:52     .text.dac_enable:00000000 $t
C:\Users\Prog\AppData\Local\Temp\ccmlzHib.s:59     .text.dac_enable:00000000 dac_enable
C:\Users\Prog\AppData\Local\Temp\ccmlzHib.s:89     .text.dac_enable:00000024 $d
C:\Users\Prog\AppData\Local\Temp\ccmlzHib.s:94     .text.dac_disable:00000000 $t
C:\Users\Prog\AppData\Local\Temp\ccmlzHib.s:101    .text.dac_disable:00000000 dac_disable
C:\Users\Prog\AppData\Local\Temp\ccmlzHib.s:131    .text.dac_disable:00000024 $d
C:\Users\Prog\AppData\Local\Temp\ccmlzHib.s:136    .text.dac_dma_enable:00000000 $t
C:\Users\Prog\AppData\Local\Temp\ccmlzHib.s:143    .text.dac_dma_enable:00000000 dac_dma_enable
C:\Users\Prog\AppData\Local\Temp\ccmlzHib.s:173    .text.dac_dma_enable:00000024 $d
C:\Users\Prog\AppData\Local\Temp\ccmlzHib.s:178    .text.dac_dma_disable:00000000 $t
C:\Users\Prog\AppData\Local\Temp\ccmlzHib.s:185    .text.dac_dma_disable:00000000 dac_dma_disable
C:\Users\Prog\AppData\Local\Temp\ccmlzHib.s:215    .text.dac_dma_disable:00000024 $d
C:\Users\Prog\AppData\Local\Temp\ccmlzHib.s:220    .text.dac_output_buffer_enable:00000000 $t
C:\Users\Prog\AppData\Local\Temp\ccmlzHib.s:227    .text.dac_output_buffer_enable:00000000 dac_output_buffer_enable
C:\Users\Prog\AppData\Local\Temp\ccmlzHib.s:257    .text.dac_output_buffer_enable:00000024 $d
C:\Users\Prog\AppData\Local\Temp\ccmlzHib.s:262    .text.dac_output_buffer_disable:00000000 $t
C:\Users\Prog\AppData\Local\Temp\ccmlzHib.s:269    .text.dac_output_buffer_disable:00000000 dac_output_buffer_disable
C:\Users\Prog\AppData\Local\Temp\ccmlzHib.s:299    .text.dac_output_buffer_disable:00000024 $d
C:\Users\Prog\AppData\Local\Temp\ccmlzHib.s:304    .text.dac_output_value_get:00000000 $t
C:\Users\Prog\AppData\Local\Temp\ccmlzHib.s:311    .text.dac_output_value_get:00000000 dac_output_value_get
C:\Users\Prog\AppData\Local\Temp\ccmlzHib.s:349    .text.dac_output_value_get:00000018 $d
C:\Users\Prog\AppData\Local\Temp\ccmlzHib.s:354    .text.dac_data_set:00000000 $t
C:\Users\Prog\AppData\Local\Temp\ccmlzHib.s:361    .text.dac_data_set:00000000 dac_data_set
C:\Users\Prog\AppData\Local\Temp\ccmlzHib.s:434    .text.dac_data_set:0000004c $d
C:\Users\Prog\AppData\Local\Temp\ccmlzHib.s:439    .text.dac_trigger_enable:00000000 $t
C:\Users\Prog\AppData\Local\Temp\ccmlzHib.s:446    .text.dac_trigger_enable:00000000 dac_trigger_enable
C:\Users\Prog\AppData\Local\Temp\ccmlzHib.s:476    .text.dac_trigger_enable:00000024 $d
C:\Users\Prog\AppData\Local\Temp\ccmlzHib.s:481    .text.dac_trigger_disable:00000000 $t
C:\Users\Prog\AppData\Local\Temp\ccmlzHib.s:488    .text.dac_trigger_disable:00000000 dac_trigger_disable
C:\Users\Prog\AppData\Local\Temp\ccmlzHib.s:518    .text.dac_trigger_disable:00000024 $d
C:\Users\Prog\AppData\Local\Temp\ccmlzHib.s:523    .text.dac_trigger_source_config:00000000 $t
C:\Users\Prog\AppData\Local\Temp\ccmlzHib.s:530    .text.dac_trigger_source_config:00000000 dac_trigger_source_config
C:\Users\Prog\AppData\Local\Temp\ccmlzHib.s:575    .text.dac_trigger_source_config:00000038 $d
C:\Users\Prog\AppData\Local\Temp\ccmlzHib.s:580    .text.dac_software_trigger_enable:00000000 $t
C:\Users\Prog\AppData\Local\Temp\ccmlzHib.s:587    .text.dac_software_trigger_enable:00000000 dac_software_trigger_enable
C:\Users\Prog\AppData\Local\Temp\ccmlzHib.s:617    .text.dac_software_trigger_enable:00000024 $d
C:\Users\Prog\AppData\Local\Temp\ccmlzHib.s:622    .text.dac_software_trigger_disable:00000000 $t
C:\Users\Prog\AppData\Local\Temp\ccmlzHib.s:629    .text.dac_software_trigger_disable:00000000 dac_software_trigger_disable
C:\Users\Prog\AppData\Local\Temp\ccmlzHib.s:659    .text.dac_software_trigger_disable:00000024 $d
C:\Users\Prog\AppData\Local\Temp\ccmlzHib.s:664    .text.dac_wave_mode_config:00000000 $t
C:\Users\Prog\AppData\Local\Temp\ccmlzHib.s:671    .text.dac_wave_mode_config:00000000 dac_wave_mode_config
C:\Users\Prog\AppData\Local\Temp\ccmlzHib.s:716    .text.dac_wave_mode_config:00000038 $d
C:\Users\Prog\AppData\Local\Temp\ccmlzHib.s:721    .text.dac_wave_bit_width_config:00000000 $t
C:\Users\Prog\AppData\Local\Temp\ccmlzHib.s:728    .text.dac_wave_bit_width_config:00000000 dac_wave_bit_width_config
C:\Users\Prog\AppData\Local\Temp\ccmlzHib.s:773    .text.dac_wave_bit_width_config:00000038 $d
C:\Users\Prog\AppData\Local\Temp\ccmlzHib.s:778    .text.dac_lfsr_noise_config:00000000 $t
C:\Users\Prog\AppData\Local\Temp\ccmlzHib.s:785    .text.dac_lfsr_noise_config:00000000 dac_lfsr_noise_config
C:\Users\Prog\AppData\Local\Temp\ccmlzHib.s:830    .text.dac_lfsr_noise_config:00000038 $d
C:\Users\Prog\AppData\Local\Temp\ccmlzHib.s:835    .text.dac_triangle_noise_config:00000000 $t
C:\Users\Prog\AppData\Local\Temp\ccmlzHib.s:842    .text.dac_triangle_noise_config:00000000 dac_triangle_noise_config
C:\Users\Prog\AppData\Local\Temp\ccmlzHib.s:887    .text.dac_triangle_noise_config:00000038 $d
C:\Users\Prog\AppData\Local\Temp\ccmlzHib.s:892    .text.dac_concurrent_enable:00000000 $t
C:\Users\Prog\AppData\Local\Temp\ccmlzHib.s:899    .text.dac_concurrent_enable:00000000 dac_concurrent_enable
ARM GAS  C:\Users\Prog\AppData\Local\Temp\ccmlzHib.s 			page 32


C:\Users\Prog\AppData\Local\Temp\ccmlzHib.s:920    .text.dac_concurrent_enable:00000010 $d
C:\Users\Prog\AppData\Local\Temp\ccmlzHib.s:925    .text.dac_concurrent_disable:00000000 $t
C:\Users\Prog\AppData\Local\Temp\ccmlzHib.s:932    .text.dac_concurrent_disable:00000000 dac_concurrent_disable
C:\Users\Prog\AppData\Local\Temp\ccmlzHib.s:953    .text.dac_concurrent_disable:00000010 $d
C:\Users\Prog\AppData\Local\Temp\ccmlzHib.s:958    .text.dac_concurrent_software_trigger_enable:00000000 $t
C:\Users\Prog\AppData\Local\Temp\ccmlzHib.s:965    .text.dac_concurrent_software_trigger_enable:00000000 dac_concurrent_software_trigger_enable
C:\Users\Prog\AppData\Local\Temp\ccmlzHib.s:986    .text.dac_concurrent_software_trigger_enable:00000010 $d
C:\Users\Prog\AppData\Local\Temp\ccmlzHib.s:991    .text.dac_concurrent_software_trigger_disable:00000000 $t
C:\Users\Prog\AppData\Local\Temp\ccmlzHib.s:998    .text.dac_concurrent_software_trigger_disable:00000000 dac_concurrent_software_trigger_disable
C:\Users\Prog\AppData\Local\Temp\ccmlzHib.s:1019   .text.dac_concurrent_software_trigger_disable:00000010 $d
C:\Users\Prog\AppData\Local\Temp\ccmlzHib.s:1024   .text.dac_concurrent_output_buffer_enable:00000000 $t
C:\Users\Prog\AppData\Local\Temp\ccmlzHib.s:1031   .text.dac_concurrent_output_buffer_enable:00000000 dac_concurrent_output_buffer_enable
C:\Users\Prog\AppData\Local\Temp\ccmlzHib.s:1052   .text.dac_concurrent_output_buffer_enable:00000010 $d
C:\Users\Prog\AppData\Local\Temp\ccmlzHib.s:1057   .text.dac_concurrent_output_buffer_disable:00000000 $t
C:\Users\Prog\AppData\Local\Temp\ccmlzHib.s:1064   .text.dac_concurrent_output_buffer_disable:00000000 dac_concurrent_output_buffer_disable
C:\Users\Prog\AppData\Local\Temp\ccmlzHib.s:1085   .text.dac_concurrent_output_buffer_disable:00000010 $d
C:\Users\Prog\AppData\Local\Temp\ccmlzHib.s:1090   .text.dac_concurrent_data_set:00000000 $t
C:\Users\Prog\AppData\Local\Temp\ccmlzHib.s:1097   .text.dac_concurrent_data_set:00000000 dac_concurrent_data_set
C:\Users\Prog\AppData\Local\Temp\ccmlzHib.s:1156   .text.dac_concurrent_data_set:00000030 $d

UNDEFINED SYMBOLS
rcu_periph_reset_enable
rcu_periph_reset_disable
