ARM GAS  C:\Users\Prog\AppData\Local\Temp\cccBSqyc.s 			page 1


   1              		.cpu cortex-m4
   2              		.eabi_attribute 27, 1
   3              		.eabi_attribute 28, 1
   4              		.eabi_attribute 20, 1
   5              		.eabi_attribute 21, 1
   6              		.eabi_attribute 23, 3
   7              		.eabi_attribute 24, 1
   8              		.eabi_attribute 25, 1
   9              		.eabi_attribute 26, 1
  10              		.eabi_attribute 30, 1
  11              		.eabi_attribute 34, 1
  12              		.eabi_attribute 18, 4
  13              		.file	"gd32f30x_spi.c"
  14              		.text
  15              	.Ltext0:
  16              		.cfi_sections	.debug_frame
  17              		.section	.text.spi_i2s_deinit,"ax",%progbits
  18              		.align	1
  19              		.global	spi_i2s_deinit
  20              		.arch armv7e-m
  21              		.syntax unified
  22              		.thumb
  23              		.thumb_func
  24              		.fpu fpv4-sp-d16
  26              	spi_i2s_deinit:
  27              	.LVL0:
  28              	.LFB116:
  29              		.file 1 "Drivers/GD32F30x_standard_peripheral/Source/gd32f30x_spi.c"
   1:Drivers/GD32F30x_standard_peripheral/Source/gd32f30x_spi.c **** /*!
   2:Drivers/GD32F30x_standard_peripheral/Source/gd32f30x_spi.c ****     \file    gd32f30x_spi.c
   3:Drivers/GD32F30x_standard_peripheral/Source/gd32f30x_spi.c ****     \brief   SPI driver
   4:Drivers/GD32F30x_standard_peripheral/Source/gd32f30x_spi.c **** 
   5:Drivers/GD32F30x_standard_peripheral/Source/gd32f30x_spi.c ****     \version 2017-02-10, V1.0.0, firmware for GD32F30x
   6:Drivers/GD32F30x_standard_peripheral/Source/gd32f30x_spi.c ****     \version 2018-10-10, V1.1.0, firmware for GD32F30x
   7:Drivers/GD32F30x_standard_peripheral/Source/gd32f30x_spi.c ****     \version 2018-12-25, V2.0.0, firmware for GD32F30x
   8:Drivers/GD32F30x_standard_peripheral/Source/gd32f30x_spi.c ****     \version 2020-09-30, V2.1.0, firmware for GD32F30x
   9:Drivers/GD32F30x_standard_peripheral/Source/gd32f30x_spi.c **** */
  10:Drivers/GD32F30x_standard_peripheral/Source/gd32f30x_spi.c **** 
  11:Drivers/GD32F30x_standard_peripheral/Source/gd32f30x_spi.c **** /*
  12:Drivers/GD32F30x_standard_peripheral/Source/gd32f30x_spi.c ****     Copyright (c) 2020, GigaDevice Semiconductor Inc.
  13:Drivers/GD32F30x_standard_peripheral/Source/gd32f30x_spi.c **** 
  14:Drivers/GD32F30x_standard_peripheral/Source/gd32f30x_spi.c ****     Redistribution and use in source and binary forms, with or without modification, 
  15:Drivers/GD32F30x_standard_peripheral/Source/gd32f30x_spi.c **** are permitted provided that the following conditions are met:
  16:Drivers/GD32F30x_standard_peripheral/Source/gd32f30x_spi.c **** 
  17:Drivers/GD32F30x_standard_peripheral/Source/gd32f30x_spi.c ****     1. Redistributions of source code must retain the above copyright notice, this 
  18:Drivers/GD32F30x_standard_peripheral/Source/gd32f30x_spi.c ****        list of conditions and the following disclaimer.
  19:Drivers/GD32F30x_standard_peripheral/Source/gd32f30x_spi.c ****     2. Redistributions in binary form must reproduce the above copyright notice, 
  20:Drivers/GD32F30x_standard_peripheral/Source/gd32f30x_spi.c ****        this list of conditions and the following disclaimer in the documentation 
  21:Drivers/GD32F30x_standard_peripheral/Source/gd32f30x_spi.c ****        and/or other materials provided with the distribution.
  22:Drivers/GD32F30x_standard_peripheral/Source/gd32f30x_spi.c ****     3. Neither the name of the copyright holder nor the names of its contributors 
  23:Drivers/GD32F30x_standard_peripheral/Source/gd32f30x_spi.c ****        may be used to endorse or promote products derived from this software without 
  24:Drivers/GD32F30x_standard_peripheral/Source/gd32f30x_spi.c ****        specific prior written permission.
  25:Drivers/GD32F30x_standard_peripheral/Source/gd32f30x_spi.c **** 
  26:Drivers/GD32F30x_standard_peripheral/Source/gd32f30x_spi.c ****     THIS SOFTWARE IS PROVIDED BY THE COPYRIGHT HOLDERS AND CONTRIBUTORS "AS IS" 
  27:Drivers/GD32F30x_standard_peripheral/Source/gd32f30x_spi.c **** AND ANY EXPRESS OR IMPLIED WARRANTIES, INCLUDING, BUT NOT LIMITED TO, THE IMPLIED 
  28:Drivers/GD32F30x_standard_peripheral/Source/gd32f30x_spi.c **** WARRANTIES OF MERCHANTABILITY AND FITNESS FOR A PARTICULAR PURPOSE ARE DISCLAIMED. 
  29:Drivers/GD32F30x_standard_peripheral/Source/gd32f30x_spi.c **** IN NO EVENT SHALL THE COPYRIGHT HOLDER OR CONTRIBUTORS BE LIABLE FOR ANY DIRECT, 
ARM GAS  C:\Users\Prog\AppData\Local\Temp\cccBSqyc.s 			page 2


  30:Drivers/GD32F30x_standard_peripheral/Source/gd32f30x_spi.c **** INDIRECT, INCIDENTAL, SPECIAL, EXEMPLARY, OR CONSEQUENTIAL DAMAGES (INCLUDING, BUT 
  31:Drivers/GD32F30x_standard_peripheral/Source/gd32f30x_spi.c **** NOT LIMITED TO, PROCUREMENT OF SUBSTITUTE GOODS OR SERVICES; LOSS OF USE, DATA, OR 
  32:Drivers/GD32F30x_standard_peripheral/Source/gd32f30x_spi.c **** PROFITS; OR BUSINESS INTERRUPTION) HOWEVER CAUSED AND ON ANY THEORY OF LIABILITY, 
  33:Drivers/GD32F30x_standard_peripheral/Source/gd32f30x_spi.c **** WHETHER IN CONTRACT, STRICT LIABILITY, OR TORT (INCLUDING NEGLIGENCE OR OTHERWISE) 
  34:Drivers/GD32F30x_standard_peripheral/Source/gd32f30x_spi.c **** ARISING IN ANY WAY OUT OF THE USE OF THIS SOFTWARE, EVEN IF ADVISED OF THE POSSIBILITY 
  35:Drivers/GD32F30x_standard_peripheral/Source/gd32f30x_spi.c **** OF SUCH DAMAGE.
  36:Drivers/GD32F30x_standard_peripheral/Source/gd32f30x_spi.c **** */
  37:Drivers/GD32F30x_standard_peripheral/Source/gd32f30x_spi.c **** 
  38:Drivers/GD32F30x_standard_peripheral/Source/gd32f30x_spi.c **** #include "gd32f30x_spi.h"
  39:Drivers/GD32F30x_standard_peripheral/Source/gd32f30x_spi.c **** 
  40:Drivers/GD32F30x_standard_peripheral/Source/gd32f30x_spi.c **** #define SPI_ERROR_HANDLE(s)           do{}while(1)
  41:Drivers/GD32F30x_standard_peripheral/Source/gd32f30x_spi.c **** 
  42:Drivers/GD32F30x_standard_peripheral/Source/gd32f30x_spi.c **** /* SPI/I2S parameter initialization mask */
  43:Drivers/GD32F30x_standard_peripheral/Source/gd32f30x_spi.c **** #define SPI_INIT_MASK                   ((uint32_t)0x00003040U)  /*!< SPI parameter initialization 
  44:Drivers/GD32F30x_standard_peripheral/Source/gd32f30x_spi.c **** #define I2S_INIT_MASK                   ((uint32_t)0x0000F047U)  /*!< I2S parameter initialization 
  45:Drivers/GD32F30x_standard_peripheral/Source/gd32f30x_spi.c **** 
  46:Drivers/GD32F30x_standard_peripheral/Source/gd32f30x_spi.c **** /* default value */
  47:Drivers/GD32F30x_standard_peripheral/Source/gd32f30x_spi.c **** #define SPI_I2SPSC_DEFAULT_VALUE        ((uint32_t)0x00000002U)  /*!< default value of SPI_I2SPSC r
  48:Drivers/GD32F30x_standard_peripheral/Source/gd32f30x_spi.c **** 
  49:Drivers/GD32F30x_standard_peripheral/Source/gd32f30x_spi.c **** /* I2S clock source selection, multiplication and division mask */
  50:Drivers/GD32F30x_standard_peripheral/Source/gd32f30x_spi.c **** #define I2S1_CLOCK_SEL                  ((uint32_t)0x00020000U)  /*!< I2S1 clock source selection *
  51:Drivers/GD32F30x_standard_peripheral/Source/gd32f30x_spi.c **** #define I2S2_CLOCK_SEL                  ((uint32_t)0x00040000U)  /*!< I2S2 clock source selection *
  52:Drivers/GD32F30x_standard_peripheral/Source/gd32f30x_spi.c **** #define I2S_CLOCK_MUL_MASK              ((uint32_t)0x0000F000U)  /*!< I2S clock multiplication mask
  53:Drivers/GD32F30x_standard_peripheral/Source/gd32f30x_spi.c **** #define I2S_CLOCK_DIV_MASK              ((uint32_t)0x000000F0U)  /*!< I2S clock division mask */
  54:Drivers/GD32F30x_standard_peripheral/Source/gd32f30x_spi.c **** 
  55:Drivers/GD32F30x_standard_peripheral/Source/gd32f30x_spi.c **** /*!
  56:Drivers/GD32F30x_standard_peripheral/Source/gd32f30x_spi.c ****     \brief      reset SPI and I2S 
  57:Drivers/GD32F30x_standard_peripheral/Source/gd32f30x_spi.c ****     \param[in]  spi_periph: SPIx(x=0,1,2)
  58:Drivers/GD32F30x_standard_peripheral/Source/gd32f30x_spi.c ****     \param[out] none
  59:Drivers/GD32F30x_standard_peripheral/Source/gd32f30x_spi.c ****     \retval     none
  60:Drivers/GD32F30x_standard_peripheral/Source/gd32f30x_spi.c **** */
  61:Drivers/GD32F30x_standard_peripheral/Source/gd32f30x_spi.c **** void spi_i2s_deinit(uint32_t spi_periph)
  62:Drivers/GD32F30x_standard_peripheral/Source/gd32f30x_spi.c **** {
  30              		.loc 1 62 1 view -0
  31              		.cfi_startproc
  32              		@ args = 0, pretend = 0, frame = 0
  33              		@ frame_needed = 0, uses_anonymous_args = 0
  34              		.loc 1 62 1 is_stmt 0 view .LVU1
  35 0000 08B5     		push	{r3, lr}
  36              	.LCFI0:
  37              		.cfi_def_cfa_offset 8
  38              		.cfi_offset 3, -8
  39              		.cfi_offset 14, -4
  63:Drivers/GD32F30x_standard_peripheral/Source/gd32f30x_spi.c ****     switch(spi_periph){
  40              		.loc 1 63 5 is_stmt 1 view .LVU2
  41 0002 134B     		ldr	r3, .L8
  42 0004 9842     		cmp	r0, r3
  43 0006 1AD0     		beq	.L2
  44 0008 03F57443 		add	r3, r3, #62464
  45 000c 9842     		cmp	r0, r3
  46 000e 04D0     		beq	.L3
  47 0010 A3F57843 		sub	r3, r3, #63488
  48 0014 9842     		cmp	r0, r3
  49 0016 09D0     		beq	.L7
  50              	.LVL1:
  51              	.L1:
  64:Drivers/GD32F30x_standard_peripheral/Source/gd32f30x_spi.c ****     case SPI0:
ARM GAS  C:\Users\Prog\AppData\Local\Temp\cccBSqyc.s 			page 3


  65:Drivers/GD32F30x_standard_peripheral/Source/gd32f30x_spi.c ****         /* reset SPI0 */
  66:Drivers/GD32F30x_standard_peripheral/Source/gd32f30x_spi.c ****         rcu_periph_reset_enable(RCU_SPI0RST);
  67:Drivers/GD32F30x_standard_peripheral/Source/gd32f30x_spi.c ****         rcu_periph_reset_disable(RCU_SPI0RST);
  68:Drivers/GD32F30x_standard_peripheral/Source/gd32f30x_spi.c ****         break;
  69:Drivers/GD32F30x_standard_peripheral/Source/gd32f30x_spi.c ****     case SPI1:
  70:Drivers/GD32F30x_standard_peripheral/Source/gd32f30x_spi.c ****         /* reset SPI1 and I2S1 */
  71:Drivers/GD32F30x_standard_peripheral/Source/gd32f30x_spi.c ****         rcu_periph_reset_enable(RCU_SPI1RST);
  72:Drivers/GD32F30x_standard_peripheral/Source/gd32f30x_spi.c ****         rcu_periph_reset_disable(RCU_SPI1RST);
  73:Drivers/GD32F30x_standard_peripheral/Source/gd32f30x_spi.c ****         break;
  74:Drivers/GD32F30x_standard_peripheral/Source/gd32f30x_spi.c ****     case SPI2:
  75:Drivers/GD32F30x_standard_peripheral/Source/gd32f30x_spi.c ****         /* reset SPI2 and I2S2 */
  76:Drivers/GD32F30x_standard_peripheral/Source/gd32f30x_spi.c ****         rcu_periph_reset_enable(RCU_SPI2RST);
  77:Drivers/GD32F30x_standard_peripheral/Source/gd32f30x_spi.c ****         rcu_periph_reset_disable(RCU_SPI2RST);
  78:Drivers/GD32F30x_standard_peripheral/Source/gd32f30x_spi.c ****         break;
  79:Drivers/GD32F30x_standard_peripheral/Source/gd32f30x_spi.c ****     default :
  80:Drivers/GD32F30x_standard_peripheral/Source/gd32f30x_spi.c ****         break;
  81:Drivers/GD32F30x_standard_peripheral/Source/gd32f30x_spi.c ****     }
  82:Drivers/GD32F30x_standard_peripheral/Source/gd32f30x_spi.c **** }
  52              		.loc 1 82 1 is_stmt 0 view .LVU3
  53 0018 08BD     		pop	{r3, pc}
  54              	.LVL2:
  55              	.L3:
  66:Drivers/GD32F30x_standard_peripheral/Source/gd32f30x_spi.c ****         rcu_periph_reset_disable(RCU_SPI0RST);
  56              		.loc 1 66 9 is_stmt 1 view .LVU4
  57 001a 4FF44370 		mov	r0, #780
  58              	.LVL3:
  66:Drivers/GD32F30x_standard_peripheral/Source/gd32f30x_spi.c ****         rcu_periph_reset_disable(RCU_SPI0RST);
  59              		.loc 1 66 9 is_stmt 0 view .LVU5
  60 001e FFF7FEFF 		bl	rcu_periph_reset_enable
  61              	.LVL4:
  67:Drivers/GD32F30x_standard_peripheral/Source/gd32f30x_spi.c ****         break;
  62              		.loc 1 67 9 is_stmt 1 view .LVU6
  63 0022 4FF44370 		mov	r0, #780
  64 0026 FFF7FEFF 		bl	rcu_periph_reset_disable
  65              	.LVL5:
  68:Drivers/GD32F30x_standard_peripheral/Source/gd32f30x_spi.c ****     case SPI1:
  66              		.loc 1 68 9 view .LVU7
  67 002a F5E7     		b	.L1
  68              	.LVL6:
  69              	.L7:
  71:Drivers/GD32F30x_standard_peripheral/Source/gd32f30x_spi.c ****         rcu_periph_reset_disable(RCU_SPI1RST);
  70              		.loc 1 71 9 view .LVU8
  71 002c 40F20E40 		movw	r0, #1038
  72              	.LVL7:
  71:Drivers/GD32F30x_standard_peripheral/Source/gd32f30x_spi.c ****         rcu_periph_reset_disable(RCU_SPI1RST);
  73              		.loc 1 71 9 is_stmt 0 view .LVU9
  74 0030 FFF7FEFF 		bl	rcu_periph_reset_enable
  75              	.LVL8:
  72:Drivers/GD32F30x_standard_peripheral/Source/gd32f30x_spi.c ****         break;
  76              		.loc 1 72 9 is_stmt 1 view .LVU10
  77 0034 40F20E40 		movw	r0, #1038
  78 0038 FFF7FEFF 		bl	rcu_periph_reset_disable
  79              	.LVL9:
  73:Drivers/GD32F30x_standard_peripheral/Source/gd32f30x_spi.c ****     case SPI2:
  80              		.loc 1 73 9 view .LVU11
  81 003c ECE7     		b	.L1
  82              	.LVL10:
ARM GAS  C:\Users\Prog\AppData\Local\Temp\cccBSqyc.s 			page 4


  83              	.L2:
  76:Drivers/GD32F30x_standard_peripheral/Source/gd32f30x_spi.c ****         rcu_periph_reset_disable(RCU_SPI2RST);
  84              		.loc 1 76 9 view .LVU12
  85 003e 40F20F40 		movw	r0, #1039
  86              	.LVL11:
  76:Drivers/GD32F30x_standard_peripheral/Source/gd32f30x_spi.c ****         rcu_periph_reset_disable(RCU_SPI2RST);
  87              		.loc 1 76 9 is_stmt 0 view .LVU13
  88 0042 FFF7FEFF 		bl	rcu_periph_reset_enable
  89              	.LVL12:
  77:Drivers/GD32F30x_standard_peripheral/Source/gd32f30x_spi.c ****         break;
  90              		.loc 1 77 9 is_stmt 1 view .LVU14
  91 0046 40F20F40 		movw	r0, #1039
  92 004a FFF7FEFF 		bl	rcu_periph_reset_disable
  93              	.LVL13:
  78:Drivers/GD32F30x_standard_peripheral/Source/gd32f30x_spi.c ****     default :
  94              		.loc 1 78 9 view .LVU15
  95              		.loc 1 82 1 is_stmt 0 view .LVU16
  96 004e E3E7     		b	.L1
  97              	.L9:
  98              		.align	2
  99              	.L8:
 100 0050 003C0040 		.word	1073757184
 101              		.cfi_endproc
 102              	.LFE116:
 104              		.section	.text.spi_struct_para_init,"ax",%progbits
 105              		.align	1
 106              		.global	spi_struct_para_init
 107              		.syntax unified
 108              		.thumb
 109              		.thumb_func
 110              		.fpu fpv4-sp-d16
 112              	spi_struct_para_init:
 113              	.LVL14:
 114              	.LFB117:
  83:Drivers/GD32F30x_standard_peripheral/Source/gd32f30x_spi.c **** 
  84:Drivers/GD32F30x_standard_peripheral/Source/gd32f30x_spi.c **** /*!
  85:Drivers/GD32F30x_standard_peripheral/Source/gd32f30x_spi.c ****     \brief      initialize the parameters of SPI struct with default values
  86:Drivers/GD32F30x_standard_peripheral/Source/gd32f30x_spi.c ****     \param[in]  none
  87:Drivers/GD32F30x_standard_peripheral/Source/gd32f30x_spi.c ****     \param[out] spi_parameter_struct: the initialized struct spi_parameter_struct pointer
  88:Drivers/GD32F30x_standard_peripheral/Source/gd32f30x_spi.c ****     \retval     none
  89:Drivers/GD32F30x_standard_peripheral/Source/gd32f30x_spi.c **** */
  90:Drivers/GD32F30x_standard_peripheral/Source/gd32f30x_spi.c **** void spi_struct_para_init(spi_parameter_struct *spi_struct)
  91:Drivers/GD32F30x_standard_peripheral/Source/gd32f30x_spi.c **** {
 115              		.loc 1 91 1 is_stmt 1 view -0
 116              		.cfi_startproc
 117              		@ args = 0, pretend = 0, frame = 0
 118              		@ frame_needed = 0, uses_anonymous_args = 0
 119              		@ link register save eliminated.
  92:Drivers/GD32F30x_standard_peripheral/Source/gd32f30x_spi.c ****     /* configure the structure with default value */
  93:Drivers/GD32F30x_standard_peripheral/Source/gd32f30x_spi.c ****     spi_struct->device_mode          = SPI_SLAVE;
 120              		.loc 1 93 5 view .LVU18
 121              		.loc 1 93 38 is_stmt 0 view .LVU19
 122 0000 0023     		movs	r3, #0
 123 0002 0360     		str	r3, [r0]
  94:Drivers/GD32F30x_standard_peripheral/Source/gd32f30x_spi.c ****     spi_struct->trans_mode           = SPI_TRANSMODE_FULLDUPLEX;
 124              		.loc 1 94 5 is_stmt 1 view .LVU20
 125              		.loc 1 94 38 is_stmt 0 view .LVU21
ARM GAS  C:\Users\Prog\AppData\Local\Temp\cccBSqyc.s 			page 5


 126 0004 4360     		str	r3, [r0, #4]
  95:Drivers/GD32F30x_standard_peripheral/Source/gd32f30x_spi.c ****     spi_struct->frame_size           = SPI_FRAMESIZE_8BIT;
 127              		.loc 1 95 5 is_stmt 1 view .LVU22
 128              		.loc 1 95 38 is_stmt 0 view .LVU23
 129 0006 8360     		str	r3, [r0, #8]
  96:Drivers/GD32F30x_standard_peripheral/Source/gd32f30x_spi.c ****     spi_struct->nss                  = SPI_NSS_HARD;
 130              		.loc 1 96 5 is_stmt 1 view .LVU24
 131              		.loc 1 96 38 is_stmt 0 view .LVU25
 132 0008 C360     		str	r3, [r0, #12]
  97:Drivers/GD32F30x_standard_peripheral/Source/gd32f30x_spi.c ****     spi_struct->clock_polarity_phase = SPI_CK_PL_LOW_PH_1EDGE;
 133              		.loc 1 97 5 is_stmt 1 view .LVU26
 134              		.loc 1 97 38 is_stmt 0 view .LVU27
 135 000a 4361     		str	r3, [r0, #20]
  98:Drivers/GD32F30x_standard_peripheral/Source/gd32f30x_spi.c ****     spi_struct->prescale             = SPI_PSC_2;
 136              		.loc 1 98 5 is_stmt 1 view .LVU28
 137              		.loc 1 98 38 is_stmt 0 view .LVU29
 138 000c 8361     		str	r3, [r0, #24]
  99:Drivers/GD32F30x_standard_peripheral/Source/gd32f30x_spi.c ****     spi_struct->endian               = SPI_ENDIAN_MSB;
 139              		.loc 1 99 5 is_stmt 1 view .LVU30
 140              		.loc 1 99 38 is_stmt 0 view .LVU31
 141 000e 0361     		str	r3, [r0, #16]
 100:Drivers/GD32F30x_standard_peripheral/Source/gd32f30x_spi.c **** }
 142              		.loc 1 100 1 view .LVU32
 143 0010 7047     		bx	lr
 144              		.cfi_endproc
 145              	.LFE117:
 147              		.section	.text.spi_init,"ax",%progbits
 148              		.align	1
 149              		.global	spi_init
 150              		.syntax unified
 151              		.thumb
 152              		.thumb_func
 153              		.fpu fpv4-sp-d16
 155              	spi_init:
 156              	.LVL15:
 157              	.LFB118:
 101:Drivers/GD32F30x_standard_peripheral/Source/gd32f30x_spi.c **** 
 102:Drivers/GD32F30x_standard_peripheral/Source/gd32f30x_spi.c **** /*!
 103:Drivers/GD32F30x_standard_peripheral/Source/gd32f30x_spi.c ****     \brief      initialize SPI parameter
 104:Drivers/GD32F30x_standard_peripheral/Source/gd32f30x_spi.c ****     \param[in]  spi_periph: SPIx(x=0,1,2)
 105:Drivers/GD32F30x_standard_peripheral/Source/gd32f30x_spi.c ****     \param[in]  spi_struct: SPI parameter initialization stuct members of the structure 
 106:Drivers/GD32F30x_standard_peripheral/Source/gd32f30x_spi.c ****                             and the member values are shown as below:
 107:Drivers/GD32F30x_standard_peripheral/Source/gd32f30x_spi.c ****                   device_mode: SPI_MASTER, SPI_SLAVE
 108:Drivers/GD32F30x_standard_peripheral/Source/gd32f30x_spi.c ****                   trans_mode: SPI_TRANSMODE_FULLDUPLEX, SPI_TRANSMODE_RECEIVEONLY,
 109:Drivers/GD32F30x_standard_peripheral/Source/gd32f30x_spi.c ****                               SPI_TRANSMODE_BDRECEIVE, SPI_TRANSMODE_BDTRANSMIT
 110:Drivers/GD32F30x_standard_peripheral/Source/gd32f30x_spi.c ****                   frame_size: SPI_FRAMESIZE_16BIT, SPI_FRAMESIZE_8BIT
 111:Drivers/GD32F30x_standard_peripheral/Source/gd32f30x_spi.c ****                   nss: SPI_NSS_SOFT, SPI_NSS_HARD
 112:Drivers/GD32F30x_standard_peripheral/Source/gd32f30x_spi.c ****                   endian: SPI_ENDIAN_MSB, SPI_ENDIAN_LSB
 113:Drivers/GD32F30x_standard_peripheral/Source/gd32f30x_spi.c ****                   clock_polarity_phase: SPI_CK_PL_LOW_PH_1EDGE, SPI_CK_PL_HIGH_PH_1EDGE
 114:Drivers/GD32F30x_standard_peripheral/Source/gd32f30x_spi.c ****                                         SPI_CK_PL_LOW_PH_2EDGE, SPI_CK_PL_HIGH_PH_2EDGE
 115:Drivers/GD32F30x_standard_peripheral/Source/gd32f30x_spi.c ****                   prescale: SPI_PSC_n (n=2,4,8,16,32,64,128,256)
 116:Drivers/GD32F30x_standard_peripheral/Source/gd32f30x_spi.c ****     \param[out] none
 117:Drivers/GD32F30x_standard_peripheral/Source/gd32f30x_spi.c ****     \retval     none
 118:Drivers/GD32F30x_standard_peripheral/Source/gd32f30x_spi.c **** */
 119:Drivers/GD32F30x_standard_peripheral/Source/gd32f30x_spi.c **** void spi_init(uint32_t spi_periph, spi_parameter_struct* spi_struct)
 120:Drivers/GD32F30x_standard_peripheral/Source/gd32f30x_spi.c **** {   
 158              		.loc 1 120 1 is_stmt 1 view -0
ARM GAS  C:\Users\Prog\AppData\Local\Temp\cccBSqyc.s 			page 6


 159              		.cfi_startproc
 160              		@ args = 0, pretend = 0, frame = 0
 161              		@ frame_needed = 0, uses_anonymous_args = 0
 162              		@ link register save eliminated.
 121:Drivers/GD32F30x_standard_peripheral/Source/gd32f30x_spi.c ****     uint32_t reg = 0U;
 163              		.loc 1 121 5 view .LVU34
 122:Drivers/GD32F30x_standard_peripheral/Source/gd32f30x_spi.c ****     reg = SPI_CTL0(spi_periph);
 164              		.loc 1 122 5 view .LVU35
 165              		.loc 1 122 9 is_stmt 0 view .LVU36
 166 0000 0268     		ldr	r2, [r0]
 167              	.LVL16:
 123:Drivers/GD32F30x_standard_peripheral/Source/gd32f30x_spi.c ****     reg &= SPI_INIT_MASK;
 168              		.loc 1 123 5 is_stmt 1 view .LVU37
 169              		.loc 1 123 9 is_stmt 0 view .LVU38
 170 0002 02F44152 		and	r2, r2, #12352
 171              	.LVL17:
 124:Drivers/GD32F30x_standard_peripheral/Source/gd32f30x_spi.c **** 
 125:Drivers/GD32F30x_standard_peripheral/Source/gd32f30x_spi.c ****     /* select SPI as master or slave */
 126:Drivers/GD32F30x_standard_peripheral/Source/gd32f30x_spi.c ****     reg |= spi_struct->device_mode;
 172              		.loc 1 126 5 is_stmt 1 view .LVU39
 173              		.loc 1 126 22 is_stmt 0 view .LVU40
 174 0006 0B68     		ldr	r3, [r1]
 175              		.loc 1 126 9 view .LVU41
 176 0008 1A43     		orrs	r2, r2, r3
 177              	.LVL18:
 127:Drivers/GD32F30x_standard_peripheral/Source/gd32f30x_spi.c ****     /* select SPI transfer mode */
 128:Drivers/GD32F30x_standard_peripheral/Source/gd32f30x_spi.c ****     reg |= spi_struct->trans_mode;
 178              		.loc 1 128 5 is_stmt 1 view .LVU42
 179              		.loc 1 128 22 is_stmt 0 view .LVU43
 180 000a 4B68     		ldr	r3, [r1, #4]
 181              		.loc 1 128 9 view .LVU44
 182 000c 1A43     		orrs	r2, r2, r3
 183              	.LVL19:
 129:Drivers/GD32F30x_standard_peripheral/Source/gd32f30x_spi.c ****     /* select SPI frame size */
 130:Drivers/GD32F30x_standard_peripheral/Source/gd32f30x_spi.c ****     reg |= spi_struct->frame_size;
 184              		.loc 1 130 5 is_stmt 1 view .LVU45
 185              		.loc 1 130 22 is_stmt 0 view .LVU46
 186 000e 8B68     		ldr	r3, [r1, #8]
 187              		.loc 1 130 9 view .LVU47
 188 0010 1A43     		orrs	r2, r2, r3
 189              	.LVL20:
 131:Drivers/GD32F30x_standard_peripheral/Source/gd32f30x_spi.c ****     /* select SPI NSS use hardware or software */
 132:Drivers/GD32F30x_standard_peripheral/Source/gd32f30x_spi.c ****     reg |= spi_struct->nss;
 190              		.loc 1 132 5 is_stmt 1 view .LVU48
 191              		.loc 1 132 22 is_stmt 0 view .LVU49
 192 0012 CB68     		ldr	r3, [r1, #12]
 193              		.loc 1 132 9 view .LVU50
 194 0014 1A43     		orrs	r2, r2, r3
 195              	.LVL21:
 133:Drivers/GD32F30x_standard_peripheral/Source/gd32f30x_spi.c ****     /* select SPI LSB or MSB */
 134:Drivers/GD32F30x_standard_peripheral/Source/gd32f30x_spi.c ****     reg |= spi_struct->endian;
 196              		.loc 1 134 5 is_stmt 1 view .LVU51
 197              		.loc 1 134 22 is_stmt 0 view .LVU52
 198 0016 0B69     		ldr	r3, [r1, #16]
 199              		.loc 1 134 9 view .LVU53
 200 0018 1A43     		orrs	r2, r2, r3
 201              	.LVL22:
ARM GAS  C:\Users\Prog\AppData\Local\Temp\cccBSqyc.s 			page 7


 135:Drivers/GD32F30x_standard_peripheral/Source/gd32f30x_spi.c ****     /* select SPI polarity and phase */
 136:Drivers/GD32F30x_standard_peripheral/Source/gd32f30x_spi.c ****     reg |= spi_struct->clock_polarity_phase;
 202              		.loc 1 136 5 is_stmt 1 view .LVU54
 203              		.loc 1 136 22 is_stmt 0 view .LVU55
 204 001a 4B69     		ldr	r3, [r1, #20]
 205              		.loc 1 136 9 view .LVU56
 206 001c 1A43     		orrs	r2, r2, r3
 207              	.LVL23:
 137:Drivers/GD32F30x_standard_peripheral/Source/gd32f30x_spi.c ****     /* select SPI prescale to adjust transmit speed */
 138:Drivers/GD32F30x_standard_peripheral/Source/gd32f30x_spi.c ****     reg |= spi_struct->prescale;
 208              		.loc 1 138 5 is_stmt 1 view .LVU57
 209              		.loc 1 138 22 is_stmt 0 view .LVU58
 210 001e 8B69     		ldr	r3, [r1, #24]
 211              		.loc 1 138 9 view .LVU59
 212 0020 1343     		orrs	r3, r3, r2
 213              	.LVL24:
 139:Drivers/GD32F30x_standard_peripheral/Source/gd32f30x_spi.c **** 
 140:Drivers/GD32F30x_standard_peripheral/Source/gd32f30x_spi.c ****     /* write to SPI_CTL0 register */
 141:Drivers/GD32F30x_standard_peripheral/Source/gd32f30x_spi.c ****     SPI_CTL0(spi_periph) = (uint32_t)reg;
 214              		.loc 1 141 5 is_stmt 1 view .LVU60
 215              		.loc 1 141 26 is_stmt 0 view .LVU61
 216 0022 0360     		str	r3, [r0]
 142:Drivers/GD32F30x_standard_peripheral/Source/gd32f30x_spi.c **** 
 143:Drivers/GD32F30x_standard_peripheral/Source/gd32f30x_spi.c ****     SPI_I2SCTL(spi_periph) &= (uint32_t)(~SPI_I2SCTL_I2SSEL);
 217              		.loc 1 143 5 is_stmt 1 view .LVU62
 218              		.loc 1 143 28 is_stmt 0 view .LVU63
 219 0024 C369     		ldr	r3, [r0, #28]
 220              	.LVL25:
 221              		.loc 1 143 28 view .LVU64
 222 0026 23F40063 		bic	r3, r3, #2048
 223 002a C361     		str	r3, [r0, #28]
 224              	.LVL26:
 144:Drivers/GD32F30x_standard_peripheral/Source/gd32f30x_spi.c **** }
 225              		.loc 1 144 1 view .LVU65
 226 002c 7047     		bx	lr
 227              		.cfi_endproc
 228              	.LFE118:
 230              		.section	.text.spi_enable,"ax",%progbits
 231              		.align	1
 232              		.global	spi_enable
 233              		.syntax unified
 234              		.thumb
 235              		.thumb_func
 236              		.fpu fpv4-sp-d16
 238              	spi_enable:
 239              	.LVL27:
 240              	.LFB119:
 145:Drivers/GD32F30x_standard_peripheral/Source/gd32f30x_spi.c **** 
 146:Drivers/GD32F30x_standard_peripheral/Source/gd32f30x_spi.c **** /*!
 147:Drivers/GD32F30x_standard_peripheral/Source/gd32f30x_spi.c ****     \brief      enable SPI
 148:Drivers/GD32F30x_standard_peripheral/Source/gd32f30x_spi.c ****     \param[in]  spi_periph: SPIx(x=0,1,2)
 149:Drivers/GD32F30x_standard_peripheral/Source/gd32f30x_spi.c ****     \param[out] none
 150:Drivers/GD32F30x_standard_peripheral/Source/gd32f30x_spi.c ****     \retval     none
 151:Drivers/GD32F30x_standard_peripheral/Source/gd32f30x_spi.c **** */
 152:Drivers/GD32F30x_standard_peripheral/Source/gd32f30x_spi.c **** void spi_enable(uint32_t spi_periph)
 153:Drivers/GD32F30x_standard_peripheral/Source/gd32f30x_spi.c **** {
 241              		.loc 1 153 1 is_stmt 1 view -0
ARM GAS  C:\Users\Prog\AppData\Local\Temp\cccBSqyc.s 			page 8


 242              		.cfi_startproc
 243              		@ args = 0, pretend = 0, frame = 0
 244              		@ frame_needed = 0, uses_anonymous_args = 0
 245              		@ link register save eliminated.
 154:Drivers/GD32F30x_standard_peripheral/Source/gd32f30x_spi.c ****     SPI_CTL0(spi_periph) |= (uint32_t)SPI_CTL0_SPIEN;
 246              		.loc 1 154 5 view .LVU67
 247              		.loc 1 154 26 is_stmt 0 view .LVU68
 248 0000 0368     		ldr	r3, [r0]
 249 0002 43F04003 		orr	r3, r3, #64
 250 0006 0360     		str	r3, [r0]
 155:Drivers/GD32F30x_standard_peripheral/Source/gd32f30x_spi.c **** }
 251              		.loc 1 155 1 view .LVU69
 252 0008 7047     		bx	lr
 253              		.cfi_endproc
 254              	.LFE119:
 256              		.section	.text.spi_disable,"ax",%progbits
 257              		.align	1
 258              		.global	spi_disable
 259              		.syntax unified
 260              		.thumb
 261              		.thumb_func
 262              		.fpu fpv4-sp-d16
 264              	spi_disable:
 265              	.LVL28:
 266              	.LFB120:
 156:Drivers/GD32F30x_standard_peripheral/Source/gd32f30x_spi.c **** 
 157:Drivers/GD32F30x_standard_peripheral/Source/gd32f30x_spi.c **** /*!
 158:Drivers/GD32F30x_standard_peripheral/Source/gd32f30x_spi.c ****     \brief      disable SPI 
 159:Drivers/GD32F30x_standard_peripheral/Source/gd32f30x_spi.c ****     \param[in]  spi_periph: SPIx(x=0,1,2)
 160:Drivers/GD32F30x_standard_peripheral/Source/gd32f30x_spi.c ****     \param[out] none
 161:Drivers/GD32F30x_standard_peripheral/Source/gd32f30x_spi.c ****     \retval     none
 162:Drivers/GD32F30x_standard_peripheral/Source/gd32f30x_spi.c **** */
 163:Drivers/GD32F30x_standard_peripheral/Source/gd32f30x_spi.c **** void spi_disable(uint32_t spi_periph)
 164:Drivers/GD32F30x_standard_peripheral/Source/gd32f30x_spi.c **** {
 267              		.loc 1 164 1 is_stmt 1 view -0
 268              		.cfi_startproc
 269              		@ args = 0, pretend = 0, frame = 0
 270              		@ frame_needed = 0, uses_anonymous_args = 0
 271              		@ link register save eliminated.
 165:Drivers/GD32F30x_standard_peripheral/Source/gd32f30x_spi.c ****     SPI_CTL0(spi_periph) &= (uint32_t)(~SPI_CTL0_SPIEN);
 272              		.loc 1 165 5 view .LVU71
 273              		.loc 1 165 26 is_stmt 0 view .LVU72
 274 0000 0368     		ldr	r3, [r0]
 275 0002 23F04003 		bic	r3, r3, #64
 276 0006 0360     		str	r3, [r0]
 166:Drivers/GD32F30x_standard_peripheral/Source/gd32f30x_spi.c **** }
 277              		.loc 1 166 1 view .LVU73
 278 0008 7047     		bx	lr
 279              		.cfi_endproc
 280              	.LFE120:
 282              		.section	.text.i2s_init,"ax",%progbits
 283              		.align	1
 284              		.global	i2s_init
 285              		.syntax unified
 286              		.thumb
 287              		.thumb_func
 288              		.fpu fpv4-sp-d16
ARM GAS  C:\Users\Prog\AppData\Local\Temp\cccBSqyc.s 			page 9


 290              	i2s_init:
 291              	.LVL29:
 292              	.LFB121:
 167:Drivers/GD32F30x_standard_peripheral/Source/gd32f30x_spi.c **** 
 168:Drivers/GD32F30x_standard_peripheral/Source/gd32f30x_spi.c **** /*!
 169:Drivers/GD32F30x_standard_peripheral/Source/gd32f30x_spi.c ****     \brief      initialize I2S parameter 
 170:Drivers/GD32F30x_standard_peripheral/Source/gd32f30x_spi.c ****     \param[in]  spi_periph: SPIx(x=1,2)
 171:Drivers/GD32F30x_standard_peripheral/Source/gd32f30x_spi.c ****     \param[in]  i2s_mode: I2S operation mode
 172:Drivers/GD32F30x_standard_peripheral/Source/gd32f30x_spi.c ****                 only one parameter can be selected which is shown as below:
 173:Drivers/GD32F30x_standard_peripheral/Source/gd32f30x_spi.c ****       \arg        I2S_MODE_SLAVETX: I2S slave transmit mode
 174:Drivers/GD32F30x_standard_peripheral/Source/gd32f30x_spi.c ****       \arg        I2S_MODE_SLAVERX: I2S slave receive mode
 175:Drivers/GD32F30x_standard_peripheral/Source/gd32f30x_spi.c ****       \arg        I2S_MODE_MASTERTX: I2S master transmit mode
 176:Drivers/GD32F30x_standard_peripheral/Source/gd32f30x_spi.c ****       \arg        I2S_MODE_MASTERRX: I2S master receive mode
 177:Drivers/GD32F30x_standard_peripheral/Source/gd32f30x_spi.c ****     \param[in]  i2s_standard: I2S standard
 178:Drivers/GD32F30x_standard_peripheral/Source/gd32f30x_spi.c ****                 only one parameter can be selected which is shown as below:
 179:Drivers/GD32F30x_standard_peripheral/Source/gd32f30x_spi.c ****       \arg        I2S_STD_PHILLIPS: I2S phillips standard
 180:Drivers/GD32F30x_standard_peripheral/Source/gd32f30x_spi.c ****       \arg        I2S_STD_MSB: I2S MSB standard
 181:Drivers/GD32F30x_standard_peripheral/Source/gd32f30x_spi.c ****       \arg        I2S_STD_LSB: I2S LSB standard
 182:Drivers/GD32F30x_standard_peripheral/Source/gd32f30x_spi.c ****       \arg        I2S_STD_PCMSHORT: I2S PCM short standard
 183:Drivers/GD32F30x_standard_peripheral/Source/gd32f30x_spi.c ****       \arg        I2S_STD_PCMLONG: I2S PCM long standard
 184:Drivers/GD32F30x_standard_peripheral/Source/gd32f30x_spi.c ****     \param[in]  i2s_ckpl: I2S idle state clock polarity
 185:Drivers/GD32F30x_standard_peripheral/Source/gd32f30x_spi.c ****                 only one parameter can be selected which is shown as below:
 186:Drivers/GD32F30x_standard_peripheral/Source/gd32f30x_spi.c ****       \arg        I2S_CKPL_LOW: I2S clock polarity low level
 187:Drivers/GD32F30x_standard_peripheral/Source/gd32f30x_spi.c ****       \arg        I2S_CKPL_HIGH: I2S clock polarity high level
 188:Drivers/GD32F30x_standard_peripheral/Source/gd32f30x_spi.c ****     \param[out] none
 189:Drivers/GD32F30x_standard_peripheral/Source/gd32f30x_spi.c ****     \retval     none
 190:Drivers/GD32F30x_standard_peripheral/Source/gd32f30x_spi.c **** */
 191:Drivers/GD32F30x_standard_peripheral/Source/gd32f30x_spi.c **** void i2s_init(uint32_t spi_periph, uint32_t i2s_mode, uint32_t i2s_standard, uint32_t i2s_ckpl)
 192:Drivers/GD32F30x_standard_peripheral/Source/gd32f30x_spi.c **** {
 293              		.loc 1 192 1 is_stmt 1 view -0
 294              		.cfi_startproc
 295              		@ args = 0, pretend = 0, frame = 0
 296              		@ frame_needed = 0, uses_anonymous_args = 0
 297              		@ link register save eliminated.
 298              		.loc 1 192 1 is_stmt 0 view .LVU75
 299 0000 10B4     		push	{r4}
 300              	.LCFI1:
 301              		.cfi_def_cfa_offset 4
 302              		.cfi_offset 4, -4
 193:Drivers/GD32F30x_standard_peripheral/Source/gd32f30x_spi.c ****     uint32_t reg= 0U;
 303              		.loc 1 193 5 is_stmt 1 view .LVU76
 304              	.LVL30:
 194:Drivers/GD32F30x_standard_peripheral/Source/gd32f30x_spi.c ****     reg = SPI_I2SCTL(spi_periph);
 305              		.loc 1 194 5 view .LVU77
 306              		.loc 1 194 9 is_stmt 0 view .LVU78
 307 0002 C469     		ldr	r4, [r0, #28]
 308              	.LVL31:
 195:Drivers/GD32F30x_standard_peripheral/Source/gd32f30x_spi.c ****     reg &= I2S_INIT_MASK;
 309              		.loc 1 195 5 is_stmt 1 view .LVU79
 310              		.loc 1 195 9 is_stmt 0 view .LVU80
 311 0004 4FF2470C 		movw	ip, #61511
 312 0008 04EA0C0C 		and	ip, r4, ip
 313              	.LVL32:
 196:Drivers/GD32F30x_standard_peripheral/Source/gd32f30x_spi.c **** 
 197:Drivers/GD32F30x_standard_peripheral/Source/gd32f30x_spi.c ****     /* enable I2S mode */
 198:Drivers/GD32F30x_standard_peripheral/Source/gd32f30x_spi.c ****     reg |= (uint32_t)SPI_I2SCTL_I2SSEL; 
 314              		.loc 1 198 5 is_stmt 1 view .LVU81
ARM GAS  C:\Users\Prog\AppData\Local\Temp\cccBSqyc.s 			page 10


 315              		.loc 1 198 9 is_stmt 0 view .LVU82
 316 000c 4CF4006C 		orr	ip, ip, #2048
 317              	.LVL33:
 199:Drivers/GD32F30x_standard_peripheral/Source/gd32f30x_spi.c ****     /* select I2S mode */
 200:Drivers/GD32F30x_standard_peripheral/Source/gd32f30x_spi.c ****     reg |= (uint32_t)i2s_mode;
 318              		.loc 1 200 5 is_stmt 1 view .LVU83
 319              		.loc 1 200 9 is_stmt 0 view .LVU84
 320 0010 4CEA010C 		orr	ip, ip, r1
 321              	.LVL34:
 201:Drivers/GD32F30x_standard_peripheral/Source/gd32f30x_spi.c ****     /* select I2S standard */
 202:Drivers/GD32F30x_standard_peripheral/Source/gd32f30x_spi.c ****     reg |= (uint32_t)i2s_standard;
 322              		.loc 1 202 5 is_stmt 1 view .LVU85
 323              		.loc 1 202 9 is_stmt 0 view .LVU86
 324 0014 4CEA020C 		orr	ip, ip, r2
 325              	.LVL35:
 203:Drivers/GD32F30x_standard_peripheral/Source/gd32f30x_spi.c ****     /* select I2S polarity */
 204:Drivers/GD32F30x_standard_peripheral/Source/gd32f30x_spi.c ****     reg |= (uint32_t)i2s_ckpl;
 326              		.loc 1 204 5 is_stmt 1 view .LVU87
 327              		.loc 1 204 9 is_stmt 0 view .LVU88
 328 0018 4CEA0303 		orr	r3, ip, r3
 329              	.LVL36:
 205:Drivers/GD32F30x_standard_peripheral/Source/gd32f30x_spi.c **** 
 206:Drivers/GD32F30x_standard_peripheral/Source/gd32f30x_spi.c ****     /* write to SPI_I2SCTL register */
 207:Drivers/GD32F30x_standard_peripheral/Source/gd32f30x_spi.c ****     SPI_I2SCTL(spi_periph) = (uint32_t)reg;
 330              		.loc 1 207 5 is_stmt 1 view .LVU89
 331              		.loc 1 207 28 is_stmt 0 view .LVU90
 332 001c C361     		str	r3, [r0, #28]
 208:Drivers/GD32F30x_standard_peripheral/Source/gd32f30x_spi.c **** }
 333              		.loc 1 208 1 view .LVU91
 334 001e 5DF8044B 		ldr	r4, [sp], #4
 335              	.LCFI2:
 336              		.cfi_restore 4
 337              		.cfi_def_cfa_offset 0
 338 0022 7047     		bx	lr
 339              		.cfi_endproc
 340              	.LFE121:
 342              		.section	.text.i2s_psc_config,"ax",%progbits
 343              		.align	1
 344              		.global	i2s_psc_config
 345              		.syntax unified
 346              		.thumb
 347              		.thumb_func
 348              		.fpu fpv4-sp-d16
 350              	i2s_psc_config:
 351              	.LVL37:
 352              	.LFB122:
 209:Drivers/GD32F30x_standard_peripheral/Source/gd32f30x_spi.c **** 
 210:Drivers/GD32F30x_standard_peripheral/Source/gd32f30x_spi.c **** /*!
 211:Drivers/GD32F30x_standard_peripheral/Source/gd32f30x_spi.c ****     \brief      configure I2S prescaler 
 212:Drivers/GD32F30x_standard_peripheral/Source/gd32f30x_spi.c ****     \param[in]  spi_periph: SPIx(x=1,2)
 213:Drivers/GD32F30x_standard_peripheral/Source/gd32f30x_spi.c ****     \param[in]  i2s_audiosample: I2S audio sample rate
 214:Drivers/GD32F30x_standard_peripheral/Source/gd32f30x_spi.c ****                 only one parameter can be selected which is shown as below:
 215:Drivers/GD32F30x_standard_peripheral/Source/gd32f30x_spi.c ****       \arg        I2S_AUDIOSAMPLE_8K: audio sample rate is 8KHz
 216:Drivers/GD32F30x_standard_peripheral/Source/gd32f30x_spi.c ****       \arg        I2S_AUDIOSAMPLE_11K: audio sample rate is 11KHz
 217:Drivers/GD32F30x_standard_peripheral/Source/gd32f30x_spi.c ****       \arg        I2S_AUDIOSAMPLE_16K: audio sample rate is 16KHz
 218:Drivers/GD32F30x_standard_peripheral/Source/gd32f30x_spi.c ****       \arg        I2S_AUDIOSAMPLE_22K: audio sample rate is 22KHz
 219:Drivers/GD32F30x_standard_peripheral/Source/gd32f30x_spi.c ****       \arg        I2S_AUDIOSAMPLE_32K: audio sample rate is 32KHz
ARM GAS  C:\Users\Prog\AppData\Local\Temp\cccBSqyc.s 			page 11


 220:Drivers/GD32F30x_standard_peripheral/Source/gd32f30x_spi.c ****       \arg        I2S_AUDIOSAMPLE_44K: audio sample rate is 44KHz
 221:Drivers/GD32F30x_standard_peripheral/Source/gd32f30x_spi.c ****       \arg        I2S_AUDIOSAMPLE_48K: audio sample rate is 48KHz
 222:Drivers/GD32F30x_standard_peripheral/Source/gd32f30x_spi.c ****       \arg        I2S_AUDIOSAMPLE_96K: audio sample rate is 96KHz
 223:Drivers/GD32F30x_standard_peripheral/Source/gd32f30x_spi.c ****       \arg        I2S_AUDIOSAMPLE_192K: audio sample rate is 192KHz
 224:Drivers/GD32F30x_standard_peripheral/Source/gd32f30x_spi.c ****     \param[in]  i2s_frameformat: I2S data length and channel length
 225:Drivers/GD32F30x_standard_peripheral/Source/gd32f30x_spi.c ****                 only one parameter can be selected which is shown as below:
 226:Drivers/GD32F30x_standard_peripheral/Source/gd32f30x_spi.c ****       \arg        I2S_FRAMEFORMAT_DT16B_CH16B: I2S data length is 16 bit and channel length is 16 b
 227:Drivers/GD32F30x_standard_peripheral/Source/gd32f30x_spi.c ****       \arg        I2S_FRAMEFORMAT_DT16B_CH32B: I2S data length is 16 bit and channel length is 32 b
 228:Drivers/GD32F30x_standard_peripheral/Source/gd32f30x_spi.c ****       \arg        I2S_FRAMEFORMAT_DT24B_CH32B: I2S data length is 24 bit and channel length is 32 b
 229:Drivers/GD32F30x_standard_peripheral/Source/gd32f30x_spi.c ****       \arg        I2S_FRAMEFORMAT_DT32B_CH32B: I2S data length is 32 bit and channel length is 32 b
 230:Drivers/GD32F30x_standard_peripheral/Source/gd32f30x_spi.c ****     \param[in]  i2s_mckout: I2S master clock output
 231:Drivers/GD32F30x_standard_peripheral/Source/gd32f30x_spi.c ****                 only one parameter can be selected which is shown as below:
 232:Drivers/GD32F30x_standard_peripheral/Source/gd32f30x_spi.c ****       \arg        I2S_MCKOUT_ENABLE: I2S master clock output enable
 233:Drivers/GD32F30x_standard_peripheral/Source/gd32f30x_spi.c ****       \arg        I2S_MCKOUT_DISABLE: I2S master clock output disable
 234:Drivers/GD32F30x_standard_peripheral/Source/gd32f30x_spi.c ****     \param[out] none
 235:Drivers/GD32F30x_standard_peripheral/Source/gd32f30x_spi.c ****     \retval     none
 236:Drivers/GD32F30x_standard_peripheral/Source/gd32f30x_spi.c **** */
 237:Drivers/GD32F30x_standard_peripheral/Source/gd32f30x_spi.c **** void i2s_psc_config(uint32_t spi_periph, uint32_t i2s_audiosample, uint32_t i2s_frameformat, uint32
 238:Drivers/GD32F30x_standard_peripheral/Source/gd32f30x_spi.c **** {
 353              		.loc 1 238 1 is_stmt 1 view -0
 354              		.cfi_startproc
 355              		@ args = 0, pretend = 0, frame = 0
 356              		@ frame_needed = 0, uses_anonymous_args = 0
 239:Drivers/GD32F30x_standard_peripheral/Source/gd32f30x_spi.c ****     uint32_t i2sdiv = 2U, i2sof = 0U;
 357              		.loc 1 239 5 view .LVU93
 240:Drivers/GD32F30x_standard_peripheral/Source/gd32f30x_spi.c ****     uint32_t clks = 0U;
 358              		.loc 1 240 5 view .LVU94
 241:Drivers/GD32F30x_standard_peripheral/Source/gd32f30x_spi.c ****     uint32_t i2sclock = 0U;
 359              		.loc 1 241 5 view .LVU95
 242:Drivers/GD32F30x_standard_peripheral/Source/gd32f30x_spi.c ****     
 243:Drivers/GD32F30x_standard_peripheral/Source/gd32f30x_spi.c **** #ifdef GD32F30X_CL
 244:Drivers/GD32F30x_standard_peripheral/Source/gd32f30x_spi.c ****     uint32_t pll2mf_4 = 0U;
 245:Drivers/GD32F30x_standard_peripheral/Source/gd32f30x_spi.c **** #endif /* GD32F30X_CL */
 246:Drivers/GD32F30x_standard_peripheral/Source/gd32f30x_spi.c ****     
 247:Drivers/GD32F30x_standard_peripheral/Source/gd32f30x_spi.c ****      /* judge whether the audiosample is 0 */
 248:Drivers/GD32F30x_standard_peripheral/Source/gd32f30x_spi.c ****     if(0U == i2s_audiosample){
 360              		.loc 1 248 5 view .LVU96
 361              		.loc 1 248 7 is_stmt 0 view .LVU97
 362 0000 01B9     		cbnz	r1, .L17
 363              	.L18:
 249:Drivers/GD32F30x_standard_peripheral/Source/gd32f30x_spi.c ****         SPI_ERROR_HANDLE("the parameter can not be 0 \r\n");
 364              		.loc 1 249 9 is_stmt 1 discriminator 1 view .LVU98
 365              		.loc 1 249 9 discriminator 1 view .LVU99
 366              		.loc 1 249 9 discriminator 1 view .LVU100
 367 0002 FEE7     		b	.L18
 368              	.L17:
 238:Drivers/GD32F30x_standard_peripheral/Source/gd32f30x_spi.c ****     uint32_t i2sdiv = 2U, i2sof = 0U;
 369              		.loc 1 238 1 is_stmt 0 view .LVU101
 370 0004 F8B5     		push	{r3, r4, r5, r6, r7, lr}
 371              	.LCFI3:
 372              		.cfi_def_cfa_offset 24
 373              		.cfi_offset 3, -24
 374              		.cfi_offset 4, -20
 375              		.cfi_offset 5, -16
 376              		.cfi_offset 6, -12
 377              		.cfi_offset 7, -8
 378              		.cfi_offset 14, -4
ARM GAS  C:\Users\Prog\AppData\Local\Temp\cccBSqyc.s 			page 12


 379 0006 0546     		mov	r5, r0
 380 0008 1646     		mov	r6, r2
 381 000a 1F46     		mov	r7, r3
 382 000c 0C46     		mov	r4, r1
 250:Drivers/GD32F30x_standard_peripheral/Source/gd32f30x_spi.c ****     }
 251:Drivers/GD32F30x_standard_peripheral/Source/gd32f30x_spi.c ****     /* deinit SPI_I2SPSC register */
 252:Drivers/GD32F30x_standard_peripheral/Source/gd32f30x_spi.c ****     SPI_I2SPSC(spi_periph) = SPI_I2SPSC_DEFAULT_VALUE;
 383              		.loc 1 252 5 is_stmt 1 view .LVU102
 384              		.loc 1 252 28 is_stmt 0 view .LVU103
 385 000e 0223     		movs	r3, #2
 386              	.LVL38:
 387              		.loc 1 252 28 view .LVU104
 388 0010 0362     		str	r3, [r0, #32]
 253:Drivers/GD32F30x_standard_peripheral/Source/gd32f30x_spi.c **** 
 254:Drivers/GD32F30x_standard_peripheral/Source/gd32f30x_spi.c **** #ifdef GD32F30X_CL
 255:Drivers/GD32F30x_standard_peripheral/Source/gd32f30x_spi.c ****     /* get the I2S clock source */
 256:Drivers/GD32F30x_standard_peripheral/Source/gd32f30x_spi.c ****     if(((uint32_t)spi_periph) == SPI1){
 257:Drivers/GD32F30x_standard_peripheral/Source/gd32f30x_spi.c ****         /* I2S1 clock source selection */
 258:Drivers/GD32F30x_standard_peripheral/Source/gd32f30x_spi.c ****         clks = I2S1_CLOCK_SEL;
 259:Drivers/GD32F30x_standard_peripheral/Source/gd32f30x_spi.c ****     }else{
 260:Drivers/GD32F30x_standard_peripheral/Source/gd32f30x_spi.c ****         /* I2S2 clock source selection */
 261:Drivers/GD32F30x_standard_peripheral/Source/gd32f30x_spi.c ****         clks = I2S2_CLOCK_SEL;
 262:Drivers/GD32F30x_standard_peripheral/Source/gd32f30x_spi.c ****     }
 263:Drivers/GD32F30x_standard_peripheral/Source/gd32f30x_spi.c ****     
 264:Drivers/GD32F30x_standard_peripheral/Source/gd32f30x_spi.c ****     if(0U != (RCU_CFG1 & clks)){
 265:Drivers/GD32F30x_standard_peripheral/Source/gd32f30x_spi.c ****         /* get RCU PLL2 clock multiplication factor */
 266:Drivers/GD32F30x_standard_peripheral/Source/gd32f30x_spi.c ****         clks = (uint32_t)((RCU_CFG1 & I2S_CLOCK_MUL_MASK) >> 12U);
 267:Drivers/GD32F30x_standard_peripheral/Source/gd32f30x_spi.c ****         
 268:Drivers/GD32F30x_standard_peripheral/Source/gd32f30x_spi.c ****         pll2mf_4 = RCU_CFG1 & RCU_CFG1_PLL2MF_4;
 269:Drivers/GD32F30x_standard_peripheral/Source/gd32f30x_spi.c ****         
 270:Drivers/GD32F30x_standard_peripheral/Source/gd32f30x_spi.c ****         if( 0U == pll2mf_4){
 271:Drivers/GD32F30x_standard_peripheral/Source/gd32f30x_spi.c ****             if((clks > 5U) && (clks < 15U)){
 272:Drivers/GD32F30x_standard_peripheral/Source/gd32f30x_spi.c ****                 /* multiplier is between 8 and 16 */
 273:Drivers/GD32F30x_standard_peripheral/Source/gd32f30x_spi.c ****                 clks += 2U;
 274:Drivers/GD32F30x_standard_peripheral/Source/gd32f30x_spi.c ****             }else{
 275:Drivers/GD32F30x_standard_peripheral/Source/gd32f30x_spi.c ****                 if(15U == clks){
 276:Drivers/GD32F30x_standard_peripheral/Source/gd32f30x_spi.c ****                     /* multiplier is 20 */
 277:Drivers/GD32F30x_standard_peripheral/Source/gd32f30x_spi.c ****                     clks = 20U;
 278:Drivers/GD32F30x_standard_peripheral/Source/gd32f30x_spi.c ****                 }
 279:Drivers/GD32F30x_standard_peripheral/Source/gd32f30x_spi.c ****             }
 280:Drivers/GD32F30x_standard_peripheral/Source/gd32f30x_spi.c ****         }else{
 281:Drivers/GD32F30x_standard_peripheral/Source/gd32f30x_spi.c ****             if(clks < 15U){
 282:Drivers/GD32F30x_standard_peripheral/Source/gd32f30x_spi.c ****                 /* multiplier is between 18 and 32 */
 283:Drivers/GD32F30x_standard_peripheral/Source/gd32f30x_spi.c ****                 clks += 18U;
 284:Drivers/GD32F30x_standard_peripheral/Source/gd32f30x_spi.c ****             }else{
 285:Drivers/GD32F30x_standard_peripheral/Source/gd32f30x_spi.c ****                 if(15U == clks){
 286:Drivers/GD32F30x_standard_peripheral/Source/gd32f30x_spi.c ****                     /* multiplier is 40 */
 287:Drivers/GD32F30x_standard_peripheral/Source/gd32f30x_spi.c ****                     clks = 40U;
 288:Drivers/GD32F30x_standard_peripheral/Source/gd32f30x_spi.c ****                 }
 289:Drivers/GD32F30x_standard_peripheral/Source/gd32f30x_spi.c ****             }
 290:Drivers/GD32F30x_standard_peripheral/Source/gd32f30x_spi.c ****         }
 291:Drivers/GD32F30x_standard_peripheral/Source/gd32f30x_spi.c **** 
 292:Drivers/GD32F30x_standard_peripheral/Source/gd32f30x_spi.c ****         /* get the PREDV1 value */
 293:Drivers/GD32F30x_standard_peripheral/Source/gd32f30x_spi.c ****         i2sclock = (uint32_t)(((RCU_CFG1 & I2S_CLOCK_DIV_MASK) >> 4U) + 1U);
 294:Drivers/GD32F30x_standard_peripheral/Source/gd32f30x_spi.c ****         /* calculate i2sclock based on PLL2 and PREDV1 */
 295:Drivers/GD32F30x_standard_peripheral/Source/gd32f30x_spi.c ****         i2sclock = (uint32_t)((HXTAL_VALUE / i2sclock) * clks * 2U); 
 296:Drivers/GD32F30x_standard_peripheral/Source/gd32f30x_spi.c ****     }else{
ARM GAS  C:\Users\Prog\AppData\Local\Temp\cccBSqyc.s 			page 13


 297:Drivers/GD32F30x_standard_peripheral/Source/gd32f30x_spi.c ****         /* get system clock */
 298:Drivers/GD32F30x_standard_peripheral/Source/gd32f30x_spi.c ****         i2sclock = rcu_clock_freq_get(CK_SYS);
 299:Drivers/GD32F30x_standard_peripheral/Source/gd32f30x_spi.c ****     }
 300:Drivers/GD32F30x_standard_peripheral/Source/gd32f30x_spi.c **** #else
 301:Drivers/GD32F30x_standard_peripheral/Source/gd32f30x_spi.c ****     /* get system clock */
 302:Drivers/GD32F30x_standard_peripheral/Source/gd32f30x_spi.c ****     i2sclock = rcu_clock_freq_get(CK_SYS);
 389              		.loc 1 302 5 is_stmt 1 view .LVU105
 390              		.loc 1 302 16 is_stmt 0 view .LVU106
 391 0012 0020     		movs	r0, #0
 392              	.LVL39:
 393              		.loc 1 302 16 view .LVU107
 394 0014 FFF7FEFF 		bl	rcu_clock_freq_get
 395              	.LVL40:
 303:Drivers/GD32F30x_standard_peripheral/Source/gd32f30x_spi.c **** #endif /* GD32F30X_CL */ 
 304:Drivers/GD32F30x_standard_peripheral/Source/gd32f30x_spi.c ****     
 305:Drivers/GD32F30x_standard_peripheral/Source/gd32f30x_spi.c ****     /* config the prescaler depending on the mclk output state, the frame format and audio sample r
 306:Drivers/GD32F30x_standard_peripheral/Source/gd32f30x_spi.c ****     if(I2S_MCKOUT_ENABLE == i2s_mckout){
 396              		.loc 1 306 5 is_stmt 1 view .LVU108
 397              		.loc 1 306 7 is_stmt 0 view .LVU109
 398 0018 B7F5007F 		cmp	r7, #512
 399 001c 07D0     		beq	.L26
 307:Drivers/GD32F30x_standard_peripheral/Source/gd32f30x_spi.c ****         clks = (uint32_t)(((i2sclock / 256U) * 10U) / i2s_audiosample);
 308:Drivers/GD32F30x_standard_peripheral/Source/gd32f30x_spi.c ****     }else{
 309:Drivers/GD32F30x_standard_peripheral/Source/gd32f30x_spi.c ****         if(I2S_FRAMEFORMAT_DT16B_CH16B == i2s_frameformat){
 400              		.loc 1 309 9 is_stmt 1 view .LVU110
 401              		.loc 1 309 11 is_stmt 0 view .LVU111
 402 001e 36BB     		cbnz	r6, .L21
 310:Drivers/GD32F30x_standard_peripheral/Source/gd32f30x_spi.c ****             clks = (uint32_t)(((i2sclock / 32U) *10U ) / i2s_audiosample);
 403              		.loc 1 310 13 is_stmt 1 view .LVU112
 404              		.loc 1 310 42 is_stmt 0 view .LVU113
 405 0020 4009     		lsrs	r0, r0, #5
 406              	.LVL41:
 407              		.loc 1 310 49 view .LVU114
 408 0022 00EB8000 		add	r0, r0, r0, lsl #2
 409 0026 4100     		lsls	r1, r0, #1
 410              		.loc 1 310 18 view .LVU115
 411 0028 B1FBF4F4 		udiv	r4, r1, r4
 412              	.LVL42:
 413              		.loc 1 310 18 view .LVU116
 414 002c 05E0     		b	.L20
 415              	.LVL43:
 416              	.L26:
 307:Drivers/GD32F30x_standard_peripheral/Source/gd32f30x_spi.c ****         clks = (uint32_t)(((i2sclock / 256U) * 10U) / i2s_audiosample);
 417              		.loc 1 307 9 is_stmt 1 view .LVU117
 307:Drivers/GD32F30x_standard_peripheral/Source/gd32f30x_spi.c ****         clks = (uint32_t)(((i2sclock / 256U) * 10U) / i2s_audiosample);
 418              		.loc 1 307 38 is_stmt 0 view .LVU118
 419 002e 000A     		lsrs	r0, r0, #8
 420              	.LVL44:
 307:Drivers/GD32F30x_standard_peripheral/Source/gd32f30x_spi.c ****         clks = (uint32_t)(((i2sclock / 256U) * 10U) / i2s_audiosample);
 421              		.loc 1 307 46 view .LVU119
 422 0030 00EB8000 		add	r0, r0, r0, lsl #2
 423 0034 4100     		lsls	r1, r0, #1
 307:Drivers/GD32F30x_standard_peripheral/Source/gd32f30x_spi.c ****         clks = (uint32_t)(((i2sclock / 256U) * 10U) / i2s_audiosample);
 424              		.loc 1 307 14 view .LVU120
 425 0036 B1FBF4F4 		udiv	r4, r1, r4
 426              	.LVL45:
 427              	.L20:
ARM GAS  C:\Users\Prog\AppData\Local\Temp\cccBSqyc.s 			page 14


 311:Drivers/GD32F30x_standard_peripheral/Source/gd32f30x_spi.c ****         }else{
 312:Drivers/GD32F30x_standard_peripheral/Source/gd32f30x_spi.c ****             clks = (uint32_t)(((i2sclock / 64U) *10U ) / i2s_audiosample);
 313:Drivers/GD32F30x_standard_peripheral/Source/gd32f30x_spi.c ****         }
 314:Drivers/GD32F30x_standard_peripheral/Source/gd32f30x_spi.c ****     }
 315:Drivers/GD32F30x_standard_peripheral/Source/gd32f30x_spi.c ****     
 316:Drivers/GD32F30x_standard_peripheral/Source/gd32f30x_spi.c ****     /* remove the floating point */
 317:Drivers/GD32F30x_standard_peripheral/Source/gd32f30x_spi.c ****     clks   = (clks + 5U) / 10U;
 428              		.loc 1 317 5 is_stmt 1 view .LVU121
 429              		.loc 1 317 20 is_stmt 0 view .LVU122
 430 003a 611D     		adds	r1, r4, #5
 431              		.loc 1 317 12 view .LVU123
 432 003c 0F4B     		ldr	r3, .L27
 433 003e A3FB0131 		umull	r3, r1, r3, r1
 434              	.LVL46:
 318:Drivers/GD32F30x_standard_peripheral/Source/gd32f30x_spi.c ****     i2sof  = (clks & 0x00000001U);
 435              		.loc 1 318 5 is_stmt 1 view .LVU124
 436              		.loc 1 318 12 is_stmt 0 view .LVU125
 437 0042 C1F3C003 		ubfx	r3, r1, #3, #1
 438              	.LVL47:
 319:Drivers/GD32F30x_standard_peripheral/Source/gd32f30x_spi.c ****     i2sdiv = ((clks - i2sof) / 2U);
 439              		.loc 1 319 5 is_stmt 1 view .LVU126
 440              		.loc 1 319 21 is_stmt 0 view .LVU127
 441 0046 C3EBD101 		rsb	r1, r3, r1, lsr #3
 442              	.LVL48:
 443              		.loc 1 319 12 view .LVU128
 444 004a 4908     		lsrs	r1, r1, #1
 445              	.LVL49:
 320:Drivers/GD32F30x_standard_peripheral/Source/gd32f30x_spi.c ****     i2sof  = (i2sof << 8U);
 446              		.loc 1 320 5 is_stmt 1 view .LVU129
 447              		.loc 1 320 12 is_stmt 0 view .LVU130
 448 004c 1B02     		lsls	r3, r3, #8
 449              	.LVL50:
 321:Drivers/GD32F30x_standard_peripheral/Source/gd32f30x_spi.c **** 
 322:Drivers/GD32F30x_standard_peripheral/Source/gd32f30x_spi.c ****     /* set the default values */
 323:Drivers/GD32F30x_standard_peripheral/Source/gd32f30x_spi.c ****     if((i2sdiv < 2U) || (i2sdiv > 255U)){
 450              		.loc 1 323 5 is_stmt 1 view .LVU131
 451              		.loc 1 323 22 is_stmt 0 view .LVU132
 452 004e 8A1E     		subs	r2, r1, #2
 453              		.loc 1 323 7 view .LVU133
 454 0050 FD2A     		cmp	r2, #253
 455 0052 01D9     		bls	.L22
 324:Drivers/GD32F30x_standard_peripheral/Source/gd32f30x_spi.c ****         i2sdiv = 2U;
 325:Drivers/GD32F30x_standard_peripheral/Source/gd32f30x_spi.c ****         i2sof = 0U;
 456              		.loc 1 325 15 view .LVU134
 457 0054 0023     		movs	r3, #0
 458              	.LVL51:
 324:Drivers/GD32F30x_standard_peripheral/Source/gd32f30x_spi.c ****         i2sdiv = 2U;
 459              		.loc 1 324 16 view .LVU135
 460 0056 0221     		movs	r1, #2
 461              	.LVL52:
 462              	.L22:
 326:Drivers/GD32F30x_standard_peripheral/Source/gd32f30x_spi.c ****     }
 327:Drivers/GD32F30x_standard_peripheral/Source/gd32f30x_spi.c **** 
 328:Drivers/GD32F30x_standard_peripheral/Source/gd32f30x_spi.c ****     /* configure SPI_I2SPSC */
 329:Drivers/GD32F30x_standard_peripheral/Source/gd32f30x_spi.c ****     SPI_I2SPSC(spi_periph) = (uint32_t)(i2sdiv | i2sof | i2s_mckout);
 463              		.loc 1 329 5 is_stmt 1 view .LVU136
 464              		.loc 1 329 48 is_stmt 0 view .LVU137
ARM GAS  C:\Users\Prog\AppData\Local\Temp\cccBSqyc.s 			page 15


 465 0058 1943     		orrs	r1, r1, r3
 466              	.LVL53:
 467              		.loc 1 329 56 view .LVU138
 468 005a 3943     		orrs	r1, r1, r7
 469              		.loc 1 329 28 view .LVU139
 470 005c 2962     		str	r1, [r5, #32]
 330:Drivers/GD32F30x_standard_peripheral/Source/gd32f30x_spi.c **** 
 331:Drivers/GD32F30x_standard_peripheral/Source/gd32f30x_spi.c ****     /* clear SPI_I2SCTL_DTLEN and SPI_I2SCTL_CHLEN bits */
 332:Drivers/GD32F30x_standard_peripheral/Source/gd32f30x_spi.c ****     SPI_I2SCTL(spi_periph) &= (uint32_t)(~(SPI_I2SCTL_DTLEN | SPI_I2SCTL_CHLEN));
 471              		.loc 1 332 5 is_stmt 1 view .LVU140
 472              		.loc 1 332 28 is_stmt 0 view .LVU141
 473 005e EB69     		ldr	r3, [r5, #28]
 474              	.LVL54:
 475              		.loc 1 332 28 view .LVU142
 476 0060 23F00703 		bic	r3, r3, #7
 477 0064 EB61     		str	r3, [r5, #28]
 333:Drivers/GD32F30x_standard_peripheral/Source/gd32f30x_spi.c ****     /* configure data frame format */
 334:Drivers/GD32F30x_standard_peripheral/Source/gd32f30x_spi.c ****     SPI_I2SCTL(spi_periph) |= (uint32_t)i2s_frameformat;
 478              		.loc 1 334 5 is_stmt 1 view .LVU143
 479              		.loc 1 334 28 is_stmt 0 view .LVU144
 480 0066 EB69     		ldr	r3, [r5, #28]
 481 0068 1E43     		orrs	r6, r6, r3
 482              	.LVL55:
 483              		.loc 1 334 28 view .LVU145
 484 006a EE61     		str	r6, [r5, #28]
 335:Drivers/GD32F30x_standard_peripheral/Source/gd32f30x_spi.c **** }
 485              		.loc 1 335 1 view .LVU146
 486 006c F8BD     		pop	{r3, r4, r5, r6, r7, pc}
 487              	.LVL56:
 488              	.L21:
 312:Drivers/GD32F30x_standard_peripheral/Source/gd32f30x_spi.c ****         }
 489              		.loc 1 312 13 is_stmt 1 view .LVU147
 312:Drivers/GD32F30x_standard_peripheral/Source/gd32f30x_spi.c ****         }
 490              		.loc 1 312 42 is_stmt 0 view .LVU148
 491 006e 8009     		lsrs	r0, r0, #6
 492              	.LVL57:
 312:Drivers/GD32F30x_standard_peripheral/Source/gd32f30x_spi.c ****         }
 493              		.loc 1 312 49 view .LVU149
 494 0070 00EB8000 		add	r0, r0, r0, lsl #2
 495 0074 4100     		lsls	r1, r0, #1
 312:Drivers/GD32F30x_standard_peripheral/Source/gd32f30x_spi.c ****         }
 496              		.loc 1 312 18 view .LVU150
 497 0076 B1FBF4F4 		udiv	r4, r1, r4
 498              	.LVL58:
 312:Drivers/GD32F30x_standard_peripheral/Source/gd32f30x_spi.c ****         }
 499              		.loc 1 312 18 view .LVU151
 500 007a DEE7     		b	.L20
 501              	.L28:
 502              		.align	2
 503              	.L27:
 504 007c CDCCCCCC 		.word	-858993459
 505              		.cfi_endproc
 506              	.LFE122:
 508              		.section	.text.i2s_enable,"ax",%progbits
 509              		.align	1
 510              		.global	i2s_enable
 511              		.syntax unified
ARM GAS  C:\Users\Prog\AppData\Local\Temp\cccBSqyc.s 			page 16


 512              		.thumb
 513              		.thumb_func
 514              		.fpu fpv4-sp-d16
 516              	i2s_enable:
 517              	.LVL59:
 518              	.LFB123:
 336:Drivers/GD32F30x_standard_peripheral/Source/gd32f30x_spi.c **** 
 337:Drivers/GD32F30x_standard_peripheral/Source/gd32f30x_spi.c **** /*!
 338:Drivers/GD32F30x_standard_peripheral/Source/gd32f30x_spi.c ****     \brief      enable I2S 
 339:Drivers/GD32F30x_standard_peripheral/Source/gd32f30x_spi.c ****     \param[in]  spi_periph: SPIx(x=1,2)
 340:Drivers/GD32F30x_standard_peripheral/Source/gd32f30x_spi.c ****     \param[out] none
 341:Drivers/GD32F30x_standard_peripheral/Source/gd32f30x_spi.c ****     \retval     none
 342:Drivers/GD32F30x_standard_peripheral/Source/gd32f30x_spi.c **** */
 343:Drivers/GD32F30x_standard_peripheral/Source/gd32f30x_spi.c **** void i2s_enable(uint32_t spi_periph)
 344:Drivers/GD32F30x_standard_peripheral/Source/gd32f30x_spi.c **** {
 519              		.loc 1 344 1 is_stmt 1 view -0
 520              		.cfi_startproc
 521              		@ args = 0, pretend = 0, frame = 0
 522              		@ frame_needed = 0, uses_anonymous_args = 0
 523              		@ link register save eliminated.
 345:Drivers/GD32F30x_standard_peripheral/Source/gd32f30x_spi.c ****     SPI_I2SCTL(spi_periph) |= (uint32_t)SPI_I2SCTL_I2SEN;
 524              		.loc 1 345 5 view .LVU153
 525              		.loc 1 345 28 is_stmt 0 view .LVU154
 526 0000 C369     		ldr	r3, [r0, #28]
 527 0002 43F48063 		orr	r3, r3, #1024
 528 0006 C361     		str	r3, [r0, #28]
 346:Drivers/GD32F30x_standard_peripheral/Source/gd32f30x_spi.c **** }
 529              		.loc 1 346 1 view .LVU155
 530 0008 7047     		bx	lr
 531              		.cfi_endproc
 532              	.LFE123:
 534              		.section	.text.i2s_disable,"ax",%progbits
 535              		.align	1
 536              		.global	i2s_disable
 537              		.syntax unified
 538              		.thumb
 539              		.thumb_func
 540              		.fpu fpv4-sp-d16
 542              	i2s_disable:
 543              	.LVL60:
 544              	.LFB124:
 347:Drivers/GD32F30x_standard_peripheral/Source/gd32f30x_spi.c **** 
 348:Drivers/GD32F30x_standard_peripheral/Source/gd32f30x_spi.c **** /*!
 349:Drivers/GD32F30x_standard_peripheral/Source/gd32f30x_spi.c ****     \brief      disable I2S 
 350:Drivers/GD32F30x_standard_peripheral/Source/gd32f30x_spi.c ****     \param[in]  spi_periph: SPIx(x=1,2)
 351:Drivers/GD32F30x_standard_peripheral/Source/gd32f30x_spi.c ****     \param[out] none
 352:Drivers/GD32F30x_standard_peripheral/Source/gd32f30x_spi.c ****     \retval     none
 353:Drivers/GD32F30x_standard_peripheral/Source/gd32f30x_spi.c **** */
 354:Drivers/GD32F30x_standard_peripheral/Source/gd32f30x_spi.c **** void i2s_disable(uint32_t spi_periph)
 355:Drivers/GD32F30x_standard_peripheral/Source/gd32f30x_spi.c **** {
 545              		.loc 1 355 1 is_stmt 1 view -0
 546              		.cfi_startproc
 547              		@ args = 0, pretend = 0, frame = 0
 548              		@ frame_needed = 0, uses_anonymous_args = 0
 549              		@ link register save eliminated.
 356:Drivers/GD32F30x_standard_peripheral/Source/gd32f30x_spi.c ****     SPI_I2SCTL(spi_periph) &= (uint32_t)(~SPI_I2SCTL_I2SEN);
 550              		.loc 1 356 5 view .LVU157
ARM GAS  C:\Users\Prog\AppData\Local\Temp\cccBSqyc.s 			page 17


 551              		.loc 1 356 28 is_stmt 0 view .LVU158
 552 0000 C369     		ldr	r3, [r0, #28]
 553 0002 23F48063 		bic	r3, r3, #1024
 554 0006 C361     		str	r3, [r0, #28]
 357:Drivers/GD32F30x_standard_peripheral/Source/gd32f30x_spi.c **** }
 555              		.loc 1 357 1 view .LVU159
 556 0008 7047     		bx	lr
 557              		.cfi_endproc
 558              	.LFE124:
 560              		.section	.text.spi_nss_output_enable,"ax",%progbits
 561              		.align	1
 562              		.global	spi_nss_output_enable
 563              		.syntax unified
 564              		.thumb
 565              		.thumb_func
 566              		.fpu fpv4-sp-d16
 568              	spi_nss_output_enable:
 569              	.LVL61:
 570              	.LFB125:
 358:Drivers/GD32F30x_standard_peripheral/Source/gd32f30x_spi.c **** 
 359:Drivers/GD32F30x_standard_peripheral/Source/gd32f30x_spi.c **** /*!
 360:Drivers/GD32F30x_standard_peripheral/Source/gd32f30x_spi.c ****     \brief      enable SPI NSS output 
 361:Drivers/GD32F30x_standard_peripheral/Source/gd32f30x_spi.c ****     \param[in]  spi_periph: SPIx(x=0,1,2)
 362:Drivers/GD32F30x_standard_peripheral/Source/gd32f30x_spi.c ****     \param[out] none
 363:Drivers/GD32F30x_standard_peripheral/Source/gd32f30x_spi.c ****     \retval     none
 364:Drivers/GD32F30x_standard_peripheral/Source/gd32f30x_spi.c **** */
 365:Drivers/GD32F30x_standard_peripheral/Source/gd32f30x_spi.c **** void spi_nss_output_enable(uint32_t spi_periph)
 366:Drivers/GD32F30x_standard_peripheral/Source/gd32f30x_spi.c **** {
 571              		.loc 1 366 1 is_stmt 1 view -0
 572              		.cfi_startproc
 573              		@ args = 0, pretend = 0, frame = 0
 574              		@ frame_needed = 0, uses_anonymous_args = 0
 575              		@ link register save eliminated.
 367:Drivers/GD32F30x_standard_peripheral/Source/gd32f30x_spi.c ****     SPI_CTL1(spi_periph) |= (uint32_t)SPI_CTL1_NSSDRV;
 576              		.loc 1 367 5 view .LVU161
 577              		.loc 1 367 26 is_stmt 0 view .LVU162
 578 0000 4368     		ldr	r3, [r0, #4]
 579 0002 43F00403 		orr	r3, r3, #4
 580 0006 4360     		str	r3, [r0, #4]
 368:Drivers/GD32F30x_standard_peripheral/Source/gd32f30x_spi.c **** }
 581              		.loc 1 368 1 view .LVU163
 582 0008 7047     		bx	lr
 583              		.cfi_endproc
 584              	.LFE125:
 586              		.section	.text.spi_nss_output_disable,"ax",%progbits
 587              		.align	1
 588              		.global	spi_nss_output_disable
 589              		.syntax unified
 590              		.thumb
 591              		.thumb_func
 592              		.fpu fpv4-sp-d16
 594              	spi_nss_output_disable:
 595              	.LVL62:
 596              	.LFB126:
 369:Drivers/GD32F30x_standard_peripheral/Source/gd32f30x_spi.c **** 
 370:Drivers/GD32F30x_standard_peripheral/Source/gd32f30x_spi.c **** /*!
 371:Drivers/GD32F30x_standard_peripheral/Source/gd32f30x_spi.c ****     \brief      disable SPI NSS output 
ARM GAS  C:\Users\Prog\AppData\Local\Temp\cccBSqyc.s 			page 18


 372:Drivers/GD32F30x_standard_peripheral/Source/gd32f30x_spi.c ****     \param[in]  spi_periph: SPIx(x=0,1,2)
 373:Drivers/GD32F30x_standard_peripheral/Source/gd32f30x_spi.c ****     \param[out] none
 374:Drivers/GD32F30x_standard_peripheral/Source/gd32f30x_spi.c ****     \retval     none
 375:Drivers/GD32F30x_standard_peripheral/Source/gd32f30x_spi.c **** */
 376:Drivers/GD32F30x_standard_peripheral/Source/gd32f30x_spi.c **** void spi_nss_output_disable(uint32_t spi_periph)
 377:Drivers/GD32F30x_standard_peripheral/Source/gd32f30x_spi.c **** {
 597              		.loc 1 377 1 is_stmt 1 view -0
 598              		.cfi_startproc
 599              		@ args = 0, pretend = 0, frame = 0
 600              		@ frame_needed = 0, uses_anonymous_args = 0
 601              		@ link register save eliminated.
 378:Drivers/GD32F30x_standard_peripheral/Source/gd32f30x_spi.c ****     SPI_CTL1(spi_periph) &= (uint32_t)(~SPI_CTL1_NSSDRV);
 602              		.loc 1 378 5 view .LVU165
 603              		.loc 1 378 26 is_stmt 0 view .LVU166
 604 0000 4368     		ldr	r3, [r0, #4]
 605 0002 23F00403 		bic	r3, r3, #4
 606 0006 4360     		str	r3, [r0, #4]
 379:Drivers/GD32F30x_standard_peripheral/Source/gd32f30x_spi.c **** }
 607              		.loc 1 379 1 view .LVU167
 608 0008 7047     		bx	lr
 609              		.cfi_endproc
 610              	.LFE126:
 612              		.section	.text.spi_nss_internal_high,"ax",%progbits
 613              		.align	1
 614              		.global	spi_nss_internal_high
 615              		.syntax unified
 616              		.thumb
 617              		.thumb_func
 618              		.fpu fpv4-sp-d16
 620              	spi_nss_internal_high:
 621              	.LVL63:
 622              	.LFB127:
 380:Drivers/GD32F30x_standard_peripheral/Source/gd32f30x_spi.c **** 
 381:Drivers/GD32F30x_standard_peripheral/Source/gd32f30x_spi.c **** /*!
 382:Drivers/GD32F30x_standard_peripheral/Source/gd32f30x_spi.c ****     \brief      SPI NSS pin high level in software mode
 383:Drivers/GD32F30x_standard_peripheral/Source/gd32f30x_spi.c ****     \param[in]  spi_periph: SPIx(x=0,1,2)
 384:Drivers/GD32F30x_standard_peripheral/Source/gd32f30x_spi.c ****     \param[out] none
 385:Drivers/GD32F30x_standard_peripheral/Source/gd32f30x_spi.c ****     \retval     none
 386:Drivers/GD32F30x_standard_peripheral/Source/gd32f30x_spi.c **** */
 387:Drivers/GD32F30x_standard_peripheral/Source/gd32f30x_spi.c **** void spi_nss_internal_high(uint32_t spi_periph)
 388:Drivers/GD32F30x_standard_peripheral/Source/gd32f30x_spi.c **** {
 623              		.loc 1 388 1 is_stmt 1 view -0
 624              		.cfi_startproc
 625              		@ args = 0, pretend = 0, frame = 0
 626              		@ frame_needed = 0, uses_anonymous_args = 0
 627              		@ link register save eliminated.
 389:Drivers/GD32F30x_standard_peripheral/Source/gd32f30x_spi.c ****     SPI_CTL0(spi_periph) |= (uint32_t)SPI_CTL0_SWNSS;
 628              		.loc 1 389 5 view .LVU169
 629              		.loc 1 389 26 is_stmt 0 view .LVU170
 630 0000 0368     		ldr	r3, [r0]
 631 0002 43F48073 		orr	r3, r3, #256
 632 0006 0360     		str	r3, [r0]
 390:Drivers/GD32F30x_standard_peripheral/Source/gd32f30x_spi.c **** }
 633              		.loc 1 390 1 view .LVU171
 634 0008 7047     		bx	lr
 635              		.cfi_endproc
 636              	.LFE127:
ARM GAS  C:\Users\Prog\AppData\Local\Temp\cccBSqyc.s 			page 19


 638              		.section	.text.spi_nss_internal_low,"ax",%progbits
 639              		.align	1
 640              		.global	spi_nss_internal_low
 641              		.syntax unified
 642              		.thumb
 643              		.thumb_func
 644              		.fpu fpv4-sp-d16
 646              	spi_nss_internal_low:
 647              	.LVL64:
 648              	.LFB128:
 391:Drivers/GD32F30x_standard_peripheral/Source/gd32f30x_spi.c **** 
 392:Drivers/GD32F30x_standard_peripheral/Source/gd32f30x_spi.c **** /*!
 393:Drivers/GD32F30x_standard_peripheral/Source/gd32f30x_spi.c ****     \brief      SPI NSS pin low level in software mode
 394:Drivers/GD32F30x_standard_peripheral/Source/gd32f30x_spi.c ****     \param[in]  spi_periph: SPIx(x=0,1,2)
 395:Drivers/GD32F30x_standard_peripheral/Source/gd32f30x_spi.c ****     \param[out] none
 396:Drivers/GD32F30x_standard_peripheral/Source/gd32f30x_spi.c ****     \retval     none
 397:Drivers/GD32F30x_standard_peripheral/Source/gd32f30x_spi.c **** */
 398:Drivers/GD32F30x_standard_peripheral/Source/gd32f30x_spi.c **** void spi_nss_internal_low(uint32_t spi_periph)
 399:Drivers/GD32F30x_standard_peripheral/Source/gd32f30x_spi.c **** {
 649              		.loc 1 399 1 is_stmt 1 view -0
 650              		.cfi_startproc
 651              		@ args = 0, pretend = 0, frame = 0
 652              		@ frame_needed = 0, uses_anonymous_args = 0
 653              		@ link register save eliminated.
 400:Drivers/GD32F30x_standard_peripheral/Source/gd32f30x_spi.c ****     SPI_CTL0(spi_periph) &= (uint32_t)(~SPI_CTL0_SWNSS);
 654              		.loc 1 400 5 view .LVU173
 655              		.loc 1 400 26 is_stmt 0 view .LVU174
 656 0000 0368     		ldr	r3, [r0]
 657 0002 23F48073 		bic	r3, r3, #256
 658 0006 0360     		str	r3, [r0]
 401:Drivers/GD32F30x_standard_peripheral/Source/gd32f30x_spi.c **** }
 659              		.loc 1 401 1 view .LVU175
 660 0008 7047     		bx	lr
 661              		.cfi_endproc
 662              	.LFE128:
 664              		.section	.text.spi_dma_enable,"ax",%progbits
 665              		.align	1
 666              		.global	spi_dma_enable
 667              		.syntax unified
 668              		.thumb
 669              		.thumb_func
 670              		.fpu fpv4-sp-d16
 672              	spi_dma_enable:
 673              	.LVL65:
 674              	.LFB129:
 402:Drivers/GD32F30x_standard_peripheral/Source/gd32f30x_spi.c **** 
 403:Drivers/GD32F30x_standard_peripheral/Source/gd32f30x_spi.c **** /*!
 404:Drivers/GD32F30x_standard_peripheral/Source/gd32f30x_spi.c ****     \brief      enable SPI DMA send or receive 
 405:Drivers/GD32F30x_standard_peripheral/Source/gd32f30x_spi.c ****     \param[in]  spi_periph: SPIx(x=0,1,2)
 406:Drivers/GD32F30x_standard_peripheral/Source/gd32f30x_spi.c ****     \param[in]  dma: SPI DMA mode
 407:Drivers/GD32F30x_standard_peripheral/Source/gd32f30x_spi.c ****                 only one parameter can be selected which is shown as below:
 408:Drivers/GD32F30x_standard_peripheral/Source/gd32f30x_spi.c ****       \arg        SPI_DMA_TRANSMIT: SPI transmit data use DMA
 409:Drivers/GD32F30x_standard_peripheral/Source/gd32f30x_spi.c ****       \arg        SPI_DMA_RECEIVE: SPI receive data use DMA
 410:Drivers/GD32F30x_standard_peripheral/Source/gd32f30x_spi.c ****     \param[out] none
 411:Drivers/GD32F30x_standard_peripheral/Source/gd32f30x_spi.c ****     \retval     none
 412:Drivers/GD32F30x_standard_peripheral/Source/gd32f30x_spi.c **** */
 413:Drivers/GD32F30x_standard_peripheral/Source/gd32f30x_spi.c **** void spi_dma_enable(uint32_t spi_periph, uint8_t dma)
ARM GAS  C:\Users\Prog\AppData\Local\Temp\cccBSqyc.s 			page 20


 414:Drivers/GD32F30x_standard_peripheral/Source/gd32f30x_spi.c **** {
 675              		.loc 1 414 1 is_stmt 1 view -0
 676              		.cfi_startproc
 677              		@ args = 0, pretend = 0, frame = 0
 678              		@ frame_needed = 0, uses_anonymous_args = 0
 679              		@ link register save eliminated.
 415:Drivers/GD32F30x_standard_peripheral/Source/gd32f30x_spi.c ****     if(SPI_DMA_TRANSMIT == dma){
 680              		.loc 1 415 5 view .LVU177
 681              		.loc 1 415 7 is_stmt 0 view .LVU178
 682 0000 21B9     		cbnz	r1, .L36
 416:Drivers/GD32F30x_standard_peripheral/Source/gd32f30x_spi.c ****         SPI_CTL1(spi_periph) |= (uint32_t)SPI_CTL1_DMATEN;
 683              		.loc 1 416 9 is_stmt 1 view .LVU179
 684              		.loc 1 416 30 is_stmt 0 view .LVU180
 685 0002 4368     		ldr	r3, [r0, #4]
 686 0004 43F00203 		orr	r3, r3, #2
 687 0008 4360     		str	r3, [r0, #4]
 688 000a 7047     		bx	lr
 689              	.L36:
 417:Drivers/GD32F30x_standard_peripheral/Source/gd32f30x_spi.c ****     }else{
 418:Drivers/GD32F30x_standard_peripheral/Source/gd32f30x_spi.c ****         SPI_CTL1(spi_periph) |= (uint32_t)SPI_CTL1_DMAREN;
 690              		.loc 1 418 9 is_stmt 1 view .LVU181
 691              		.loc 1 418 30 is_stmt 0 view .LVU182
 692 000c 4368     		ldr	r3, [r0, #4]
 693 000e 43F00103 		orr	r3, r3, #1
 694 0012 4360     		str	r3, [r0, #4]
 419:Drivers/GD32F30x_standard_peripheral/Source/gd32f30x_spi.c ****     }
 420:Drivers/GD32F30x_standard_peripheral/Source/gd32f30x_spi.c **** }
 695              		.loc 1 420 1 view .LVU183
 696 0014 7047     		bx	lr
 697              		.cfi_endproc
 698              	.LFE129:
 700              		.section	.text.spi_dma_disable,"ax",%progbits
 701              		.align	1
 702              		.global	spi_dma_disable
 703              		.syntax unified
 704              		.thumb
 705              		.thumb_func
 706              		.fpu fpv4-sp-d16
 708              	spi_dma_disable:
 709              	.LVL66:
 710              	.LFB130:
 421:Drivers/GD32F30x_standard_peripheral/Source/gd32f30x_spi.c **** 
 422:Drivers/GD32F30x_standard_peripheral/Source/gd32f30x_spi.c **** /*!
 423:Drivers/GD32F30x_standard_peripheral/Source/gd32f30x_spi.c ****     \brief      disable SPI DMA send or receive 
 424:Drivers/GD32F30x_standard_peripheral/Source/gd32f30x_spi.c ****     \param[in]  spi_periph: SPIx(x=0,1,2)
 425:Drivers/GD32F30x_standard_peripheral/Source/gd32f30x_spi.c ****     \param[in]  dma: SPI DMA mode
 426:Drivers/GD32F30x_standard_peripheral/Source/gd32f30x_spi.c ****                 only one parameter can be selected which is shown as below:
 427:Drivers/GD32F30x_standard_peripheral/Source/gd32f30x_spi.c ****       \arg        SPI_DMA_TRANSMIT: SPI transmit data use DMA
 428:Drivers/GD32F30x_standard_peripheral/Source/gd32f30x_spi.c ****       \arg        SPI_DMA_RECEIVE: SPI receive data use DMA
 429:Drivers/GD32F30x_standard_peripheral/Source/gd32f30x_spi.c ****     \param[out] none
 430:Drivers/GD32F30x_standard_peripheral/Source/gd32f30x_spi.c ****     \retval     none
 431:Drivers/GD32F30x_standard_peripheral/Source/gd32f30x_spi.c **** */
 432:Drivers/GD32F30x_standard_peripheral/Source/gd32f30x_spi.c **** void spi_dma_disable(uint32_t spi_periph, uint8_t dma)
 433:Drivers/GD32F30x_standard_peripheral/Source/gd32f30x_spi.c **** {
 711              		.loc 1 433 1 is_stmt 1 view -0
 712              		.cfi_startproc
 713              		@ args = 0, pretend = 0, frame = 0
ARM GAS  C:\Users\Prog\AppData\Local\Temp\cccBSqyc.s 			page 21


 714              		@ frame_needed = 0, uses_anonymous_args = 0
 715              		@ link register save eliminated.
 434:Drivers/GD32F30x_standard_peripheral/Source/gd32f30x_spi.c ****     if(SPI_DMA_TRANSMIT == dma){
 716              		.loc 1 434 5 view .LVU185
 717              		.loc 1 434 7 is_stmt 0 view .LVU186
 718 0000 21B9     		cbnz	r1, .L39
 435:Drivers/GD32F30x_standard_peripheral/Source/gd32f30x_spi.c ****         SPI_CTL1(spi_periph) &= (uint32_t)(~SPI_CTL1_DMATEN);
 719              		.loc 1 435 9 is_stmt 1 view .LVU187
 720              		.loc 1 435 30 is_stmt 0 view .LVU188
 721 0002 4368     		ldr	r3, [r0, #4]
 722 0004 23F00203 		bic	r3, r3, #2
 723 0008 4360     		str	r3, [r0, #4]
 724 000a 7047     		bx	lr
 725              	.L39:
 436:Drivers/GD32F30x_standard_peripheral/Source/gd32f30x_spi.c ****     }else{
 437:Drivers/GD32F30x_standard_peripheral/Source/gd32f30x_spi.c ****         SPI_CTL1(spi_periph) &= (uint32_t)(~SPI_CTL1_DMAREN);
 726              		.loc 1 437 9 is_stmt 1 view .LVU189
 727              		.loc 1 437 30 is_stmt 0 view .LVU190
 728 000c 4368     		ldr	r3, [r0, #4]
 729 000e 23F00103 		bic	r3, r3, #1
 730 0012 4360     		str	r3, [r0, #4]
 438:Drivers/GD32F30x_standard_peripheral/Source/gd32f30x_spi.c ****     }
 439:Drivers/GD32F30x_standard_peripheral/Source/gd32f30x_spi.c **** }
 731              		.loc 1 439 1 view .LVU191
 732 0014 7047     		bx	lr
 733              		.cfi_endproc
 734              	.LFE130:
 736              		.section	.text.spi_i2s_data_frame_format_config,"ax",%progbits
 737              		.align	1
 738              		.global	spi_i2s_data_frame_format_config
 739              		.syntax unified
 740              		.thumb
 741              		.thumb_func
 742              		.fpu fpv4-sp-d16
 744              	spi_i2s_data_frame_format_config:
 745              	.LVL67:
 746              	.LFB131:
 440:Drivers/GD32F30x_standard_peripheral/Source/gd32f30x_spi.c **** 
 441:Drivers/GD32F30x_standard_peripheral/Source/gd32f30x_spi.c **** /*!
 442:Drivers/GD32F30x_standard_peripheral/Source/gd32f30x_spi.c ****     \brief      configure SPI/I2S data frame format
 443:Drivers/GD32F30x_standard_peripheral/Source/gd32f30x_spi.c ****     \param[in]  spi_periph: SPIx(x=0,1,2)
 444:Drivers/GD32F30x_standard_peripheral/Source/gd32f30x_spi.c ****     \param[in]  frame_format: SPI frame size
 445:Drivers/GD32F30x_standard_peripheral/Source/gd32f30x_spi.c ****                 only one parameter can be selected which is shown as below:
 446:Drivers/GD32F30x_standard_peripheral/Source/gd32f30x_spi.c ****       \arg        SPI_FRAMESIZE_16BIT: SPI frame size is 16 bits
 447:Drivers/GD32F30x_standard_peripheral/Source/gd32f30x_spi.c ****       \arg        SPI_FRAMESIZE_8BIT: SPI frame size is 8 bits
 448:Drivers/GD32F30x_standard_peripheral/Source/gd32f30x_spi.c ****     \param[out] none
 449:Drivers/GD32F30x_standard_peripheral/Source/gd32f30x_spi.c ****     \retval     none
 450:Drivers/GD32F30x_standard_peripheral/Source/gd32f30x_spi.c **** */
 451:Drivers/GD32F30x_standard_peripheral/Source/gd32f30x_spi.c **** void spi_i2s_data_frame_format_config(uint32_t spi_periph, uint16_t frame_format)
 452:Drivers/GD32F30x_standard_peripheral/Source/gd32f30x_spi.c **** {
 747              		.loc 1 452 1 is_stmt 1 view -0
 748              		.cfi_startproc
 749              		@ args = 0, pretend = 0, frame = 0
 750              		@ frame_needed = 0, uses_anonymous_args = 0
 751              		@ link register save eliminated.
 453:Drivers/GD32F30x_standard_peripheral/Source/gd32f30x_spi.c ****     /* clear SPI_CTL0_FF16 bit */
 454:Drivers/GD32F30x_standard_peripheral/Source/gd32f30x_spi.c ****     SPI_CTL0(spi_periph) &= (uint32_t)(~SPI_CTL0_FF16);
ARM GAS  C:\Users\Prog\AppData\Local\Temp\cccBSqyc.s 			page 22


 752              		.loc 1 454 5 view .LVU193
 753              		.loc 1 454 26 is_stmt 0 view .LVU194
 754 0000 0268     		ldr	r2, [r0]
 755 0002 22F40062 		bic	r2, r2, #2048
 756 0006 0260     		str	r2, [r0]
 455:Drivers/GD32F30x_standard_peripheral/Source/gd32f30x_spi.c ****     /* confige SPI_CTL0_FF16 bit */
 456:Drivers/GD32F30x_standard_peripheral/Source/gd32f30x_spi.c ****     SPI_CTL0(spi_periph) |= (uint32_t)frame_format;
 757              		.loc 1 456 5 is_stmt 1 view .LVU195
 758              		.loc 1 456 26 is_stmt 0 view .LVU196
 759 0008 0368     		ldr	r3, [r0]
 760 000a 0B43     		orrs	r3, r3, r1
 761 000c 0360     		str	r3, [r0]
 457:Drivers/GD32F30x_standard_peripheral/Source/gd32f30x_spi.c **** }
 762              		.loc 1 457 1 view .LVU197
 763 000e 7047     		bx	lr
 764              		.cfi_endproc
 765              	.LFE131:
 767              		.section	.text.spi_i2s_data_transmit,"ax",%progbits
 768              		.align	1
 769              		.global	spi_i2s_data_transmit
 770              		.syntax unified
 771              		.thumb
 772              		.thumb_func
 773              		.fpu fpv4-sp-d16
 775              	spi_i2s_data_transmit:
 776              	.LVL68:
 777              	.LFB132:
 458:Drivers/GD32F30x_standard_peripheral/Source/gd32f30x_spi.c **** 
 459:Drivers/GD32F30x_standard_peripheral/Source/gd32f30x_spi.c **** /*!
 460:Drivers/GD32F30x_standard_peripheral/Source/gd32f30x_spi.c ****     \brief      SPI transmit data
 461:Drivers/GD32F30x_standard_peripheral/Source/gd32f30x_spi.c ****     \param[in]  spi_periph: SPIx(x=0,1,2)
 462:Drivers/GD32F30x_standard_peripheral/Source/gd32f30x_spi.c ****     \param[in]  data: 16-bit data
 463:Drivers/GD32F30x_standard_peripheral/Source/gd32f30x_spi.c ****     \param[out] none
 464:Drivers/GD32F30x_standard_peripheral/Source/gd32f30x_spi.c ****     \retval     none
 465:Drivers/GD32F30x_standard_peripheral/Source/gd32f30x_spi.c **** */
 466:Drivers/GD32F30x_standard_peripheral/Source/gd32f30x_spi.c **** void spi_i2s_data_transmit(uint32_t spi_periph, uint16_t data)
 467:Drivers/GD32F30x_standard_peripheral/Source/gd32f30x_spi.c **** {
 778              		.loc 1 467 1 is_stmt 1 view -0
 779              		.cfi_startproc
 780              		@ args = 0, pretend = 0, frame = 0
 781              		@ frame_needed = 0, uses_anonymous_args = 0
 782              		@ link register save eliminated.
 468:Drivers/GD32F30x_standard_peripheral/Source/gd32f30x_spi.c ****     SPI_DATA(spi_periph) = (uint32_t)data;
 783              		.loc 1 468 5 view .LVU199
 784              		.loc 1 468 26 is_stmt 0 view .LVU200
 785 0000 C160     		str	r1, [r0, #12]
 469:Drivers/GD32F30x_standard_peripheral/Source/gd32f30x_spi.c **** }
 786              		.loc 1 469 1 view .LVU201
 787 0002 7047     		bx	lr
 788              		.cfi_endproc
 789              	.LFE132:
 791              		.section	.text.spi_i2s_data_receive,"ax",%progbits
 792              		.align	1
 793              		.global	spi_i2s_data_receive
 794              		.syntax unified
 795              		.thumb
 796              		.thumb_func
ARM GAS  C:\Users\Prog\AppData\Local\Temp\cccBSqyc.s 			page 23


 797              		.fpu fpv4-sp-d16
 799              	spi_i2s_data_receive:
 800              	.LVL69:
 801              	.LFB133:
 470:Drivers/GD32F30x_standard_peripheral/Source/gd32f30x_spi.c **** 
 471:Drivers/GD32F30x_standard_peripheral/Source/gd32f30x_spi.c **** /*!
 472:Drivers/GD32F30x_standard_peripheral/Source/gd32f30x_spi.c ****     \brief      SPI receive data
 473:Drivers/GD32F30x_standard_peripheral/Source/gd32f30x_spi.c ****     \param[in]  spi_periph: SPIx(x=0,1,2)
 474:Drivers/GD32F30x_standard_peripheral/Source/gd32f30x_spi.c ****     \param[out] none
 475:Drivers/GD32F30x_standard_peripheral/Source/gd32f30x_spi.c ****     \retval     16-bit data
 476:Drivers/GD32F30x_standard_peripheral/Source/gd32f30x_spi.c **** */
 477:Drivers/GD32F30x_standard_peripheral/Source/gd32f30x_spi.c **** uint16_t spi_i2s_data_receive(uint32_t spi_periph)
 478:Drivers/GD32F30x_standard_peripheral/Source/gd32f30x_spi.c **** {
 802              		.loc 1 478 1 is_stmt 1 view -0
 803              		.cfi_startproc
 804              		@ args = 0, pretend = 0, frame = 0
 805              		@ frame_needed = 0, uses_anonymous_args = 0
 806              		@ link register save eliminated.
 479:Drivers/GD32F30x_standard_peripheral/Source/gd32f30x_spi.c ****     return ((uint16_t)SPI_DATA(spi_periph));
 807              		.loc 1 479 5 view .LVU203
 808              		.loc 1 479 23 is_stmt 0 view .LVU204
 809 0000 C068     		ldr	r0, [r0, #12]
 810              	.LVL70:
 480:Drivers/GD32F30x_standard_peripheral/Source/gd32f30x_spi.c **** }
 811              		.loc 1 480 1 view .LVU205
 812 0002 80B2     		uxth	r0, r0
 813 0004 7047     		bx	lr
 814              		.cfi_endproc
 815              	.LFE133:
 817              		.section	.text.spi_bidirectional_transfer_config,"ax",%progbits
 818              		.align	1
 819              		.global	spi_bidirectional_transfer_config
 820              		.syntax unified
 821              		.thumb
 822              		.thumb_func
 823              		.fpu fpv4-sp-d16
 825              	spi_bidirectional_transfer_config:
 826              	.LVL71:
 827              	.LFB134:
 481:Drivers/GD32F30x_standard_peripheral/Source/gd32f30x_spi.c **** 
 482:Drivers/GD32F30x_standard_peripheral/Source/gd32f30x_spi.c **** /*!
 483:Drivers/GD32F30x_standard_peripheral/Source/gd32f30x_spi.c ****     \brief      configure SPI bidirectional transfer direction
 484:Drivers/GD32F30x_standard_peripheral/Source/gd32f30x_spi.c ****     \param[in]  spi_periph: SPIx(x=0,1,2)
 485:Drivers/GD32F30x_standard_peripheral/Source/gd32f30x_spi.c ****     \param[in]  transfer_direction: SPI transfer direction
 486:Drivers/GD32F30x_standard_peripheral/Source/gd32f30x_spi.c ****                 only one parameter can be selected which is shown as below:
 487:Drivers/GD32F30x_standard_peripheral/Source/gd32f30x_spi.c ****       \arg        SPI_BIDIRECTIONAL_TRANSMIT: SPI work in transmit-only mode
 488:Drivers/GD32F30x_standard_peripheral/Source/gd32f30x_spi.c ****       \arg        SPI_BIDIRECTIONAL_RECEIVE: SPI work in receive-only mode
 489:Drivers/GD32F30x_standard_peripheral/Source/gd32f30x_spi.c ****     \retval     none
 490:Drivers/GD32F30x_standard_peripheral/Source/gd32f30x_spi.c **** */
 491:Drivers/GD32F30x_standard_peripheral/Source/gd32f30x_spi.c **** void spi_bidirectional_transfer_config(uint32_t spi_periph, uint32_t transfer_direction)
 492:Drivers/GD32F30x_standard_peripheral/Source/gd32f30x_spi.c **** {
 828              		.loc 1 492 1 is_stmt 1 view -0
 829              		.cfi_startproc
 830              		@ args = 0, pretend = 0, frame = 0
 831              		@ frame_needed = 0, uses_anonymous_args = 0
 832              		@ link register save eliminated.
 493:Drivers/GD32F30x_standard_peripheral/Source/gd32f30x_spi.c ****     if(SPI_BIDIRECTIONAL_TRANSMIT == transfer_direction){
ARM GAS  C:\Users\Prog\AppData\Local\Temp\cccBSqyc.s 			page 24


 833              		.loc 1 493 5 view .LVU207
 834              		.loc 1 493 7 is_stmt 0 view .LVU208
 835 0000 B1F5804F 		cmp	r1, #16384
 836 0004 04D0     		beq	.L47
 494:Drivers/GD32F30x_standard_peripheral/Source/gd32f30x_spi.c ****         /* set the transmit only mode */
 495:Drivers/GD32F30x_standard_peripheral/Source/gd32f30x_spi.c ****         SPI_CTL0(spi_periph) |= (uint32_t)SPI_BIDIRECTIONAL_TRANSMIT;
 496:Drivers/GD32F30x_standard_peripheral/Source/gd32f30x_spi.c ****     }else{
 497:Drivers/GD32F30x_standard_peripheral/Source/gd32f30x_spi.c ****         /* set the receive only mode */
 498:Drivers/GD32F30x_standard_peripheral/Source/gd32f30x_spi.c ****         SPI_CTL0(spi_periph) &= SPI_BIDIRECTIONAL_RECEIVE;
 837              		.loc 1 498 9 is_stmt 1 view .LVU209
 838              		.loc 1 498 30 is_stmt 0 view .LVU210
 839 0006 0368     		ldr	r3, [r0]
 840 0008 23F48043 		bic	r3, r3, #16384
 841 000c 0360     		str	r3, [r0]
 499:Drivers/GD32F30x_standard_peripheral/Source/gd32f30x_spi.c ****     }
 500:Drivers/GD32F30x_standard_peripheral/Source/gd32f30x_spi.c **** }
 842              		.loc 1 500 1 view .LVU211
 843 000e 7047     		bx	lr
 844              	.L47:
 495:Drivers/GD32F30x_standard_peripheral/Source/gd32f30x_spi.c ****     }else{
 845              		.loc 1 495 9 is_stmt 1 view .LVU212
 495:Drivers/GD32F30x_standard_peripheral/Source/gd32f30x_spi.c ****     }else{
 846              		.loc 1 495 30 is_stmt 0 view .LVU213
 847 0010 0368     		ldr	r3, [r0]
 848 0012 43F48043 		orr	r3, r3, #16384
 849 0016 0360     		str	r3, [r0]
 850 0018 7047     		bx	lr
 851              		.cfi_endproc
 852              	.LFE134:
 854              		.section	.text.spi_crc_polynomial_set,"ax",%progbits
 855              		.align	1
 856              		.global	spi_crc_polynomial_set
 857              		.syntax unified
 858              		.thumb
 859              		.thumb_func
 860              		.fpu fpv4-sp-d16
 862              	spi_crc_polynomial_set:
 863              	.LVL72:
 864              	.LFB135:
 501:Drivers/GD32F30x_standard_peripheral/Source/gd32f30x_spi.c **** 
 502:Drivers/GD32F30x_standard_peripheral/Source/gd32f30x_spi.c **** /*!
 503:Drivers/GD32F30x_standard_peripheral/Source/gd32f30x_spi.c ****     \brief      set SPI CRC polynomial 
 504:Drivers/GD32F30x_standard_peripheral/Source/gd32f30x_spi.c ****     \param[in]  spi_periph: SPIx(x=0,1,2)
 505:Drivers/GD32F30x_standard_peripheral/Source/gd32f30x_spi.c ****     \param[in]  crc_poly: CRC polynomial value
 506:Drivers/GD32F30x_standard_peripheral/Source/gd32f30x_spi.c ****     \param[out] none
 507:Drivers/GD32F30x_standard_peripheral/Source/gd32f30x_spi.c ****     \retval     none
 508:Drivers/GD32F30x_standard_peripheral/Source/gd32f30x_spi.c **** */
 509:Drivers/GD32F30x_standard_peripheral/Source/gd32f30x_spi.c **** void spi_crc_polynomial_set(uint32_t spi_periph,uint16_t crc_poly)
 510:Drivers/GD32F30x_standard_peripheral/Source/gd32f30x_spi.c **** {
 865              		.loc 1 510 1 is_stmt 1 view -0
 866              		.cfi_startproc
 867              		@ args = 0, pretend = 0, frame = 0
 868              		@ frame_needed = 0, uses_anonymous_args = 0
 869              		@ link register save eliminated.
 511:Drivers/GD32F30x_standard_peripheral/Source/gd32f30x_spi.c ****     /* set SPI CRC polynomial */
 512:Drivers/GD32F30x_standard_peripheral/Source/gd32f30x_spi.c ****     SPI_CRCPOLY(spi_periph) = (uint32_t)crc_poly;
 870              		.loc 1 512 5 view .LVU215
ARM GAS  C:\Users\Prog\AppData\Local\Temp\cccBSqyc.s 			page 25


 871              		.loc 1 512 29 is_stmt 0 view .LVU216
 872 0000 0161     		str	r1, [r0, #16]
 513:Drivers/GD32F30x_standard_peripheral/Source/gd32f30x_spi.c **** }
 873              		.loc 1 513 1 view .LVU217
 874 0002 7047     		bx	lr
 875              		.cfi_endproc
 876              	.LFE135:
 878              		.section	.text.spi_crc_polynomial_get,"ax",%progbits
 879              		.align	1
 880              		.global	spi_crc_polynomial_get
 881              		.syntax unified
 882              		.thumb
 883              		.thumb_func
 884              		.fpu fpv4-sp-d16
 886              	spi_crc_polynomial_get:
 887              	.LVL73:
 888              	.LFB136:
 514:Drivers/GD32F30x_standard_peripheral/Source/gd32f30x_spi.c **** 
 515:Drivers/GD32F30x_standard_peripheral/Source/gd32f30x_spi.c **** /*!
 516:Drivers/GD32F30x_standard_peripheral/Source/gd32f30x_spi.c ****     \brief      get SPI CRC polynomial 
 517:Drivers/GD32F30x_standard_peripheral/Source/gd32f30x_spi.c ****     \param[in]  spi_periph: SPIx(x=0,1,2)
 518:Drivers/GD32F30x_standard_peripheral/Source/gd32f30x_spi.c ****     \param[out] none
 519:Drivers/GD32F30x_standard_peripheral/Source/gd32f30x_spi.c ****     \retval     16-bit CRC polynomial
 520:Drivers/GD32F30x_standard_peripheral/Source/gd32f30x_spi.c **** */
 521:Drivers/GD32F30x_standard_peripheral/Source/gd32f30x_spi.c **** uint16_t spi_crc_polynomial_get(uint32_t spi_periph)
 522:Drivers/GD32F30x_standard_peripheral/Source/gd32f30x_spi.c **** {
 889              		.loc 1 522 1 is_stmt 1 view -0
 890              		.cfi_startproc
 891              		@ args = 0, pretend = 0, frame = 0
 892              		@ frame_needed = 0, uses_anonymous_args = 0
 893              		@ link register save eliminated.
 523:Drivers/GD32F30x_standard_peripheral/Source/gd32f30x_spi.c ****     return ((uint16_t)SPI_CRCPOLY(spi_periph));
 894              		.loc 1 523 5 view .LVU219
 895              		.loc 1 523 23 is_stmt 0 view .LVU220
 896 0000 0069     		ldr	r0, [r0, #16]
 897              	.LVL74:
 524:Drivers/GD32F30x_standard_peripheral/Source/gd32f30x_spi.c **** }
 898              		.loc 1 524 1 view .LVU221
 899 0002 80B2     		uxth	r0, r0
 900 0004 7047     		bx	lr
 901              		.cfi_endproc
 902              	.LFE136:
 904              		.section	.text.spi_crc_on,"ax",%progbits
 905              		.align	1
 906              		.global	spi_crc_on
 907              		.syntax unified
 908              		.thumb
 909              		.thumb_func
 910              		.fpu fpv4-sp-d16
 912              	spi_crc_on:
 913              	.LVL75:
 914              	.LFB137:
 525:Drivers/GD32F30x_standard_peripheral/Source/gd32f30x_spi.c **** 
 526:Drivers/GD32F30x_standard_peripheral/Source/gd32f30x_spi.c **** /*!
 527:Drivers/GD32F30x_standard_peripheral/Source/gd32f30x_spi.c ****     \brief      turn on CRC function 
 528:Drivers/GD32F30x_standard_peripheral/Source/gd32f30x_spi.c ****     \param[in]  spi_periph: SPIx(x=0,1,2)
 529:Drivers/GD32F30x_standard_peripheral/Source/gd32f30x_spi.c ****     \param[out] none
ARM GAS  C:\Users\Prog\AppData\Local\Temp\cccBSqyc.s 			page 26


 530:Drivers/GD32F30x_standard_peripheral/Source/gd32f30x_spi.c ****     \retval     none
 531:Drivers/GD32F30x_standard_peripheral/Source/gd32f30x_spi.c **** */
 532:Drivers/GD32F30x_standard_peripheral/Source/gd32f30x_spi.c **** void spi_crc_on(uint32_t spi_periph)
 533:Drivers/GD32F30x_standard_peripheral/Source/gd32f30x_spi.c **** {
 915              		.loc 1 533 1 is_stmt 1 view -0
 916              		.cfi_startproc
 917              		@ args = 0, pretend = 0, frame = 0
 918              		@ frame_needed = 0, uses_anonymous_args = 0
 919              		@ link register save eliminated.
 534:Drivers/GD32F30x_standard_peripheral/Source/gd32f30x_spi.c ****     SPI_CTL0(spi_periph) |= (uint32_t)SPI_CTL0_CRCEN;
 920              		.loc 1 534 5 view .LVU223
 921              		.loc 1 534 26 is_stmt 0 view .LVU224
 922 0000 0368     		ldr	r3, [r0]
 923 0002 43F40053 		orr	r3, r3, #8192
 924 0006 0360     		str	r3, [r0]
 535:Drivers/GD32F30x_standard_peripheral/Source/gd32f30x_spi.c **** }
 925              		.loc 1 535 1 view .LVU225
 926 0008 7047     		bx	lr
 927              		.cfi_endproc
 928              	.LFE137:
 930              		.section	.text.spi_crc_off,"ax",%progbits
 931              		.align	1
 932              		.global	spi_crc_off
 933              		.syntax unified
 934              		.thumb
 935              		.thumb_func
 936              		.fpu fpv4-sp-d16
 938              	spi_crc_off:
 939              	.LVL76:
 940              	.LFB138:
 536:Drivers/GD32F30x_standard_peripheral/Source/gd32f30x_spi.c **** 
 537:Drivers/GD32F30x_standard_peripheral/Source/gd32f30x_spi.c **** /*!
 538:Drivers/GD32F30x_standard_peripheral/Source/gd32f30x_spi.c ****     \brief      turn off CRC function 
 539:Drivers/GD32F30x_standard_peripheral/Source/gd32f30x_spi.c ****     \param[in]  spi_periph: SPIx(x=0,1,2)
 540:Drivers/GD32F30x_standard_peripheral/Source/gd32f30x_spi.c ****     \param[out] none
 541:Drivers/GD32F30x_standard_peripheral/Source/gd32f30x_spi.c ****     \retval     none
 542:Drivers/GD32F30x_standard_peripheral/Source/gd32f30x_spi.c **** */
 543:Drivers/GD32F30x_standard_peripheral/Source/gd32f30x_spi.c **** void spi_crc_off(uint32_t spi_periph)
 544:Drivers/GD32F30x_standard_peripheral/Source/gd32f30x_spi.c **** {
 941              		.loc 1 544 1 is_stmt 1 view -0
 942              		.cfi_startproc
 943              		@ args = 0, pretend = 0, frame = 0
 944              		@ frame_needed = 0, uses_anonymous_args = 0
 945              		@ link register save eliminated.
 545:Drivers/GD32F30x_standard_peripheral/Source/gd32f30x_spi.c ****     SPI_CTL0(spi_periph) &= (uint32_t)(~SPI_CTL0_CRCEN);
 946              		.loc 1 545 5 view .LVU227
 947              		.loc 1 545 26 is_stmt 0 view .LVU228
 948 0000 0368     		ldr	r3, [r0]
 949 0002 23F40053 		bic	r3, r3, #8192
 950 0006 0360     		str	r3, [r0]
 546:Drivers/GD32F30x_standard_peripheral/Source/gd32f30x_spi.c **** }
 951              		.loc 1 546 1 view .LVU229
 952 0008 7047     		bx	lr
 953              		.cfi_endproc
 954              	.LFE138:
 956              		.section	.text.spi_crc_next,"ax",%progbits
 957              		.align	1
ARM GAS  C:\Users\Prog\AppData\Local\Temp\cccBSqyc.s 			page 27


 958              		.global	spi_crc_next
 959              		.syntax unified
 960              		.thumb
 961              		.thumb_func
 962              		.fpu fpv4-sp-d16
 964              	spi_crc_next:
 965              	.LVL77:
 966              	.LFB139:
 547:Drivers/GD32F30x_standard_peripheral/Source/gd32f30x_spi.c **** 
 548:Drivers/GD32F30x_standard_peripheral/Source/gd32f30x_spi.c **** /*!
 549:Drivers/GD32F30x_standard_peripheral/Source/gd32f30x_spi.c ****     \brief      SPI next data is CRC value
 550:Drivers/GD32F30x_standard_peripheral/Source/gd32f30x_spi.c ****     \param[in]  spi_periph: SPIx(x=0,1,2)
 551:Drivers/GD32F30x_standard_peripheral/Source/gd32f30x_spi.c ****     \param[out] none
 552:Drivers/GD32F30x_standard_peripheral/Source/gd32f30x_spi.c ****     \retval     none
 553:Drivers/GD32F30x_standard_peripheral/Source/gd32f30x_spi.c **** */
 554:Drivers/GD32F30x_standard_peripheral/Source/gd32f30x_spi.c **** void spi_crc_next(uint32_t spi_periph)
 555:Drivers/GD32F30x_standard_peripheral/Source/gd32f30x_spi.c **** {
 967              		.loc 1 555 1 is_stmt 1 view -0
 968              		.cfi_startproc
 969              		@ args = 0, pretend = 0, frame = 0
 970              		@ frame_needed = 0, uses_anonymous_args = 0
 971              		@ link register save eliminated.
 556:Drivers/GD32F30x_standard_peripheral/Source/gd32f30x_spi.c ****     SPI_CTL0(spi_periph) |= (uint32_t)SPI_CTL0_CRCNT;
 972              		.loc 1 556 5 view .LVU231
 973              		.loc 1 556 26 is_stmt 0 view .LVU232
 974 0000 0368     		ldr	r3, [r0]
 975 0002 43F48053 		orr	r3, r3, #4096
 976 0006 0360     		str	r3, [r0]
 557:Drivers/GD32F30x_standard_peripheral/Source/gd32f30x_spi.c **** }
 977              		.loc 1 557 1 view .LVU233
 978 0008 7047     		bx	lr
 979              		.cfi_endproc
 980              	.LFE139:
 982              		.section	.text.spi_crc_get,"ax",%progbits
 983              		.align	1
 984              		.global	spi_crc_get
 985              		.syntax unified
 986              		.thumb
 987              		.thumb_func
 988              		.fpu fpv4-sp-d16
 990              	spi_crc_get:
 991              	.LVL78:
 992              	.LFB140:
 558:Drivers/GD32F30x_standard_peripheral/Source/gd32f30x_spi.c **** 
 559:Drivers/GD32F30x_standard_peripheral/Source/gd32f30x_spi.c **** /*!
 560:Drivers/GD32F30x_standard_peripheral/Source/gd32f30x_spi.c ****     \brief      get SPI CRC send value or receive value
 561:Drivers/GD32F30x_standard_peripheral/Source/gd32f30x_spi.c ****     \param[in]  spi_periph: SPIx(x=0,1,2)
 562:Drivers/GD32F30x_standard_peripheral/Source/gd32f30x_spi.c ****     \param[in]  crc: SPI crc value
 563:Drivers/GD32F30x_standard_peripheral/Source/gd32f30x_spi.c ****                 only one parameter can be selected which is shown as below:
 564:Drivers/GD32F30x_standard_peripheral/Source/gd32f30x_spi.c ****       \arg        SPI_CRC_TX: get transmit crc value
 565:Drivers/GD32F30x_standard_peripheral/Source/gd32f30x_spi.c ****       \arg        SPI_CRC_RX: get receive crc value
 566:Drivers/GD32F30x_standard_peripheral/Source/gd32f30x_spi.c ****     \param[out] none
 567:Drivers/GD32F30x_standard_peripheral/Source/gd32f30x_spi.c ****     \retval     16-bit CRC value
 568:Drivers/GD32F30x_standard_peripheral/Source/gd32f30x_spi.c **** */
 569:Drivers/GD32F30x_standard_peripheral/Source/gd32f30x_spi.c **** uint16_t spi_crc_get(uint32_t spi_periph,uint8_t crc)
 570:Drivers/GD32F30x_standard_peripheral/Source/gd32f30x_spi.c **** {
 993              		.loc 1 570 1 is_stmt 1 view -0
ARM GAS  C:\Users\Prog\AppData\Local\Temp\cccBSqyc.s 			page 28


 994              		.cfi_startproc
 995              		@ args = 0, pretend = 0, frame = 0
 996              		@ frame_needed = 0, uses_anonymous_args = 0
 997              		@ link register save eliminated.
 571:Drivers/GD32F30x_standard_peripheral/Source/gd32f30x_spi.c ****     if(SPI_CRC_TX == crc){
 998              		.loc 1 571 5 view .LVU235
 999              		.loc 1 571 7 is_stmt 0 view .LVU236
 1000 0000 11B9     		cbnz	r1, .L54
 572:Drivers/GD32F30x_standard_peripheral/Source/gd32f30x_spi.c ****         return ((uint16_t)(SPI_TCRC(spi_periph)));
 1001              		.loc 1 572 9 is_stmt 1 view .LVU237
 1002              		.loc 1 572 28 is_stmt 0 view .LVU238
 1003 0002 8069     		ldr	r0, [r0, #24]
 1004              	.LVL79:
 1005              		.loc 1 572 17 view .LVU239
 1006 0004 80B2     		uxth	r0, r0
 1007 0006 7047     		bx	lr
 1008              	.LVL80:
 1009              	.L54:
 573:Drivers/GD32F30x_standard_peripheral/Source/gd32f30x_spi.c ****     }else{
 574:Drivers/GD32F30x_standard_peripheral/Source/gd32f30x_spi.c ****         return ((uint16_t)(SPI_RCRC(spi_periph)));
 1010              		.loc 1 574 9 is_stmt 1 view .LVU240
 1011              		.loc 1 574 28 is_stmt 0 view .LVU241
 1012 0008 4069     		ldr	r0, [r0, #20]
 1013              	.LVL81:
 1014              		.loc 1 574 17 view .LVU242
 1015 000a 80B2     		uxth	r0, r0
 575:Drivers/GD32F30x_standard_peripheral/Source/gd32f30x_spi.c ****     }
 576:Drivers/GD32F30x_standard_peripheral/Source/gd32f30x_spi.c **** }
 1016              		.loc 1 576 1 view .LVU243
 1017 000c 7047     		bx	lr
 1018              		.cfi_endproc
 1019              	.LFE140:
 1021              		.section	.text.spi_ti_mode_enable,"ax",%progbits
 1022              		.align	1
 1023              		.global	spi_ti_mode_enable
 1024              		.syntax unified
 1025              		.thumb
 1026              		.thumb_func
 1027              		.fpu fpv4-sp-d16
 1029              	spi_ti_mode_enable:
 1030              	.LVL82:
 1031              	.LFB141:
 577:Drivers/GD32F30x_standard_peripheral/Source/gd32f30x_spi.c **** 
 578:Drivers/GD32F30x_standard_peripheral/Source/gd32f30x_spi.c **** /*!
 579:Drivers/GD32F30x_standard_peripheral/Source/gd32f30x_spi.c ****     \brief      enable SPI TI mode
 580:Drivers/GD32F30x_standard_peripheral/Source/gd32f30x_spi.c ****     \param[in]  spi_periph: SPIx(x=0,1,2)
 581:Drivers/GD32F30x_standard_peripheral/Source/gd32f30x_spi.c ****     \param[out] none
 582:Drivers/GD32F30x_standard_peripheral/Source/gd32f30x_spi.c ****     \retval     none
 583:Drivers/GD32F30x_standard_peripheral/Source/gd32f30x_spi.c **** */
 584:Drivers/GD32F30x_standard_peripheral/Source/gd32f30x_spi.c **** void spi_ti_mode_enable(uint32_t spi_periph)
 585:Drivers/GD32F30x_standard_peripheral/Source/gd32f30x_spi.c **** {
 1032              		.loc 1 585 1 is_stmt 1 view -0
 1033              		.cfi_startproc
 1034              		@ args = 0, pretend = 0, frame = 0
 1035              		@ frame_needed = 0, uses_anonymous_args = 0
 1036              		@ link register save eliminated.
 586:Drivers/GD32F30x_standard_peripheral/Source/gd32f30x_spi.c ****     SPI_CTL1(spi_periph) |= (uint32_t)SPI_CTL1_TMOD;
ARM GAS  C:\Users\Prog\AppData\Local\Temp\cccBSqyc.s 			page 29


 1037              		.loc 1 586 5 view .LVU245
 1038              		.loc 1 586 26 is_stmt 0 view .LVU246
 1039 0000 4368     		ldr	r3, [r0, #4]
 1040 0002 43F01003 		orr	r3, r3, #16
 1041 0006 4360     		str	r3, [r0, #4]
 587:Drivers/GD32F30x_standard_peripheral/Source/gd32f30x_spi.c **** }
 1042              		.loc 1 587 1 view .LVU247
 1043 0008 7047     		bx	lr
 1044              		.cfi_endproc
 1045              	.LFE141:
 1047              		.section	.text.spi_ti_mode_disable,"ax",%progbits
 1048              		.align	1
 1049              		.global	spi_ti_mode_disable
 1050              		.syntax unified
 1051              		.thumb
 1052              		.thumb_func
 1053              		.fpu fpv4-sp-d16
 1055              	spi_ti_mode_disable:
 1056              	.LVL83:
 1057              	.LFB142:
 588:Drivers/GD32F30x_standard_peripheral/Source/gd32f30x_spi.c **** 
 589:Drivers/GD32F30x_standard_peripheral/Source/gd32f30x_spi.c **** /*!
 590:Drivers/GD32F30x_standard_peripheral/Source/gd32f30x_spi.c ****     \brief      disable SPI TI mode
 591:Drivers/GD32F30x_standard_peripheral/Source/gd32f30x_spi.c ****     \param[in]  spi_periph: SPIx(x=0,1,2)
 592:Drivers/GD32F30x_standard_peripheral/Source/gd32f30x_spi.c ****     \param[out] none
 593:Drivers/GD32F30x_standard_peripheral/Source/gd32f30x_spi.c ****     \retval     none
 594:Drivers/GD32F30x_standard_peripheral/Source/gd32f30x_spi.c **** */
 595:Drivers/GD32F30x_standard_peripheral/Source/gd32f30x_spi.c **** void spi_ti_mode_disable(uint32_t spi_periph)
 596:Drivers/GD32F30x_standard_peripheral/Source/gd32f30x_spi.c **** {
 1058              		.loc 1 596 1 is_stmt 1 view -0
 1059              		.cfi_startproc
 1060              		@ args = 0, pretend = 0, frame = 0
 1061              		@ frame_needed = 0, uses_anonymous_args = 0
 1062              		@ link register save eliminated.
 597:Drivers/GD32F30x_standard_peripheral/Source/gd32f30x_spi.c ****     SPI_CTL1(spi_periph) &= (uint32_t)(~SPI_CTL1_TMOD);
 1063              		.loc 1 597 5 view .LVU249
 1064              		.loc 1 597 26 is_stmt 0 view .LVU250
 1065 0000 4368     		ldr	r3, [r0, #4]
 1066 0002 23F01003 		bic	r3, r3, #16
 1067 0006 4360     		str	r3, [r0, #4]
 598:Drivers/GD32F30x_standard_peripheral/Source/gd32f30x_spi.c **** }
 1068              		.loc 1 598 1 view .LVU251
 1069 0008 7047     		bx	lr
 1070              		.cfi_endproc
 1071              	.LFE142:
 1073              		.section	.text.spi_nssp_mode_enable,"ax",%progbits
 1074              		.align	1
 1075              		.global	spi_nssp_mode_enable
 1076              		.syntax unified
 1077              		.thumb
 1078              		.thumb_func
 1079              		.fpu fpv4-sp-d16
 1081              	spi_nssp_mode_enable:
 1082              	.LVL84:
 1083              	.LFB143:
 599:Drivers/GD32F30x_standard_peripheral/Source/gd32f30x_spi.c **** 
 600:Drivers/GD32F30x_standard_peripheral/Source/gd32f30x_spi.c **** /*!
ARM GAS  C:\Users\Prog\AppData\Local\Temp\cccBSqyc.s 			page 30


 601:Drivers/GD32F30x_standard_peripheral/Source/gd32f30x_spi.c ****     \brief      enable SPI NSS pulse mode
 602:Drivers/GD32F30x_standard_peripheral/Source/gd32f30x_spi.c ****     \param[in]  spi_periph: SPIx(x=0,1,2)
 603:Drivers/GD32F30x_standard_peripheral/Source/gd32f30x_spi.c ****     \param[out] none
 604:Drivers/GD32F30x_standard_peripheral/Source/gd32f30x_spi.c ****     \retval     none
 605:Drivers/GD32F30x_standard_peripheral/Source/gd32f30x_spi.c **** */
 606:Drivers/GD32F30x_standard_peripheral/Source/gd32f30x_spi.c **** void spi_nssp_mode_enable(uint32_t spi_periph)
 607:Drivers/GD32F30x_standard_peripheral/Source/gd32f30x_spi.c **** {
 1084              		.loc 1 607 1 is_stmt 1 view -0
 1085              		.cfi_startproc
 1086              		@ args = 0, pretend = 0, frame = 0
 1087              		@ frame_needed = 0, uses_anonymous_args = 0
 1088              		@ link register save eliminated.
 608:Drivers/GD32F30x_standard_peripheral/Source/gd32f30x_spi.c ****     SPI_CTL1(spi_periph) |= (uint32_t)SPI_CTL1_NSSP;
 1089              		.loc 1 608 5 view .LVU253
 1090              		.loc 1 608 26 is_stmt 0 view .LVU254
 1091 0000 4368     		ldr	r3, [r0, #4]
 1092 0002 43F00803 		orr	r3, r3, #8
 1093 0006 4360     		str	r3, [r0, #4]
 609:Drivers/GD32F30x_standard_peripheral/Source/gd32f30x_spi.c **** }
 1094              		.loc 1 609 1 view .LVU255
 1095 0008 7047     		bx	lr
 1096              		.cfi_endproc
 1097              	.LFE143:
 1099              		.section	.text.spi_nssp_mode_disable,"ax",%progbits
 1100              		.align	1
 1101              		.global	spi_nssp_mode_disable
 1102              		.syntax unified
 1103              		.thumb
 1104              		.thumb_func
 1105              		.fpu fpv4-sp-d16
 1107              	spi_nssp_mode_disable:
 1108              	.LVL85:
 1109              	.LFB144:
 610:Drivers/GD32F30x_standard_peripheral/Source/gd32f30x_spi.c **** 
 611:Drivers/GD32F30x_standard_peripheral/Source/gd32f30x_spi.c **** /*!
 612:Drivers/GD32F30x_standard_peripheral/Source/gd32f30x_spi.c ****     \brief      disable SPI NSS pulse mode
 613:Drivers/GD32F30x_standard_peripheral/Source/gd32f30x_spi.c ****     \param[in]  spi_periph: SPIx(x=0,1,2)
 614:Drivers/GD32F30x_standard_peripheral/Source/gd32f30x_spi.c ****     \param[out] none
 615:Drivers/GD32F30x_standard_peripheral/Source/gd32f30x_spi.c ****     \retval     none
 616:Drivers/GD32F30x_standard_peripheral/Source/gd32f30x_spi.c **** */
 617:Drivers/GD32F30x_standard_peripheral/Source/gd32f30x_spi.c **** void spi_nssp_mode_disable(uint32_t spi_periph)
 618:Drivers/GD32F30x_standard_peripheral/Source/gd32f30x_spi.c **** {
 1110              		.loc 1 618 1 is_stmt 1 view -0
 1111              		.cfi_startproc
 1112              		@ args = 0, pretend = 0, frame = 0
 1113              		@ frame_needed = 0, uses_anonymous_args = 0
 1114              		@ link register save eliminated.
 619:Drivers/GD32F30x_standard_peripheral/Source/gd32f30x_spi.c ****     SPI_CTL1(spi_periph) &= (uint32_t)(~SPI_CTL1_NSSP);
 1115              		.loc 1 619 5 view .LVU257
 1116              		.loc 1 619 26 is_stmt 0 view .LVU258
 1117 0000 4368     		ldr	r3, [r0, #4]
 1118 0002 23F00803 		bic	r3, r3, #8
 1119 0006 4360     		str	r3, [r0, #4]
 620:Drivers/GD32F30x_standard_peripheral/Source/gd32f30x_spi.c **** }
 1120              		.loc 1 620 1 view .LVU259
 1121 0008 7047     		bx	lr
 1122              		.cfi_endproc
ARM GAS  C:\Users\Prog\AppData\Local\Temp\cccBSqyc.s 			page 31


 1123              	.LFE144:
 1125              		.section	.text.qspi_enable,"ax",%progbits
 1126              		.align	1
 1127              		.global	qspi_enable
 1128              		.syntax unified
 1129              		.thumb
 1130              		.thumb_func
 1131              		.fpu fpv4-sp-d16
 1133              	qspi_enable:
 1134              	.LVL86:
 1135              	.LFB145:
 621:Drivers/GD32F30x_standard_peripheral/Source/gd32f30x_spi.c **** 
 622:Drivers/GD32F30x_standard_peripheral/Source/gd32f30x_spi.c **** /*!
 623:Drivers/GD32F30x_standard_peripheral/Source/gd32f30x_spi.c ****     \brief      enable quad wire SPI
 624:Drivers/GD32F30x_standard_peripheral/Source/gd32f30x_spi.c ****     \param[in]  spi_periph: SPIx(only x=0)
 625:Drivers/GD32F30x_standard_peripheral/Source/gd32f30x_spi.c ****     \param[out] none
 626:Drivers/GD32F30x_standard_peripheral/Source/gd32f30x_spi.c ****     \retval     none
 627:Drivers/GD32F30x_standard_peripheral/Source/gd32f30x_spi.c **** */
 628:Drivers/GD32F30x_standard_peripheral/Source/gd32f30x_spi.c **** void qspi_enable(uint32_t spi_periph)
 629:Drivers/GD32F30x_standard_peripheral/Source/gd32f30x_spi.c **** {
 1136              		.loc 1 629 1 is_stmt 1 view -0
 1137              		.cfi_startproc
 1138              		@ args = 0, pretend = 0, frame = 0
 1139              		@ frame_needed = 0, uses_anonymous_args = 0
 1140              		@ link register save eliminated.
 630:Drivers/GD32F30x_standard_peripheral/Source/gd32f30x_spi.c ****     SPI_QCTL(spi_periph) |= (uint32_t)SPI_QCTL_QMOD;
 1141              		.loc 1 630 5 view .LVU261
 1142              		.loc 1 630 26 is_stmt 0 view .LVU262
 1143 0000 D0F88030 		ldr	r3, [r0, #128]
 1144 0004 43F00103 		orr	r3, r3, #1
 1145 0008 C0F88030 		str	r3, [r0, #128]
 631:Drivers/GD32F30x_standard_peripheral/Source/gd32f30x_spi.c **** }
 1146              		.loc 1 631 1 view .LVU263
 1147 000c 7047     		bx	lr
 1148              		.cfi_endproc
 1149              	.LFE145:
 1151              		.section	.text.qspi_disable,"ax",%progbits
 1152              		.align	1
 1153              		.global	qspi_disable
 1154              		.syntax unified
 1155              		.thumb
 1156              		.thumb_func
 1157              		.fpu fpv4-sp-d16
 1159              	qspi_disable:
 1160              	.LVL87:
 1161              	.LFB146:
 632:Drivers/GD32F30x_standard_peripheral/Source/gd32f30x_spi.c **** 
 633:Drivers/GD32F30x_standard_peripheral/Source/gd32f30x_spi.c **** /*!
 634:Drivers/GD32F30x_standard_peripheral/Source/gd32f30x_spi.c ****     \brief      disable quad wire SPI 
 635:Drivers/GD32F30x_standard_peripheral/Source/gd32f30x_spi.c ****     \param[in]  spi_periph: SPIx(only x=0)
 636:Drivers/GD32F30x_standard_peripheral/Source/gd32f30x_spi.c ****     \param[out] none
 637:Drivers/GD32F30x_standard_peripheral/Source/gd32f30x_spi.c ****     \retval     none
 638:Drivers/GD32F30x_standard_peripheral/Source/gd32f30x_spi.c **** */
 639:Drivers/GD32F30x_standard_peripheral/Source/gd32f30x_spi.c **** void qspi_disable(uint32_t spi_periph)
 640:Drivers/GD32F30x_standard_peripheral/Source/gd32f30x_spi.c **** {
 1162              		.loc 1 640 1 is_stmt 1 view -0
 1163              		.cfi_startproc
ARM GAS  C:\Users\Prog\AppData\Local\Temp\cccBSqyc.s 			page 32


 1164              		@ args = 0, pretend = 0, frame = 0
 1165              		@ frame_needed = 0, uses_anonymous_args = 0
 1166              		@ link register save eliminated.
 641:Drivers/GD32F30x_standard_peripheral/Source/gd32f30x_spi.c ****     SPI_QCTL(spi_periph) &= (uint32_t)(~SPI_QCTL_QMOD);
 1167              		.loc 1 641 5 view .LVU265
 1168              		.loc 1 641 26 is_stmt 0 view .LVU266
 1169 0000 D0F88030 		ldr	r3, [r0, #128]
 1170 0004 23F00103 		bic	r3, r3, #1
 1171 0008 C0F88030 		str	r3, [r0, #128]
 642:Drivers/GD32F30x_standard_peripheral/Source/gd32f30x_spi.c **** }
 1172              		.loc 1 642 1 view .LVU267
 1173 000c 7047     		bx	lr
 1174              		.cfi_endproc
 1175              	.LFE146:
 1177              		.section	.text.qspi_write_enable,"ax",%progbits
 1178              		.align	1
 1179              		.global	qspi_write_enable
 1180              		.syntax unified
 1181              		.thumb
 1182              		.thumb_func
 1183              		.fpu fpv4-sp-d16
 1185              	qspi_write_enable:
 1186              	.LVL88:
 1187              	.LFB147:
 643:Drivers/GD32F30x_standard_peripheral/Source/gd32f30x_spi.c **** 
 644:Drivers/GD32F30x_standard_peripheral/Source/gd32f30x_spi.c **** /*!
 645:Drivers/GD32F30x_standard_peripheral/Source/gd32f30x_spi.c ****     \brief      enable quad wire SPI write 
 646:Drivers/GD32F30x_standard_peripheral/Source/gd32f30x_spi.c ****     \param[in]  spi_periph: SPIx(only x=0)
 647:Drivers/GD32F30x_standard_peripheral/Source/gd32f30x_spi.c ****     \param[out] none
 648:Drivers/GD32F30x_standard_peripheral/Source/gd32f30x_spi.c ****     \retval     none
 649:Drivers/GD32F30x_standard_peripheral/Source/gd32f30x_spi.c **** */
 650:Drivers/GD32F30x_standard_peripheral/Source/gd32f30x_spi.c **** void qspi_write_enable(uint32_t spi_periph)
 651:Drivers/GD32F30x_standard_peripheral/Source/gd32f30x_spi.c **** {
 1188              		.loc 1 651 1 is_stmt 1 view -0
 1189              		.cfi_startproc
 1190              		@ args = 0, pretend = 0, frame = 0
 1191              		@ frame_needed = 0, uses_anonymous_args = 0
 1192              		@ link register save eliminated.
 652:Drivers/GD32F30x_standard_peripheral/Source/gd32f30x_spi.c ****     SPI_QCTL(spi_periph) &= (uint32_t)(~SPI_QCTL_QRD);
 1193              		.loc 1 652 5 view .LVU269
 1194              		.loc 1 652 26 is_stmt 0 view .LVU270
 1195 0000 D0F88030 		ldr	r3, [r0, #128]
 1196 0004 23F00203 		bic	r3, r3, #2
 1197 0008 C0F88030 		str	r3, [r0, #128]
 653:Drivers/GD32F30x_standard_peripheral/Source/gd32f30x_spi.c **** }
 1198              		.loc 1 653 1 view .LVU271
 1199 000c 7047     		bx	lr
 1200              		.cfi_endproc
 1201              	.LFE147:
 1203              		.section	.text.qspi_read_enable,"ax",%progbits
 1204              		.align	1
 1205              		.global	qspi_read_enable
 1206              		.syntax unified
 1207              		.thumb
 1208              		.thumb_func
 1209              		.fpu fpv4-sp-d16
 1211              	qspi_read_enable:
ARM GAS  C:\Users\Prog\AppData\Local\Temp\cccBSqyc.s 			page 33


 1212              	.LVL89:
 1213              	.LFB148:
 654:Drivers/GD32F30x_standard_peripheral/Source/gd32f30x_spi.c **** 
 655:Drivers/GD32F30x_standard_peripheral/Source/gd32f30x_spi.c **** /*!
 656:Drivers/GD32F30x_standard_peripheral/Source/gd32f30x_spi.c ****     \brief      enable quad wire SPI read 
 657:Drivers/GD32F30x_standard_peripheral/Source/gd32f30x_spi.c ****     \param[in]  spi_periph: SPIx(only x=0)
 658:Drivers/GD32F30x_standard_peripheral/Source/gd32f30x_spi.c ****     \param[out] none
 659:Drivers/GD32F30x_standard_peripheral/Source/gd32f30x_spi.c ****     \retval     none
 660:Drivers/GD32F30x_standard_peripheral/Source/gd32f30x_spi.c **** */
 661:Drivers/GD32F30x_standard_peripheral/Source/gd32f30x_spi.c **** void qspi_read_enable(uint32_t spi_periph)
 662:Drivers/GD32F30x_standard_peripheral/Source/gd32f30x_spi.c **** {
 1214              		.loc 1 662 1 is_stmt 1 view -0
 1215              		.cfi_startproc
 1216              		@ args = 0, pretend = 0, frame = 0
 1217              		@ frame_needed = 0, uses_anonymous_args = 0
 1218              		@ link register save eliminated.
 663:Drivers/GD32F30x_standard_peripheral/Source/gd32f30x_spi.c ****     SPI_QCTL(spi_periph) |= (uint32_t)SPI_QCTL_QRD;
 1219              		.loc 1 663 5 view .LVU273
 1220              		.loc 1 663 26 is_stmt 0 view .LVU274
 1221 0000 D0F88030 		ldr	r3, [r0, #128]
 1222 0004 43F00203 		orr	r3, r3, #2
 1223 0008 C0F88030 		str	r3, [r0, #128]
 664:Drivers/GD32F30x_standard_peripheral/Source/gd32f30x_spi.c **** }
 1224              		.loc 1 664 1 view .LVU275
 1225 000c 7047     		bx	lr
 1226              		.cfi_endproc
 1227              	.LFE148:
 1229              		.section	.text.qspi_io23_output_enable,"ax",%progbits
 1230              		.align	1
 1231              		.global	qspi_io23_output_enable
 1232              		.syntax unified
 1233              		.thumb
 1234              		.thumb_func
 1235              		.fpu fpv4-sp-d16
 1237              	qspi_io23_output_enable:
 1238              	.LVL90:
 1239              	.LFB149:
 665:Drivers/GD32F30x_standard_peripheral/Source/gd32f30x_spi.c **** 
 666:Drivers/GD32F30x_standard_peripheral/Source/gd32f30x_spi.c **** /*!
 667:Drivers/GD32F30x_standard_peripheral/Source/gd32f30x_spi.c ****     \brief      enable SPI_IO2 and SPI_IO3 pin output 
 668:Drivers/GD32F30x_standard_peripheral/Source/gd32f30x_spi.c ****     \param[in]  spi_periph: SPIx(only x=0)
 669:Drivers/GD32F30x_standard_peripheral/Source/gd32f30x_spi.c ****     \param[out] none
 670:Drivers/GD32F30x_standard_peripheral/Source/gd32f30x_spi.c ****     \retval     none
 671:Drivers/GD32F30x_standard_peripheral/Source/gd32f30x_spi.c **** */
 672:Drivers/GD32F30x_standard_peripheral/Source/gd32f30x_spi.c **** void qspi_io23_output_enable(uint32_t spi_periph)
 673:Drivers/GD32F30x_standard_peripheral/Source/gd32f30x_spi.c **** {
 1240              		.loc 1 673 1 is_stmt 1 view -0
 1241              		.cfi_startproc
 1242              		@ args = 0, pretend = 0, frame = 0
 1243              		@ frame_needed = 0, uses_anonymous_args = 0
 1244              		@ link register save eliminated.
 674:Drivers/GD32F30x_standard_peripheral/Source/gd32f30x_spi.c ****     SPI_QCTL(spi_periph) |= (uint32_t)SPI_QCTL_IO23_DRV;
 1245              		.loc 1 674 5 view .LVU277
 1246              		.loc 1 674 26 is_stmt 0 view .LVU278
 1247 0000 D0F88030 		ldr	r3, [r0, #128]
 1248 0004 43F00403 		orr	r3, r3, #4
 1249 0008 C0F88030 		str	r3, [r0, #128]
ARM GAS  C:\Users\Prog\AppData\Local\Temp\cccBSqyc.s 			page 34


 675:Drivers/GD32F30x_standard_peripheral/Source/gd32f30x_spi.c **** }
 1250              		.loc 1 675 1 view .LVU279
 1251 000c 7047     		bx	lr
 1252              		.cfi_endproc
 1253              	.LFE149:
 1255              		.section	.text.qspi_io23_output_disable,"ax",%progbits
 1256              		.align	1
 1257              		.global	qspi_io23_output_disable
 1258              		.syntax unified
 1259              		.thumb
 1260              		.thumb_func
 1261              		.fpu fpv4-sp-d16
 1263              	qspi_io23_output_disable:
 1264              	.LVL91:
 1265              	.LFB150:
 676:Drivers/GD32F30x_standard_peripheral/Source/gd32f30x_spi.c **** 
 677:Drivers/GD32F30x_standard_peripheral/Source/gd32f30x_spi.c ****  /*!
 678:Drivers/GD32F30x_standard_peripheral/Source/gd32f30x_spi.c ****     \brief      disable SPI_IO2 and SPI_IO3 pin output 
 679:Drivers/GD32F30x_standard_peripheral/Source/gd32f30x_spi.c ****     \param[in]  spi_periph: SPIx(only x=0)
 680:Drivers/GD32F30x_standard_peripheral/Source/gd32f30x_spi.c ****     \param[out] none
 681:Drivers/GD32F30x_standard_peripheral/Source/gd32f30x_spi.c ****     \retval     none
 682:Drivers/GD32F30x_standard_peripheral/Source/gd32f30x_spi.c **** */
 683:Drivers/GD32F30x_standard_peripheral/Source/gd32f30x_spi.c ****  void qspi_io23_output_disable(uint32_t spi_periph)
 684:Drivers/GD32F30x_standard_peripheral/Source/gd32f30x_spi.c **** {
 1266              		.loc 1 684 1 is_stmt 1 view -0
 1267              		.cfi_startproc
 1268              		@ args = 0, pretend = 0, frame = 0
 1269              		@ frame_needed = 0, uses_anonymous_args = 0
 1270              		@ link register save eliminated.
 685:Drivers/GD32F30x_standard_peripheral/Source/gd32f30x_spi.c ****     SPI_QCTL(spi_periph) &= (uint32_t)(~SPI_QCTL_IO23_DRV);
 1271              		.loc 1 685 5 view .LVU281
 1272              		.loc 1 685 26 is_stmt 0 view .LVU282
 1273 0000 D0F88030 		ldr	r3, [r0, #128]
 1274 0004 23F00403 		bic	r3, r3, #4
 1275 0008 C0F88030 		str	r3, [r0, #128]
 686:Drivers/GD32F30x_standard_peripheral/Source/gd32f30x_spi.c **** }
 1276              		.loc 1 686 1 view .LVU283
 1277 000c 7047     		bx	lr
 1278              		.cfi_endproc
 1279              	.LFE150:
 1281              		.section	.text.spi_i2s_interrupt_enable,"ax",%progbits
 1282              		.align	1
 1283              		.global	spi_i2s_interrupt_enable
 1284              		.syntax unified
 1285              		.thumb
 1286              		.thumb_func
 1287              		.fpu fpv4-sp-d16
 1289              	spi_i2s_interrupt_enable:
 1290              	.LVL92:
 1291              	.LFB151:
 687:Drivers/GD32F30x_standard_peripheral/Source/gd32f30x_spi.c **** 
 688:Drivers/GD32F30x_standard_peripheral/Source/gd32f30x_spi.c **** /*!
 689:Drivers/GD32F30x_standard_peripheral/Source/gd32f30x_spi.c ****     \brief      enable SPI and I2S interrupt 
 690:Drivers/GD32F30x_standard_peripheral/Source/gd32f30x_spi.c ****     \param[in]  spi_periph: SPIx(x=0,1,2)
 691:Drivers/GD32F30x_standard_peripheral/Source/gd32f30x_spi.c ****     \param[in]  interrupt: SPI/I2S interrupt
 692:Drivers/GD32F30x_standard_peripheral/Source/gd32f30x_spi.c ****                 only one parameter can be selected which is shown as below:
 693:Drivers/GD32F30x_standard_peripheral/Source/gd32f30x_spi.c ****       \arg        SPI_I2S_INT_TBE: transmit buffer empty interrupt
ARM GAS  C:\Users\Prog\AppData\Local\Temp\cccBSqyc.s 			page 35


 694:Drivers/GD32F30x_standard_peripheral/Source/gd32f30x_spi.c ****       \arg        SPI_I2S_INT_RBNE: receive buffer not empty interrupt
 695:Drivers/GD32F30x_standard_peripheral/Source/gd32f30x_spi.c ****       \arg        SPI_I2S_INT_ERR: CRC error,configuration error,reception overrun error,
 696:Drivers/GD32F30x_standard_peripheral/Source/gd32f30x_spi.c ****                                    transmission underrun error and format error interrupt
 697:Drivers/GD32F30x_standard_peripheral/Source/gd32f30x_spi.c ****     \param[out] none
 698:Drivers/GD32F30x_standard_peripheral/Source/gd32f30x_spi.c ****     \retval     none
 699:Drivers/GD32F30x_standard_peripheral/Source/gd32f30x_spi.c **** */
 700:Drivers/GD32F30x_standard_peripheral/Source/gd32f30x_spi.c **** void spi_i2s_interrupt_enable(uint32_t spi_periph, uint8_t interrupt)
 701:Drivers/GD32F30x_standard_peripheral/Source/gd32f30x_spi.c **** {
 1292              		.loc 1 701 1 is_stmt 1 view -0
 1293              		.cfi_startproc
 1294              		@ args = 0, pretend = 0, frame = 0
 1295              		@ frame_needed = 0, uses_anonymous_args = 0
 1296              		@ link register save eliminated.
 702:Drivers/GD32F30x_standard_peripheral/Source/gd32f30x_spi.c ****     switch(interrupt){
 1297              		.loc 1 702 5 view .LVU285
 1298 0000 0129     		cmp	r1, #1
 1299 0002 08D0     		beq	.L67
 1300 0004 0229     		cmp	r1, #2
 1301 0006 0BD0     		beq	.L68
 1302 0008 01B1     		cbz	r1, .L70
 1303              	.L66:
 703:Drivers/GD32F30x_standard_peripheral/Source/gd32f30x_spi.c ****     /* SPI/I2S transmit buffer empty interrupt */
 704:Drivers/GD32F30x_standard_peripheral/Source/gd32f30x_spi.c ****     case SPI_I2S_INT_TBE:
 705:Drivers/GD32F30x_standard_peripheral/Source/gd32f30x_spi.c ****         SPI_CTL1(spi_periph) |= (uint32_t)SPI_CTL1_TBEIE;
 706:Drivers/GD32F30x_standard_peripheral/Source/gd32f30x_spi.c ****         break;
 707:Drivers/GD32F30x_standard_peripheral/Source/gd32f30x_spi.c ****     /* SPI/I2S receive buffer not empty interrupt */
 708:Drivers/GD32F30x_standard_peripheral/Source/gd32f30x_spi.c ****     case SPI_I2S_INT_RBNE:
 709:Drivers/GD32F30x_standard_peripheral/Source/gd32f30x_spi.c ****         SPI_CTL1(spi_periph) |= (uint32_t)SPI_CTL1_RBNEIE;
 710:Drivers/GD32F30x_standard_peripheral/Source/gd32f30x_spi.c ****         break;
 711:Drivers/GD32F30x_standard_peripheral/Source/gd32f30x_spi.c ****     /* SPI/I2S error */
 712:Drivers/GD32F30x_standard_peripheral/Source/gd32f30x_spi.c ****     case SPI_I2S_INT_ERR:
 713:Drivers/GD32F30x_standard_peripheral/Source/gd32f30x_spi.c ****         SPI_CTL1(spi_periph) |= (uint32_t)SPI_CTL1_ERRIE;
 714:Drivers/GD32F30x_standard_peripheral/Source/gd32f30x_spi.c ****         break;
 715:Drivers/GD32F30x_standard_peripheral/Source/gd32f30x_spi.c ****     default:
 716:Drivers/GD32F30x_standard_peripheral/Source/gd32f30x_spi.c ****         break;
 717:Drivers/GD32F30x_standard_peripheral/Source/gd32f30x_spi.c ****     }
 718:Drivers/GD32F30x_standard_peripheral/Source/gd32f30x_spi.c **** }
 1304              		.loc 1 718 1 is_stmt 0 view .LVU286
 1305 000a 7047     		bx	lr
 1306              	.L70:
 705:Drivers/GD32F30x_standard_peripheral/Source/gd32f30x_spi.c ****         break;
 1307              		.loc 1 705 9 is_stmt 1 view .LVU287
 705:Drivers/GD32F30x_standard_peripheral/Source/gd32f30x_spi.c ****         break;
 1308              		.loc 1 705 30 is_stmt 0 view .LVU288
 1309 000c 4368     		ldr	r3, [r0, #4]
 1310 000e 43F08003 		orr	r3, r3, #128
 1311 0012 4360     		str	r3, [r0, #4]
 706:Drivers/GD32F30x_standard_peripheral/Source/gd32f30x_spi.c ****     /* SPI/I2S receive buffer not empty interrupt */
 1312              		.loc 1 706 9 is_stmt 1 view .LVU289
 1313 0014 7047     		bx	lr
 1314              	.L67:
 709:Drivers/GD32F30x_standard_peripheral/Source/gd32f30x_spi.c ****         break;
 1315              		.loc 1 709 9 view .LVU290
 709:Drivers/GD32F30x_standard_peripheral/Source/gd32f30x_spi.c ****         break;
 1316              		.loc 1 709 30 is_stmt 0 view .LVU291
 1317 0016 4368     		ldr	r3, [r0, #4]
 1318 0018 43F04003 		orr	r3, r3, #64
ARM GAS  C:\Users\Prog\AppData\Local\Temp\cccBSqyc.s 			page 36


 1319 001c 4360     		str	r3, [r0, #4]
 710:Drivers/GD32F30x_standard_peripheral/Source/gd32f30x_spi.c ****     /* SPI/I2S error */
 1320              		.loc 1 710 9 is_stmt 1 view .LVU292
 1321 001e 7047     		bx	lr
 1322              	.L68:
 713:Drivers/GD32F30x_standard_peripheral/Source/gd32f30x_spi.c ****         break;
 1323              		.loc 1 713 9 view .LVU293
 713:Drivers/GD32F30x_standard_peripheral/Source/gd32f30x_spi.c ****         break;
 1324              		.loc 1 713 30 is_stmt 0 view .LVU294
 1325 0020 4368     		ldr	r3, [r0, #4]
 1326 0022 43F02003 		orr	r3, r3, #32
 1327 0026 4360     		str	r3, [r0, #4]
 714:Drivers/GD32F30x_standard_peripheral/Source/gd32f30x_spi.c ****     default:
 1328              		.loc 1 714 9 is_stmt 1 view .LVU295
 1329              		.loc 1 718 1 is_stmt 0 view .LVU296
 1330 0028 EFE7     		b	.L66
 1331              		.cfi_endproc
 1332              	.LFE151:
 1334              		.section	.text.spi_i2s_interrupt_disable,"ax",%progbits
 1335              		.align	1
 1336              		.global	spi_i2s_interrupt_disable
 1337              		.syntax unified
 1338              		.thumb
 1339              		.thumb_func
 1340              		.fpu fpv4-sp-d16
 1342              	spi_i2s_interrupt_disable:
 1343              	.LVL93:
 1344              	.LFB152:
 719:Drivers/GD32F30x_standard_peripheral/Source/gd32f30x_spi.c **** 
 720:Drivers/GD32F30x_standard_peripheral/Source/gd32f30x_spi.c **** /*!
 721:Drivers/GD32F30x_standard_peripheral/Source/gd32f30x_spi.c ****     \brief      disable SPI and I2S interrupt 
 722:Drivers/GD32F30x_standard_peripheral/Source/gd32f30x_spi.c ****     \param[in]  spi_periph: SPIx(x=0,1,2)
 723:Drivers/GD32F30x_standard_peripheral/Source/gd32f30x_spi.c ****     \param[in]  interrupt: SPI/I2S interrupt
 724:Drivers/GD32F30x_standard_peripheral/Source/gd32f30x_spi.c ****                 only one parameter can be selected which is shown as below:
 725:Drivers/GD32F30x_standard_peripheral/Source/gd32f30x_spi.c ****       \arg        SPI_I2S_INT_TBE: transmit buffer empty interrupt
 726:Drivers/GD32F30x_standard_peripheral/Source/gd32f30x_spi.c ****       \arg        SPI_I2S_INT_RBNE: receive buffer not empty interrupt
 727:Drivers/GD32F30x_standard_peripheral/Source/gd32f30x_spi.c ****       \arg        SPI_I2S_INT_ERR: CRC error,configuration error,reception overrun error,
 728:Drivers/GD32F30x_standard_peripheral/Source/gd32f30x_spi.c ****                                    transmission underrun error and format error interrupt
 729:Drivers/GD32F30x_standard_peripheral/Source/gd32f30x_spi.c ****     \param[out] none
 730:Drivers/GD32F30x_standard_peripheral/Source/gd32f30x_spi.c ****     \retval     none
 731:Drivers/GD32F30x_standard_peripheral/Source/gd32f30x_spi.c **** */
 732:Drivers/GD32F30x_standard_peripheral/Source/gd32f30x_spi.c **** void spi_i2s_interrupt_disable(uint32_t spi_periph, uint8_t interrupt)
 733:Drivers/GD32F30x_standard_peripheral/Source/gd32f30x_spi.c **** {
 1345              		.loc 1 733 1 is_stmt 1 view -0
 1346              		.cfi_startproc
 1347              		@ args = 0, pretend = 0, frame = 0
 1348              		@ frame_needed = 0, uses_anonymous_args = 0
 1349              		@ link register save eliminated.
 734:Drivers/GD32F30x_standard_peripheral/Source/gd32f30x_spi.c ****     switch(interrupt){
 1350              		.loc 1 734 5 view .LVU298
 1351 0000 0129     		cmp	r1, #1
 1352 0002 08D0     		beq	.L72
 1353 0004 0229     		cmp	r1, #2
 1354 0006 0BD0     		beq	.L73
 1355 0008 01B1     		cbz	r1, .L75
 1356              	.L71:
 735:Drivers/GD32F30x_standard_peripheral/Source/gd32f30x_spi.c ****     /* SPI/I2S transmit buffer empty interrupt */
ARM GAS  C:\Users\Prog\AppData\Local\Temp\cccBSqyc.s 			page 37


 736:Drivers/GD32F30x_standard_peripheral/Source/gd32f30x_spi.c ****     case SPI_I2S_INT_TBE:
 737:Drivers/GD32F30x_standard_peripheral/Source/gd32f30x_spi.c ****         SPI_CTL1(spi_periph) &= (uint32_t)(~SPI_CTL1_TBEIE);
 738:Drivers/GD32F30x_standard_peripheral/Source/gd32f30x_spi.c ****         break;
 739:Drivers/GD32F30x_standard_peripheral/Source/gd32f30x_spi.c ****     /* SPI/I2S receive buffer not empty interrupt */
 740:Drivers/GD32F30x_standard_peripheral/Source/gd32f30x_spi.c ****     case SPI_I2S_INT_RBNE:
 741:Drivers/GD32F30x_standard_peripheral/Source/gd32f30x_spi.c ****         SPI_CTL1(spi_periph) &= (uint32_t)(~SPI_CTL1_RBNEIE);
 742:Drivers/GD32F30x_standard_peripheral/Source/gd32f30x_spi.c ****         break;
 743:Drivers/GD32F30x_standard_peripheral/Source/gd32f30x_spi.c ****     /* SPI/I2S error */
 744:Drivers/GD32F30x_standard_peripheral/Source/gd32f30x_spi.c ****     case SPI_I2S_INT_ERR:
 745:Drivers/GD32F30x_standard_peripheral/Source/gd32f30x_spi.c ****         SPI_CTL1(spi_periph) &= (uint32_t)(~SPI_CTL1_ERRIE);
 746:Drivers/GD32F30x_standard_peripheral/Source/gd32f30x_spi.c ****         break;
 747:Drivers/GD32F30x_standard_peripheral/Source/gd32f30x_spi.c ****     default :
 748:Drivers/GD32F30x_standard_peripheral/Source/gd32f30x_spi.c ****         break;
 749:Drivers/GD32F30x_standard_peripheral/Source/gd32f30x_spi.c ****     }
 750:Drivers/GD32F30x_standard_peripheral/Source/gd32f30x_spi.c **** }
 1357              		.loc 1 750 1 is_stmt 0 view .LVU299
 1358 000a 7047     		bx	lr
 1359              	.L75:
 737:Drivers/GD32F30x_standard_peripheral/Source/gd32f30x_spi.c ****         break;
 1360              		.loc 1 737 9 is_stmt 1 view .LVU300
 737:Drivers/GD32F30x_standard_peripheral/Source/gd32f30x_spi.c ****         break;
 1361              		.loc 1 737 30 is_stmt 0 view .LVU301
 1362 000c 4368     		ldr	r3, [r0, #4]
 1363 000e 23F08003 		bic	r3, r3, #128
 1364 0012 4360     		str	r3, [r0, #4]
 738:Drivers/GD32F30x_standard_peripheral/Source/gd32f30x_spi.c ****     /* SPI/I2S receive buffer not empty interrupt */
 1365              		.loc 1 738 9 is_stmt 1 view .LVU302
 1366 0014 7047     		bx	lr
 1367              	.L72:
 741:Drivers/GD32F30x_standard_peripheral/Source/gd32f30x_spi.c ****         break;
 1368              		.loc 1 741 9 view .LVU303
 741:Drivers/GD32F30x_standard_peripheral/Source/gd32f30x_spi.c ****         break;
 1369              		.loc 1 741 30 is_stmt 0 view .LVU304
 1370 0016 4368     		ldr	r3, [r0, #4]
 1371 0018 23F04003 		bic	r3, r3, #64
 1372 001c 4360     		str	r3, [r0, #4]
 742:Drivers/GD32F30x_standard_peripheral/Source/gd32f30x_spi.c ****     /* SPI/I2S error */
 1373              		.loc 1 742 9 is_stmt 1 view .LVU305
 1374 001e 7047     		bx	lr
 1375              	.L73:
 745:Drivers/GD32F30x_standard_peripheral/Source/gd32f30x_spi.c ****         break;
 1376              		.loc 1 745 9 view .LVU306
 745:Drivers/GD32F30x_standard_peripheral/Source/gd32f30x_spi.c ****         break;
 1377              		.loc 1 745 30 is_stmt 0 view .LVU307
 1378 0020 4368     		ldr	r3, [r0, #4]
 1379 0022 23F02003 		bic	r3, r3, #32
 1380 0026 4360     		str	r3, [r0, #4]
 746:Drivers/GD32F30x_standard_peripheral/Source/gd32f30x_spi.c ****     default :
 1381              		.loc 1 746 9 is_stmt 1 view .LVU308
 1382              		.loc 1 750 1 is_stmt 0 view .LVU309
 1383 0028 EFE7     		b	.L71
 1384              		.cfi_endproc
 1385              	.LFE152:
 1387              		.section	.text.spi_i2s_interrupt_flag_get,"ax",%progbits
 1388              		.align	1
 1389              		.global	spi_i2s_interrupt_flag_get
 1390              		.syntax unified
ARM GAS  C:\Users\Prog\AppData\Local\Temp\cccBSqyc.s 			page 38


 1391              		.thumb
 1392              		.thumb_func
 1393              		.fpu fpv4-sp-d16
 1395              	spi_i2s_interrupt_flag_get:
 1396              	.LVL94:
 1397              	.LFB153:
 751:Drivers/GD32F30x_standard_peripheral/Source/gd32f30x_spi.c **** 
 752:Drivers/GD32F30x_standard_peripheral/Source/gd32f30x_spi.c **** /*!
 753:Drivers/GD32F30x_standard_peripheral/Source/gd32f30x_spi.c ****     \brief      get SPI and I2S interrupt flag status
 754:Drivers/GD32F30x_standard_peripheral/Source/gd32f30x_spi.c ****     \param[in]  spi_periph: SPIx(x=0,1,2)
 755:Drivers/GD32F30x_standard_peripheral/Source/gd32f30x_spi.c ****     \param[in]  interrupt: SPI/I2S interrupt flag status
 756:Drivers/GD32F30x_standard_peripheral/Source/gd32f30x_spi.c ****                 only one parameter can be selected which is shown as below:
 757:Drivers/GD32F30x_standard_peripheral/Source/gd32f30x_spi.c ****       \arg        SPI_I2S_INT_FLAG_TBE: transmit buffer empty interrupt flag
 758:Drivers/GD32F30x_standard_peripheral/Source/gd32f30x_spi.c ****       \arg        SPI_I2S_INT_FLAG_RBNE: receive buffer not empty interrupt flag
 759:Drivers/GD32F30x_standard_peripheral/Source/gd32f30x_spi.c ****       \arg        SPI_I2S_INT_FLAG_RXORERR: overrun interrupt flag
 760:Drivers/GD32F30x_standard_peripheral/Source/gd32f30x_spi.c ****       \arg        SPI_INT_FLAG_CONFERR: config error interrupt flag
 761:Drivers/GD32F30x_standard_peripheral/Source/gd32f30x_spi.c ****       \arg        SPI_INT_FLAG_CRCERR: CRC error interrupt flag
 762:Drivers/GD32F30x_standard_peripheral/Source/gd32f30x_spi.c ****       \arg        I2S_INT_FLAG_TXURERR: underrun error interrupt flag
 763:Drivers/GD32F30x_standard_peripheral/Source/gd32f30x_spi.c ****       \arg        SPI_I2S_INT_FLAG_FERR: format error interrupt flag
 764:Drivers/GD32F30x_standard_peripheral/Source/gd32f30x_spi.c ****     \param[out] none
 765:Drivers/GD32F30x_standard_peripheral/Source/gd32f30x_spi.c ****     \retval     FlagStatus: SET or RESET
 766:Drivers/GD32F30x_standard_peripheral/Source/gd32f30x_spi.c **** */
 767:Drivers/GD32F30x_standard_peripheral/Source/gd32f30x_spi.c **** FlagStatus spi_i2s_interrupt_flag_get(uint32_t spi_periph, uint8_t interrupt)
 768:Drivers/GD32F30x_standard_peripheral/Source/gd32f30x_spi.c **** {
 1398              		.loc 1 768 1 is_stmt 1 view -0
 1399              		.cfi_startproc
 1400              		@ args = 0, pretend = 0, frame = 0
 1401              		@ frame_needed = 0, uses_anonymous_args = 0
 1402              		@ link register save eliminated.
 769:Drivers/GD32F30x_standard_peripheral/Source/gd32f30x_spi.c ****     uint32_t reg1 = SPI_STAT(spi_periph);
 1403              		.loc 1 769 5 view .LVU311
 1404              		.loc 1 769 14 is_stmt 0 view .LVU312
 1405 0000 8368     		ldr	r3, [r0, #8]
 1406              	.LVL95:
 770:Drivers/GD32F30x_standard_peripheral/Source/gd32f30x_spi.c ****     uint32_t reg2 = SPI_CTL1(spi_periph);
 1407              		.loc 1 770 5 is_stmt 1 view .LVU313
 1408              		.loc 1 770 14 is_stmt 0 view .LVU314
 1409 0002 4268     		ldr	r2, [r0, #4]
 1410              	.LVL96:
 771:Drivers/GD32F30x_standard_peripheral/Source/gd32f30x_spi.c **** 
 772:Drivers/GD32F30x_standard_peripheral/Source/gd32f30x_spi.c ****     switch(interrupt){
 1411              		.loc 1 772 5 is_stmt 1 view .LVU315
 1412 0004 0629     		cmp	r1, #6
 1413 0006 09D8     		bhi	.L77
 1414 0008 DFE801F0 		tbb	[pc, r1]
 1415              	.LVL97:
 1416              	.L79:
 1417 000c 04       		.byte	(.L85-.L79)/2
 1418 000d 0C       		.byte	(.L84-.L79)/2
 1419 000e 11       		.byte	(.L83-.L79)/2
 1420 000f 16       		.byte	(.L82-.L79)/2
 1421 0010 1B       		.byte	(.L81-.L79)/2
 1422 0011 20       		.byte	(.L80-.L79)/2
 1423 0012 25       		.byte	(.L78-.L79)/2
 1424 0013 00       		.p2align 1
 1425              	.L85:
 773:Drivers/GD32F30x_standard_peripheral/Source/gd32f30x_spi.c ****     /* SPI/I2S transmit buffer empty interrupt */
ARM GAS  C:\Users\Prog\AppData\Local\Temp\cccBSqyc.s 			page 39


 774:Drivers/GD32F30x_standard_peripheral/Source/gd32f30x_spi.c ****     case SPI_I2S_INT_FLAG_TBE:
 775:Drivers/GD32F30x_standard_peripheral/Source/gd32f30x_spi.c ****         reg1 = reg1 & SPI_STAT_TBE;
 1426              		.loc 1 775 9 view .LVU316
 1427              		.loc 1 775 14 is_stmt 0 view .LVU317
 1428 0014 03F00203 		and	r3, r3, #2
 1429              	.LVL98:
 776:Drivers/GD32F30x_standard_peripheral/Source/gd32f30x_spi.c ****         reg2 = reg2 & SPI_CTL1_TBEIE;
 1430              		.loc 1 776 9 is_stmt 1 view .LVU318
 1431              		.loc 1 776 14 is_stmt 0 view .LVU319
 1432 0018 02F08002 		and	r2, r2, #128
 1433              	.LVL99:
 777:Drivers/GD32F30x_standard_peripheral/Source/gd32f30x_spi.c ****         break;
 1434              		.loc 1 777 9 is_stmt 1 view .LVU320
 1435              	.L77:
 778:Drivers/GD32F30x_standard_peripheral/Source/gd32f30x_spi.c ****     /* SPI/I2S receive buffer not empty interrupt */
 779:Drivers/GD32F30x_standard_peripheral/Source/gd32f30x_spi.c ****     case SPI_I2S_INT_FLAG_RBNE:
 780:Drivers/GD32F30x_standard_peripheral/Source/gd32f30x_spi.c ****         reg1 = reg1 & SPI_STAT_RBNE;
 781:Drivers/GD32F30x_standard_peripheral/Source/gd32f30x_spi.c ****         reg2 = reg2 & SPI_CTL1_RBNEIE;
 782:Drivers/GD32F30x_standard_peripheral/Source/gd32f30x_spi.c ****         break;
 783:Drivers/GD32F30x_standard_peripheral/Source/gd32f30x_spi.c ****     /* SPI/I2S overrun interrupt */
 784:Drivers/GD32F30x_standard_peripheral/Source/gd32f30x_spi.c ****     case SPI_I2S_INT_FLAG_RXORERR:
 785:Drivers/GD32F30x_standard_peripheral/Source/gd32f30x_spi.c ****         reg1 = reg1 & SPI_STAT_RXORERR;
 786:Drivers/GD32F30x_standard_peripheral/Source/gd32f30x_spi.c ****         reg2 = reg2 & SPI_CTL1_ERRIE;
 787:Drivers/GD32F30x_standard_peripheral/Source/gd32f30x_spi.c ****         break;
 788:Drivers/GD32F30x_standard_peripheral/Source/gd32f30x_spi.c ****     /* SPI config error interrupt */
 789:Drivers/GD32F30x_standard_peripheral/Source/gd32f30x_spi.c ****     case SPI_INT_FLAG_CONFERR:
 790:Drivers/GD32F30x_standard_peripheral/Source/gd32f30x_spi.c ****         reg1 = reg1 & SPI_STAT_CONFERR;
 791:Drivers/GD32F30x_standard_peripheral/Source/gd32f30x_spi.c ****         reg2 = reg2 & SPI_CTL1_ERRIE;
 792:Drivers/GD32F30x_standard_peripheral/Source/gd32f30x_spi.c ****         break;
 793:Drivers/GD32F30x_standard_peripheral/Source/gd32f30x_spi.c ****     /* SPI CRC error interrupt */
 794:Drivers/GD32F30x_standard_peripheral/Source/gd32f30x_spi.c ****     case SPI_INT_FLAG_CRCERR:
 795:Drivers/GD32F30x_standard_peripheral/Source/gd32f30x_spi.c ****         reg1 = reg1 & SPI_STAT_CRCERR;
 796:Drivers/GD32F30x_standard_peripheral/Source/gd32f30x_spi.c ****         reg2 = reg2 & SPI_CTL1_ERRIE;
 797:Drivers/GD32F30x_standard_peripheral/Source/gd32f30x_spi.c ****         break;
 798:Drivers/GD32F30x_standard_peripheral/Source/gd32f30x_spi.c ****     /* I2S underrun error interrupt */
 799:Drivers/GD32F30x_standard_peripheral/Source/gd32f30x_spi.c ****     case I2S_INT_FLAG_TXURERR:
 800:Drivers/GD32F30x_standard_peripheral/Source/gd32f30x_spi.c ****         reg1 = reg1 & SPI_STAT_TXURERR;
 801:Drivers/GD32F30x_standard_peripheral/Source/gd32f30x_spi.c ****         reg2 = reg2 & SPI_CTL1_ERRIE;
 802:Drivers/GD32F30x_standard_peripheral/Source/gd32f30x_spi.c ****         break;
 803:Drivers/GD32F30x_standard_peripheral/Source/gd32f30x_spi.c ****     /* SPI/I2S format error interrupt */
 804:Drivers/GD32F30x_standard_peripheral/Source/gd32f30x_spi.c ****     case SPI_I2S_INT_FLAG_FERR:
 805:Drivers/GD32F30x_standard_peripheral/Source/gd32f30x_spi.c ****         reg1 = reg1 & SPI_STAT_FERR;
 806:Drivers/GD32F30x_standard_peripheral/Source/gd32f30x_spi.c ****         reg2 = reg2 & SPI_CTL1_ERRIE;
 807:Drivers/GD32F30x_standard_peripheral/Source/gd32f30x_spi.c ****         break;
 808:Drivers/GD32F30x_standard_peripheral/Source/gd32f30x_spi.c ****     default :
 809:Drivers/GD32F30x_standard_peripheral/Source/gd32f30x_spi.c ****         break;
 810:Drivers/GD32F30x_standard_peripheral/Source/gd32f30x_spi.c ****     }
 811:Drivers/GD32F30x_standard_peripheral/Source/gd32f30x_spi.c ****     /*get SPI/I2S interrupt flag status */
 812:Drivers/GD32F30x_standard_peripheral/Source/gd32f30x_spi.c ****     if(reg1 && reg2){
 1436              		.loc 1 812 5 view .LVU321
 1437              		.loc 1 812 7 is_stmt 0 view .LVU322
 1438 001c 03B3     		cbz	r3, .L87
 1439              		.loc 1 812 13 discriminator 1 view .LVU323
 1440 001e 0ABB     		cbnz	r2, .L88
 813:Drivers/GD32F30x_standard_peripheral/Source/gd32f30x_spi.c ****         return SET;
 814:Drivers/GD32F30x_standard_peripheral/Source/gd32f30x_spi.c ****     }else{
 815:Drivers/GD32F30x_standard_peripheral/Source/gd32f30x_spi.c ****         return RESET;
ARM GAS  C:\Users\Prog\AppData\Local\Temp\cccBSqyc.s 			page 40


 1441              		.loc 1 815 16 view .LVU324
 1442 0020 0020     		movs	r0, #0
 1443 0022 7047     		bx	lr
 1444              	.L84:
 780:Drivers/GD32F30x_standard_peripheral/Source/gd32f30x_spi.c ****         reg2 = reg2 & SPI_CTL1_RBNEIE;
 1445              		.loc 1 780 9 is_stmt 1 view .LVU325
 780:Drivers/GD32F30x_standard_peripheral/Source/gd32f30x_spi.c ****         reg2 = reg2 & SPI_CTL1_RBNEIE;
 1446              		.loc 1 780 14 is_stmt 0 view .LVU326
 1447 0024 03F00103 		and	r3, r3, #1
 1448              	.LVL100:
 781:Drivers/GD32F30x_standard_peripheral/Source/gd32f30x_spi.c ****         break;
 1449              		.loc 1 781 9 is_stmt 1 view .LVU327
 781:Drivers/GD32F30x_standard_peripheral/Source/gd32f30x_spi.c ****         break;
 1450              		.loc 1 781 14 is_stmt 0 view .LVU328
 1451 0028 02F04002 		and	r2, r2, #64
 1452              	.LVL101:
 782:Drivers/GD32F30x_standard_peripheral/Source/gd32f30x_spi.c ****     /* SPI/I2S overrun interrupt */
 1453              		.loc 1 782 9 is_stmt 1 view .LVU329
 1454 002c F6E7     		b	.L77
 1455              	.L83:
 785:Drivers/GD32F30x_standard_peripheral/Source/gd32f30x_spi.c ****         reg2 = reg2 & SPI_CTL1_ERRIE;
 1456              		.loc 1 785 9 view .LVU330
 785:Drivers/GD32F30x_standard_peripheral/Source/gd32f30x_spi.c ****         reg2 = reg2 & SPI_CTL1_ERRIE;
 1457              		.loc 1 785 14 is_stmt 0 view .LVU331
 1458 002e 03F04003 		and	r3, r3, #64
 1459              	.LVL102:
 786:Drivers/GD32F30x_standard_peripheral/Source/gd32f30x_spi.c ****         break;
 1460              		.loc 1 786 9 is_stmt 1 view .LVU332
 786:Drivers/GD32F30x_standard_peripheral/Source/gd32f30x_spi.c ****         break;
 1461              		.loc 1 786 14 is_stmt 0 view .LVU333
 1462 0032 02F02002 		and	r2, r2, #32
 1463              	.LVL103:
 787:Drivers/GD32F30x_standard_peripheral/Source/gd32f30x_spi.c ****     /* SPI config error interrupt */
 1464              		.loc 1 787 9 is_stmt 1 view .LVU334
 1465 0036 F1E7     		b	.L77
 1466              	.L82:
 790:Drivers/GD32F30x_standard_peripheral/Source/gd32f30x_spi.c ****         reg2 = reg2 & SPI_CTL1_ERRIE;
 1467              		.loc 1 790 9 view .LVU335
 790:Drivers/GD32F30x_standard_peripheral/Source/gd32f30x_spi.c ****         reg2 = reg2 & SPI_CTL1_ERRIE;
 1468              		.loc 1 790 14 is_stmt 0 view .LVU336
 1469 0038 03F02003 		and	r3, r3, #32
 1470              	.LVL104:
 791:Drivers/GD32F30x_standard_peripheral/Source/gd32f30x_spi.c ****         break;
 1471              		.loc 1 791 9 is_stmt 1 view .LVU337
 791:Drivers/GD32F30x_standard_peripheral/Source/gd32f30x_spi.c ****         break;
 1472              		.loc 1 791 14 is_stmt 0 view .LVU338
 1473 003c 02F02002 		and	r2, r2, #32
 1474              	.LVL105:
 792:Drivers/GD32F30x_standard_peripheral/Source/gd32f30x_spi.c ****     /* SPI CRC error interrupt */
 1475              		.loc 1 792 9 is_stmt 1 view .LVU339
 1476 0040 ECE7     		b	.L77
 1477              	.L81:
 795:Drivers/GD32F30x_standard_peripheral/Source/gd32f30x_spi.c ****         reg2 = reg2 & SPI_CTL1_ERRIE;
 1478              		.loc 1 795 9 view .LVU340
 795:Drivers/GD32F30x_standard_peripheral/Source/gd32f30x_spi.c ****         reg2 = reg2 & SPI_CTL1_ERRIE;
 1479              		.loc 1 795 14 is_stmt 0 view .LVU341
 1480 0042 03F01003 		and	r3, r3, #16
ARM GAS  C:\Users\Prog\AppData\Local\Temp\cccBSqyc.s 			page 41


 1481              	.LVL106:
 796:Drivers/GD32F30x_standard_peripheral/Source/gd32f30x_spi.c ****         break;
 1482              		.loc 1 796 9 is_stmt 1 view .LVU342
 796:Drivers/GD32F30x_standard_peripheral/Source/gd32f30x_spi.c ****         break;
 1483              		.loc 1 796 14 is_stmt 0 view .LVU343
 1484 0046 02F02002 		and	r2, r2, #32
 1485              	.LVL107:
 797:Drivers/GD32F30x_standard_peripheral/Source/gd32f30x_spi.c ****     /* I2S underrun error interrupt */
 1486              		.loc 1 797 9 is_stmt 1 view .LVU344
 1487 004a E7E7     		b	.L77
 1488              	.L80:
 800:Drivers/GD32F30x_standard_peripheral/Source/gd32f30x_spi.c ****         reg2 = reg2 & SPI_CTL1_ERRIE;
 1489              		.loc 1 800 9 view .LVU345
 800:Drivers/GD32F30x_standard_peripheral/Source/gd32f30x_spi.c ****         reg2 = reg2 & SPI_CTL1_ERRIE;
 1490              		.loc 1 800 14 is_stmt 0 view .LVU346
 1491 004c 03F00803 		and	r3, r3, #8
 1492              	.LVL108:
 801:Drivers/GD32F30x_standard_peripheral/Source/gd32f30x_spi.c ****         break;
 1493              		.loc 1 801 9 is_stmt 1 view .LVU347
 801:Drivers/GD32F30x_standard_peripheral/Source/gd32f30x_spi.c ****         break;
 1494              		.loc 1 801 14 is_stmt 0 view .LVU348
 1495 0050 02F02002 		and	r2, r2, #32
 1496              	.LVL109:
 802:Drivers/GD32F30x_standard_peripheral/Source/gd32f30x_spi.c ****     /* SPI/I2S format error interrupt */
 1497              		.loc 1 802 9 is_stmt 1 view .LVU349
 1498 0054 E2E7     		b	.L77
 1499              	.L78:
 805:Drivers/GD32F30x_standard_peripheral/Source/gd32f30x_spi.c ****         reg2 = reg2 & SPI_CTL1_ERRIE;
 1500              		.loc 1 805 9 view .LVU350
 805:Drivers/GD32F30x_standard_peripheral/Source/gd32f30x_spi.c ****         reg2 = reg2 & SPI_CTL1_ERRIE;
 1501              		.loc 1 805 14 is_stmt 0 view .LVU351
 1502 0056 03F48073 		and	r3, r3, #256
 1503              	.LVL110:
 806:Drivers/GD32F30x_standard_peripheral/Source/gd32f30x_spi.c ****         break;
 1504              		.loc 1 806 9 is_stmt 1 view .LVU352
 806:Drivers/GD32F30x_standard_peripheral/Source/gd32f30x_spi.c ****         break;
 1505              		.loc 1 806 14 is_stmt 0 view .LVU353
 1506 005a 02F02002 		and	r2, r2, #32
 1507              	.LVL111:
 807:Drivers/GD32F30x_standard_peripheral/Source/gd32f30x_spi.c ****     default :
 1508              		.loc 1 807 9 is_stmt 1 view .LVU354
 1509 005e DDE7     		b	.L77
 1510              	.L87:
 1511              		.loc 1 815 16 is_stmt 0 view .LVU355
 1512 0060 0020     		movs	r0, #0
 1513 0062 7047     		bx	lr
 1514              	.L88:
 813:Drivers/GD32F30x_standard_peripheral/Source/gd32f30x_spi.c ****     }else{
 1515              		.loc 1 813 16 view .LVU356
 1516 0064 0120     		movs	r0, #1
 816:Drivers/GD32F30x_standard_peripheral/Source/gd32f30x_spi.c ****     }
 817:Drivers/GD32F30x_standard_peripheral/Source/gd32f30x_spi.c **** }
 1517              		.loc 1 817 1 view .LVU357
 1518 0066 7047     		bx	lr
 1519              		.cfi_endproc
 1520              	.LFE153:
 1522              		.section	.text.spi_i2s_flag_get,"ax",%progbits
ARM GAS  C:\Users\Prog\AppData\Local\Temp\cccBSqyc.s 			page 42


 1523              		.align	1
 1524              		.global	spi_i2s_flag_get
 1525              		.syntax unified
 1526              		.thumb
 1527              		.thumb_func
 1528              		.fpu fpv4-sp-d16
 1530              	spi_i2s_flag_get:
 1531              	.LVL112:
 1532              	.LFB154:
 818:Drivers/GD32F30x_standard_peripheral/Source/gd32f30x_spi.c **** 
 819:Drivers/GD32F30x_standard_peripheral/Source/gd32f30x_spi.c **** /*!
 820:Drivers/GD32F30x_standard_peripheral/Source/gd32f30x_spi.c ****     \brief      get SPI and I2S flag status
 821:Drivers/GD32F30x_standard_peripheral/Source/gd32f30x_spi.c ****     \param[in]  spi_periph: SPIx(x=0,1,2)
 822:Drivers/GD32F30x_standard_peripheral/Source/gd32f30x_spi.c ****     \param[in]  flag: SPI/I2S flag status
 823:Drivers/GD32F30x_standard_peripheral/Source/gd32f30x_spi.c ****                 only one parameter can be selected which is shown as below:
 824:Drivers/GD32F30x_standard_peripheral/Source/gd32f30x_spi.c ****       \arg        SPI_FLAG_TBE: transmit buffer empty flag
 825:Drivers/GD32F30x_standard_peripheral/Source/gd32f30x_spi.c ****       \arg        SPI_FLAG_RBNE: receive buffer not empty flag
 826:Drivers/GD32F30x_standard_peripheral/Source/gd32f30x_spi.c ****       \arg        SPI_FLAG_TRANS: transmit on-going flag
 827:Drivers/GD32F30x_standard_peripheral/Source/gd32f30x_spi.c ****       \arg        SPI_FLAG_RXORERR: receive overrun error flag
 828:Drivers/GD32F30x_standard_peripheral/Source/gd32f30x_spi.c ****       \arg        SPI_FLAG_CONFERR: mode config error flag
 829:Drivers/GD32F30x_standard_peripheral/Source/gd32f30x_spi.c ****       \arg        SPI_FLAG_CRCERR: CRC error flag
 830:Drivers/GD32F30x_standard_peripheral/Source/gd32f30x_spi.c ****       \arg        SPI_FLAG_FERR: format error flag
 831:Drivers/GD32F30x_standard_peripheral/Source/gd32f30x_spi.c ****       \arg        I2S_FLAG_TBE: transmit buffer empty flag
 832:Drivers/GD32F30x_standard_peripheral/Source/gd32f30x_spi.c ****       \arg        I2S_FLAG_RBNE: receive buffer not empty flag
 833:Drivers/GD32F30x_standard_peripheral/Source/gd32f30x_spi.c ****       \arg        I2S_FLAG_TRANS: transmit on-going flag
 834:Drivers/GD32F30x_standard_peripheral/Source/gd32f30x_spi.c ****       \arg        I2S_FLAG_RXORERR: overrun error flag
 835:Drivers/GD32F30x_standard_peripheral/Source/gd32f30x_spi.c ****       \arg        I2S_FLAG_TXURERR: underrun error flag
 836:Drivers/GD32F30x_standard_peripheral/Source/gd32f30x_spi.c ****       \arg        I2S_FLAG_CH: channel side flag
 837:Drivers/GD32F30x_standard_peripheral/Source/gd32f30x_spi.c ****       \arg        I2S_FLAG_FERR: format error flag
 838:Drivers/GD32F30x_standard_peripheral/Source/gd32f30x_spi.c ****     \param[out] none
 839:Drivers/GD32F30x_standard_peripheral/Source/gd32f30x_spi.c ****     \retval     FlagStatus: SET or RESET
 840:Drivers/GD32F30x_standard_peripheral/Source/gd32f30x_spi.c **** */
 841:Drivers/GD32F30x_standard_peripheral/Source/gd32f30x_spi.c **** FlagStatus spi_i2s_flag_get(uint32_t spi_periph, uint32_t flag)
 842:Drivers/GD32F30x_standard_peripheral/Source/gd32f30x_spi.c **** {
 1533              		.loc 1 842 1 is_stmt 1 view -0
 1534              		.cfi_startproc
 1535              		@ args = 0, pretend = 0, frame = 0
 1536              		@ frame_needed = 0, uses_anonymous_args = 0
 1537              		@ link register save eliminated.
 843:Drivers/GD32F30x_standard_peripheral/Source/gd32f30x_spi.c ****     if(SPI_STAT(spi_periph) & flag){
 1538              		.loc 1 843 5 view .LVU359
 1539              		.loc 1 843 8 is_stmt 0 view .LVU360
 1540 0000 8368     		ldr	r3, [r0, #8]
 1541              		.loc 1 843 7 view .LVU361
 1542 0002 0B42     		tst	r3, r1
 1543 0004 01D0     		beq	.L91
 844:Drivers/GD32F30x_standard_peripheral/Source/gd32f30x_spi.c ****         return SET;
 1544              		.loc 1 844 16 view .LVU362
 1545 0006 0120     		movs	r0, #1
 1546              	.LVL113:
 1547              		.loc 1 844 16 view .LVU363
 1548 0008 7047     		bx	lr
 1549              	.LVL114:
 1550              	.L91:
 845:Drivers/GD32F30x_standard_peripheral/Source/gd32f30x_spi.c ****     }else{
 846:Drivers/GD32F30x_standard_peripheral/Source/gd32f30x_spi.c ****         return RESET;
 1551              		.loc 1 846 16 view .LVU364
ARM GAS  C:\Users\Prog\AppData\Local\Temp\cccBSqyc.s 			page 43


 1552 000a 0020     		movs	r0, #0
 1553              	.LVL115:
 847:Drivers/GD32F30x_standard_peripheral/Source/gd32f30x_spi.c ****     }
 848:Drivers/GD32F30x_standard_peripheral/Source/gd32f30x_spi.c **** }
 1554              		.loc 1 848 1 view .LVU365
 1555 000c 7047     		bx	lr
 1556              		.cfi_endproc
 1557              	.LFE154:
 1559              		.section	.text.spi_crc_error_clear,"ax",%progbits
 1560              		.align	1
 1561              		.global	spi_crc_error_clear
 1562              		.syntax unified
 1563              		.thumb
 1564              		.thumb_func
 1565              		.fpu fpv4-sp-d16
 1567              	spi_crc_error_clear:
 1568              	.LVL116:
 1569              	.LFB155:
 849:Drivers/GD32F30x_standard_peripheral/Source/gd32f30x_spi.c **** 
 850:Drivers/GD32F30x_standard_peripheral/Source/gd32f30x_spi.c **** /*!
 851:Drivers/GD32F30x_standard_peripheral/Source/gd32f30x_spi.c ****     \brief      clear SPI CRC error flag status
 852:Drivers/GD32F30x_standard_peripheral/Source/gd32f30x_spi.c ****     \param[in]  spi_periph: SPIx(x=0,1,2)
 853:Drivers/GD32F30x_standard_peripheral/Source/gd32f30x_spi.c ****     \param[out] none
 854:Drivers/GD32F30x_standard_peripheral/Source/gd32f30x_spi.c ****     \retval     none
 855:Drivers/GD32F30x_standard_peripheral/Source/gd32f30x_spi.c **** */
 856:Drivers/GD32F30x_standard_peripheral/Source/gd32f30x_spi.c **** void spi_crc_error_clear(uint32_t spi_periph)
 857:Drivers/GD32F30x_standard_peripheral/Source/gd32f30x_spi.c **** {
 1570              		.loc 1 857 1 is_stmt 1 view -0
 1571              		.cfi_startproc
 1572              		@ args = 0, pretend = 0, frame = 0
 1573              		@ frame_needed = 0, uses_anonymous_args = 0
 1574              		@ link register save eliminated.
 858:Drivers/GD32F30x_standard_peripheral/Source/gd32f30x_spi.c ****     SPI_STAT(spi_periph) &= (uint32_t)(~SPI_FLAG_CRCERR);
 1575              		.loc 1 858 5 view .LVU367
 1576              		.loc 1 858 26 is_stmt 0 view .LVU368
 1577 0000 8368     		ldr	r3, [r0, #8]
 1578 0002 23F01003 		bic	r3, r3, #16
 1579 0006 8360     		str	r3, [r0, #8]
 859:Drivers/GD32F30x_standard_peripheral/Source/gd32f30x_spi.c **** }
 1580              		.loc 1 859 1 view .LVU369
 1581 0008 7047     		bx	lr
 1582              		.cfi_endproc
 1583              	.LFE155:
 1585              		.text
 1586              	.Letext0:
 1587              		.file 2 "c:\\programdata\\chocolatey\\lib\\gcc-arm-embedded\\tools\\gcc-arm-none-eabi-10-2020-q4-m
 1588              		.file 3 "c:\\programdata\\chocolatey\\lib\\gcc-arm-embedded\\tools\\gcc-arm-none-eabi-10-2020-q4-m
 1589              		.file 4 "Drivers/CMSIS/GD/GD32F30x/Include/gd32f30x.h"
 1590              		.file 5 "Drivers/GD32F30x_standard_peripheral/Include/gd32f30x_rcu.h"
 1591              		.file 6 "Drivers/GD32F30x_standard_peripheral/Include/gd32f30x_spi.h"
ARM GAS  C:\Users\Prog\AppData\Local\Temp\cccBSqyc.s 			page 44

