ARM GAS  C:\Users\Prog\AppData\Local\Temp\cc95E1bd.s 			page 1


   1              		.cpu cortex-m4
   2              		.eabi_attribute 27, 1
   3              		.eabi_attribute 28, 1
   4              		.eabi_attribute 20, 1
   5              		.eabi_attribute 21, 1
   6              		.eabi_attribute 23, 3
   7              		.eabi_attribute 24, 1
   8              		.eabi_attribute 25, 1
   9              		.eabi_attribute 26, 1
  10              		.eabi_attribute 30, 1
  11              		.eabi_attribute 34, 1
  12              		.eabi_attribute 18, 4
  13              		.file	"gd32f30x_gpio.c"
  14              		.text
  15              	.Ltext0:
  16              		.cfi_sections	.debug_frame
  17              		.section	.text.gpio_deinit,"ax",%progbits
  18              		.align	1
  19              		.global	gpio_deinit
  20              		.arch armv7e-m
  21              		.syntax unified
  22              		.thumb
  23              		.thumb_func
  24              		.fpu fpv4-sp-d16
  26              	gpio_deinit:
  27              	.LVL0:
  28              	.LFB116:
  29              		.file 1 "Drivers/GD32F30x_standard_peripheral/Source/gd32f30x_gpio.c"
   1:Drivers/GD32F30x_standard_peripheral/Source/gd32f30x_gpio.c **** /*!
   2:Drivers/GD32F30x_standard_peripheral/Source/gd32f30x_gpio.c ****     \file    gd32f30x_gpio.c
   3:Drivers/GD32F30x_standard_peripheral/Source/gd32f30x_gpio.c ****     \brief   GPIO driver
   4:Drivers/GD32F30x_standard_peripheral/Source/gd32f30x_gpio.c **** 
   5:Drivers/GD32F30x_standard_peripheral/Source/gd32f30x_gpio.c ****     \version 2017-02-10, V1.0.0, firmware for GD32F30x
   6:Drivers/GD32F30x_standard_peripheral/Source/gd32f30x_gpio.c ****     \version 2018-10-10, V1.1.0, firmware for GD32F30x
   7:Drivers/GD32F30x_standard_peripheral/Source/gd32f30x_gpio.c ****     \version 2018-12-25, V2.0.0, firmware for GD32F30x
   8:Drivers/GD32F30x_standard_peripheral/Source/gd32f30x_gpio.c ****     \version 2020-09-30, V2.1.0, firmware for GD32F30x
   9:Drivers/GD32F30x_standard_peripheral/Source/gd32f30x_gpio.c **** */
  10:Drivers/GD32F30x_standard_peripheral/Source/gd32f30x_gpio.c **** 
  11:Drivers/GD32F30x_standard_peripheral/Source/gd32f30x_gpio.c **** /*
  12:Drivers/GD32F30x_standard_peripheral/Source/gd32f30x_gpio.c ****     Copyright (c) 2020, GigaDevice Semiconductor Inc.
  13:Drivers/GD32F30x_standard_peripheral/Source/gd32f30x_gpio.c **** 
  14:Drivers/GD32F30x_standard_peripheral/Source/gd32f30x_gpio.c ****     Redistribution and use in source and binary forms, with or without modification, 
  15:Drivers/GD32F30x_standard_peripheral/Source/gd32f30x_gpio.c **** are permitted provided that the following conditions are met:
  16:Drivers/GD32F30x_standard_peripheral/Source/gd32f30x_gpio.c **** 
  17:Drivers/GD32F30x_standard_peripheral/Source/gd32f30x_gpio.c ****     1. Redistributions of source code must retain the above copyright notice, this 
  18:Drivers/GD32F30x_standard_peripheral/Source/gd32f30x_gpio.c ****        list of conditions and the following disclaimer.
  19:Drivers/GD32F30x_standard_peripheral/Source/gd32f30x_gpio.c ****     2. Redistributions in binary form must reproduce the above copyright notice, 
  20:Drivers/GD32F30x_standard_peripheral/Source/gd32f30x_gpio.c ****        this list of conditions and the following disclaimer in the documentation 
  21:Drivers/GD32F30x_standard_peripheral/Source/gd32f30x_gpio.c ****        and/or other materials provided with the distribution.
  22:Drivers/GD32F30x_standard_peripheral/Source/gd32f30x_gpio.c ****     3. Neither the name of the copyright holder nor the names of its contributors 
  23:Drivers/GD32F30x_standard_peripheral/Source/gd32f30x_gpio.c ****        may be used to endorse or promote products derived from this software without 
  24:Drivers/GD32F30x_standard_peripheral/Source/gd32f30x_gpio.c ****        specific prior written permission.
  25:Drivers/GD32F30x_standard_peripheral/Source/gd32f30x_gpio.c **** 
  26:Drivers/GD32F30x_standard_peripheral/Source/gd32f30x_gpio.c ****     THIS SOFTWARE IS PROVIDED BY THE COPYRIGHT HOLDERS AND CONTRIBUTORS "AS IS" 
  27:Drivers/GD32F30x_standard_peripheral/Source/gd32f30x_gpio.c **** AND ANY EXPRESS OR IMPLIED WARRANTIES, INCLUDING, BUT NOT LIMITED TO, THE IMPLIED 
  28:Drivers/GD32F30x_standard_peripheral/Source/gd32f30x_gpio.c **** WARRANTIES OF MERCHANTABILITY AND FITNESS FOR A PARTICULAR PURPOSE ARE DISCLAIMED. 
  29:Drivers/GD32F30x_standard_peripheral/Source/gd32f30x_gpio.c **** IN NO EVENT SHALL THE COPYRIGHT HOLDER OR CONTRIBUTORS BE LIABLE FOR ANY DIRECT, 
ARM GAS  C:\Users\Prog\AppData\Local\Temp\cc95E1bd.s 			page 2


  30:Drivers/GD32F30x_standard_peripheral/Source/gd32f30x_gpio.c **** INDIRECT, INCIDENTAL, SPECIAL, EXEMPLARY, OR CONSEQUENTIAL DAMAGES (INCLUDING, BUT 
  31:Drivers/GD32F30x_standard_peripheral/Source/gd32f30x_gpio.c **** NOT LIMITED TO, PROCUREMENT OF SUBSTITUTE GOODS OR SERVICES; LOSS OF USE, DATA, OR 
  32:Drivers/GD32F30x_standard_peripheral/Source/gd32f30x_gpio.c **** PROFITS; OR BUSINESS INTERRUPTION) HOWEVER CAUSED AND ON ANY THEORY OF LIABILITY, 
  33:Drivers/GD32F30x_standard_peripheral/Source/gd32f30x_gpio.c **** WHETHER IN CONTRACT, STRICT LIABILITY, OR TORT (INCLUDING NEGLIGENCE OR OTHERWISE) 
  34:Drivers/GD32F30x_standard_peripheral/Source/gd32f30x_gpio.c **** ARISING IN ANY WAY OUT OF THE USE OF THIS SOFTWARE, EVEN IF ADVISED OF THE POSSIBILITY 
  35:Drivers/GD32F30x_standard_peripheral/Source/gd32f30x_gpio.c **** OF SUCH DAMAGE.
  36:Drivers/GD32F30x_standard_peripheral/Source/gd32f30x_gpio.c **** */
  37:Drivers/GD32F30x_standard_peripheral/Source/gd32f30x_gpio.c **** 
  38:Drivers/GD32F30x_standard_peripheral/Source/gd32f30x_gpio.c **** #include "gd32f30x_gpio.h"
  39:Drivers/GD32F30x_standard_peripheral/Source/gd32f30x_gpio.c **** 
  40:Drivers/GD32F30x_standard_peripheral/Source/gd32f30x_gpio.c **** #define AFIO_EXTI_SOURCE_MASK              ((uint8_t)0x03U)         /*!< AFIO exti source selection
  41:Drivers/GD32F30x_standard_peripheral/Source/gd32f30x_gpio.c **** #define AFIO_EXTI_SOURCE_FIELDS            ((uint8_t)0x04U)         /*!< select AFIO exti source re
  42:Drivers/GD32F30x_standard_peripheral/Source/gd32f30x_gpio.c **** #define LSB_16BIT_MASK                     ((uint16_t)0xFFFFU)      /*!< LSB 16-bit mask */
  43:Drivers/GD32F30x_standard_peripheral/Source/gd32f30x_gpio.c **** #define PCF_POSITION_MASK                  ((uint32_t)0x000F0000U)  /*!< AFIO_PCF register position
  44:Drivers/GD32F30x_standard_peripheral/Source/gd32f30x_gpio.c **** #define PCF_SWJCFG_MASK                    ((uint32_t)0xF8FFFFFFU)  /*!< AFIO_PCF register SWJCFG m
  45:Drivers/GD32F30x_standard_peripheral/Source/gd32f30x_gpio.c **** #define PCF_LOCATION1_MASK                 ((uint32_t)0x00200000U)  /*!< AFIO_PCF register location
  46:Drivers/GD32F30x_standard_peripheral/Source/gd32f30x_gpio.c **** #define PCF_LOCATION2_MASK                 ((uint32_t)0x00100000U)  /*!< AFIO_PCF register location
  47:Drivers/GD32F30x_standard_peripheral/Source/gd32f30x_gpio.c **** #define AFIO_PCF1_FIELDS                   ((uint32_t)0x80000000U)  /*!< select AFIO_PCF1 register 
  48:Drivers/GD32F30x_standard_peripheral/Source/gd32f30x_gpio.c **** #define GPIO_OUTPUT_PORT_OFFSET            ((uint32_t)4U)           /*!< GPIO event output port off
  49:Drivers/GD32F30x_standard_peripheral/Source/gd32f30x_gpio.c **** 
  50:Drivers/GD32F30x_standard_peripheral/Source/gd32f30x_gpio.c **** /*!
  51:Drivers/GD32F30x_standard_peripheral/Source/gd32f30x_gpio.c ****     \brief      reset GPIO port
  52:Drivers/GD32F30x_standard_peripheral/Source/gd32f30x_gpio.c ****     \param[in]  gpio_periph: GPIOx(x = A,B,C,D,E,F,G)
  53:Drivers/GD32F30x_standard_peripheral/Source/gd32f30x_gpio.c ****     \param[out] none
  54:Drivers/GD32F30x_standard_peripheral/Source/gd32f30x_gpio.c ****     \retval     none
  55:Drivers/GD32F30x_standard_peripheral/Source/gd32f30x_gpio.c **** */
  56:Drivers/GD32F30x_standard_peripheral/Source/gd32f30x_gpio.c **** void gpio_deinit(uint32_t gpio_periph)
  57:Drivers/GD32F30x_standard_peripheral/Source/gd32f30x_gpio.c **** {
  30              		.loc 1 57 1 view -0
  31              		.cfi_startproc
  32              		@ args = 0, pretend = 0, frame = 0
  33              		@ frame_needed = 0, uses_anonymous_args = 0
  34              		.loc 1 57 1 is_stmt 0 view .LVU1
  35 0000 08B5     		push	{r3, lr}
  36              	.LCFI0:
  37              		.cfi_def_cfa_offset 8
  38              		.cfi_offset 3, -8
  39              		.cfi_offset 14, -4
  58:Drivers/GD32F30x_standard_peripheral/Source/gd32f30x_gpio.c ****     switch(gpio_periph){
  40              		.loc 1 58 5 is_stmt 1 view .LVU2
  41 0002 2D4B     		ldr	r3, .L14
  42 0004 9842     		cmp	r0, r3
  43 0006 44D0     		beq	.L2
  44 0008 1DD8     		bhi	.L3
  45 000a A3F50063 		sub	r3, r3, #2048
  46 000e 9842     		cmp	r0, r3
  47 0010 36D0     		beq	.L4
  48 0012 03F58063 		add	r3, r3, #1024
  49 0016 9842     		cmp	r0, r3
  50 0018 08D1     		bne	.L12
  59:Drivers/GD32F30x_standard_peripheral/Source/gd32f30x_gpio.c ****     case GPIOA:
  60:Drivers/GD32F30x_standard_peripheral/Source/gd32f30x_gpio.c ****         /* reset GPIOA */
  61:Drivers/GD32F30x_standard_peripheral/Source/gd32f30x_gpio.c ****         rcu_periph_reset_enable(RCU_GPIOARST);
  62:Drivers/GD32F30x_standard_peripheral/Source/gd32f30x_gpio.c ****         rcu_periph_reset_disable(RCU_GPIOARST);
  63:Drivers/GD32F30x_standard_peripheral/Source/gd32f30x_gpio.c ****         break;
  64:Drivers/GD32F30x_standard_peripheral/Source/gd32f30x_gpio.c ****     case GPIOB:
  65:Drivers/GD32F30x_standard_peripheral/Source/gd32f30x_gpio.c ****         /* reset GPIOB */
ARM GAS  C:\Users\Prog\AppData\Local\Temp\cc95E1bd.s 			page 3


  66:Drivers/GD32F30x_standard_peripheral/Source/gd32f30x_gpio.c ****         rcu_periph_reset_enable(RCU_GPIOBRST);
  67:Drivers/GD32F30x_standard_peripheral/Source/gd32f30x_gpio.c ****         rcu_periph_reset_disable(RCU_GPIOBRST);
  68:Drivers/GD32F30x_standard_peripheral/Source/gd32f30x_gpio.c ****         break;
  69:Drivers/GD32F30x_standard_peripheral/Source/gd32f30x_gpio.c ****     case GPIOC:
  70:Drivers/GD32F30x_standard_peripheral/Source/gd32f30x_gpio.c ****         /* reset GPIOC */
  71:Drivers/GD32F30x_standard_peripheral/Source/gd32f30x_gpio.c ****         rcu_periph_reset_enable(RCU_GPIOCRST);
  51              		.loc 1 71 9 view .LVU3
  52 001a 4FF44170 		mov	r0, #772
  53              	.LVL1:
  54              		.loc 1 71 9 is_stmt 0 view .LVU4
  55 001e FFF7FEFF 		bl	rcu_periph_reset_enable
  56              	.LVL2:
  72:Drivers/GD32F30x_standard_peripheral/Source/gd32f30x_gpio.c ****         rcu_periph_reset_disable(RCU_GPIOCRST);
  57              		.loc 1 72 9 is_stmt 1 view .LVU5
  58 0022 4FF44170 		mov	r0, #772
  59 0026 FFF7FEFF 		bl	rcu_periph_reset_disable
  60              	.LVL3:
  73:Drivers/GD32F30x_standard_peripheral/Source/gd32f30x_gpio.c ****         break;
  61              		.loc 1 73 9 view .LVU6
  62 002a 0BE0     		b	.L1
  63              	.LVL4:
  64              	.L12:
  58:Drivers/GD32F30x_standard_peripheral/Source/gd32f30x_gpio.c ****     case GPIOA:
  65              		.loc 1 58 5 is_stmt 0 view .LVU7
  66 002c A3F50063 		sub	r3, r3, #2048
  67 0030 9842     		cmp	r0, r3
  68 0032 07D1     		bne	.L1
  61:Drivers/GD32F30x_standard_peripheral/Source/gd32f30x_gpio.c ****         rcu_periph_reset_disable(RCU_GPIOARST);
  69              		.loc 1 61 9 is_stmt 1 view .LVU8
  70 0034 40F20230 		movw	r0, #770
  71              	.LVL5:
  61:Drivers/GD32F30x_standard_peripheral/Source/gd32f30x_gpio.c ****         rcu_periph_reset_disable(RCU_GPIOARST);
  72              		.loc 1 61 9 is_stmt 0 view .LVU9
  73 0038 FFF7FEFF 		bl	rcu_periph_reset_enable
  74              	.LVL6:
  62:Drivers/GD32F30x_standard_peripheral/Source/gd32f30x_gpio.c ****         break;
  75              		.loc 1 62 9 is_stmt 1 view .LVU10
  76 003c 40F20230 		movw	r0, #770
  77 0040 FFF7FEFF 		bl	rcu_periph_reset_disable
  78              	.LVL7:
  63:Drivers/GD32F30x_standard_peripheral/Source/gd32f30x_gpio.c ****     case GPIOB:
  79              		.loc 1 63 9 view .LVU11
  80              	.L1:
  74:Drivers/GD32F30x_standard_peripheral/Source/gd32f30x_gpio.c ****     case GPIOD:
  75:Drivers/GD32F30x_standard_peripheral/Source/gd32f30x_gpio.c ****         /* reset GPIOD */
  76:Drivers/GD32F30x_standard_peripheral/Source/gd32f30x_gpio.c ****         rcu_periph_reset_enable(RCU_GPIODRST);
  77:Drivers/GD32F30x_standard_peripheral/Source/gd32f30x_gpio.c ****         rcu_periph_reset_disable(RCU_GPIODRST);
  78:Drivers/GD32F30x_standard_peripheral/Source/gd32f30x_gpio.c ****         break;
  79:Drivers/GD32F30x_standard_peripheral/Source/gd32f30x_gpio.c ****     case GPIOE:
  80:Drivers/GD32F30x_standard_peripheral/Source/gd32f30x_gpio.c ****         /* reset GPIOE */
  81:Drivers/GD32F30x_standard_peripheral/Source/gd32f30x_gpio.c ****         rcu_periph_reset_enable(RCU_GPIOERST);
  82:Drivers/GD32F30x_standard_peripheral/Source/gd32f30x_gpio.c ****         rcu_periph_reset_disable(RCU_GPIOERST);
  83:Drivers/GD32F30x_standard_peripheral/Source/gd32f30x_gpio.c ****         break;
  84:Drivers/GD32F30x_standard_peripheral/Source/gd32f30x_gpio.c ****     case GPIOF:
  85:Drivers/GD32F30x_standard_peripheral/Source/gd32f30x_gpio.c ****         /* reset GPIOF */
  86:Drivers/GD32F30x_standard_peripheral/Source/gd32f30x_gpio.c ****         rcu_periph_reset_enable(RCU_GPIOFRST);
  87:Drivers/GD32F30x_standard_peripheral/Source/gd32f30x_gpio.c ****         rcu_periph_reset_disable(RCU_GPIOFRST);
ARM GAS  C:\Users\Prog\AppData\Local\Temp\cc95E1bd.s 			page 4


  88:Drivers/GD32F30x_standard_peripheral/Source/gd32f30x_gpio.c ****         break;
  89:Drivers/GD32F30x_standard_peripheral/Source/gd32f30x_gpio.c ****     case GPIOG:
  90:Drivers/GD32F30x_standard_peripheral/Source/gd32f30x_gpio.c ****         /* reset GPIOG */
  91:Drivers/GD32F30x_standard_peripheral/Source/gd32f30x_gpio.c ****         rcu_periph_reset_enable(RCU_GPIOGRST);
  92:Drivers/GD32F30x_standard_peripheral/Source/gd32f30x_gpio.c ****         rcu_periph_reset_disable(RCU_GPIOGRST);
  93:Drivers/GD32F30x_standard_peripheral/Source/gd32f30x_gpio.c ****         break;
  94:Drivers/GD32F30x_standard_peripheral/Source/gd32f30x_gpio.c ****     default:
  95:Drivers/GD32F30x_standard_peripheral/Source/gd32f30x_gpio.c ****         break;
  96:Drivers/GD32F30x_standard_peripheral/Source/gd32f30x_gpio.c ****     }
  97:Drivers/GD32F30x_standard_peripheral/Source/gd32f30x_gpio.c **** }
  81              		.loc 1 97 1 is_stmt 0 view .LVU12
  82 0044 08BD     		pop	{r3, pc}
  83              	.LVL8:
  84              	.L3:
  58:Drivers/GD32F30x_standard_peripheral/Source/gd32f30x_gpio.c ****     case GPIOA:
  85              		.loc 1 58 5 view .LVU13
  86 0046 1D4B     		ldr	r3, .L14+4
  87 0048 9842     		cmp	r0, r3
  88 004a 2BD0     		beq	.L8
  89 004c 03F58063 		add	r3, r3, #1024
  90 0050 9842     		cmp	r0, r3
  91 0052 08D1     		bne	.L13
  91:Drivers/GD32F30x_standard_peripheral/Source/gd32f30x_gpio.c ****         rcu_periph_reset_disable(RCU_GPIOGRST);
  92              		.loc 1 91 9 is_stmt 1 view .LVU14
  93 0054 4FF44270 		mov	r0, #776
  94              	.LVL9:
  91:Drivers/GD32F30x_standard_peripheral/Source/gd32f30x_gpio.c ****         rcu_periph_reset_disable(RCU_GPIOGRST);
  95              		.loc 1 91 9 is_stmt 0 view .LVU15
  96 0058 FFF7FEFF 		bl	rcu_periph_reset_enable
  97              	.LVL10:
  92:Drivers/GD32F30x_standard_peripheral/Source/gd32f30x_gpio.c ****         break;
  98              		.loc 1 92 9 is_stmt 1 view .LVU16
  99 005c 4FF44270 		mov	r0, #776
 100 0060 FFF7FEFF 		bl	rcu_periph_reset_disable
 101              	.LVL11:
  93:Drivers/GD32F30x_standard_peripheral/Source/gd32f30x_gpio.c ****     default:
 102              		.loc 1 93 9 view .LVU17
 103              		.loc 1 97 1 is_stmt 0 view .LVU18
 104 0064 EEE7     		b	.L1
 105              	.LVL12:
 106              	.L13:
  58:Drivers/GD32F30x_standard_peripheral/Source/gd32f30x_gpio.c ****     case GPIOA:
 107              		.loc 1 58 5 view .LVU19
 108 0066 A3F50063 		sub	r3, r3, #2048
 109 006a 9842     		cmp	r0, r3
 110 006c EAD1     		bne	.L1
  81:Drivers/GD32F30x_standard_peripheral/Source/gd32f30x_gpio.c ****         rcu_periph_reset_disable(RCU_GPIOERST);
 111              		.loc 1 81 9 is_stmt 1 view .LVU20
 112 006e 40F20630 		movw	r0, #774
 113              	.LVL13:
  81:Drivers/GD32F30x_standard_peripheral/Source/gd32f30x_gpio.c ****         rcu_periph_reset_disable(RCU_GPIOERST);
 114              		.loc 1 81 9 is_stmt 0 view .LVU21
 115 0072 FFF7FEFF 		bl	rcu_periph_reset_enable
 116              	.LVL14:
  82:Drivers/GD32F30x_standard_peripheral/Source/gd32f30x_gpio.c ****         break;
 117              		.loc 1 82 9 is_stmt 1 view .LVU22
 118 0076 40F20630 		movw	r0, #774
ARM GAS  C:\Users\Prog\AppData\Local\Temp\cc95E1bd.s 			page 5


 119 007a FFF7FEFF 		bl	rcu_periph_reset_disable
 120              	.LVL15:
  83:Drivers/GD32F30x_standard_peripheral/Source/gd32f30x_gpio.c ****     case GPIOF:
 121              		.loc 1 83 9 view .LVU23
 122 007e E1E7     		b	.L1
 123              	.LVL16:
 124              	.L4:
  66:Drivers/GD32F30x_standard_peripheral/Source/gd32f30x_gpio.c ****         rcu_periph_reset_disable(RCU_GPIOBRST);
 125              		.loc 1 66 9 view .LVU24
 126 0080 40F20330 		movw	r0, #771
 127              	.LVL17:
  66:Drivers/GD32F30x_standard_peripheral/Source/gd32f30x_gpio.c ****         rcu_periph_reset_disable(RCU_GPIOBRST);
 128              		.loc 1 66 9 is_stmt 0 view .LVU25
 129 0084 FFF7FEFF 		bl	rcu_periph_reset_enable
 130              	.LVL18:
  67:Drivers/GD32F30x_standard_peripheral/Source/gd32f30x_gpio.c ****         break;
 131              		.loc 1 67 9 is_stmt 1 view .LVU26
 132 0088 40F20330 		movw	r0, #771
 133 008c FFF7FEFF 		bl	rcu_periph_reset_disable
 134              	.LVL19:
  68:Drivers/GD32F30x_standard_peripheral/Source/gd32f30x_gpio.c ****     case GPIOC:
 135              		.loc 1 68 9 view .LVU27
 136 0090 D8E7     		b	.L1
 137              	.LVL20:
 138              	.L2:
  76:Drivers/GD32F30x_standard_peripheral/Source/gd32f30x_gpio.c ****         rcu_periph_reset_disable(RCU_GPIODRST);
 139              		.loc 1 76 9 view .LVU28
 140 0092 40F20530 		movw	r0, #773
 141              	.LVL21:
  76:Drivers/GD32F30x_standard_peripheral/Source/gd32f30x_gpio.c ****         rcu_periph_reset_disable(RCU_GPIODRST);
 142              		.loc 1 76 9 is_stmt 0 view .LVU29
 143 0096 FFF7FEFF 		bl	rcu_periph_reset_enable
 144              	.LVL22:
  77:Drivers/GD32F30x_standard_peripheral/Source/gd32f30x_gpio.c ****         break;
 145              		.loc 1 77 9 is_stmt 1 view .LVU30
 146 009a 40F20530 		movw	r0, #773
 147 009e FFF7FEFF 		bl	rcu_periph_reset_disable
 148              	.LVL23:
  78:Drivers/GD32F30x_standard_peripheral/Source/gd32f30x_gpio.c ****     case GPIOE:
 149              		.loc 1 78 9 view .LVU31
 150 00a2 CFE7     		b	.L1
 151              	.LVL24:
 152              	.L8:
  86:Drivers/GD32F30x_standard_peripheral/Source/gd32f30x_gpio.c ****         rcu_periph_reset_disable(RCU_GPIOFRST);
 153              		.loc 1 86 9 view .LVU32
 154 00a4 40F20730 		movw	r0, #775
 155              	.LVL25:
  86:Drivers/GD32F30x_standard_peripheral/Source/gd32f30x_gpio.c ****         rcu_periph_reset_disable(RCU_GPIOFRST);
 156              		.loc 1 86 9 is_stmt 0 view .LVU33
 157 00a8 FFF7FEFF 		bl	rcu_periph_reset_enable
 158              	.LVL26:
  87:Drivers/GD32F30x_standard_peripheral/Source/gd32f30x_gpio.c ****         break;
 159              		.loc 1 87 9 is_stmt 1 view .LVU34
 160 00ac 40F20730 		movw	r0, #775
 161 00b0 FFF7FEFF 		bl	rcu_periph_reset_disable
 162              	.LVL27:
  88:Drivers/GD32F30x_standard_peripheral/Source/gd32f30x_gpio.c ****     case GPIOG:
ARM GAS  C:\Users\Prog\AppData\Local\Temp\cc95E1bd.s 			page 6


 163              		.loc 1 88 9 view .LVU35
 164 00b4 C6E7     		b	.L1
 165              	.L15:
 166 00b6 00BF     		.align	2
 167              	.L14:
 168 00b8 00140140 		.word	1073812480
 169 00bc 001C0140 		.word	1073814528
 170              		.cfi_endproc
 171              	.LFE116:
 173              		.section	.text.gpio_afio_deinit,"ax",%progbits
 174              		.align	1
 175              		.global	gpio_afio_deinit
 176              		.syntax unified
 177              		.thumb
 178              		.thumb_func
 179              		.fpu fpv4-sp-d16
 181              	gpio_afio_deinit:
 182              	.LFB117:
  98:Drivers/GD32F30x_standard_peripheral/Source/gd32f30x_gpio.c **** 
  99:Drivers/GD32F30x_standard_peripheral/Source/gd32f30x_gpio.c **** /*!
 100:Drivers/GD32F30x_standard_peripheral/Source/gd32f30x_gpio.c ****     \brief      reset alternate function I/O(AFIO)
 101:Drivers/GD32F30x_standard_peripheral/Source/gd32f30x_gpio.c ****     \param[in]  none
 102:Drivers/GD32F30x_standard_peripheral/Source/gd32f30x_gpio.c ****     \param[out] none
 103:Drivers/GD32F30x_standard_peripheral/Source/gd32f30x_gpio.c ****     \retval     none
 104:Drivers/GD32F30x_standard_peripheral/Source/gd32f30x_gpio.c **** */
 105:Drivers/GD32F30x_standard_peripheral/Source/gd32f30x_gpio.c **** void gpio_afio_deinit(void)
 106:Drivers/GD32F30x_standard_peripheral/Source/gd32f30x_gpio.c **** {
 183              		.loc 1 106 1 view -0
 184              		.cfi_startproc
 185              		@ args = 0, pretend = 0, frame = 0
 186              		@ frame_needed = 0, uses_anonymous_args = 0
 187 0000 08B5     		push	{r3, lr}
 188              	.LCFI1:
 189              		.cfi_def_cfa_offset 8
 190              		.cfi_offset 3, -8
 191              		.cfi_offset 14, -4
 107:Drivers/GD32F30x_standard_peripheral/Source/gd32f30x_gpio.c ****     rcu_periph_reset_enable(RCU_AFRST);
 192              		.loc 1 107 5 view .LVU37
 193 0002 4FF44070 		mov	r0, #768
 194 0006 FFF7FEFF 		bl	rcu_periph_reset_enable
 195              	.LVL28:
 108:Drivers/GD32F30x_standard_peripheral/Source/gd32f30x_gpio.c ****     rcu_periph_reset_disable(RCU_AFRST);
 196              		.loc 1 108 5 view .LVU38
 197 000a 4FF44070 		mov	r0, #768
 198 000e FFF7FEFF 		bl	rcu_periph_reset_disable
 199              	.LVL29:
 109:Drivers/GD32F30x_standard_peripheral/Source/gd32f30x_gpio.c **** }
 200              		.loc 1 109 1 is_stmt 0 view .LVU39
 201 0012 08BD     		pop	{r3, pc}
 202              		.cfi_endproc
 203              	.LFE117:
 205              		.section	.text.gpio_init,"ax",%progbits
 206              		.align	1
 207              		.global	gpio_init
 208              		.syntax unified
 209              		.thumb
 210              		.thumb_func
ARM GAS  C:\Users\Prog\AppData\Local\Temp\cc95E1bd.s 			page 7


 211              		.fpu fpv4-sp-d16
 213              	gpio_init:
 214              	.LVL30:
 215              	.LFB118:
 110:Drivers/GD32F30x_standard_peripheral/Source/gd32f30x_gpio.c **** 
 111:Drivers/GD32F30x_standard_peripheral/Source/gd32f30x_gpio.c **** /*!
 112:Drivers/GD32F30x_standard_peripheral/Source/gd32f30x_gpio.c ****     \brief      GPIO parameter initialization
 113:Drivers/GD32F30x_standard_peripheral/Source/gd32f30x_gpio.c ****     \param[in]  gpio_periph: GPIOx(x = A,B,C,D,E,F,G) 
 114:Drivers/GD32F30x_standard_peripheral/Source/gd32f30x_gpio.c ****     \param[in]  mode: gpio pin mode
 115:Drivers/GD32F30x_standard_peripheral/Source/gd32f30x_gpio.c ****                 only one parameter can be selected which is shown as below:
 116:Drivers/GD32F30x_standard_peripheral/Source/gd32f30x_gpio.c ****       \arg        GPIO_MODE_AIN: analog input mode
 117:Drivers/GD32F30x_standard_peripheral/Source/gd32f30x_gpio.c ****       \arg        GPIO_MODE_IN_FLOATING: floating input mode
 118:Drivers/GD32F30x_standard_peripheral/Source/gd32f30x_gpio.c ****       \arg        GPIO_MODE_IPD: pull-down input mode
 119:Drivers/GD32F30x_standard_peripheral/Source/gd32f30x_gpio.c ****       \arg        GPIO_MODE_IPU: pull-up input mode
 120:Drivers/GD32F30x_standard_peripheral/Source/gd32f30x_gpio.c ****       \arg        GPIO_MODE_OUT_OD: GPIO output with open-drain
 121:Drivers/GD32F30x_standard_peripheral/Source/gd32f30x_gpio.c ****       \arg        GPIO_MODE_OUT_PP: GPIO output with push-pull
 122:Drivers/GD32F30x_standard_peripheral/Source/gd32f30x_gpio.c ****       \arg        GPIO_MODE_AF_OD: AFIO output with open-drain
 123:Drivers/GD32F30x_standard_peripheral/Source/gd32f30x_gpio.c ****       \arg        GPIO_MODE_AF_PP: AFIO output with push-pull
 124:Drivers/GD32F30x_standard_peripheral/Source/gd32f30x_gpio.c ****     \param[in]  speed: gpio output max speed value
 125:Drivers/GD32F30x_standard_peripheral/Source/gd32f30x_gpio.c ****                 only one parameter can be selected which is shown as below:
 126:Drivers/GD32F30x_standard_peripheral/Source/gd32f30x_gpio.c ****       \arg        GPIO_OSPEED_10MHZ: output max speed 10MHz
 127:Drivers/GD32F30x_standard_peripheral/Source/gd32f30x_gpio.c ****       \arg        GPIO_OSPEED_2MHZ: output max speed 2MHz
 128:Drivers/GD32F30x_standard_peripheral/Source/gd32f30x_gpio.c ****       \arg        GPIO_OSPEED_50MHZ: output max speed 50MHz
 129:Drivers/GD32F30x_standard_peripheral/Source/gd32f30x_gpio.c ****       \arg        GPIO_OSPEED_MAX: output max speed more than 50MHz
 130:Drivers/GD32F30x_standard_peripheral/Source/gd32f30x_gpio.c ****     \param[in]  pin: GPIO pin
 131:Drivers/GD32F30x_standard_peripheral/Source/gd32f30x_gpio.c ****                 one or more parameters can be selected which are shown as below:
 132:Drivers/GD32F30x_standard_peripheral/Source/gd32f30x_gpio.c ****       \arg        GPIO_PIN_x(x=0..15), GPIO_PIN_ALL
 133:Drivers/GD32F30x_standard_peripheral/Source/gd32f30x_gpio.c ****     \param[out] none
 134:Drivers/GD32F30x_standard_peripheral/Source/gd32f30x_gpio.c ****     \retval     none
 135:Drivers/GD32F30x_standard_peripheral/Source/gd32f30x_gpio.c **** */
 136:Drivers/GD32F30x_standard_peripheral/Source/gd32f30x_gpio.c **** void gpio_init(uint32_t gpio_periph, uint32_t mode, uint32_t speed, uint32_t pin)
 137:Drivers/GD32F30x_standard_peripheral/Source/gd32f30x_gpio.c **** {
 216              		.loc 1 137 1 is_stmt 1 view -0
 217              		.cfi_startproc
 218              		@ args = 0, pretend = 0, frame = 0
 219              		@ frame_needed = 0, uses_anonymous_args = 0
 220              		.loc 1 137 1 is_stmt 0 view .LVU41
 221 0000 70B5     		push	{r4, r5, r6, lr}
 222              	.LCFI2:
 223              		.cfi_def_cfa_offset 16
 224              		.cfi_offset 4, -16
 225              		.cfi_offset 5, -12
 226              		.cfi_offset 6, -8
 227              		.cfi_offset 14, -4
 138:Drivers/GD32F30x_standard_peripheral/Source/gd32f30x_gpio.c ****     uint16_t i;
 228              		.loc 1 138 5 is_stmt 1 view .LVU42
 139:Drivers/GD32F30x_standard_peripheral/Source/gd32f30x_gpio.c ****     uint32_t temp_mode = 0U;
 229              		.loc 1 139 5 view .LVU43
 230              	.LVL31:
 140:Drivers/GD32F30x_standard_peripheral/Source/gd32f30x_gpio.c ****     uint32_t reg = 0U;
 231              		.loc 1 140 5 view .LVU44
 141:Drivers/GD32F30x_standard_peripheral/Source/gd32f30x_gpio.c **** 
 142:Drivers/GD32F30x_standard_peripheral/Source/gd32f30x_gpio.c ****     /* GPIO mode configuration */
 143:Drivers/GD32F30x_standard_peripheral/Source/gd32f30x_gpio.c ****     temp_mode = (uint32_t)(mode & ((uint32_t)0x0FU));
 232              		.loc 1 143 5 view .LVU45
 233              		.loc 1 143 15 is_stmt 0 view .LVU46
 234 0002 01F00F0E 		and	lr, r1, #15
ARM GAS  C:\Users\Prog\AppData\Local\Temp\cc95E1bd.s 			page 8


 235              	.LVL32:
 144:Drivers/GD32F30x_standard_peripheral/Source/gd32f30x_gpio.c ****     
 145:Drivers/GD32F30x_standard_peripheral/Source/gd32f30x_gpio.c ****     /* GPIO speed configuration */
 146:Drivers/GD32F30x_standard_peripheral/Source/gd32f30x_gpio.c ****     if(((uint32_t)0x00U) != ((uint32_t)mode & ((uint32_t)0x10U))){
 236              		.loc 1 146 5 is_stmt 1 view .LVU47
 237              		.loc 1 146 7 is_stmt 0 view .LVU48
 238 0006 11F0100F 		tst	r1, #16
 239 000a 03D0     		beq	.L19
 147:Drivers/GD32F30x_standard_peripheral/Source/gd32f30x_gpio.c ****         /* output mode max speed */
 148:Drivers/GD32F30x_standard_peripheral/Source/gd32f30x_gpio.c ****         if(GPIO_OSPEED_MAX == (uint32_t)speed){
 240              		.loc 1 148 9 is_stmt 1 view .LVU49
 241              		.loc 1 148 11 is_stmt 0 view .LVU50
 242 000c 042A     		cmp	r2, #4
 243 000e 03D0     		beq	.L32
 149:Drivers/GD32F30x_standard_peripheral/Source/gd32f30x_gpio.c ****             temp_mode |= (uint32_t)0x03U;
 150:Drivers/GD32F30x_standard_peripheral/Source/gd32f30x_gpio.c ****             /* set the corresponding SPD bit */
 151:Drivers/GD32F30x_standard_peripheral/Source/gd32f30x_gpio.c ****             GPIOx_SPD(gpio_periph) |= (uint32_t)pin ;
 152:Drivers/GD32F30x_standard_peripheral/Source/gd32f30x_gpio.c ****         }else{
 153:Drivers/GD32F30x_standard_peripheral/Source/gd32f30x_gpio.c ****             /* output mode max speed:10MHz,2MHz,50MHz */
 154:Drivers/GD32F30x_standard_peripheral/Source/gd32f30x_gpio.c ****             temp_mode |= (uint32_t)speed;
 244              		.loc 1 154 13 is_stmt 1 view .LVU51
 245              		.loc 1 154 23 is_stmt 0 view .LVU52
 246 0010 4EEA020E 		orr	lr, lr, r2
 247              	.LVL33:
 248              	.L19:
 155:Drivers/GD32F30x_standard_peripheral/Source/gd32f30x_gpio.c ****         }
 156:Drivers/GD32F30x_standard_peripheral/Source/gd32f30x_gpio.c ****     }
 157:Drivers/GD32F30x_standard_peripheral/Source/gd32f30x_gpio.c **** 
 158:Drivers/GD32F30x_standard_peripheral/Source/gd32f30x_gpio.c ****     /* configure the eight low port pins with GPIO_CTL0 */
 159:Drivers/GD32F30x_standard_peripheral/Source/gd32f30x_gpio.c ****     for(i = 0U;i < 8U;i++){
 249              		.loc 1 159 5 is_stmt 1 view .LVU53
 250              		.loc 1 159 11 is_stmt 0 view .LVU54
 251 0014 0022     		movs	r2, #0
 252              		.loc 1 159 5 view .LVU55
 253 0016 09E0     		b	.L21
 254              	.LVL34:
 255              	.L32:
 149:Drivers/GD32F30x_standard_peripheral/Source/gd32f30x_gpio.c ****             temp_mode |= (uint32_t)0x03U;
 256              		.loc 1 149 13 is_stmt 1 view .LVU56
 149:Drivers/GD32F30x_standard_peripheral/Source/gd32f30x_gpio.c ****             temp_mode |= (uint32_t)0x03U;
 257              		.loc 1 149 23 is_stmt 0 view .LVU57
 258 0018 4EF0030E 		orr	lr, lr, #3
 259              	.LVL35:
 151:Drivers/GD32F30x_standard_peripheral/Source/gd32f30x_gpio.c ****         }else{
 260              		.loc 1 151 13 is_stmt 1 view .LVU58
 151:Drivers/GD32F30x_standard_peripheral/Source/gd32f30x_gpio.c ****         }else{
 261              		.loc 1 151 36 is_stmt 0 view .LVU59
 262 001c C26B     		ldr	r2, [r0, #60]
 263              	.LVL36:
 151:Drivers/GD32F30x_standard_peripheral/Source/gd32f30x_gpio.c ****         }else{
 264              		.loc 1 151 36 view .LVU60
 265 001e 1A43     		orrs	r2, r2, r3
 266 0020 C263     		str	r2, [r0, #60]
 267 0022 F7E7     		b	.L19
 268              	.LVL37:
 269              	.L34:
 160:Drivers/GD32F30x_standard_peripheral/Source/gd32f30x_gpio.c ****         if((1U << i) & pin){
ARM GAS  C:\Users\Prog\AppData\Local\Temp\cc95E1bd.s 			page 9


 161:Drivers/GD32F30x_standard_peripheral/Source/gd32f30x_gpio.c ****             reg = GPIO_CTL0(gpio_periph);
 162:Drivers/GD32F30x_standard_peripheral/Source/gd32f30x_gpio.c ****             
 163:Drivers/GD32F30x_standard_peripheral/Source/gd32f30x_gpio.c ****             /* clear the specified pin mode bits */
 164:Drivers/GD32F30x_standard_peripheral/Source/gd32f30x_gpio.c ****             reg &= ~GPIO_MODE_MASK(i);
 165:Drivers/GD32F30x_standard_peripheral/Source/gd32f30x_gpio.c ****             /* set the specified pin mode bits */
 166:Drivers/GD32F30x_standard_peripheral/Source/gd32f30x_gpio.c ****             reg |= GPIO_MODE_SET(i, temp_mode);
 167:Drivers/GD32F30x_standard_peripheral/Source/gd32f30x_gpio.c ****             
 168:Drivers/GD32F30x_standard_peripheral/Source/gd32f30x_gpio.c ****             /* set IPD or IPU */
 169:Drivers/GD32F30x_standard_peripheral/Source/gd32f30x_gpio.c ****             if(GPIO_MODE_IPD == mode){
 170:Drivers/GD32F30x_standard_peripheral/Source/gd32f30x_gpio.c ****                 /* reset the corresponding OCTL bit */
 171:Drivers/GD32F30x_standard_peripheral/Source/gd32f30x_gpio.c ****                 GPIO_BC(gpio_periph) = (uint32_t)((1U << i) & pin);
 270              		.loc 1 171 17 is_stmt 1 view .LVU61
 271              		.loc 1 171 38 is_stmt 0 view .LVU62
 272 0024 4461     		str	r4, [r0, #20]
 273              	.L24:
 172:Drivers/GD32F30x_standard_peripheral/Source/gd32f30x_gpio.c ****             }else{
 173:Drivers/GD32F30x_standard_peripheral/Source/gd32f30x_gpio.c ****                 /* set the corresponding OCTL bit */
 174:Drivers/GD32F30x_standard_peripheral/Source/gd32f30x_gpio.c ****                 if(GPIO_MODE_IPU == mode){
 175:Drivers/GD32F30x_standard_peripheral/Source/gd32f30x_gpio.c ****                     GPIO_BOP(gpio_periph) = (uint32_t)((1U << i) & pin);
 176:Drivers/GD32F30x_standard_peripheral/Source/gd32f30x_gpio.c ****                 }
 177:Drivers/GD32F30x_standard_peripheral/Source/gd32f30x_gpio.c ****             }
 178:Drivers/GD32F30x_standard_peripheral/Source/gd32f30x_gpio.c ****             /* set GPIO_CTL0 register */
 179:Drivers/GD32F30x_standard_peripheral/Source/gd32f30x_gpio.c ****             GPIO_CTL0(gpio_periph) = reg;
 274              		.loc 1 179 13 is_stmt 1 view .LVU63
 275              		.loc 1 179 36 is_stmt 0 view .LVU64
 276 0026 0560     		str	r5, [r0]
 277              	.LVL38:
 278              	.L22:
 159:Drivers/GD32F30x_standard_peripheral/Source/gd32f30x_gpio.c ****         if((1U << i) & pin){
 279              		.loc 1 159 23 is_stmt 1 discriminator 2 view .LVU65
 159:Drivers/GD32F30x_standard_peripheral/Source/gd32f30x_gpio.c ****         if((1U << i) & pin){
 280              		.loc 1 159 24 is_stmt 0 discriminator 2 view .LVU66
 281 0028 0132     		adds	r2, r2, #1
 282              	.LVL39:
 159:Drivers/GD32F30x_standard_peripheral/Source/gd32f30x_gpio.c ****         if((1U << i) & pin){
 283              		.loc 1 159 24 discriminator 2 view .LVU67
 284 002a 92B2     		uxth	r2, r2
 285              	.LVL40:
 286              	.L21:
 159:Drivers/GD32F30x_standard_peripheral/Source/gd32f30x_gpio.c ****         if((1U << i) & pin){
 287              		.loc 1 159 16 is_stmt 1 discriminator 1 view .LVU68
 159:Drivers/GD32F30x_standard_peripheral/Source/gd32f30x_gpio.c ****         if((1U << i) & pin){
 288              		.loc 1 159 5 is_stmt 0 discriminator 1 view .LVU69
 289 002c 072A     		cmp	r2, #7
 290 002e 14D8     		bhi	.L33
 160:Drivers/GD32F30x_standard_peripheral/Source/gd32f30x_gpio.c ****         if((1U << i) & pin){
 291              		.loc 1 160 9 is_stmt 1 view .LVU70
 160:Drivers/GD32F30x_standard_peripheral/Source/gd32f30x_gpio.c ****         if((1U << i) & pin){
 292              		.loc 1 160 16 is_stmt 0 view .LVU71
 293 0030 0124     		movs	r4, #1
 294 0032 9440     		lsls	r4, r4, r2
 160:Drivers/GD32F30x_standard_peripheral/Source/gd32f30x_gpio.c ****         if((1U << i) & pin){
 295              		.loc 1 160 11 view .LVU72
 296 0034 1C40     		ands	r4, r4, r3
 297 0036 F7D0     		beq	.L22
 161:Drivers/GD32F30x_standard_peripheral/Source/gd32f30x_gpio.c ****             
 298              		.loc 1 161 13 is_stmt 1 view .LVU73
ARM GAS  C:\Users\Prog\AppData\Local\Temp\cc95E1bd.s 			page 10


 161:Drivers/GD32F30x_standard_peripheral/Source/gd32f30x_gpio.c ****             
 299              		.loc 1 161 17 is_stmt 0 view .LVU74
 300 0038 0668     		ldr	r6, [r0]
 301              	.LVL41:
 164:Drivers/GD32F30x_standard_peripheral/Source/gd32f30x_gpio.c ****             /* set the specified pin mode bits */
 302              		.loc 1 164 13 is_stmt 1 view .LVU75
 164:Drivers/GD32F30x_standard_peripheral/Source/gd32f30x_gpio.c ****             /* set the specified pin mode bits */
 303              		.loc 1 164 21 is_stmt 0 view .LVU76
 304 003a 9500     		lsls	r5, r2, #2
 305 003c 4FF00F0C 		mov	ip, #15
 306 0040 0CFA05FC 		lsl	ip, ip, r5
 164:Drivers/GD32F30x_standard_peripheral/Source/gd32f30x_gpio.c ****             /* set the specified pin mode bits */
 307              		.loc 1 164 17 view .LVU77
 308 0044 26EA0C06 		bic	r6, r6, ip
 309              	.LVL42:
 166:Drivers/GD32F30x_standard_peripheral/Source/gd32f30x_gpio.c ****             
 310              		.loc 1 166 13 is_stmt 1 view .LVU78
 166:Drivers/GD32F30x_standard_peripheral/Source/gd32f30x_gpio.c ****             
 311              		.loc 1 166 20 is_stmt 0 view .LVU79
 312 0048 0EFA05F5 		lsl	r5, lr, r5
 166:Drivers/GD32F30x_standard_peripheral/Source/gd32f30x_gpio.c ****             
 313              		.loc 1 166 17 view .LVU80
 314 004c 3543     		orrs	r5, r5, r6
 315              	.LVL43:
 169:Drivers/GD32F30x_standard_peripheral/Source/gd32f30x_gpio.c ****                 /* reset the corresponding OCTL bit */
 316              		.loc 1 169 13 is_stmt 1 view .LVU81
 169:Drivers/GD32F30x_standard_peripheral/Source/gd32f30x_gpio.c ****                 /* reset the corresponding OCTL bit */
 317              		.loc 1 169 15 is_stmt 0 view .LVU82
 318 004e 2829     		cmp	r1, #40
 319 0050 E8D0     		beq	.L34
 174:Drivers/GD32F30x_standard_peripheral/Source/gd32f30x_gpio.c ****                     GPIO_BOP(gpio_periph) = (uint32_t)((1U << i) & pin);
 320              		.loc 1 174 17 is_stmt 1 view .LVU83
 174:Drivers/GD32F30x_standard_peripheral/Source/gd32f30x_gpio.c ****                     GPIO_BOP(gpio_periph) = (uint32_t)((1U << i) & pin);
 321              		.loc 1 174 19 is_stmt 0 view .LVU84
 322 0052 4829     		cmp	r1, #72
 323 0054 E7D1     		bne	.L24
 175:Drivers/GD32F30x_standard_peripheral/Source/gd32f30x_gpio.c ****                 }
 324              		.loc 1 175 21 is_stmt 1 view .LVU85
 175:Drivers/GD32F30x_standard_peripheral/Source/gd32f30x_gpio.c ****                 }
 325              		.loc 1 175 43 is_stmt 0 view .LVU86
 326 0056 0461     		str	r4, [r0, #16]
 327 0058 E5E7     		b	.L24
 328              	.LVL44:
 329              	.L33:
 180:Drivers/GD32F30x_standard_peripheral/Source/gd32f30x_gpio.c ****         }
 181:Drivers/GD32F30x_standard_peripheral/Source/gd32f30x_gpio.c ****     }
 182:Drivers/GD32F30x_standard_peripheral/Source/gd32f30x_gpio.c ****     /* configure the eight high port pins with GPIO_CTL1 */
 183:Drivers/GD32F30x_standard_peripheral/Source/gd32f30x_gpio.c ****     for(i = 8U;i < 16U;i++){
 330              		.loc 1 183 11 view .LVU87
 331 005a 0822     		movs	r2, #8
 332              	.LVL45:
 333              		.loc 1 183 11 view .LVU88
 334 005c 03E0     		b	.L26
 335              	.LVL46:
 336              	.L36:
 184:Drivers/GD32F30x_standard_peripheral/Source/gd32f30x_gpio.c ****         if((1U << i) & pin){
 185:Drivers/GD32F30x_standard_peripheral/Source/gd32f30x_gpio.c ****             reg = GPIO_CTL1(gpio_periph);
ARM GAS  C:\Users\Prog\AppData\Local\Temp\cc95E1bd.s 			page 11


 186:Drivers/GD32F30x_standard_peripheral/Source/gd32f30x_gpio.c ****             
 187:Drivers/GD32F30x_standard_peripheral/Source/gd32f30x_gpio.c ****             /* clear the specified pin mode bits */
 188:Drivers/GD32F30x_standard_peripheral/Source/gd32f30x_gpio.c ****             reg &= ~GPIO_MODE_MASK(i - 8U);
 189:Drivers/GD32F30x_standard_peripheral/Source/gd32f30x_gpio.c ****             /* set the specified pin mode bits */
 190:Drivers/GD32F30x_standard_peripheral/Source/gd32f30x_gpio.c ****             reg |= GPIO_MODE_SET(i - 8U, temp_mode);
 191:Drivers/GD32F30x_standard_peripheral/Source/gd32f30x_gpio.c ****             
 192:Drivers/GD32F30x_standard_peripheral/Source/gd32f30x_gpio.c ****             /* set IPD or IPU */
 193:Drivers/GD32F30x_standard_peripheral/Source/gd32f30x_gpio.c ****             if(GPIO_MODE_IPD == mode){
 194:Drivers/GD32F30x_standard_peripheral/Source/gd32f30x_gpio.c ****                 /* reset the corresponding OCTL bit */
 195:Drivers/GD32F30x_standard_peripheral/Source/gd32f30x_gpio.c ****                 GPIO_BC(gpio_periph) = (uint32_t)((1U << i) & pin);
 337              		.loc 1 195 17 is_stmt 1 view .LVU89
 338              		.loc 1 195 38 is_stmt 0 view .LVU90
 339 005e 4461     		str	r4, [r0, #20]
 340              	.L29:
 196:Drivers/GD32F30x_standard_peripheral/Source/gd32f30x_gpio.c ****             }else{
 197:Drivers/GD32F30x_standard_peripheral/Source/gd32f30x_gpio.c ****                 /* set the corresponding OCTL bit */
 198:Drivers/GD32F30x_standard_peripheral/Source/gd32f30x_gpio.c ****                 if(GPIO_MODE_IPU == mode){
 199:Drivers/GD32F30x_standard_peripheral/Source/gd32f30x_gpio.c ****                     GPIO_BOP(gpio_periph) = (uint32_t)((1U << i) & pin);
 200:Drivers/GD32F30x_standard_peripheral/Source/gd32f30x_gpio.c ****                 }
 201:Drivers/GD32F30x_standard_peripheral/Source/gd32f30x_gpio.c ****             }
 202:Drivers/GD32F30x_standard_peripheral/Source/gd32f30x_gpio.c ****             /* set GPIO_CTL1 register */
 203:Drivers/GD32F30x_standard_peripheral/Source/gd32f30x_gpio.c ****             GPIO_CTL1(gpio_periph) = reg;
 341              		.loc 1 203 13 is_stmt 1 view .LVU91
 342              		.loc 1 203 36 is_stmt 0 view .LVU92
 343 0060 4560     		str	r5, [r0, #4]
 344              	.LVL47:
 345              	.L27:
 183:Drivers/GD32F30x_standard_peripheral/Source/gd32f30x_gpio.c ****         if((1U << i) & pin){
 346              		.loc 1 183 24 is_stmt 1 discriminator 2 view .LVU93
 183:Drivers/GD32F30x_standard_peripheral/Source/gd32f30x_gpio.c ****         if((1U << i) & pin){
 347              		.loc 1 183 25 is_stmt 0 discriminator 2 view .LVU94
 348 0062 0132     		adds	r2, r2, #1
 349              	.LVL48:
 183:Drivers/GD32F30x_standard_peripheral/Source/gd32f30x_gpio.c ****         if((1U << i) & pin){
 350              		.loc 1 183 25 discriminator 2 view .LVU95
 351 0064 92B2     		uxth	r2, r2
 352              	.LVL49:
 353              	.L26:
 183:Drivers/GD32F30x_standard_peripheral/Source/gd32f30x_gpio.c ****         if((1U << i) & pin){
 354              		.loc 1 183 16 is_stmt 1 discriminator 1 view .LVU96
 183:Drivers/GD32F30x_standard_peripheral/Source/gd32f30x_gpio.c ****         if((1U << i) & pin){
 355              		.loc 1 183 5 is_stmt 0 discriminator 1 view .LVU97
 356 0066 0F2A     		cmp	r2, #15
 357 0068 1AD8     		bhi	.L35
 184:Drivers/GD32F30x_standard_peripheral/Source/gd32f30x_gpio.c ****         if((1U << i) & pin){
 358              		.loc 1 184 9 is_stmt 1 view .LVU98
 184:Drivers/GD32F30x_standard_peripheral/Source/gd32f30x_gpio.c ****         if((1U << i) & pin){
 359              		.loc 1 184 16 is_stmt 0 view .LVU99
 360 006a 4FF0010C 		mov	ip, #1
 361 006e 0CFA02FC 		lsl	ip, ip, r2
 184:Drivers/GD32F30x_standard_peripheral/Source/gd32f30x_gpio.c ****         if((1U << i) & pin){
 362              		.loc 1 184 11 view .LVU100
 363 0072 1CEA0304 		ands	r4, ip, r3
 364 0076 F4D0     		beq	.L27
 185:Drivers/GD32F30x_standard_peripheral/Source/gd32f30x_gpio.c ****             
 365              		.loc 1 185 13 is_stmt 1 view .LVU101
 185:Drivers/GD32F30x_standard_peripheral/Source/gd32f30x_gpio.c ****             
ARM GAS  C:\Users\Prog\AppData\Local\Temp\cc95E1bd.s 			page 12


 366              		.loc 1 185 17 is_stmt 0 view .LVU102
 367 0078 4568     		ldr	r5, [r0, #4]
 368              	.LVL50:
 188:Drivers/GD32F30x_standard_peripheral/Source/gd32f30x_gpio.c ****             /* set the specified pin mode bits */
 369              		.loc 1 188 13 is_stmt 1 view .LVU103
 188:Drivers/GD32F30x_standard_peripheral/Source/gd32f30x_gpio.c ****             /* set the specified pin mode bits */
 370              		.loc 1 188 21 is_stmt 0 view .LVU104
 371 007a A2F1080C 		sub	ip, r2, #8
 372 007e 4FEA8C0C 		lsl	ip, ip, #2
 373 0082 0F26     		movs	r6, #15
 374 0084 06FA0CF6 		lsl	r6, r6, ip
 188:Drivers/GD32F30x_standard_peripheral/Source/gd32f30x_gpio.c ****             /* set the specified pin mode bits */
 375              		.loc 1 188 17 view .LVU105
 376 0088 25EA0605 		bic	r5, r5, r6
 377              	.LVL51:
 190:Drivers/GD32F30x_standard_peripheral/Source/gd32f30x_gpio.c ****             
 378              		.loc 1 190 13 is_stmt 1 view .LVU106
 190:Drivers/GD32F30x_standard_peripheral/Source/gd32f30x_gpio.c ****             
 379              		.loc 1 190 20 is_stmt 0 view .LVU107
 380 008c 0EFA0CFC 		lsl	ip, lr, ip
 190:Drivers/GD32F30x_standard_peripheral/Source/gd32f30x_gpio.c ****             
 381              		.loc 1 190 17 view .LVU108
 382 0090 4CEA0505 		orr	r5, ip, r5
 383              	.LVL52:
 193:Drivers/GD32F30x_standard_peripheral/Source/gd32f30x_gpio.c ****                 /* reset the corresponding OCTL bit */
 384              		.loc 1 193 13 is_stmt 1 view .LVU109
 193:Drivers/GD32F30x_standard_peripheral/Source/gd32f30x_gpio.c ****                 /* reset the corresponding OCTL bit */
 385              		.loc 1 193 15 is_stmt 0 view .LVU110
 386 0094 2829     		cmp	r1, #40
 387 0096 E2D0     		beq	.L36
 198:Drivers/GD32F30x_standard_peripheral/Source/gd32f30x_gpio.c ****                     GPIO_BOP(gpio_periph) = (uint32_t)((1U << i) & pin);
 388              		.loc 1 198 17 is_stmt 1 view .LVU111
 198:Drivers/GD32F30x_standard_peripheral/Source/gd32f30x_gpio.c ****                     GPIO_BOP(gpio_periph) = (uint32_t)((1U << i) & pin);
 389              		.loc 1 198 19 is_stmt 0 view .LVU112
 390 0098 4829     		cmp	r1, #72
 391 009a E1D1     		bne	.L29
 199:Drivers/GD32F30x_standard_peripheral/Source/gd32f30x_gpio.c ****                 }
 392              		.loc 1 199 21 is_stmt 1 view .LVU113
 199:Drivers/GD32F30x_standard_peripheral/Source/gd32f30x_gpio.c ****                 }
 393              		.loc 1 199 43 is_stmt 0 view .LVU114
 394 009c 0461     		str	r4, [r0, #16]
 395 009e DFE7     		b	.L29
 396              	.LVL53:
 397              	.L35:
 204:Drivers/GD32F30x_standard_peripheral/Source/gd32f30x_gpio.c ****         }
 205:Drivers/GD32F30x_standard_peripheral/Source/gd32f30x_gpio.c ****     }
 206:Drivers/GD32F30x_standard_peripheral/Source/gd32f30x_gpio.c **** }
 398              		.loc 1 206 1 view .LVU115
 399 00a0 70BD     		pop	{r4, r5, r6, pc}
 400              		.cfi_endproc
 401              	.LFE118:
 403              		.section	.text.gpio_bit_set,"ax",%progbits
 404              		.align	1
 405              		.global	gpio_bit_set
 406              		.syntax unified
 407              		.thumb
 408              		.thumb_func
ARM GAS  C:\Users\Prog\AppData\Local\Temp\cc95E1bd.s 			page 13


 409              		.fpu fpv4-sp-d16
 411              	gpio_bit_set:
 412              	.LVL54:
 413              	.LFB119:
 207:Drivers/GD32F30x_standard_peripheral/Source/gd32f30x_gpio.c **** 
 208:Drivers/GD32F30x_standard_peripheral/Source/gd32f30x_gpio.c **** /*!
 209:Drivers/GD32F30x_standard_peripheral/Source/gd32f30x_gpio.c ****     \brief      set GPIO pin
 210:Drivers/GD32F30x_standard_peripheral/Source/gd32f30x_gpio.c ****     \param[in]  gpio_periph: GPIOx(x = A,B,C,D,E,F,G) 
 211:Drivers/GD32F30x_standard_peripheral/Source/gd32f30x_gpio.c ****     \param[in]  pin: GPIO pin
 212:Drivers/GD32F30x_standard_peripheral/Source/gd32f30x_gpio.c ****                 one or more parameters can be selected which are shown as below:
 213:Drivers/GD32F30x_standard_peripheral/Source/gd32f30x_gpio.c ****       \arg        GPIO_PIN_x(x=0..15), GPIO_PIN_ALL
 214:Drivers/GD32F30x_standard_peripheral/Source/gd32f30x_gpio.c ****     \param[out] none
 215:Drivers/GD32F30x_standard_peripheral/Source/gd32f30x_gpio.c ****     \retval     none
 216:Drivers/GD32F30x_standard_peripheral/Source/gd32f30x_gpio.c **** */
 217:Drivers/GD32F30x_standard_peripheral/Source/gd32f30x_gpio.c **** void gpio_bit_set(uint32_t gpio_periph,uint32_t pin)
 218:Drivers/GD32F30x_standard_peripheral/Source/gd32f30x_gpio.c **** {
 414              		.loc 1 218 1 is_stmt 1 view -0
 415              		.cfi_startproc
 416              		@ args = 0, pretend = 0, frame = 0
 417              		@ frame_needed = 0, uses_anonymous_args = 0
 418              		@ link register save eliminated.
 219:Drivers/GD32F30x_standard_peripheral/Source/gd32f30x_gpio.c ****     GPIO_BOP(gpio_periph) = (uint32_t)pin;
 419              		.loc 1 219 5 view .LVU117
 420              		.loc 1 219 27 is_stmt 0 view .LVU118
 421 0000 0161     		str	r1, [r0, #16]
 220:Drivers/GD32F30x_standard_peripheral/Source/gd32f30x_gpio.c **** }
 422              		.loc 1 220 1 view .LVU119
 423 0002 7047     		bx	lr
 424              		.cfi_endproc
 425              	.LFE119:
 427              		.section	.text.gpio_bit_reset,"ax",%progbits
 428              		.align	1
 429              		.global	gpio_bit_reset
 430              		.syntax unified
 431              		.thumb
 432              		.thumb_func
 433              		.fpu fpv4-sp-d16
 435              	gpio_bit_reset:
 436              	.LVL55:
 437              	.LFB120:
 221:Drivers/GD32F30x_standard_peripheral/Source/gd32f30x_gpio.c **** 
 222:Drivers/GD32F30x_standard_peripheral/Source/gd32f30x_gpio.c **** /*!
 223:Drivers/GD32F30x_standard_peripheral/Source/gd32f30x_gpio.c ****     \brief      reset GPIO pin
 224:Drivers/GD32F30x_standard_peripheral/Source/gd32f30x_gpio.c ****     \param[in]  gpio_periph: GPIOx(x = A,B,C,D,E,F,G)
 225:Drivers/GD32F30x_standard_peripheral/Source/gd32f30x_gpio.c ****     \param[in]  pin: GPIO pin
 226:Drivers/GD32F30x_standard_peripheral/Source/gd32f30x_gpio.c ****                 one or more parameters can be selected which are shown as below:
 227:Drivers/GD32F30x_standard_peripheral/Source/gd32f30x_gpio.c ****       \arg        GPIO_PIN_x(x=0..15), GPIO_PIN_ALL
 228:Drivers/GD32F30x_standard_peripheral/Source/gd32f30x_gpio.c ****     \param[out] none
 229:Drivers/GD32F30x_standard_peripheral/Source/gd32f30x_gpio.c ****     \retval     none
 230:Drivers/GD32F30x_standard_peripheral/Source/gd32f30x_gpio.c **** */
 231:Drivers/GD32F30x_standard_peripheral/Source/gd32f30x_gpio.c **** void gpio_bit_reset(uint32_t gpio_periph,uint32_t pin)
 232:Drivers/GD32F30x_standard_peripheral/Source/gd32f30x_gpio.c **** {
 438              		.loc 1 232 1 is_stmt 1 view -0
 439              		.cfi_startproc
 440              		@ args = 0, pretend = 0, frame = 0
 441              		@ frame_needed = 0, uses_anonymous_args = 0
 442              		@ link register save eliminated.
ARM GAS  C:\Users\Prog\AppData\Local\Temp\cc95E1bd.s 			page 14


 233:Drivers/GD32F30x_standard_peripheral/Source/gd32f30x_gpio.c ****     GPIO_BC(gpio_periph) = (uint32_t)pin;
 443              		.loc 1 233 5 view .LVU121
 444              		.loc 1 233 26 is_stmt 0 view .LVU122
 445 0000 4161     		str	r1, [r0, #20]
 234:Drivers/GD32F30x_standard_peripheral/Source/gd32f30x_gpio.c **** }
 446              		.loc 1 234 1 view .LVU123
 447 0002 7047     		bx	lr
 448              		.cfi_endproc
 449              	.LFE120:
 451              		.section	.text.gpio_bit_write,"ax",%progbits
 452              		.align	1
 453              		.global	gpio_bit_write
 454              		.syntax unified
 455              		.thumb
 456              		.thumb_func
 457              		.fpu fpv4-sp-d16
 459              	gpio_bit_write:
 460              	.LVL56:
 461              	.LFB121:
 235:Drivers/GD32F30x_standard_peripheral/Source/gd32f30x_gpio.c **** 
 236:Drivers/GD32F30x_standard_peripheral/Source/gd32f30x_gpio.c **** /*!
 237:Drivers/GD32F30x_standard_peripheral/Source/gd32f30x_gpio.c ****     \brief      write data to the specified GPIO pin
 238:Drivers/GD32F30x_standard_peripheral/Source/gd32f30x_gpio.c ****     \param[in]  gpio_periph: GPIOx(x = A,B,C,D,E,F,G)
 239:Drivers/GD32F30x_standard_peripheral/Source/gd32f30x_gpio.c ****     \param[in]  pin: GPIO pin
 240:Drivers/GD32F30x_standard_peripheral/Source/gd32f30x_gpio.c ****                 one or more parameters can be selected which are shown as below:
 241:Drivers/GD32F30x_standard_peripheral/Source/gd32f30x_gpio.c ****       \arg        GPIO_PIN_x(x=0..15), GPIO_PIN_ALL
 242:Drivers/GD32F30x_standard_peripheral/Source/gd32f30x_gpio.c ****     \param[in]  bit_value: SET or RESET
 243:Drivers/GD32F30x_standard_peripheral/Source/gd32f30x_gpio.c ****       \arg        RESET: clear the port pin
 244:Drivers/GD32F30x_standard_peripheral/Source/gd32f30x_gpio.c ****       \arg        SET: set the port pin
 245:Drivers/GD32F30x_standard_peripheral/Source/gd32f30x_gpio.c ****     \param[out] none
 246:Drivers/GD32F30x_standard_peripheral/Source/gd32f30x_gpio.c ****     \retval     none
 247:Drivers/GD32F30x_standard_peripheral/Source/gd32f30x_gpio.c **** */
 248:Drivers/GD32F30x_standard_peripheral/Source/gd32f30x_gpio.c **** void gpio_bit_write(uint32_t gpio_periph,uint32_t pin,bit_status bit_value)
 249:Drivers/GD32F30x_standard_peripheral/Source/gd32f30x_gpio.c **** {
 462              		.loc 1 249 1 is_stmt 1 view -0
 463              		.cfi_startproc
 464              		@ args = 0, pretend = 0, frame = 0
 465              		@ frame_needed = 0, uses_anonymous_args = 0
 466              		@ link register save eliminated.
 250:Drivers/GD32F30x_standard_peripheral/Source/gd32f30x_gpio.c ****     if(RESET != bit_value){
 467              		.loc 1 250 5 view .LVU125
 468              		.loc 1 250 7 is_stmt 0 view .LVU126
 469 0000 0AB1     		cbz	r2, .L40
 251:Drivers/GD32F30x_standard_peripheral/Source/gd32f30x_gpio.c ****         GPIO_BOP(gpio_periph) = (uint32_t)pin;
 470              		.loc 1 251 9 is_stmt 1 view .LVU127
 471              		.loc 1 251 31 is_stmt 0 view .LVU128
 472 0002 0161     		str	r1, [r0, #16]
 473 0004 7047     		bx	lr
 474              	.L40:
 252:Drivers/GD32F30x_standard_peripheral/Source/gd32f30x_gpio.c ****     }else{
 253:Drivers/GD32F30x_standard_peripheral/Source/gd32f30x_gpio.c ****         GPIO_BC(gpio_periph) = (uint32_t)pin;
 475              		.loc 1 253 9 is_stmt 1 view .LVU129
 476              		.loc 1 253 30 is_stmt 0 view .LVU130
 477 0006 4161     		str	r1, [r0, #20]
 254:Drivers/GD32F30x_standard_peripheral/Source/gd32f30x_gpio.c ****     }
 255:Drivers/GD32F30x_standard_peripheral/Source/gd32f30x_gpio.c **** }
 478              		.loc 1 255 1 view .LVU131
ARM GAS  C:\Users\Prog\AppData\Local\Temp\cc95E1bd.s 			page 15


 479 0008 7047     		bx	lr
 480              		.cfi_endproc
 481              	.LFE121:
 483              		.section	.text.gpio_port_write,"ax",%progbits
 484              		.align	1
 485              		.global	gpio_port_write
 486              		.syntax unified
 487              		.thumb
 488              		.thumb_func
 489              		.fpu fpv4-sp-d16
 491              	gpio_port_write:
 492              	.LVL57:
 493              	.LFB122:
 256:Drivers/GD32F30x_standard_peripheral/Source/gd32f30x_gpio.c **** 
 257:Drivers/GD32F30x_standard_peripheral/Source/gd32f30x_gpio.c **** /*!
 258:Drivers/GD32F30x_standard_peripheral/Source/gd32f30x_gpio.c ****     \brief      write data to the specified GPIO port
 259:Drivers/GD32F30x_standard_peripheral/Source/gd32f30x_gpio.c ****     \param[in]  gpio_periph: GPIOx(x = A,B,C,D,E,F,G) 
 260:Drivers/GD32F30x_standard_peripheral/Source/gd32f30x_gpio.c ****     \param[in]  data: specify the value to be written to the port output data register
 261:Drivers/GD32F30x_standard_peripheral/Source/gd32f30x_gpio.c ****     \param[out] none
 262:Drivers/GD32F30x_standard_peripheral/Source/gd32f30x_gpio.c ****     \retval     none
 263:Drivers/GD32F30x_standard_peripheral/Source/gd32f30x_gpio.c **** */
 264:Drivers/GD32F30x_standard_peripheral/Source/gd32f30x_gpio.c **** void gpio_port_write(uint32_t gpio_periph,uint16_t data)
 265:Drivers/GD32F30x_standard_peripheral/Source/gd32f30x_gpio.c **** {
 494              		.loc 1 265 1 is_stmt 1 view -0
 495              		.cfi_startproc
 496              		@ args = 0, pretend = 0, frame = 0
 497              		@ frame_needed = 0, uses_anonymous_args = 0
 498              		@ link register save eliminated.
 266:Drivers/GD32F30x_standard_peripheral/Source/gd32f30x_gpio.c ****     GPIO_OCTL(gpio_periph) = (uint32_t)data;
 499              		.loc 1 266 5 view .LVU133
 500              		.loc 1 266 28 is_stmt 0 view .LVU134
 501 0000 C160     		str	r1, [r0, #12]
 267:Drivers/GD32F30x_standard_peripheral/Source/gd32f30x_gpio.c **** }
 502              		.loc 1 267 1 view .LVU135
 503 0002 7047     		bx	lr
 504              		.cfi_endproc
 505              	.LFE122:
 507              		.section	.text.gpio_input_bit_get,"ax",%progbits
 508              		.align	1
 509              		.global	gpio_input_bit_get
 510              		.syntax unified
 511              		.thumb
 512              		.thumb_func
 513              		.fpu fpv4-sp-d16
 515              	gpio_input_bit_get:
 516              	.LVL58:
 517              	.LFB123:
 268:Drivers/GD32F30x_standard_peripheral/Source/gd32f30x_gpio.c **** 
 269:Drivers/GD32F30x_standard_peripheral/Source/gd32f30x_gpio.c **** /*!
 270:Drivers/GD32F30x_standard_peripheral/Source/gd32f30x_gpio.c ****     \brief      get GPIO pin input status
 271:Drivers/GD32F30x_standard_peripheral/Source/gd32f30x_gpio.c ****     \param[in]  gpio_periph: GPIOx(x = A,B,C,D,E,F,G)
 272:Drivers/GD32F30x_standard_peripheral/Source/gd32f30x_gpio.c ****     \param[in]  pin: GPIO pin
 273:Drivers/GD32F30x_standard_peripheral/Source/gd32f30x_gpio.c ****                 only one parameter can be selected which are shown as below:
 274:Drivers/GD32F30x_standard_peripheral/Source/gd32f30x_gpio.c ****       \arg        GPIO_PIN_x(x=0..15), GPIO_PIN_ALL
 275:Drivers/GD32F30x_standard_peripheral/Source/gd32f30x_gpio.c ****     \param[out] none
 276:Drivers/GD32F30x_standard_peripheral/Source/gd32f30x_gpio.c ****     \retval     input status of gpio pin: SET or RESET
 277:Drivers/GD32F30x_standard_peripheral/Source/gd32f30x_gpio.c **** */
ARM GAS  C:\Users\Prog\AppData\Local\Temp\cc95E1bd.s 			page 16


 278:Drivers/GD32F30x_standard_peripheral/Source/gd32f30x_gpio.c **** FlagStatus gpio_input_bit_get(uint32_t gpio_periph,uint32_t pin)
 279:Drivers/GD32F30x_standard_peripheral/Source/gd32f30x_gpio.c **** {
 518              		.loc 1 279 1 is_stmt 1 view -0
 519              		.cfi_startproc
 520              		@ args = 0, pretend = 0, frame = 0
 521              		@ frame_needed = 0, uses_anonymous_args = 0
 522              		@ link register save eliminated.
 280:Drivers/GD32F30x_standard_peripheral/Source/gd32f30x_gpio.c ****     if((uint32_t)RESET != (GPIO_ISTAT(gpio_periph)&(pin))){
 523              		.loc 1 280 5 view .LVU137
 524              		.loc 1 280 28 is_stmt 0 view .LVU138
 525 0000 8368     		ldr	r3, [r0, #8]
 526              		.loc 1 280 7 view .LVU139
 527 0002 0B42     		tst	r3, r1
 528 0004 01D0     		beq	.L45
 281:Drivers/GD32F30x_standard_peripheral/Source/gd32f30x_gpio.c ****         return SET; 
 529              		.loc 1 281 16 view .LVU140
 530 0006 0120     		movs	r0, #1
 531              	.LVL59:
 532              		.loc 1 281 16 view .LVU141
 533 0008 7047     		bx	lr
 534              	.LVL60:
 535              	.L45:
 282:Drivers/GD32F30x_standard_peripheral/Source/gd32f30x_gpio.c ****     }else{
 283:Drivers/GD32F30x_standard_peripheral/Source/gd32f30x_gpio.c ****         return RESET;
 536              		.loc 1 283 16 view .LVU142
 537 000a 0020     		movs	r0, #0
 538              	.LVL61:
 284:Drivers/GD32F30x_standard_peripheral/Source/gd32f30x_gpio.c ****     }
 285:Drivers/GD32F30x_standard_peripheral/Source/gd32f30x_gpio.c **** }
 539              		.loc 1 285 1 view .LVU143
 540 000c 7047     		bx	lr
 541              		.cfi_endproc
 542              	.LFE123:
 544              		.section	.text.gpio_input_port_get,"ax",%progbits
 545              		.align	1
 546              		.global	gpio_input_port_get
 547              		.syntax unified
 548              		.thumb
 549              		.thumb_func
 550              		.fpu fpv4-sp-d16
 552              	gpio_input_port_get:
 553              	.LVL62:
 554              	.LFB124:
 286:Drivers/GD32F30x_standard_peripheral/Source/gd32f30x_gpio.c **** 
 287:Drivers/GD32F30x_standard_peripheral/Source/gd32f30x_gpio.c **** /*!
 288:Drivers/GD32F30x_standard_peripheral/Source/gd32f30x_gpio.c ****     \brief      get GPIO port input status
 289:Drivers/GD32F30x_standard_peripheral/Source/gd32f30x_gpio.c ****     \param[in]  gpio_periph: GPIOx(x = A,B,C,D,E,F,G) 
 290:Drivers/GD32F30x_standard_peripheral/Source/gd32f30x_gpio.c ****     \param[out] none
 291:Drivers/GD32F30x_standard_peripheral/Source/gd32f30x_gpio.c ****     \retval     input status of gpio all pins
 292:Drivers/GD32F30x_standard_peripheral/Source/gd32f30x_gpio.c **** */
 293:Drivers/GD32F30x_standard_peripheral/Source/gd32f30x_gpio.c **** uint16_t gpio_input_port_get(uint32_t gpio_periph)
 294:Drivers/GD32F30x_standard_peripheral/Source/gd32f30x_gpio.c **** {
 555              		.loc 1 294 1 is_stmt 1 view -0
 556              		.cfi_startproc
 557              		@ args = 0, pretend = 0, frame = 0
 558              		@ frame_needed = 0, uses_anonymous_args = 0
 559              		@ link register save eliminated.
ARM GAS  C:\Users\Prog\AppData\Local\Temp\cc95E1bd.s 			page 17


 295:Drivers/GD32F30x_standard_peripheral/Source/gd32f30x_gpio.c ****     return (uint16_t)(GPIO_ISTAT(gpio_periph));
 560              		.loc 1 295 5 view .LVU145
 561              		.loc 1 295 23 is_stmt 0 view .LVU146
 562 0000 8068     		ldr	r0, [r0, #8]
 563              	.LVL63:
 296:Drivers/GD32F30x_standard_peripheral/Source/gd32f30x_gpio.c **** }
 564              		.loc 1 296 1 view .LVU147
 565 0002 80B2     		uxth	r0, r0
 566 0004 7047     		bx	lr
 567              		.cfi_endproc
 568              	.LFE124:
 570              		.section	.text.gpio_output_bit_get,"ax",%progbits
 571              		.align	1
 572              		.global	gpio_output_bit_get
 573              		.syntax unified
 574              		.thumb
 575              		.thumb_func
 576              		.fpu fpv4-sp-d16
 578              	gpio_output_bit_get:
 579              	.LVL64:
 580              	.LFB125:
 297:Drivers/GD32F30x_standard_peripheral/Source/gd32f30x_gpio.c **** 
 298:Drivers/GD32F30x_standard_peripheral/Source/gd32f30x_gpio.c **** /*!
 299:Drivers/GD32F30x_standard_peripheral/Source/gd32f30x_gpio.c ****     \brief      get GPIO pin output status
 300:Drivers/GD32F30x_standard_peripheral/Source/gd32f30x_gpio.c ****     \param[in]  gpio_periph: GPIOx(x = A,B,C,D,E,F,G)
 301:Drivers/GD32F30x_standard_peripheral/Source/gd32f30x_gpio.c ****     \param[in]  pin: GPIO pin
 302:Drivers/GD32F30x_standard_peripheral/Source/gd32f30x_gpio.c ****                 only one parameter can be selected which are shown as below:
 303:Drivers/GD32F30x_standard_peripheral/Source/gd32f30x_gpio.c ****       \arg        GPIO_PIN_x(x=0..15), GPIO_PIN_ALL
 304:Drivers/GD32F30x_standard_peripheral/Source/gd32f30x_gpio.c ****     \param[out] none
 305:Drivers/GD32F30x_standard_peripheral/Source/gd32f30x_gpio.c ****     \retval     output status of gpio pin: SET or RESET
 306:Drivers/GD32F30x_standard_peripheral/Source/gd32f30x_gpio.c **** */
 307:Drivers/GD32F30x_standard_peripheral/Source/gd32f30x_gpio.c **** FlagStatus gpio_output_bit_get(uint32_t gpio_periph,uint32_t pin)
 308:Drivers/GD32F30x_standard_peripheral/Source/gd32f30x_gpio.c **** {
 581              		.loc 1 308 1 is_stmt 1 view -0
 582              		.cfi_startproc
 583              		@ args = 0, pretend = 0, frame = 0
 584              		@ frame_needed = 0, uses_anonymous_args = 0
 585              		@ link register save eliminated.
 309:Drivers/GD32F30x_standard_peripheral/Source/gd32f30x_gpio.c ****     if((uint32_t)RESET !=(GPIO_OCTL(gpio_periph)&(pin))){
 586              		.loc 1 309 5 view .LVU149
 587              		.loc 1 309 27 is_stmt 0 view .LVU150
 588 0000 C368     		ldr	r3, [r0, #12]
 589              		.loc 1 309 7 view .LVU151
 590 0002 0B42     		tst	r3, r1
 591 0004 01D0     		beq	.L49
 310:Drivers/GD32F30x_standard_peripheral/Source/gd32f30x_gpio.c ****         return SET;
 592              		.loc 1 310 16 view .LVU152
 593 0006 0120     		movs	r0, #1
 594              	.LVL65:
 595              		.loc 1 310 16 view .LVU153
 596 0008 7047     		bx	lr
 597              	.LVL66:
 598              	.L49:
 311:Drivers/GD32F30x_standard_peripheral/Source/gd32f30x_gpio.c ****     }else{
 312:Drivers/GD32F30x_standard_peripheral/Source/gd32f30x_gpio.c ****         return RESET;
 599              		.loc 1 312 16 view .LVU154
 600 000a 0020     		movs	r0, #0
ARM GAS  C:\Users\Prog\AppData\Local\Temp\cc95E1bd.s 			page 18


 601              	.LVL67:
 313:Drivers/GD32F30x_standard_peripheral/Source/gd32f30x_gpio.c ****     }
 314:Drivers/GD32F30x_standard_peripheral/Source/gd32f30x_gpio.c **** }
 602              		.loc 1 314 1 view .LVU155
 603 000c 7047     		bx	lr
 604              		.cfi_endproc
 605              	.LFE125:
 607              		.section	.text.gpio_output_port_get,"ax",%progbits
 608              		.align	1
 609              		.global	gpio_output_port_get
 610              		.syntax unified
 611              		.thumb
 612              		.thumb_func
 613              		.fpu fpv4-sp-d16
 615              	gpio_output_port_get:
 616              	.LVL68:
 617              	.LFB126:
 315:Drivers/GD32F30x_standard_peripheral/Source/gd32f30x_gpio.c **** 
 316:Drivers/GD32F30x_standard_peripheral/Source/gd32f30x_gpio.c **** /*!
 317:Drivers/GD32F30x_standard_peripheral/Source/gd32f30x_gpio.c ****     \brief      get GPIO port output status
 318:Drivers/GD32F30x_standard_peripheral/Source/gd32f30x_gpio.c ****     \param[in]  gpio_periph: GPIOx(x = A,B,C,D,E,F,G) 
 319:Drivers/GD32F30x_standard_peripheral/Source/gd32f30x_gpio.c ****     \param[out] none
 320:Drivers/GD32F30x_standard_peripheral/Source/gd32f30x_gpio.c ****     \retval     output status of gpio all pins
 321:Drivers/GD32F30x_standard_peripheral/Source/gd32f30x_gpio.c **** */
 322:Drivers/GD32F30x_standard_peripheral/Source/gd32f30x_gpio.c **** uint16_t gpio_output_port_get(uint32_t gpio_periph)
 323:Drivers/GD32F30x_standard_peripheral/Source/gd32f30x_gpio.c **** {
 618              		.loc 1 323 1 is_stmt 1 view -0
 619              		.cfi_startproc
 620              		@ args = 0, pretend = 0, frame = 0
 621              		@ frame_needed = 0, uses_anonymous_args = 0
 622              		@ link register save eliminated.
 324:Drivers/GD32F30x_standard_peripheral/Source/gd32f30x_gpio.c ****     return ((uint16_t)GPIO_OCTL(gpio_periph));
 623              		.loc 1 324 5 view .LVU157
 624              		.loc 1 324 23 is_stmt 0 view .LVU158
 625 0000 C068     		ldr	r0, [r0, #12]
 626              	.LVL69:
 325:Drivers/GD32F30x_standard_peripheral/Source/gd32f30x_gpio.c **** }
 627              		.loc 1 325 1 view .LVU159
 628 0002 80B2     		uxth	r0, r0
 629 0004 7047     		bx	lr
 630              		.cfi_endproc
 631              	.LFE126:
 633              		.section	.text.gpio_pin_remap_config,"ax",%progbits
 634              		.align	1
 635              		.global	gpio_pin_remap_config
 636              		.syntax unified
 637              		.thumb
 638              		.thumb_func
 639              		.fpu fpv4-sp-d16
 641              	gpio_pin_remap_config:
 642              	.LVL70:
 643              	.LFB127:
 326:Drivers/GD32F30x_standard_peripheral/Source/gd32f30x_gpio.c **** 
 327:Drivers/GD32F30x_standard_peripheral/Source/gd32f30x_gpio.c **** /*!
 328:Drivers/GD32F30x_standard_peripheral/Source/gd32f30x_gpio.c ****     \brief      configure GPIO pin remap
 329:Drivers/GD32F30x_standard_peripheral/Source/gd32f30x_gpio.c ****     \param[in]  gpio_remap: select the pin to remap
 330:Drivers/GD32F30x_standard_peripheral/Source/gd32f30x_gpio.c ****                 only one parameter can be selected which are shown as below:
ARM GAS  C:\Users\Prog\AppData\Local\Temp\cc95E1bd.s 			page 19


 331:Drivers/GD32F30x_standard_peripheral/Source/gd32f30x_gpio.c ****       \arg        GPIO_SPI0_REMAP: SPI0 remapping
 332:Drivers/GD32F30x_standard_peripheral/Source/gd32f30x_gpio.c ****       \arg        GPIO_I2C0_REMAP: I2C0 remapping
 333:Drivers/GD32F30x_standard_peripheral/Source/gd32f30x_gpio.c ****       \arg        GPIO_USART0_REMAP: USART0 remapping
 334:Drivers/GD32F30x_standard_peripheral/Source/gd32f30x_gpio.c ****       \arg        GPIO_USART1_REMAP: USART1 remapping
 335:Drivers/GD32F30x_standard_peripheral/Source/gd32f30x_gpio.c ****       \arg        GPIO_USART2_PARTIAL_REMAP: USART2 partial remapping
 336:Drivers/GD32F30x_standard_peripheral/Source/gd32f30x_gpio.c ****       \arg        GPIO_USART2_FULL_REMAP: USART2 full remapping
 337:Drivers/GD32F30x_standard_peripheral/Source/gd32f30x_gpio.c ****       \arg        GPIO_TIMER0_PARTIAL_REMAP: TIMER0 partial remapping 
 338:Drivers/GD32F30x_standard_peripheral/Source/gd32f30x_gpio.c ****       \arg        GPIO_TIMER0_FULL_REMAP: TIMER0 full remapping
 339:Drivers/GD32F30x_standard_peripheral/Source/gd32f30x_gpio.c ****       \arg        GPIO_TIMER1_PARTIAL_REMAP0: TIMER1 partial remapping
 340:Drivers/GD32F30x_standard_peripheral/Source/gd32f30x_gpio.c ****       \arg        GPIO_TIMER1_PARTIAL_REMAP1: TIMER1 partial remapping
 341:Drivers/GD32F30x_standard_peripheral/Source/gd32f30x_gpio.c ****       \arg        GPIO_TIMER1_FULL_REMAP: TIMER1 full remapping
 342:Drivers/GD32F30x_standard_peripheral/Source/gd32f30x_gpio.c ****       \arg        GPIO_TIMER2_PARTIAL_REMAP: TIMER2 partial remapping
 343:Drivers/GD32F30x_standard_peripheral/Source/gd32f30x_gpio.c ****       \arg        GPIO_TIMER2_FULL_REMAP: TIMER2 full remapping
 344:Drivers/GD32F30x_standard_peripheral/Source/gd32f30x_gpio.c ****       \arg        GPIO_TIMER3_REMAP: TIMER3 remapping
 345:Drivers/GD32F30x_standard_peripheral/Source/gd32f30x_gpio.c ****       \arg        GPIO_CAN_PARTIAL_REMAP: CAN partial remapping(only for GD32F30X_HD devices and GD
 346:Drivers/GD32F30x_standard_peripheral/Source/gd32f30x_gpio.c ****       \arg        GPIO_CAN_FULL_REMAP: CAN full remapping(only for GD32F30X_HD devices and GD32F30X
 347:Drivers/GD32F30x_standard_peripheral/Source/gd32f30x_gpio.c ****       \arg        GPIO_CAN0_PARTIAL_REMAP: CAN0 partial remapping(only for GD32F30X_CL devices)
 348:Drivers/GD32F30x_standard_peripheral/Source/gd32f30x_gpio.c ****       \arg        GPIO_CAN0_FULL_REMAP: CAN0 full remapping(only for GD32F30X_CL devices)
 349:Drivers/GD32F30x_standard_peripheral/Source/gd32f30x_gpio.c ****       \arg        GPIO_PD01_REMAP: PD01 remapping
 350:Drivers/GD32F30x_standard_peripheral/Source/gd32f30x_gpio.c ****       \arg        GPIO_TIMER4CH3_IREMAP: TIMER4 channel3 internal remapping
 351:Drivers/GD32F30x_standard_peripheral/Source/gd32f30x_gpio.c ****       \arg        GPIO_ADC0_ETRGINS_REMAP: ADC0 external trigger inserted conversion remapping(only
 352:Drivers/GD32F30x_standard_peripheral/Source/gd32f30x_gpio.c ****       \arg        GPIO_ADC0_ETRGREG_REMAP: ADC0 external trigger regular conversion remapping(only 
 353:Drivers/GD32F30x_standard_peripheral/Source/gd32f30x_gpio.c ****       \arg        GPIO_ADC1_ETRGINS_REMAP: ADC1 external trigger inserted conversion remapping(only
 354:Drivers/GD32F30x_standard_peripheral/Source/gd32f30x_gpio.c ****       \arg        GPIO_ADC1_ETRGREG_REMAP: ADC1 external trigger regular conversion remapping(only 
 355:Drivers/GD32F30x_standard_peripheral/Source/gd32f30x_gpio.c ****       \arg        GPIO_ENET_REMAP: ENET remapping(only for GD32F30X_CL devices) 
 356:Drivers/GD32F30x_standard_peripheral/Source/gd32f30x_gpio.c ****       \arg        GPIO_CAN1_REMAP: CAN1 remapping(only for GD32F30X_CL devices)
 357:Drivers/GD32F30x_standard_peripheral/Source/gd32f30x_gpio.c ****       \arg        GPIO_SWJ_NONJTRST_REMAP: full SWJ(JTAG-DP + SW-DP),but without NJTRST
 358:Drivers/GD32F30x_standard_peripheral/Source/gd32f30x_gpio.c ****       \arg        GPIO_SWJ_SWDPENABLE_REMAP: JTAG-DP disabled and SW-DP enabled
 359:Drivers/GD32F30x_standard_peripheral/Source/gd32f30x_gpio.c ****       \arg        GPIO_SWJ_DISABLE_REMAP: JTAG-DP disabled and SW-DP disabled
 360:Drivers/GD32F30x_standard_peripheral/Source/gd32f30x_gpio.c ****       \arg        GPIO_SPI2_REMAP: SPI2 remapping 
 361:Drivers/GD32F30x_standard_peripheral/Source/gd32f30x_gpio.c ****       \arg        GPIO_TIMER1ITR0_REMAP: TIMER1 internal trigger 0 remapping(only for GD32F30X_CL d
 362:Drivers/GD32F30x_standard_peripheral/Source/gd32f30x_gpio.c ****       \arg        GPIO_PTP_PPS_REMAP: ethernet PTP PPS remapping(only for GD32F30X_CL devices) 
 363:Drivers/GD32F30x_standard_peripheral/Source/gd32f30x_gpio.c ****       \arg        GPIO_TIMER8_REMAP: TIMER8 remapping
 364:Drivers/GD32F30x_standard_peripheral/Source/gd32f30x_gpio.c ****       \arg        GPIO_TIMER9_REMAP: TIMER9 remapping
 365:Drivers/GD32F30x_standard_peripheral/Source/gd32f30x_gpio.c ****       \arg        GPIO_TIMER10_REMAP: TIMER10 remapping
 366:Drivers/GD32F30x_standard_peripheral/Source/gd32f30x_gpio.c ****       \arg        GPIO_TIMER12_REMAP: TIMER12 remapping
 367:Drivers/GD32F30x_standard_peripheral/Source/gd32f30x_gpio.c ****       \arg        GPIO_TIMER13_REMAP: TIMER13 remapping
 368:Drivers/GD32F30x_standard_peripheral/Source/gd32f30x_gpio.c ****       \arg        GPIO_EXMC_NADV_REMAP: EXMC_NADV connect/disconnect
 369:Drivers/GD32F30x_standard_peripheral/Source/gd32f30x_gpio.c ****       \arg        GPIO_CTC_REMAP0: CTC remapping(PD15)
 370:Drivers/GD32F30x_standard_peripheral/Source/gd32f30x_gpio.c ****       \arg        GPIO_CTC_REMAP1: CTC remapping(PF0)
 371:Drivers/GD32F30x_standard_peripheral/Source/gd32f30x_gpio.c ****     \param[in]  newvalue: ENABLE or DISABLE
 372:Drivers/GD32F30x_standard_peripheral/Source/gd32f30x_gpio.c ****     \param[out] none
 373:Drivers/GD32F30x_standard_peripheral/Source/gd32f30x_gpio.c ****     \retval     none
 374:Drivers/GD32F30x_standard_peripheral/Source/gd32f30x_gpio.c **** */
 375:Drivers/GD32F30x_standard_peripheral/Source/gd32f30x_gpio.c **** void gpio_pin_remap_config(uint32_t remap, ControlStatus newvalue)
 376:Drivers/GD32F30x_standard_peripheral/Source/gd32f30x_gpio.c **** {
 644              		.loc 1 376 1 is_stmt 1 view -0
 645              		.cfi_startproc
 646              		@ args = 0, pretend = 0, frame = 0
 647              		@ frame_needed = 0, uses_anonymous_args = 0
 648              		.loc 1 376 1 is_stmt 0 view .LVU161
 649 0000 10B5     		push	{r4, lr}
 650              	.LCFI3:
 651              		.cfi_def_cfa_offset 8
 652              		.cfi_offset 4, -8
 653              		.cfi_offset 14, -4
 377:Drivers/GD32F30x_standard_peripheral/Source/gd32f30x_gpio.c ****     uint32_t remap1 = 0U, remap2 = 0U, temp_reg = 0U, temp_mask = 0U;
ARM GAS  C:\Users\Prog\AppData\Local\Temp\cc95E1bd.s 			page 20


 654              		.loc 1 377 5 is_stmt 1 view .LVU162
 655              	.LVL71:
 378:Drivers/GD32F30x_standard_peripheral/Source/gd32f30x_gpio.c **** 
 379:Drivers/GD32F30x_standard_peripheral/Source/gd32f30x_gpio.c ****     if(((uint32_t)0x80000000U) == (remap & 0x80000000U)){
 656              		.loc 1 379 5 view .LVU163
 657              		.loc 1 379 7 is_stmt 0 view .LVU164
 658 0002 0028     		cmp	r0, #0
 659              		.loc 1 379 7 view .LVU165
 660 0004 16DB     		blt	.L61
 380:Drivers/GD32F30x_standard_peripheral/Source/gd32f30x_gpio.c ****         /* get AFIO_PCF1 regiter value */
 381:Drivers/GD32F30x_standard_peripheral/Source/gd32f30x_gpio.c ****         temp_reg = AFIO_PCF1;
 382:Drivers/GD32F30x_standard_peripheral/Source/gd32f30x_gpio.c ****     }else{
 383:Drivers/GD32F30x_standard_peripheral/Source/gd32f30x_gpio.c ****         /* get AFIO_PCF0 regiter value */
 384:Drivers/GD32F30x_standard_peripheral/Source/gd32f30x_gpio.c ****         temp_reg = AFIO_PCF0;
 661              		.loc 1 384 9 is_stmt 1 view .LVU166
 662              		.loc 1 384 18 is_stmt 0 view .LVU167
 663 0006 1C4B     		ldr	r3, .L64
 664 0008 5B68     		ldr	r3, [r3, #4]
 665              	.LVL72:
 666              	.L53:
 385:Drivers/GD32F30x_standard_peripheral/Source/gd32f30x_gpio.c ****     }
 386:Drivers/GD32F30x_standard_peripheral/Source/gd32f30x_gpio.c **** 
 387:Drivers/GD32F30x_standard_peripheral/Source/gd32f30x_gpio.c ****     temp_mask = (remap & PCF_POSITION_MASK) >> 0x10U;
 667              		.loc 1 387 5 is_stmt 1 view .LVU168
 668              		.loc 1 387 15 is_stmt 0 view .LVU169
 669 000a C0F30342 		ubfx	r2, r0, #16, #4
 670              	.LVL73:
 388:Drivers/GD32F30x_standard_peripheral/Source/gd32f30x_gpio.c ****     remap1 = remap & LSB_16BIT_MASK;
 671              		.loc 1 388 5 is_stmt 1 view .LVU170
 672              		.loc 1 388 12 is_stmt 0 view .LVU171
 673 000e 1FFA80FE 		uxth	lr, r0
 674              	.LVL74:
 389:Drivers/GD32F30x_standard_peripheral/Source/gd32f30x_gpio.c **** 
 390:Drivers/GD32F30x_standard_peripheral/Source/gd32f30x_gpio.c ****     /* judge pin remap type */
 391:Drivers/GD32F30x_standard_peripheral/Source/gd32f30x_gpio.c ****     if((PCF_LOCATION1_MASK | PCF_LOCATION2_MASK) == (remap & (PCF_LOCATION1_MASK | PCF_LOCATION2_MA
 675              		.loc 1 391 5 is_stmt 1 view .LVU172
 676              		.loc 1 391 60 is_stmt 0 view .LVU173
 677 0012 00F4401C 		and	ip, r0, #3145728
 678              		.loc 1 391 7 view .LVU174
 679 0016 BCF5401F 		cmp	ip, #3145728
 680 001a 0ED0     		beq	.L62
 392:Drivers/GD32F30x_standard_peripheral/Source/gd32f30x_gpio.c ****         temp_reg &= PCF_SWJCFG_MASK;
 393:Drivers/GD32F30x_standard_peripheral/Source/gd32f30x_gpio.c ****         AFIO_PCF0 &= PCF_SWJCFG_MASK;
 394:Drivers/GD32F30x_standard_peripheral/Source/gd32f30x_gpio.c ****     }else if(PCF_LOCATION2_MASK == (remap & PCF_LOCATION2_MASK)){
 681              		.loc 1 394 11 is_stmt 1 view .LVU175
 682              		.loc 1 394 13 is_stmt 0 view .LVU176
 683 001c 10F4801F 		tst	r0, #1048576
 684 0020 1DD0     		beq	.L56
 395:Drivers/GD32F30x_standard_peripheral/Source/gd32f30x_gpio.c ****         remap2 = ((uint32_t)0x03U) << temp_mask;
 685              		.loc 1 395 9 is_stmt 1 view .LVU177
 686              		.loc 1 395 16 is_stmt 0 view .LVU178
 687 0022 4FF0030C 		mov	ip, #3
 688 0026 0CFA02F2 		lsl	r2, ip, r2
 689              	.LVL75:
 396:Drivers/GD32F30x_standard_peripheral/Source/gd32f30x_gpio.c ****         temp_reg &= ~remap2;
 690              		.loc 1 396 9 is_stmt 1 view .LVU179
 691              		.loc 1 396 18 is_stmt 0 view .LVU180
ARM GAS  C:\Users\Prog\AppData\Local\Temp\cc95E1bd.s 			page 21


 692 002a 23EA0203 		bic	r3, r3, r2
 693              	.LVL76:
 397:Drivers/GD32F30x_standard_peripheral/Source/gd32f30x_gpio.c ****         temp_reg |= ~PCF_SWJCFG_MASK;
 694              		.loc 1 397 9 is_stmt 1 view .LVU181
 695              		.loc 1 397 18 is_stmt 0 view .LVU182
 696 002e 43F0E063 		orr	r3, r3, #117440512
 697              	.LVL77:
 698              		.loc 1 397 18 view .LVU183
 699 0032 09E0     		b	.L55
 700              	.LVL78:
 701              	.L61:
 381:Drivers/GD32F30x_standard_peripheral/Source/gd32f30x_gpio.c ****     }else{
 702              		.loc 1 381 9 is_stmt 1 view .LVU184
 381:Drivers/GD32F30x_standard_peripheral/Source/gd32f30x_gpio.c ****     }else{
 703              		.loc 1 381 18 is_stmt 0 view .LVU185
 704 0034 104B     		ldr	r3, .L64
 705 0036 DB69     		ldr	r3, [r3, #28]
 706              	.LVL79:
 381:Drivers/GD32F30x_standard_peripheral/Source/gd32f30x_gpio.c ****     }else{
 707              		.loc 1 381 18 view .LVU186
 708 0038 E7E7     		b	.L53
 709              	.LVL80:
 710              	.L62:
 392:Drivers/GD32F30x_standard_peripheral/Source/gd32f30x_gpio.c ****         AFIO_PCF0 &= PCF_SWJCFG_MASK;
 711              		.loc 1 392 9 is_stmt 1 view .LVU187
 392:Drivers/GD32F30x_standard_peripheral/Source/gd32f30x_gpio.c ****         AFIO_PCF0 &= PCF_SWJCFG_MASK;
 712              		.loc 1 392 18 is_stmt 0 view .LVU188
 713 003a 23F0E063 		bic	r3, r3, #117440512
 714              	.LVL81:
 393:Drivers/GD32F30x_standard_peripheral/Source/gd32f30x_gpio.c ****     }else if(PCF_LOCATION2_MASK == (remap & PCF_LOCATION2_MASK)){
 715              		.loc 1 393 9 is_stmt 1 view .LVU189
 393:Drivers/GD32F30x_standard_peripheral/Source/gd32f30x_gpio.c ****     }else if(PCF_LOCATION2_MASK == (remap & PCF_LOCATION2_MASK)){
 716              		.loc 1 393 19 is_stmt 0 view .LVU190
 717 003e 0E4C     		ldr	r4, .L64
 718 0040 6268     		ldr	r2, [r4, #4]
 719              	.LVL82:
 393:Drivers/GD32F30x_standard_peripheral/Source/gd32f30x_gpio.c ****     }else if(PCF_LOCATION2_MASK == (remap & PCF_LOCATION2_MASK)){
 720              		.loc 1 393 19 view .LVU191
 721 0042 22F0E062 		bic	r2, r2, #117440512
 722 0046 6260     		str	r2, [r4, #4]
 723              	.LVL83:
 724              	.L55:
 398:Drivers/GD32F30x_standard_peripheral/Source/gd32f30x_gpio.c ****     }else{
 399:Drivers/GD32F30x_standard_peripheral/Source/gd32f30x_gpio.c ****         temp_reg &= ~(remap1 << ((remap >> 0x15U)*0x10U));
 400:Drivers/GD32F30x_standard_peripheral/Source/gd32f30x_gpio.c ****         temp_reg |= ~PCF_SWJCFG_MASK;
 401:Drivers/GD32F30x_standard_peripheral/Source/gd32f30x_gpio.c ****     }
 402:Drivers/GD32F30x_standard_peripheral/Source/gd32f30x_gpio.c ****     
 403:Drivers/GD32F30x_standard_peripheral/Source/gd32f30x_gpio.c ****     /* set pin remap value */
 404:Drivers/GD32F30x_standard_peripheral/Source/gd32f30x_gpio.c ****     if(DISABLE != newvalue){
 725              		.loc 1 404 5 is_stmt 1 view .LVU192
 726              		.loc 1 404 7 is_stmt 0 view .LVU193
 727 0048 21B1     		cbz	r1, .L57
 405:Drivers/GD32F30x_standard_peripheral/Source/gd32f30x_gpio.c ****         temp_reg |= (remap1 << ((remap >> 0x15U)*0x10U));
 728              		.loc 1 405 9 is_stmt 1 view .LVU194
 729              		.loc 1 405 40 is_stmt 0 view .LVU195
 730 004a 420D     		lsrs	r2, r0, #21
 731              		.loc 1 405 49 view .LVU196
ARM GAS  C:\Users\Prog\AppData\Local\Temp\cc95E1bd.s 			page 22


 732 004c 1201     		lsls	r2, r2, #4
 733              		.loc 1 405 29 view .LVU197
 734 004e 0EFA02F2 		lsl	r2, lr, r2
 735              		.loc 1 405 18 view .LVU198
 736 0052 1343     		orrs	r3, r3, r2
 737              	.LVL84:
 738              	.L57:
 406:Drivers/GD32F30x_standard_peripheral/Source/gd32f30x_gpio.c ****     }
 407:Drivers/GD32F30x_standard_peripheral/Source/gd32f30x_gpio.c ****     
 408:Drivers/GD32F30x_standard_peripheral/Source/gd32f30x_gpio.c ****     if(AFIO_PCF1_FIELDS == (remap & AFIO_PCF1_FIELDS)){
 739              		.loc 1 408 5 is_stmt 1 view .LVU199
 740              		.loc 1 408 7 is_stmt 0 view .LVU200
 741 0054 0028     		cmp	r0, #0
 742 0056 0BDB     		blt	.L63
 409:Drivers/GD32F30x_standard_peripheral/Source/gd32f30x_gpio.c ****         /* set AFIO_PCF1 regiter value */
 410:Drivers/GD32F30x_standard_peripheral/Source/gd32f30x_gpio.c ****         AFIO_PCF1 = temp_reg;
 411:Drivers/GD32F30x_standard_peripheral/Source/gd32f30x_gpio.c ****     }else{
 412:Drivers/GD32F30x_standard_peripheral/Source/gd32f30x_gpio.c ****         /* set AFIO_PCF0 regiter value */
 413:Drivers/GD32F30x_standard_peripheral/Source/gd32f30x_gpio.c ****         AFIO_PCF0 = temp_reg;
 743              		.loc 1 413 9 is_stmt 1 view .LVU201
 744              		.loc 1 413 19 is_stmt 0 view .LVU202
 745 0058 074A     		ldr	r2, .L64
 746 005a 5360     		str	r3, [r2, #4]
 747              	.L51:
 414:Drivers/GD32F30x_standard_peripheral/Source/gd32f30x_gpio.c ****     }
 415:Drivers/GD32F30x_standard_peripheral/Source/gd32f30x_gpio.c **** }
 748              		.loc 1 415 1 view .LVU203
 749 005c 10BD     		pop	{r4, pc}
 750              	.LVL85:
 751              	.L56:
 399:Drivers/GD32F30x_standard_peripheral/Source/gd32f30x_gpio.c ****         temp_reg |= ~PCF_SWJCFG_MASK;
 752              		.loc 1 399 9 is_stmt 1 view .LVU204
 399:Drivers/GD32F30x_standard_peripheral/Source/gd32f30x_gpio.c ****         temp_reg |= ~PCF_SWJCFG_MASK;
 753              		.loc 1 399 41 is_stmt 0 view .LVU205
 754 005e 420D     		lsrs	r2, r0, #21
 755              	.LVL86:
 399:Drivers/GD32F30x_standard_peripheral/Source/gd32f30x_gpio.c ****         temp_reg |= ~PCF_SWJCFG_MASK;
 756              		.loc 1 399 50 view .LVU206
 757 0060 1201     		lsls	r2, r2, #4
 399:Drivers/GD32F30x_standard_peripheral/Source/gd32f30x_gpio.c ****         temp_reg |= ~PCF_SWJCFG_MASK;
 758              		.loc 1 399 30 view .LVU207
 759 0062 0EFA02F2 		lsl	r2, lr, r2
 399:Drivers/GD32F30x_standard_peripheral/Source/gd32f30x_gpio.c ****         temp_reg |= ~PCF_SWJCFG_MASK;
 760              		.loc 1 399 18 view .LVU208
 761 0066 23EA0203 		bic	r3, r3, r2
 762              	.LVL87:
 400:Drivers/GD32F30x_standard_peripheral/Source/gd32f30x_gpio.c ****     }
 763              		.loc 1 400 9 is_stmt 1 view .LVU209
 400:Drivers/GD32F30x_standard_peripheral/Source/gd32f30x_gpio.c ****     }
 764              		.loc 1 400 18 is_stmt 0 view .LVU210
 765 006a 43F0E063 		orr	r3, r3, #117440512
 766              	.LVL88:
 400:Drivers/GD32F30x_standard_peripheral/Source/gd32f30x_gpio.c ****     }
 767              		.loc 1 400 18 view .LVU211
 768 006e EBE7     		b	.L55
 769              	.LVL89:
 770              	.L63:
ARM GAS  C:\Users\Prog\AppData\Local\Temp\cc95E1bd.s 			page 23


 410:Drivers/GD32F30x_standard_peripheral/Source/gd32f30x_gpio.c ****     }else{
 771              		.loc 1 410 9 is_stmt 1 view .LVU212
 410:Drivers/GD32F30x_standard_peripheral/Source/gd32f30x_gpio.c ****     }else{
 772              		.loc 1 410 19 is_stmt 0 view .LVU213
 773 0070 014A     		ldr	r2, .L64
 774 0072 D361     		str	r3, [r2, #28]
 775 0074 F2E7     		b	.L51
 776              	.L65:
 777 0076 00BF     		.align	2
 778              	.L64:
 779 0078 00000140 		.word	1073807360
 780              		.cfi_endproc
 781              	.LFE127:
 783              		.section	.text.gpio_exti_source_select,"ax",%progbits
 784              		.align	1
 785              		.global	gpio_exti_source_select
 786              		.syntax unified
 787              		.thumb
 788              		.thumb_func
 789              		.fpu fpv4-sp-d16
 791              	gpio_exti_source_select:
 792              	.LVL90:
 793              	.LFB128:
 416:Drivers/GD32F30x_standard_peripheral/Source/gd32f30x_gpio.c **** 
 417:Drivers/GD32F30x_standard_peripheral/Source/gd32f30x_gpio.c **** #ifdef GD32F30X_CL
 418:Drivers/GD32F30x_standard_peripheral/Source/gd32f30x_gpio.c **** /*!
 419:Drivers/GD32F30x_standard_peripheral/Source/gd32f30x_gpio.c ****     \brief      select ethernet MII or RMII PHY
 420:Drivers/GD32F30x_standard_peripheral/Source/gd32f30x_gpio.c ****     \param[in]  enet_sel: ethernet MII or RMII PHY selection
 421:Drivers/GD32F30x_standard_peripheral/Source/gd32f30x_gpio.c ****       \arg        GPIO_ENET_PHY_MII: configure ethernet MAC for connection with an MII PHY
 422:Drivers/GD32F30x_standard_peripheral/Source/gd32f30x_gpio.c ****       \arg        GPIO_ENET_PHY_RMII: configure ethernet MAC for connection with an RMII PHY
 423:Drivers/GD32F30x_standard_peripheral/Source/gd32f30x_gpio.c ****     \param[out] none
 424:Drivers/GD32F30x_standard_peripheral/Source/gd32f30x_gpio.c ****     \retval     none
 425:Drivers/GD32F30x_standard_peripheral/Source/gd32f30x_gpio.c **** */
 426:Drivers/GD32F30x_standard_peripheral/Source/gd32f30x_gpio.c **** void gpio_ethernet_phy_select(uint32_t enet_sel)
 427:Drivers/GD32F30x_standard_peripheral/Source/gd32f30x_gpio.c **** {
 428:Drivers/GD32F30x_standard_peripheral/Source/gd32f30x_gpio.c ****     /* clear AFIO_PCF0_ENET_PHY_SEL bit */
 429:Drivers/GD32F30x_standard_peripheral/Source/gd32f30x_gpio.c ****     AFIO_PCF0 &= (uint32_t)(~AFIO_PCF0_ENET_PHY_SEL);
 430:Drivers/GD32F30x_standard_peripheral/Source/gd32f30x_gpio.c **** 
 431:Drivers/GD32F30x_standard_peripheral/Source/gd32f30x_gpio.c ****     /* select MII or RMII PHY */
 432:Drivers/GD32F30x_standard_peripheral/Source/gd32f30x_gpio.c ****     AFIO_PCF0 |= (uint32_t)enet_sel;
 433:Drivers/GD32F30x_standard_peripheral/Source/gd32f30x_gpio.c **** }
 434:Drivers/GD32F30x_standard_peripheral/Source/gd32f30x_gpio.c **** #endif /* GD32F30X_CL */
 435:Drivers/GD32F30x_standard_peripheral/Source/gd32f30x_gpio.c **** 
 436:Drivers/GD32F30x_standard_peripheral/Source/gd32f30x_gpio.c **** /*!
 437:Drivers/GD32F30x_standard_peripheral/Source/gd32f30x_gpio.c ****     \brief      select GPIO pin exti sources
 438:Drivers/GD32F30x_standard_peripheral/Source/gd32f30x_gpio.c ****     \param[in]  output_port: gpio event output port
 439:Drivers/GD32F30x_standard_peripheral/Source/gd32f30x_gpio.c ****                 only one parameter can be selected which are shown as below:
 440:Drivers/GD32F30x_standard_peripheral/Source/gd32f30x_gpio.c ****       \arg        GPIO_PORT_SOURCE_GPIOA: output port source A
 441:Drivers/GD32F30x_standard_peripheral/Source/gd32f30x_gpio.c ****       \arg        GPIO_PORT_SOURCE_GPIOB: output port source B
 442:Drivers/GD32F30x_standard_peripheral/Source/gd32f30x_gpio.c ****       \arg        GPIO_PORT_SOURCE_GPIOC: output port source C
 443:Drivers/GD32F30x_standard_peripheral/Source/gd32f30x_gpio.c ****       \arg        GPIO_PORT_SOURCE_GPIOD: output port source D
 444:Drivers/GD32F30x_standard_peripheral/Source/gd32f30x_gpio.c ****       \arg        GPIO_PORT_SOURCE_GPIOE: output port source E 
 445:Drivers/GD32F30x_standard_peripheral/Source/gd32f30x_gpio.c ****       \arg        GPIO_PORT_SOURCE_GPIOF: output port source F
 446:Drivers/GD32F30x_standard_peripheral/Source/gd32f30x_gpio.c ****       \arg        GPIO_PORT_SOURCE_GPIOG: output port source G
 447:Drivers/GD32F30x_standard_peripheral/Source/gd32f30x_gpio.c ****     \param[in]  output_pin: GPIO output pin source
 448:Drivers/GD32F30x_standard_peripheral/Source/gd32f30x_gpio.c ****                 only one parameter can be selected which are shown as below:
 449:Drivers/GD32F30x_standard_peripheral/Source/gd32f30x_gpio.c ****       \arg        GPIO_PIN_SOURCE_x(x=0..15)
ARM GAS  C:\Users\Prog\AppData\Local\Temp\cc95E1bd.s 			page 24


 450:Drivers/GD32F30x_standard_peripheral/Source/gd32f30x_gpio.c ****     \param[out] none
 451:Drivers/GD32F30x_standard_peripheral/Source/gd32f30x_gpio.c ****     \retval     none
 452:Drivers/GD32F30x_standard_peripheral/Source/gd32f30x_gpio.c **** */
 453:Drivers/GD32F30x_standard_peripheral/Source/gd32f30x_gpio.c **** void gpio_exti_source_select(uint8_t output_port, uint8_t output_pin)
 454:Drivers/GD32F30x_standard_peripheral/Source/gd32f30x_gpio.c **** {
 794              		.loc 1 454 1 is_stmt 1 view -0
 795              		.cfi_startproc
 796              		@ args = 0, pretend = 0, frame = 0
 797              		@ frame_needed = 0, uses_anonymous_args = 0
 798              		@ link register save eliminated.
 799              		.loc 1 454 1 is_stmt 0 view .LVU215
 800 0000 10B4     		push	{r4}
 801              	.LCFI4:
 802              		.cfi_def_cfa_offset 4
 803              		.cfi_offset 4, -4
 455:Drivers/GD32F30x_standard_peripheral/Source/gd32f30x_gpio.c ****     uint32_t source = 0U;
 804              		.loc 1 455 5 is_stmt 1 view .LVU216
 805              	.LVL91:
 456:Drivers/GD32F30x_standard_peripheral/Source/gd32f30x_gpio.c ****     source = ((uint32_t)0x0FU) << (AFIO_EXTI_SOURCE_FIELDS * (output_pin & AFIO_EXTI_SOURCE_MASK));
 806              		.loc 1 456 5 view .LVU217
 807              		.loc 1 456 74 is_stmt 0 view .LVU218
 808 0002 01F00303 		and	r3, r1, #3
 809              		.loc 1 456 60 view .LVU219
 810 0006 9B00     		lsls	r3, r3, #2
 811              		.loc 1 456 12 view .LVU220
 812 0008 0F22     		movs	r2, #15
 813 000a 9A40     		lsls	r2, r2, r3
 814              	.LVL92:
 457:Drivers/GD32F30x_standard_peripheral/Source/gd32f30x_gpio.c **** 
 458:Drivers/GD32F30x_standard_peripheral/Source/gd32f30x_gpio.c ****     /* select EXTI sources */
 459:Drivers/GD32F30x_standard_peripheral/Source/gd32f30x_gpio.c ****     if(GPIO_PIN_SOURCE_4 > output_pin){
 815              		.loc 1 459 5 is_stmt 1 view .LVU221
 816              		.loc 1 459 7 is_stmt 0 view .LVU222
 817 000c 0329     		cmp	r1, #3
 818 000e 0CD8     		bhi	.L67
 460:Drivers/GD32F30x_standard_peripheral/Source/gd32f30x_gpio.c ****         /* select EXTI0/EXTI1/EXTI2/EXTI3 */
 461:Drivers/GD32F30x_standard_peripheral/Source/gd32f30x_gpio.c ****         AFIO_EXTISS0 &= ~source;
 819              		.loc 1 461 9 is_stmt 1 view .LVU223
 820              		.loc 1 461 22 is_stmt 0 view .LVU224
 821 0010 1849     		ldr	r1, .L72
 822              	.LVL93:
 823              		.loc 1 461 22 view .LVU225
 824 0012 8C68     		ldr	r4, [r1, #8]
 825 0014 24EA0202 		bic	r2, r4, r2
 826              	.LVL94:
 827              		.loc 1 461 22 view .LVU226
 828 0018 8A60     		str	r2, [r1, #8]
 462:Drivers/GD32F30x_standard_peripheral/Source/gd32f30x_gpio.c ****         AFIO_EXTISS0 |= (((uint32_t)output_port) << (AFIO_EXTI_SOURCE_FIELDS * (output_pin & AFIO_E
 829              		.loc 1 462 9 is_stmt 1 view .LVU227
 830              		.loc 1 462 22 is_stmt 0 view .LVU228
 831 001a 8A68     		ldr	r2, [r1, #8]
 832              		.loc 1 462 50 view .LVU229
 833 001c 00FA03F3 		lsl	r3, r0, r3
 834              	.LVL95:
 835              		.loc 1 462 22 view .LVU230
 836 0020 1343     		orrs	r3, r3, r2
 837 0022 8B60     		str	r3, [r1, #8]
ARM GAS  C:\Users\Prog\AppData\Local\Temp\cc95E1bd.s 			page 25


 838              	.L66:
 463:Drivers/GD32F30x_standard_peripheral/Source/gd32f30x_gpio.c ****     }else if(GPIO_PIN_SOURCE_8 > output_pin){
 464:Drivers/GD32F30x_standard_peripheral/Source/gd32f30x_gpio.c ****         /* select EXTI4/EXTI5/EXTI6/EXTI7 */
 465:Drivers/GD32F30x_standard_peripheral/Source/gd32f30x_gpio.c ****         AFIO_EXTISS1 &= ~source;
 466:Drivers/GD32F30x_standard_peripheral/Source/gd32f30x_gpio.c ****         AFIO_EXTISS1 |= (((uint32_t)output_port) << (AFIO_EXTI_SOURCE_FIELDS * (output_pin & AFIO_E
 467:Drivers/GD32F30x_standard_peripheral/Source/gd32f30x_gpio.c ****     }else if(GPIO_PIN_SOURCE_12 > output_pin){
 468:Drivers/GD32F30x_standard_peripheral/Source/gd32f30x_gpio.c ****         /* select EXTI8/EXTI9/EXTI10/EXTI11 */
 469:Drivers/GD32F30x_standard_peripheral/Source/gd32f30x_gpio.c ****         AFIO_EXTISS2 &= ~source;
 470:Drivers/GD32F30x_standard_peripheral/Source/gd32f30x_gpio.c ****         AFIO_EXTISS2 |= (((uint32_t)output_port) << (AFIO_EXTI_SOURCE_FIELDS * (output_pin & AFIO_E
 471:Drivers/GD32F30x_standard_peripheral/Source/gd32f30x_gpio.c ****     }else{
 472:Drivers/GD32F30x_standard_peripheral/Source/gd32f30x_gpio.c ****         /* select EXTI12/EXTI13/EXTI14/EXTI15 */
 473:Drivers/GD32F30x_standard_peripheral/Source/gd32f30x_gpio.c ****         AFIO_EXTISS3 &= ~source;
 474:Drivers/GD32F30x_standard_peripheral/Source/gd32f30x_gpio.c ****         AFIO_EXTISS3 |= (((uint32_t)output_port) << (AFIO_EXTI_SOURCE_FIELDS * (output_pin & AFIO_E
 475:Drivers/GD32F30x_standard_peripheral/Source/gd32f30x_gpio.c ****     }
 476:Drivers/GD32F30x_standard_peripheral/Source/gd32f30x_gpio.c **** }
 839              		.loc 1 476 1 view .LVU231
 840 0024 5DF8044B 		ldr	r4, [sp], #4
 841              	.LCFI5:
 842              		.cfi_remember_state
 843              		.cfi_restore 4
 844              		.cfi_def_cfa_offset 0
 845 0028 7047     		bx	lr
 846              	.LVL96:
 847              	.L67:
 848              	.LCFI6:
 849              		.cfi_restore_state
 463:Drivers/GD32F30x_standard_peripheral/Source/gd32f30x_gpio.c ****     }else if(GPIO_PIN_SOURCE_8 > output_pin){
 850              		.loc 1 463 11 is_stmt 1 view .LVU232
 463:Drivers/GD32F30x_standard_peripheral/Source/gd32f30x_gpio.c ****     }else if(GPIO_PIN_SOURCE_8 > output_pin){
 851              		.loc 1 463 13 is_stmt 0 view .LVU233
 852 002a 0729     		cmp	r1, #7
 853 002c 0AD8     		bhi	.L69
 465:Drivers/GD32F30x_standard_peripheral/Source/gd32f30x_gpio.c ****         AFIO_EXTISS1 |= (((uint32_t)output_port) << (AFIO_EXTI_SOURCE_FIELDS * (output_pin & AFIO_E
 854              		.loc 1 465 9 is_stmt 1 view .LVU234
 465:Drivers/GD32F30x_standard_peripheral/Source/gd32f30x_gpio.c ****         AFIO_EXTISS1 |= (((uint32_t)output_port) << (AFIO_EXTI_SOURCE_FIELDS * (output_pin & AFIO_E
 855              		.loc 1 465 22 is_stmt 0 view .LVU235
 856 002e 1149     		ldr	r1, .L72
 857              	.LVL97:
 465:Drivers/GD32F30x_standard_peripheral/Source/gd32f30x_gpio.c ****         AFIO_EXTISS1 |= (((uint32_t)output_port) << (AFIO_EXTI_SOURCE_FIELDS * (output_pin & AFIO_E
 858              		.loc 1 465 22 view .LVU236
 859 0030 CC68     		ldr	r4, [r1, #12]
 860 0032 24EA0202 		bic	r2, r4, r2
 861              	.LVL98:
 465:Drivers/GD32F30x_standard_peripheral/Source/gd32f30x_gpio.c ****         AFIO_EXTISS1 |= (((uint32_t)output_port) << (AFIO_EXTI_SOURCE_FIELDS * (output_pin & AFIO_E
 862              		.loc 1 465 22 view .LVU237
 863 0036 CA60     		str	r2, [r1, #12]
 466:Drivers/GD32F30x_standard_peripheral/Source/gd32f30x_gpio.c ****     }else if(GPIO_PIN_SOURCE_12 > output_pin){
 864              		.loc 1 466 9 is_stmt 1 view .LVU238
 466:Drivers/GD32F30x_standard_peripheral/Source/gd32f30x_gpio.c ****     }else if(GPIO_PIN_SOURCE_12 > output_pin){
 865              		.loc 1 466 22 is_stmt 0 view .LVU239
 866 0038 CA68     		ldr	r2, [r1, #12]
 466:Drivers/GD32F30x_standard_peripheral/Source/gd32f30x_gpio.c ****     }else if(GPIO_PIN_SOURCE_12 > output_pin){
 867              		.loc 1 466 50 view .LVU240
 868 003a 00FA03F3 		lsl	r3, r0, r3
 869              	.LVL99:
 466:Drivers/GD32F30x_standard_peripheral/Source/gd32f30x_gpio.c ****     }else if(GPIO_PIN_SOURCE_12 > output_pin){
 870              		.loc 1 466 22 view .LVU241
ARM GAS  C:\Users\Prog\AppData\Local\Temp\cc95E1bd.s 			page 26


 871 003e 1343     		orrs	r3, r3, r2
 872 0040 CB60     		str	r3, [r1, #12]
 873 0042 EFE7     		b	.L66
 874              	.LVL100:
 875              	.L69:
 467:Drivers/GD32F30x_standard_peripheral/Source/gd32f30x_gpio.c ****         /* select EXTI8/EXTI9/EXTI10/EXTI11 */
 876              		.loc 1 467 11 is_stmt 1 view .LVU242
 467:Drivers/GD32F30x_standard_peripheral/Source/gd32f30x_gpio.c ****         /* select EXTI8/EXTI9/EXTI10/EXTI11 */
 877              		.loc 1 467 13 is_stmt 0 view .LVU243
 878 0044 0B29     		cmp	r1, #11
 879 0046 0AD8     		bhi	.L70
 469:Drivers/GD32F30x_standard_peripheral/Source/gd32f30x_gpio.c ****         AFIO_EXTISS2 |= (((uint32_t)output_port) << (AFIO_EXTI_SOURCE_FIELDS * (output_pin & AFIO_E
 880              		.loc 1 469 9 is_stmt 1 view .LVU244
 469:Drivers/GD32F30x_standard_peripheral/Source/gd32f30x_gpio.c ****         AFIO_EXTISS2 |= (((uint32_t)output_port) << (AFIO_EXTI_SOURCE_FIELDS * (output_pin & AFIO_E
 881              		.loc 1 469 22 is_stmt 0 view .LVU245
 882 0048 0A49     		ldr	r1, .L72
 883              	.LVL101:
 469:Drivers/GD32F30x_standard_peripheral/Source/gd32f30x_gpio.c ****         AFIO_EXTISS2 |= (((uint32_t)output_port) << (AFIO_EXTI_SOURCE_FIELDS * (output_pin & AFIO_E
 884              		.loc 1 469 22 view .LVU246
 885 004a 0C69     		ldr	r4, [r1, #16]
 886 004c 24EA0202 		bic	r2, r4, r2
 887              	.LVL102:
 469:Drivers/GD32F30x_standard_peripheral/Source/gd32f30x_gpio.c ****         AFIO_EXTISS2 |= (((uint32_t)output_port) << (AFIO_EXTI_SOURCE_FIELDS * (output_pin & AFIO_E
 888              		.loc 1 469 22 view .LVU247
 889 0050 0A61     		str	r2, [r1, #16]
 470:Drivers/GD32F30x_standard_peripheral/Source/gd32f30x_gpio.c ****     }else{
 890              		.loc 1 470 9 is_stmt 1 view .LVU248
 470:Drivers/GD32F30x_standard_peripheral/Source/gd32f30x_gpio.c ****     }else{
 891              		.loc 1 470 22 is_stmt 0 view .LVU249
 892 0052 0A69     		ldr	r2, [r1, #16]
 470:Drivers/GD32F30x_standard_peripheral/Source/gd32f30x_gpio.c ****     }else{
 893              		.loc 1 470 50 view .LVU250
 894 0054 00FA03F3 		lsl	r3, r0, r3
 895              	.LVL103:
 470:Drivers/GD32F30x_standard_peripheral/Source/gd32f30x_gpio.c ****     }else{
 896              		.loc 1 470 22 view .LVU251
 897 0058 1343     		orrs	r3, r3, r2
 898 005a 0B61     		str	r3, [r1, #16]
 899 005c E2E7     		b	.L66
 900              	.LVL104:
 901              	.L70:
 473:Drivers/GD32F30x_standard_peripheral/Source/gd32f30x_gpio.c ****         AFIO_EXTISS3 |= (((uint32_t)output_port) << (AFIO_EXTI_SOURCE_FIELDS * (output_pin & AFIO_E
 902              		.loc 1 473 9 is_stmt 1 view .LVU252
 473:Drivers/GD32F30x_standard_peripheral/Source/gd32f30x_gpio.c ****         AFIO_EXTISS3 |= (((uint32_t)output_port) << (AFIO_EXTI_SOURCE_FIELDS * (output_pin & AFIO_E
 903              		.loc 1 473 22 is_stmt 0 view .LVU253
 904 005e 0549     		ldr	r1, .L72
 905              	.LVL105:
 473:Drivers/GD32F30x_standard_peripheral/Source/gd32f30x_gpio.c ****         AFIO_EXTISS3 |= (((uint32_t)output_port) << (AFIO_EXTI_SOURCE_FIELDS * (output_pin & AFIO_E
 906              		.loc 1 473 22 view .LVU254
 907 0060 4C69     		ldr	r4, [r1, #20]
 908 0062 24EA0202 		bic	r2, r4, r2
 909              	.LVL106:
 473:Drivers/GD32F30x_standard_peripheral/Source/gd32f30x_gpio.c ****         AFIO_EXTISS3 |= (((uint32_t)output_port) << (AFIO_EXTI_SOURCE_FIELDS * (output_pin & AFIO_E
 910              		.loc 1 473 22 view .LVU255
 911 0066 4A61     		str	r2, [r1, #20]
 474:Drivers/GD32F30x_standard_peripheral/Source/gd32f30x_gpio.c ****     }
 912              		.loc 1 474 9 is_stmt 1 view .LVU256
ARM GAS  C:\Users\Prog\AppData\Local\Temp\cc95E1bd.s 			page 27


 474:Drivers/GD32F30x_standard_peripheral/Source/gd32f30x_gpio.c ****     }
 913              		.loc 1 474 22 is_stmt 0 view .LVU257
 914 0068 4A69     		ldr	r2, [r1, #20]
 474:Drivers/GD32F30x_standard_peripheral/Source/gd32f30x_gpio.c ****     }
 915              		.loc 1 474 50 view .LVU258
 916 006a 00FA03F3 		lsl	r3, r0, r3
 917              	.LVL107:
 474:Drivers/GD32F30x_standard_peripheral/Source/gd32f30x_gpio.c ****     }
 918              		.loc 1 474 22 view .LVU259
 919 006e 1343     		orrs	r3, r3, r2
 920 0070 4B61     		str	r3, [r1, #20]
 921              		.loc 1 476 1 view .LVU260
 922 0072 D7E7     		b	.L66
 923              	.L73:
 924              		.align	2
 925              	.L72:
 926 0074 00000140 		.word	1073807360
 927              		.cfi_endproc
 928              	.LFE128:
 930              		.section	.text.gpio_event_output_config,"ax",%progbits
 931              		.align	1
 932              		.global	gpio_event_output_config
 933              		.syntax unified
 934              		.thumb
 935              		.thumb_func
 936              		.fpu fpv4-sp-d16
 938              	gpio_event_output_config:
 939              	.LVL108:
 940              	.LFB129:
 477:Drivers/GD32F30x_standard_peripheral/Source/gd32f30x_gpio.c **** 
 478:Drivers/GD32F30x_standard_peripheral/Source/gd32f30x_gpio.c **** /*!
 479:Drivers/GD32F30x_standard_peripheral/Source/gd32f30x_gpio.c ****     \brief      configure GPIO pin event output
 480:Drivers/GD32F30x_standard_peripheral/Source/gd32f30x_gpio.c ****     \param[in]  output_port: gpio event output port
 481:Drivers/GD32F30x_standard_peripheral/Source/gd32f30x_gpio.c ****                 only one parameter can be selected which are shown as below:
 482:Drivers/GD32F30x_standard_peripheral/Source/gd32f30x_gpio.c ****       \arg        GPIO_EVENT_PORT_GPIOA: event output port A
 483:Drivers/GD32F30x_standard_peripheral/Source/gd32f30x_gpio.c ****       \arg        GPIO_EVENT_PORT_GPIOB: event output port B
 484:Drivers/GD32F30x_standard_peripheral/Source/gd32f30x_gpio.c ****       \arg        GPIO_EVENT_PORT_GPIOC: event output port C
 485:Drivers/GD32F30x_standard_peripheral/Source/gd32f30x_gpio.c ****       \arg        GPIO_EVENT_PORT_GPIOD: event output port D
 486:Drivers/GD32F30x_standard_peripheral/Source/gd32f30x_gpio.c ****       \arg        GPIO_EVENT_PORT_GPIOE: event output port E
 487:Drivers/GD32F30x_standard_peripheral/Source/gd32f30x_gpio.c ****     \param[in]  output_pin: GPIO event output pin
 488:Drivers/GD32F30x_standard_peripheral/Source/gd32f30x_gpio.c ****                 only one parameter can be selected which are shown as below:
 489:Drivers/GD32F30x_standard_peripheral/Source/gd32f30x_gpio.c ****       \arg        GPIO_EVENT_PIN_x(x=0..15)
 490:Drivers/GD32F30x_standard_peripheral/Source/gd32f30x_gpio.c ****     \param[out] none
 491:Drivers/GD32F30x_standard_peripheral/Source/gd32f30x_gpio.c ****     \retval     none
 492:Drivers/GD32F30x_standard_peripheral/Source/gd32f30x_gpio.c **** */
 493:Drivers/GD32F30x_standard_peripheral/Source/gd32f30x_gpio.c **** void gpio_event_output_config(uint8_t output_port, uint8_t output_pin)
 494:Drivers/GD32F30x_standard_peripheral/Source/gd32f30x_gpio.c **** {
 941              		.loc 1 494 1 is_stmt 1 view -0
 942              		.cfi_startproc
 943              		@ args = 0, pretend = 0, frame = 0
 944              		@ frame_needed = 0, uses_anonymous_args = 0
 945              		@ link register save eliminated.
 495:Drivers/GD32F30x_standard_peripheral/Source/gd32f30x_gpio.c ****     uint32_t reg = 0U;
 946              		.loc 1 495 5 view .LVU262
 496:Drivers/GD32F30x_standard_peripheral/Source/gd32f30x_gpio.c ****     reg = AFIO_EC;
 947              		.loc 1 496 5 view .LVU263
 948              		.loc 1 496 9 is_stmt 0 view .LVU264
ARM GAS  C:\Users\Prog\AppData\Local\Temp\cc95E1bd.s 			page 28


 949 0000 044A     		ldr	r2, .L75
 950 0002 1368     		ldr	r3, [r2]
 951              	.LVL109:
 497:Drivers/GD32F30x_standard_peripheral/Source/gd32f30x_gpio.c ****     
 498:Drivers/GD32F30x_standard_peripheral/Source/gd32f30x_gpio.c ****     /* clear AFIO_EC_PORT and AFIO_EC_PIN bits */
 499:Drivers/GD32F30x_standard_peripheral/Source/gd32f30x_gpio.c ****     reg &= (uint32_t)(~(AFIO_EC_PORT|AFIO_EC_PIN));
 952              		.loc 1 499 5 is_stmt 1 view .LVU265
 953              		.loc 1 499 9 is_stmt 0 view .LVU266
 954 0004 23F07F03 		bic	r3, r3, #127
 955              	.LVL110:
 500:Drivers/GD32F30x_standard_peripheral/Source/gd32f30x_gpio.c ****     
 501:Drivers/GD32F30x_standard_peripheral/Source/gd32f30x_gpio.c ****     reg |= (uint32_t)((uint32_t)output_port << GPIO_OUTPUT_PORT_OFFSET);
 956              		.loc 1 501 5 is_stmt 1 view .LVU267
 957              		.loc 1 501 9 is_stmt 0 view .LVU268
 958 0008 43EA0013 		orr	r3, r3, r0, lsl #4
 959              	.LVL111:
 502:Drivers/GD32F30x_standard_peripheral/Source/gd32f30x_gpio.c ****     reg |= (uint32_t)output_pin;
 960              		.loc 1 502 5 is_stmt 1 view .LVU269
 961              		.loc 1 502 9 is_stmt 0 view .LVU270
 962 000c 0B43     		orrs	r3, r3, r1
 963              	.LVL112:
 503:Drivers/GD32F30x_standard_peripheral/Source/gd32f30x_gpio.c ****     
 504:Drivers/GD32F30x_standard_peripheral/Source/gd32f30x_gpio.c ****     AFIO_EC = reg;
 964              		.loc 1 504 5 is_stmt 1 view .LVU271
 965              		.loc 1 504 13 is_stmt 0 view .LVU272
 966 000e 1360     		str	r3, [r2]
 505:Drivers/GD32F30x_standard_peripheral/Source/gd32f30x_gpio.c **** }
 967              		.loc 1 505 1 view .LVU273
 968 0010 7047     		bx	lr
 969              	.L76:
 970 0012 00BF     		.align	2
 971              	.L75:
 972 0014 00000140 		.word	1073807360
 973              		.cfi_endproc
 974              	.LFE129:
 976              		.section	.text.gpio_event_output_enable,"ax",%progbits
 977              		.align	1
 978              		.global	gpio_event_output_enable
 979              		.syntax unified
 980              		.thumb
 981              		.thumb_func
 982              		.fpu fpv4-sp-d16
 984              	gpio_event_output_enable:
 985              	.LFB130:
 506:Drivers/GD32F30x_standard_peripheral/Source/gd32f30x_gpio.c **** 
 507:Drivers/GD32F30x_standard_peripheral/Source/gd32f30x_gpio.c **** /*!
 508:Drivers/GD32F30x_standard_peripheral/Source/gd32f30x_gpio.c ****     \brief      enable GPIO pin event output
 509:Drivers/GD32F30x_standard_peripheral/Source/gd32f30x_gpio.c ****     \param[in]  none
 510:Drivers/GD32F30x_standard_peripheral/Source/gd32f30x_gpio.c ****     \param[out] none
 511:Drivers/GD32F30x_standard_peripheral/Source/gd32f30x_gpio.c ****     \retval     none
 512:Drivers/GD32F30x_standard_peripheral/Source/gd32f30x_gpio.c **** */
 513:Drivers/GD32F30x_standard_peripheral/Source/gd32f30x_gpio.c **** void gpio_event_output_enable(void)
 514:Drivers/GD32F30x_standard_peripheral/Source/gd32f30x_gpio.c **** {
 986              		.loc 1 514 1 is_stmt 1 view -0
 987              		.cfi_startproc
 988              		@ args = 0, pretend = 0, frame = 0
 989              		@ frame_needed = 0, uses_anonymous_args = 0
ARM GAS  C:\Users\Prog\AppData\Local\Temp\cc95E1bd.s 			page 29


 990              		@ link register save eliminated.
 515:Drivers/GD32F30x_standard_peripheral/Source/gd32f30x_gpio.c ****     AFIO_EC |= AFIO_EC_EOE;
 991              		.loc 1 515 5 view .LVU275
 992              		.loc 1 515 13 is_stmt 0 view .LVU276
 993 0000 024A     		ldr	r2, .L78
 994 0002 1368     		ldr	r3, [r2]
 995 0004 43F08003 		orr	r3, r3, #128
 996 0008 1360     		str	r3, [r2]
 516:Drivers/GD32F30x_standard_peripheral/Source/gd32f30x_gpio.c **** }
 997              		.loc 1 516 1 view .LVU277
 998 000a 7047     		bx	lr
 999              	.L79:
 1000              		.align	2
 1001              	.L78:
 1002 000c 00000140 		.word	1073807360
 1003              		.cfi_endproc
 1004              	.LFE130:
 1006              		.section	.text.gpio_event_output_disable,"ax",%progbits
 1007              		.align	1
 1008              		.global	gpio_event_output_disable
 1009              		.syntax unified
 1010              		.thumb
 1011              		.thumb_func
 1012              		.fpu fpv4-sp-d16
 1014              	gpio_event_output_disable:
 1015              	.LFB131:
 517:Drivers/GD32F30x_standard_peripheral/Source/gd32f30x_gpio.c **** 
 518:Drivers/GD32F30x_standard_peripheral/Source/gd32f30x_gpio.c **** /*!
 519:Drivers/GD32F30x_standard_peripheral/Source/gd32f30x_gpio.c ****     \brief      disable GPIO pin event output
 520:Drivers/GD32F30x_standard_peripheral/Source/gd32f30x_gpio.c ****     \param[in]  none
 521:Drivers/GD32F30x_standard_peripheral/Source/gd32f30x_gpio.c ****     \param[out] none
 522:Drivers/GD32F30x_standard_peripheral/Source/gd32f30x_gpio.c ****     \retval     none
 523:Drivers/GD32F30x_standard_peripheral/Source/gd32f30x_gpio.c **** */
 524:Drivers/GD32F30x_standard_peripheral/Source/gd32f30x_gpio.c **** void gpio_event_output_disable(void)
 525:Drivers/GD32F30x_standard_peripheral/Source/gd32f30x_gpio.c **** {
 1016              		.loc 1 525 1 is_stmt 1 view -0
 1017              		.cfi_startproc
 1018              		@ args = 0, pretend = 0, frame = 0
 1019              		@ frame_needed = 0, uses_anonymous_args = 0
 1020              		@ link register save eliminated.
 526:Drivers/GD32F30x_standard_peripheral/Source/gd32f30x_gpio.c ****     AFIO_EC &= (uint32_t)(~AFIO_EC_EOE);
 1021              		.loc 1 526 5 view .LVU279
 1022              		.loc 1 526 13 is_stmt 0 view .LVU280
 1023 0000 024A     		ldr	r2, .L81
 1024 0002 1368     		ldr	r3, [r2]
 1025 0004 23F08003 		bic	r3, r3, #128
 1026 0008 1360     		str	r3, [r2]
 527:Drivers/GD32F30x_standard_peripheral/Source/gd32f30x_gpio.c **** }
 1027              		.loc 1 527 1 view .LVU281
 1028 000a 7047     		bx	lr
 1029              	.L82:
 1030              		.align	2
 1031              	.L81:
 1032 000c 00000140 		.word	1073807360
 1033              		.cfi_endproc
 1034              	.LFE131:
 1036              		.section	.text.gpio_pin_lock,"ax",%progbits
ARM GAS  C:\Users\Prog\AppData\Local\Temp\cc95E1bd.s 			page 30


 1037              		.align	1
 1038              		.global	gpio_pin_lock
 1039              		.syntax unified
 1040              		.thumb
 1041              		.thumb_func
 1042              		.fpu fpv4-sp-d16
 1044              	gpio_pin_lock:
 1045              	.LVL113:
 1046              	.LFB132:
 528:Drivers/GD32F30x_standard_peripheral/Source/gd32f30x_gpio.c **** 
 529:Drivers/GD32F30x_standard_peripheral/Source/gd32f30x_gpio.c **** /*!
 530:Drivers/GD32F30x_standard_peripheral/Source/gd32f30x_gpio.c ****     \brief      lock GPIO pin
 531:Drivers/GD32F30x_standard_peripheral/Source/gd32f30x_gpio.c ****     \param[in]  gpio_periph: GPIOx(x = A,B,C,D,E,F,G)
 532:Drivers/GD32F30x_standard_peripheral/Source/gd32f30x_gpio.c ****     \param[in]  pin: GPIO pin
 533:Drivers/GD32F30x_standard_peripheral/Source/gd32f30x_gpio.c ****                 one or more parameters can be selected which are shown as below:
 534:Drivers/GD32F30x_standard_peripheral/Source/gd32f30x_gpio.c ****       \arg        GPIO_PIN_x(x=0..15), GPIO_PIN_ALL
 535:Drivers/GD32F30x_standard_peripheral/Source/gd32f30x_gpio.c ****     \param[out] none
 536:Drivers/GD32F30x_standard_peripheral/Source/gd32f30x_gpio.c ****     \retval     none
 537:Drivers/GD32F30x_standard_peripheral/Source/gd32f30x_gpio.c **** */
 538:Drivers/GD32F30x_standard_peripheral/Source/gd32f30x_gpio.c **** void gpio_pin_lock(uint32_t gpio_periph,uint32_t pin)
 539:Drivers/GD32F30x_standard_peripheral/Source/gd32f30x_gpio.c **** {
 1047              		.loc 1 539 1 is_stmt 1 view -0
 1048              		.cfi_startproc
 1049              		@ args = 0, pretend = 0, frame = 0
 1050              		@ frame_needed = 0, uses_anonymous_args = 0
 1051              		@ link register save eliminated.
 540:Drivers/GD32F30x_standard_peripheral/Source/gd32f30x_gpio.c ****     uint32_t lock = 0x00010000U;
 1052              		.loc 1 540 5 view .LVU283
 541:Drivers/GD32F30x_standard_peripheral/Source/gd32f30x_gpio.c ****     lock |= pin;
 1053              		.loc 1 541 5 view .LVU284
 1054              		.loc 1 541 10 is_stmt 0 view .LVU285
 1055 0000 41F48033 		orr	r3, r1, #65536
 1056              	.LVL114:
 542:Drivers/GD32F30x_standard_peripheral/Source/gd32f30x_gpio.c **** 
 543:Drivers/GD32F30x_standard_peripheral/Source/gd32f30x_gpio.c ****     /* lock key writing sequence: write 1 -> write 0 -> write 1 -> read 0 -> read 1 */
 544:Drivers/GD32F30x_standard_peripheral/Source/gd32f30x_gpio.c ****     GPIO_LOCK(gpio_periph) = (uint32_t)lock;
 1057              		.loc 1 544 5 is_stmt 1 view .LVU286
 1058              		.loc 1 544 28 is_stmt 0 view .LVU287
 1059 0004 8361     		str	r3, [r0, #24]
 545:Drivers/GD32F30x_standard_peripheral/Source/gd32f30x_gpio.c ****     GPIO_LOCK(gpio_periph) = (uint32_t)pin;
 1060              		.loc 1 545 5 is_stmt 1 view .LVU288
 1061              		.loc 1 545 28 is_stmt 0 view .LVU289
 1062 0006 8161     		str	r1, [r0, #24]
 546:Drivers/GD32F30x_standard_peripheral/Source/gd32f30x_gpio.c ****     GPIO_LOCK(gpio_periph) = (uint32_t)lock;
 1063              		.loc 1 546 5 is_stmt 1 view .LVU290
 1064              		.loc 1 546 28 is_stmt 0 view .LVU291
 1065 0008 8361     		str	r3, [r0, #24]
 547:Drivers/GD32F30x_standard_peripheral/Source/gd32f30x_gpio.c ****     lock = GPIO_LOCK(gpio_periph);
 1066              		.loc 1 547 5 is_stmt 1 view .LVU292
 1067              		.loc 1 547 10 is_stmt 0 view .LVU293
 1068 000a 8369     		ldr	r3, [r0, #24]
 1069              	.LVL115:
 548:Drivers/GD32F30x_standard_peripheral/Source/gd32f30x_gpio.c ****     lock = GPIO_LOCK(gpio_periph);
 1070              		.loc 1 548 5 is_stmt 1 view .LVU294
 1071              		.loc 1 548 10 is_stmt 0 view .LVU295
 1072 000c 8369     		ldr	r3, [r0, #24]
 549:Drivers/GD32F30x_standard_peripheral/Source/gd32f30x_gpio.c **** }
ARM GAS  C:\Users\Prog\AppData\Local\Temp\cc95E1bd.s 			page 31


 1073              		.loc 1 549 1 view .LVU296
 1074 000e 7047     		bx	lr
 1075              		.cfi_endproc
 1076              	.LFE132:
 1078              		.section	.text.gpio_compensation_config,"ax",%progbits
 1079              		.align	1
 1080              		.global	gpio_compensation_config
 1081              		.syntax unified
 1082              		.thumb
 1083              		.thumb_func
 1084              		.fpu fpv4-sp-d16
 1086              	gpio_compensation_config:
 1087              	.LVL116:
 1088              	.LFB133:
 550:Drivers/GD32F30x_standard_peripheral/Source/gd32f30x_gpio.c **** 
 551:Drivers/GD32F30x_standard_peripheral/Source/gd32f30x_gpio.c **** /*!
 552:Drivers/GD32F30x_standard_peripheral/Source/gd32f30x_gpio.c ****     \brief      configure the I/O compensation cell
 553:Drivers/GD32F30x_standard_peripheral/Source/gd32f30x_gpio.c ****     \param[in]  compensation: specifies the I/O compensation cell mode
 554:Drivers/GD32F30x_standard_peripheral/Source/gd32f30x_gpio.c ****                 only one parameter can be selected which are shown as below:
 555:Drivers/GD32F30x_standard_peripheral/Source/gd32f30x_gpio.c ****       \arg        GPIO_COMPENSATION_ENABLE: I/O compensation cell is enabled
 556:Drivers/GD32F30x_standard_peripheral/Source/gd32f30x_gpio.c ****       \arg        GPIO_COMPENSATION_DISABLE: I/O compensation cell is disabled
 557:Drivers/GD32F30x_standard_peripheral/Source/gd32f30x_gpio.c ****     \param[out] none
 558:Drivers/GD32F30x_standard_peripheral/Source/gd32f30x_gpio.c ****     \retval     none
 559:Drivers/GD32F30x_standard_peripheral/Source/gd32f30x_gpio.c **** */
 560:Drivers/GD32F30x_standard_peripheral/Source/gd32f30x_gpio.c **** void gpio_compensation_config(uint32_t compensation)
 561:Drivers/GD32F30x_standard_peripheral/Source/gd32f30x_gpio.c **** {
 1089              		.loc 1 561 1 is_stmt 1 view -0
 1090              		.cfi_startproc
 1091              		@ args = 0, pretend = 0, frame = 0
 1092              		@ frame_needed = 0, uses_anonymous_args = 0
 1093              		@ link register save eliminated.
 562:Drivers/GD32F30x_standard_peripheral/Source/gd32f30x_gpio.c ****     uint32_t reg;
 1094              		.loc 1 562 5 view .LVU298
 563:Drivers/GD32F30x_standard_peripheral/Source/gd32f30x_gpio.c ****     reg = AFIO_CPSCTL;
 1095              		.loc 1 563 5 view .LVU299
 1096              		.loc 1 563 9 is_stmt 0 view .LVU300
 1097 0000 034A     		ldr	r2, .L85
 1098 0002 136A     		ldr	r3, [r2, #32]
 1099              	.LVL117:
 564:Drivers/GD32F30x_standard_peripheral/Source/gd32f30x_gpio.c **** 
 565:Drivers/GD32F30x_standard_peripheral/Source/gd32f30x_gpio.c ****     /* reset the AFIO_CPSCTL_CPS_EN bit and set according to gpio_compensation */
 566:Drivers/GD32F30x_standard_peripheral/Source/gd32f30x_gpio.c ****     reg &= ~AFIO_CPSCTL_CPS_EN;
 1100              		.loc 1 566 5 is_stmt 1 view .LVU301
 1101              		.loc 1 566 9 is_stmt 0 view .LVU302
 1102 0004 23F00103 		bic	r3, r3, #1
 1103              	.LVL118:
 567:Drivers/GD32F30x_standard_peripheral/Source/gd32f30x_gpio.c ****     AFIO_CPSCTL = (reg | compensation);
 1104              		.loc 1 567 5 is_stmt 1 view .LVU303
 1105              		.loc 1 567 24 is_stmt 0 view .LVU304
 1106 0008 0343     		orrs	r3, r3, r0
 1107              	.LVL119:
 1108              		.loc 1 567 17 view .LVU305
 1109 000a 1362     		str	r3, [r2, #32]
 568:Drivers/GD32F30x_standard_peripheral/Source/gd32f30x_gpio.c **** }
 1110              		.loc 1 568 1 view .LVU306
 1111 000c 7047     		bx	lr
 1112              	.L86:
ARM GAS  C:\Users\Prog\AppData\Local\Temp\cc95E1bd.s 			page 32


 1113 000e 00BF     		.align	2
 1114              	.L85:
 1115 0010 00000140 		.word	1073807360
 1116              		.cfi_endproc
 1117              	.LFE133:
 1119              		.section	.text.gpio_compensation_flag_get,"ax",%progbits
 1120              		.align	1
 1121              		.global	gpio_compensation_flag_get
 1122              		.syntax unified
 1123              		.thumb
 1124              		.thumb_func
 1125              		.fpu fpv4-sp-d16
 1127              	gpio_compensation_flag_get:
 1128              	.LFB134:
 569:Drivers/GD32F30x_standard_peripheral/Source/gd32f30x_gpio.c **** 
 570:Drivers/GD32F30x_standard_peripheral/Source/gd32f30x_gpio.c **** /*!
 571:Drivers/GD32F30x_standard_peripheral/Source/gd32f30x_gpio.c ****     \brief      check the I/O compensation cell is ready or not
 572:Drivers/GD32F30x_standard_peripheral/Source/gd32f30x_gpio.c ****     \param[in]  none
 573:Drivers/GD32F30x_standard_peripheral/Source/gd32f30x_gpio.c ****     \param[out] none
 574:Drivers/GD32F30x_standard_peripheral/Source/gd32f30x_gpio.c ****     \retval     FlagStatus: SET or RESET
 575:Drivers/GD32F30x_standard_peripheral/Source/gd32f30x_gpio.c ****   */
 576:Drivers/GD32F30x_standard_peripheral/Source/gd32f30x_gpio.c **** FlagStatus gpio_compensation_flag_get(void)
 577:Drivers/GD32F30x_standard_peripheral/Source/gd32f30x_gpio.c **** {
 1129              		.loc 1 577 1 is_stmt 1 view -0
 1130              		.cfi_startproc
 1131              		@ args = 0, pretend = 0, frame = 0
 1132              		@ frame_needed = 0, uses_anonymous_args = 0
 1133              		@ link register save eliminated.
 578:Drivers/GD32F30x_standard_peripheral/Source/gd32f30x_gpio.c ****     if(((uint32_t)RESET) != (AFIO_CPSCTL & AFIO_CPSCTL_CPS_RDY)){
 1134              		.loc 1 578 5 view .LVU308
 1135              		.loc 1 578 30 is_stmt 0 view .LVU309
 1136 0000 044B     		ldr	r3, .L90
 1137 0002 1B6A     		ldr	r3, [r3, #32]
 1138              		.loc 1 578 7 view .LVU310
 1139 0004 13F4807F 		tst	r3, #256
 1140 0008 01D0     		beq	.L89
 579:Drivers/GD32F30x_standard_peripheral/Source/gd32f30x_gpio.c ****         return SET;
 1141              		.loc 1 579 16 view .LVU311
 1142 000a 0120     		movs	r0, #1
 1143 000c 7047     		bx	lr
 1144              	.L89:
 580:Drivers/GD32F30x_standard_peripheral/Source/gd32f30x_gpio.c ****     }else{
 581:Drivers/GD32F30x_standard_peripheral/Source/gd32f30x_gpio.c ****         return RESET;
 1145              		.loc 1 581 16 view .LVU312
 1146 000e 0020     		movs	r0, #0
 582:Drivers/GD32F30x_standard_peripheral/Source/gd32f30x_gpio.c ****     }
 583:Drivers/GD32F30x_standard_peripheral/Source/gd32f30x_gpio.c **** }
 1147              		.loc 1 583 1 view .LVU313
 1148 0010 7047     		bx	lr
 1149              	.L91:
 1150 0012 00BF     		.align	2
 1151              	.L90:
 1152 0014 00000140 		.word	1073807360
 1153              		.cfi_endproc
 1154              	.LFE134:
 1156              		.text
 1157              	.Letext0:
ARM GAS  C:\Users\Prog\AppData\Local\Temp\cc95E1bd.s 			page 33


 1158              		.file 2 "c:\\programdata\\chocolatey\\lib\\gcc-arm-embedded\\tools\\gcc-arm-none-eabi-10-2020-q4-m
 1159              		.file 3 "c:\\programdata\\chocolatey\\lib\\gcc-arm-embedded\\tools\\gcc-arm-none-eabi-10-2020-q4-m
 1160              		.file 4 "Drivers/CMSIS/GD/GD32F30x/Include/gd32f30x.h"
 1161              		.file 5 "Drivers/GD32F30x_standard_peripheral/Include/gd32f30x_rcu.h"
 1162              		.file 6 "Drivers/GD32F30x_standard_peripheral/Include/gd32f30x_gpio.h"
ARM GAS  C:\Users\Prog\AppData\Local\Temp\cc95E1bd.s 			page 34

