ARM GAS  C:\Users\Prog\AppData\Local\Temp\ccKGkBSd.s 			page 1


   1              		.cpu cortex-m4
   2              		.eabi_attribute 27, 1
   3              		.eabi_attribute 28, 1
   4              		.eabi_attribute 20, 1
   5              		.eabi_attribute 21, 1
   6              		.eabi_attribute 23, 3
   7              		.eabi_attribute 24, 1
   8              		.eabi_attribute 25, 1
   9              		.eabi_attribute 26, 1
  10              		.eabi_attribute 30, 1
  11              		.eabi_attribute 34, 1
  12              		.eabi_attribute 18, 4
  13              		.file	"gd32f30x_sdio.c"
  14              		.text
  15              	.Ltext0:
  16              		.cfi_sections	.debug_frame
  17              		.section	.text.sdio_deinit,"ax",%progbits
  18              		.align	1
  19              		.global	sdio_deinit
  20              		.arch armv7e-m
  21              		.syntax unified
  22              		.thumb
  23              		.thumb_func
  24              		.fpu fpv4-sp-d16
  26              	sdio_deinit:
  27              	.LFB116:
  28              		.file 1 "Drivers/GD32F30x_standard_peripheral/Source/gd32f30x_sdio.c"
   1:Drivers/GD32F30x_standard_peripheral/Source/gd32f30x_sdio.c **** /*!
   2:Drivers/GD32F30x_standard_peripheral/Source/gd32f30x_sdio.c ****     \file    gd32f30x_sdio.c
   3:Drivers/GD32F30x_standard_peripheral/Source/gd32f30x_sdio.c ****     \brief   SDIO driver
   4:Drivers/GD32F30x_standard_peripheral/Source/gd32f30x_sdio.c **** 
   5:Drivers/GD32F30x_standard_peripheral/Source/gd32f30x_sdio.c ****     \version 2017-02-10, V1.0.0, firmware for GD32F30x
   6:Drivers/GD32F30x_standard_peripheral/Source/gd32f30x_sdio.c ****     \version 2018-10-10, V1.1.0, firmware for GD32F30x
   7:Drivers/GD32F30x_standard_peripheral/Source/gd32f30x_sdio.c ****     \version 2018-12-25, V2.0.0, firmware for GD32F30x
   8:Drivers/GD32F30x_standard_peripheral/Source/gd32f30x_sdio.c ****     \version 2020-09-30, V2.1.0, firmware for GD32F30x
   9:Drivers/GD32F30x_standard_peripheral/Source/gd32f30x_sdio.c **** */
  10:Drivers/GD32F30x_standard_peripheral/Source/gd32f30x_sdio.c **** 
  11:Drivers/GD32F30x_standard_peripheral/Source/gd32f30x_sdio.c **** /*
  12:Drivers/GD32F30x_standard_peripheral/Source/gd32f30x_sdio.c ****     Copyright (c) 2020, GigaDevice Semiconductor Inc.
  13:Drivers/GD32F30x_standard_peripheral/Source/gd32f30x_sdio.c **** 
  14:Drivers/GD32F30x_standard_peripheral/Source/gd32f30x_sdio.c ****     Redistribution and use in source and binary forms, with or without modification, 
  15:Drivers/GD32F30x_standard_peripheral/Source/gd32f30x_sdio.c **** are permitted provided that the following conditions are met:
  16:Drivers/GD32F30x_standard_peripheral/Source/gd32f30x_sdio.c **** 
  17:Drivers/GD32F30x_standard_peripheral/Source/gd32f30x_sdio.c ****     1. Redistributions of source code must retain the above copyright notice, this 
  18:Drivers/GD32F30x_standard_peripheral/Source/gd32f30x_sdio.c ****        list of conditions and the following disclaimer.
  19:Drivers/GD32F30x_standard_peripheral/Source/gd32f30x_sdio.c ****     2. Redistributions in binary form must reproduce the above copyright notice, 
  20:Drivers/GD32F30x_standard_peripheral/Source/gd32f30x_sdio.c ****        this list of conditions and the following disclaimer in the documentation 
  21:Drivers/GD32F30x_standard_peripheral/Source/gd32f30x_sdio.c ****        and/or other materials provided with the distribution.
  22:Drivers/GD32F30x_standard_peripheral/Source/gd32f30x_sdio.c ****     3. Neither the name of the copyright holder nor the names of its contributors 
  23:Drivers/GD32F30x_standard_peripheral/Source/gd32f30x_sdio.c ****        may be used to endorse or promote products derived from this software without 
  24:Drivers/GD32F30x_standard_peripheral/Source/gd32f30x_sdio.c ****        specific prior written permission.
  25:Drivers/GD32F30x_standard_peripheral/Source/gd32f30x_sdio.c **** 
  26:Drivers/GD32F30x_standard_peripheral/Source/gd32f30x_sdio.c ****     THIS SOFTWARE IS PROVIDED BY THE COPYRIGHT HOLDERS AND CONTRIBUTORS "AS IS" 
  27:Drivers/GD32F30x_standard_peripheral/Source/gd32f30x_sdio.c **** AND ANY EXPRESS OR IMPLIED WARRANTIES, INCLUDING, BUT NOT LIMITED TO, THE IMPLIED 
  28:Drivers/GD32F30x_standard_peripheral/Source/gd32f30x_sdio.c **** WARRANTIES OF MERCHANTABILITY AND FITNESS FOR A PARTICULAR PURPOSE ARE DISCLAIMED. 
  29:Drivers/GD32F30x_standard_peripheral/Source/gd32f30x_sdio.c **** IN NO EVENT SHALL THE COPYRIGHT HOLDER OR CONTRIBUTORS BE LIABLE FOR ANY DIRECT, 
  30:Drivers/GD32F30x_standard_peripheral/Source/gd32f30x_sdio.c **** INDIRECT, INCIDENTAL, SPECIAL, EXEMPLARY, OR CONSEQUENTIAL DAMAGES (INCLUDING, BUT 
ARM GAS  C:\Users\Prog\AppData\Local\Temp\ccKGkBSd.s 			page 2


  31:Drivers/GD32F30x_standard_peripheral/Source/gd32f30x_sdio.c **** NOT LIMITED TO, PROCUREMENT OF SUBSTITUTE GOODS OR SERVICES; LOSS OF USE, DATA, OR 
  32:Drivers/GD32F30x_standard_peripheral/Source/gd32f30x_sdio.c **** PROFITS; OR BUSINESS INTERRUPTION) HOWEVER CAUSED AND ON ANY THEORY OF LIABILITY, 
  33:Drivers/GD32F30x_standard_peripheral/Source/gd32f30x_sdio.c **** WHETHER IN CONTRACT, STRICT LIABILITY, OR TORT (INCLUDING NEGLIGENCE OR OTHERWISE) 
  34:Drivers/GD32F30x_standard_peripheral/Source/gd32f30x_sdio.c **** ARISING IN ANY WAY OUT OF THE USE OF THIS SOFTWARE, EVEN IF ADVISED OF THE POSSIBILITY 
  35:Drivers/GD32F30x_standard_peripheral/Source/gd32f30x_sdio.c **** OF SUCH DAMAGE.
  36:Drivers/GD32F30x_standard_peripheral/Source/gd32f30x_sdio.c **** */
  37:Drivers/GD32F30x_standard_peripheral/Source/gd32f30x_sdio.c **** 
  38:Drivers/GD32F30x_standard_peripheral/Source/gd32f30x_sdio.c **** #include "gd32f30x_sdio.h"
  39:Drivers/GD32F30x_standard_peripheral/Source/gd32f30x_sdio.c **** 
  40:Drivers/GD32F30x_standard_peripheral/Source/gd32f30x_sdio.c **** #define DEFAULT_RESET_VALUE 0x00000000U
  41:Drivers/GD32F30x_standard_peripheral/Source/gd32f30x_sdio.c **** 
  42:Drivers/GD32F30x_standard_peripheral/Source/gd32f30x_sdio.c **** /*!
  43:Drivers/GD32F30x_standard_peripheral/Source/gd32f30x_sdio.c ****     \brief      deinitialize the SDIO
  44:Drivers/GD32F30x_standard_peripheral/Source/gd32f30x_sdio.c ****     \param[in]  none
  45:Drivers/GD32F30x_standard_peripheral/Source/gd32f30x_sdio.c ****     \param[out] none
  46:Drivers/GD32F30x_standard_peripheral/Source/gd32f30x_sdio.c ****     \retval     none
  47:Drivers/GD32F30x_standard_peripheral/Source/gd32f30x_sdio.c **** */
  48:Drivers/GD32F30x_standard_peripheral/Source/gd32f30x_sdio.c **** void sdio_deinit(void)
  49:Drivers/GD32F30x_standard_peripheral/Source/gd32f30x_sdio.c **** {
  29              		.loc 1 49 1 view -0
  30              		.cfi_startproc
  31              		@ args = 0, pretend = 0, frame = 0
  32              		@ frame_needed = 0, uses_anonymous_args = 0
  33              		@ link register save eliminated.
  50:Drivers/GD32F30x_standard_peripheral/Source/gd32f30x_sdio.c ****     SDIO_PWRCTL  = DEFAULT_RESET_VALUE;
  34              		.loc 1 50 5 view .LVU1
  35              		.loc 1 50 18 is_stmt 0 view .LVU2
  36 0000 054B     		ldr	r3, .L2
  37 0002 0022     		movs	r2, #0
  38 0004 1A60     		str	r2, [r3]
  51:Drivers/GD32F30x_standard_peripheral/Source/gd32f30x_sdio.c ****     SDIO_CLKCTL  = DEFAULT_RESET_VALUE;
  39              		.loc 1 51 5 is_stmt 1 view .LVU3
  40              		.loc 1 51 18 is_stmt 0 view .LVU4
  41 0006 5A60     		str	r2, [r3, #4]
  52:Drivers/GD32F30x_standard_peripheral/Source/gd32f30x_sdio.c ****     SDIO_CMDAGMT = DEFAULT_RESET_VALUE;
  42              		.loc 1 52 5 is_stmt 1 view .LVU5
  43              		.loc 1 52 18 is_stmt 0 view .LVU6
  44 0008 9A60     		str	r2, [r3, #8]
  53:Drivers/GD32F30x_standard_peripheral/Source/gd32f30x_sdio.c ****     SDIO_CMDCTL  = DEFAULT_RESET_VALUE;
  45              		.loc 1 53 5 is_stmt 1 view .LVU7
  46              		.loc 1 53 18 is_stmt 0 view .LVU8
  47 000a DA60     		str	r2, [r3, #12]
  54:Drivers/GD32F30x_standard_peripheral/Source/gd32f30x_sdio.c ****     SDIO_DATATO  = DEFAULT_RESET_VALUE;
  48              		.loc 1 54 5 is_stmt 1 view .LVU9
  49              		.loc 1 54 18 is_stmt 0 view .LVU10
  50 000c 5A62     		str	r2, [r3, #36]
  55:Drivers/GD32F30x_standard_peripheral/Source/gd32f30x_sdio.c ****     SDIO_DATALEN = DEFAULT_RESET_VALUE;
  51              		.loc 1 55 5 is_stmt 1 view .LVU11
  52              		.loc 1 55 18 is_stmt 0 view .LVU12
  53 000e 9A62     		str	r2, [r3, #40]
  56:Drivers/GD32F30x_standard_peripheral/Source/gd32f30x_sdio.c ****     SDIO_DATACTL = DEFAULT_RESET_VALUE;
  54              		.loc 1 56 5 is_stmt 1 view .LVU13
  55              		.loc 1 56 18 is_stmt 0 view .LVU14
  56 0010 DA62     		str	r2, [r3, #44]
  57:Drivers/GD32F30x_standard_peripheral/Source/gd32f30x_sdio.c ****     SDIO_INTC    = DEFAULT_RESET_VALUE;
  57              		.loc 1 57 5 is_stmt 1 view .LVU15
  58              		.loc 1 57 18 is_stmt 0 view .LVU16
ARM GAS  C:\Users\Prog\AppData\Local\Temp\ccKGkBSd.s 			page 3


  59 0012 9A63     		str	r2, [r3, #56]
  58:Drivers/GD32F30x_standard_peripheral/Source/gd32f30x_sdio.c ****     SDIO_INTEN   = DEFAULT_RESET_VALUE;
  60              		.loc 1 58 5 is_stmt 1 view .LVU17
  61              		.loc 1 58 18 is_stmt 0 view .LVU18
  62 0014 DA63     		str	r2, [r3, #60]
  59:Drivers/GD32F30x_standard_peripheral/Source/gd32f30x_sdio.c **** }
  63              		.loc 1 59 1 view .LVU19
  64 0016 7047     		bx	lr
  65              	.L3:
  66              		.align	2
  67              	.L2:
  68 0018 00800140 		.word	1073840128
  69              		.cfi_endproc
  70              	.LFE116:
  72              		.section	.text.sdio_clock_config,"ax",%progbits
  73              		.align	1
  74              		.global	sdio_clock_config
  75              		.syntax unified
  76              		.thumb
  77              		.thumb_func
  78              		.fpu fpv4-sp-d16
  80              	sdio_clock_config:
  81              	.LVL0:
  82              	.LFB117:
  60:Drivers/GD32F30x_standard_peripheral/Source/gd32f30x_sdio.c **** 
  61:Drivers/GD32F30x_standard_peripheral/Source/gd32f30x_sdio.c **** /*!
  62:Drivers/GD32F30x_standard_peripheral/Source/gd32f30x_sdio.c ****     \brief      configure the SDIO clock
  63:Drivers/GD32F30x_standard_peripheral/Source/gd32f30x_sdio.c ****     \param[in]  clock_edge: SDIO_CLK clock edge
  64:Drivers/GD32F30x_standard_peripheral/Source/gd32f30x_sdio.c ****                 only one parameter can be selected which is shown as below:
  65:Drivers/GD32F30x_standard_peripheral/Source/gd32f30x_sdio.c ****       \arg        SDIO_SDIOCLKEDGE_RISING: select the rising edge of the SDIOCLK to generate SDIO_C
  66:Drivers/GD32F30x_standard_peripheral/Source/gd32f30x_sdio.c ****       \arg        SDIO_SDIOCLKEDGE_FALLING: select the falling edge of the SDIOCLK to generate SDIO
  67:Drivers/GD32F30x_standard_peripheral/Source/gd32f30x_sdio.c ****     \param[in]  clock_bypass: clock bypass
  68:Drivers/GD32F30x_standard_peripheral/Source/gd32f30x_sdio.c ****                 only one parameter can be selected which is shown as below:
  69:Drivers/GD32F30x_standard_peripheral/Source/gd32f30x_sdio.c ****       \arg        SDIO_CLOCKBYPASS_ENABLE: clock bypass
  70:Drivers/GD32F30x_standard_peripheral/Source/gd32f30x_sdio.c ****       \arg        SDIO_CLOCKBYPASS_DISABLE: no bypass
  71:Drivers/GD32F30x_standard_peripheral/Source/gd32f30x_sdio.c ****     \param[in]  clock_powersave: SDIO_CLK clock dynamic switch on/off for power saving
  72:Drivers/GD32F30x_standard_peripheral/Source/gd32f30x_sdio.c ****                 only one parameter can be selected which is shown as below:
  73:Drivers/GD32F30x_standard_peripheral/Source/gd32f30x_sdio.c ****       \arg        SDIO_CLOCKPWRSAVE_ENABLE: SDIO_CLK closed when bus is idle
  74:Drivers/GD32F30x_standard_peripheral/Source/gd32f30x_sdio.c ****       \arg        SDIO_CLOCKPWRSAVE_DISABLE: SDIO_CLK clock is always on
  75:Drivers/GD32F30x_standard_peripheral/Source/gd32f30x_sdio.c ****     \param[in]  clock_division: clock division, less than 512
  76:Drivers/GD32F30x_standard_peripheral/Source/gd32f30x_sdio.c ****     \param[out] none
  77:Drivers/GD32F30x_standard_peripheral/Source/gd32f30x_sdio.c ****     \retval     none
  78:Drivers/GD32F30x_standard_peripheral/Source/gd32f30x_sdio.c **** */
  79:Drivers/GD32F30x_standard_peripheral/Source/gd32f30x_sdio.c **** void sdio_clock_config(uint32_t clock_edge, uint32_t clock_bypass, uint32_t clock_powersave, uint16
  80:Drivers/GD32F30x_standard_peripheral/Source/gd32f30x_sdio.c **** {
  83              		.loc 1 80 1 is_stmt 1 view -0
  84              		.cfi_startproc
  85              		@ args = 0, pretend = 0, frame = 0
  86              		@ frame_needed = 0, uses_anonymous_args = 0
  87              		@ link register save eliminated.
  88              		.loc 1 80 1 is_stmt 0 view .LVU21
  89 0000 30B4     		push	{r4, r5}
  90              	.LCFI0:
  91              		.cfi_def_cfa_offset 8
  92              		.cfi_offset 4, -8
  93              		.cfi_offset 5, -4
  81:Drivers/GD32F30x_standard_peripheral/Source/gd32f30x_sdio.c ****     uint32_t clock_config = 0U;
ARM GAS  C:\Users\Prog\AppData\Local\Temp\ccKGkBSd.s 			page 4


  94              		.loc 1 81 5 is_stmt 1 view .LVU22
  95              	.LVL1:
  82:Drivers/GD32F30x_standard_peripheral/Source/gd32f30x_sdio.c ****     clock_config = SDIO_CLKCTL;
  96              		.loc 1 82 5 view .LVU23
  97              		.loc 1 82 18 is_stmt 0 view .LVU24
  98 0002 094C     		ldr	r4, .L7
  99 0004 6568     		ldr	r5, [r4, #4]
 100              	.LVL2:
  83:Drivers/GD32F30x_standard_peripheral/Source/gd32f30x_sdio.c ****     /* reset the CLKEDGE, CLKBYP, CLKPWRSAV, DIV */
  84:Drivers/GD32F30x_standard_peripheral/Source/gd32f30x_sdio.c ****     clock_config &= ~(SDIO_CLKCTL_CLKEDGE | SDIO_CLKCTL_CLKBYP | SDIO_CLKCTL_CLKPWRSAV | SDIO_CLKCT
 101              		.loc 1 84 5 is_stmt 1 view .LVU25
 102              		.loc 1 84 18 is_stmt 0 view .LVU26
 103 0006 094C     		ldr	r4, .L7+4
 104 0008 2C40     		ands	r4, r4, r5
 105              	.LVL3:
  85:Drivers/GD32F30x_standard_peripheral/Source/gd32f30x_sdio.c ****     /* if the clock division is greater or equal to 256, set the DIV[8] */
  86:Drivers/GD32F30x_standard_peripheral/Source/gd32f30x_sdio.c ****     if(clock_division >= 256U){
 106              		.loc 1 86 5 is_stmt 1 view .LVU27
 107              		.loc 1 86 7 is_stmt 0 view .LVU28
 108 000a FF2B     		cmp	r3, #255
 109 000c 04D9     		bls	.L5
  87:Drivers/GD32F30x_standard_peripheral/Source/gd32f30x_sdio.c ****         clock_config |= SDIO_CLKCTL_DIV8;
 110              		.loc 1 87 9 is_stmt 1 view .LVU29
 111              		.loc 1 87 22 is_stmt 0 view .LVU30
 112 000e 44F00044 		orr	r4, r4, #-2147483648
 113              	.LVL4:
  88:Drivers/GD32F30x_standard_peripheral/Source/gd32f30x_sdio.c ****         clock_division -= 256U;
 114              		.loc 1 88 9 is_stmt 1 view .LVU31
 115              		.loc 1 88 24 is_stmt 0 view .LVU32
 116 0012 A3F58073 		sub	r3, r3, #256
 117              	.LVL5:
 118              		.loc 1 88 24 view .LVU33
 119 0016 9BB2     		uxth	r3, r3
 120              	.LVL6:
 121              	.L5:
  89:Drivers/GD32F30x_standard_peripheral/Source/gd32f30x_sdio.c ****     }
  90:Drivers/GD32F30x_standard_peripheral/Source/gd32f30x_sdio.c ****     /* configure the SDIO_CLKCTL according to the parameters */
  91:Drivers/GD32F30x_standard_peripheral/Source/gd32f30x_sdio.c ****     clock_config |= (clock_edge | clock_bypass | clock_powersave | clock_division);
 122              		.loc 1 91 5 is_stmt 1 view .LVU34
 123              		.loc 1 91 33 is_stmt 0 view .LVU35
 124 0018 0843     		orrs	r0, r0, r1
 125              	.LVL7:
 126              		.loc 1 91 48 view .LVU36
 127 001a 1043     		orrs	r0, r0, r2
 128              		.loc 1 91 66 view .LVU37
 129 001c 0343     		orrs	r3, r3, r0
 130              	.LVL8:
 131              		.loc 1 91 18 view .LVU38
 132 001e 2343     		orrs	r3, r3, r4
 133              	.LVL9:
  92:Drivers/GD32F30x_standard_peripheral/Source/gd32f30x_sdio.c ****     SDIO_CLKCTL = clock_config;
 134              		.loc 1 92 5 is_stmt 1 view .LVU39
 135              		.loc 1 92 17 is_stmt 0 view .LVU40
 136 0020 014A     		ldr	r2, .L7
 137              	.LVL10:
 138              		.loc 1 92 17 view .LVU41
 139 0022 5360     		str	r3, [r2, #4]
ARM GAS  C:\Users\Prog\AppData\Local\Temp\ccKGkBSd.s 			page 5


  93:Drivers/GD32F30x_standard_peripheral/Source/gd32f30x_sdio.c **** }
 140              		.loc 1 93 1 view .LVU42
 141 0024 30BC     		pop	{r4, r5}
 142              	.LCFI1:
 143              		.cfi_restore 5
 144              		.cfi_restore 4
 145              		.cfi_def_cfa_offset 0
 146 0026 7047     		bx	lr
 147              	.L8:
 148              		.align	2
 149              	.L7:
 150 0028 00800140 		.word	1073840128
 151 002c 00D9FF7F 		.word	2147473664
 152              		.cfi_endproc
 153              	.LFE117:
 155              		.section	.text.sdio_hardware_clock_enable,"ax",%progbits
 156              		.align	1
 157              		.global	sdio_hardware_clock_enable
 158              		.syntax unified
 159              		.thumb
 160              		.thumb_func
 161              		.fpu fpv4-sp-d16
 163              	sdio_hardware_clock_enable:
 164              	.LFB118:
  94:Drivers/GD32F30x_standard_peripheral/Source/gd32f30x_sdio.c **** 
  95:Drivers/GD32F30x_standard_peripheral/Source/gd32f30x_sdio.c **** /*!
  96:Drivers/GD32F30x_standard_peripheral/Source/gd32f30x_sdio.c ****     \brief      enable hardware clock control
  97:Drivers/GD32F30x_standard_peripheral/Source/gd32f30x_sdio.c ****     \param[in]  none
  98:Drivers/GD32F30x_standard_peripheral/Source/gd32f30x_sdio.c ****     \param[out] none
  99:Drivers/GD32F30x_standard_peripheral/Source/gd32f30x_sdio.c ****     \retval     none
 100:Drivers/GD32F30x_standard_peripheral/Source/gd32f30x_sdio.c **** */
 101:Drivers/GD32F30x_standard_peripheral/Source/gd32f30x_sdio.c **** void sdio_hardware_clock_enable(void)
 102:Drivers/GD32F30x_standard_peripheral/Source/gd32f30x_sdio.c **** {
 165              		.loc 1 102 1 is_stmt 1 view -0
 166              		.cfi_startproc
 167              		@ args = 0, pretend = 0, frame = 0
 168              		@ frame_needed = 0, uses_anonymous_args = 0
 169              		@ link register save eliminated.
 103:Drivers/GD32F30x_standard_peripheral/Source/gd32f30x_sdio.c ****     SDIO_CLKCTL |= SDIO_CLKCTL_HWCLKEN;
 170              		.loc 1 103 5 view .LVU44
 171              		.loc 1 103 17 is_stmt 0 view .LVU45
 172 0000 024A     		ldr	r2, .L10
 173 0002 5368     		ldr	r3, [r2, #4]
 174 0004 43F48043 		orr	r3, r3, #16384
 175 0008 5360     		str	r3, [r2, #4]
 104:Drivers/GD32F30x_standard_peripheral/Source/gd32f30x_sdio.c **** }
 176              		.loc 1 104 1 view .LVU46
 177 000a 7047     		bx	lr
 178              	.L11:
 179              		.align	2
 180              	.L10:
 181 000c 00800140 		.word	1073840128
 182              		.cfi_endproc
 183              	.LFE118:
 185              		.section	.text.sdio_hardware_clock_disable,"ax",%progbits
 186              		.align	1
 187              		.global	sdio_hardware_clock_disable
ARM GAS  C:\Users\Prog\AppData\Local\Temp\ccKGkBSd.s 			page 6


 188              		.syntax unified
 189              		.thumb
 190              		.thumb_func
 191              		.fpu fpv4-sp-d16
 193              	sdio_hardware_clock_disable:
 194              	.LFB119:
 105:Drivers/GD32F30x_standard_peripheral/Source/gd32f30x_sdio.c **** 
 106:Drivers/GD32F30x_standard_peripheral/Source/gd32f30x_sdio.c **** /*!
 107:Drivers/GD32F30x_standard_peripheral/Source/gd32f30x_sdio.c ****     \brief      disable hardware clock control
 108:Drivers/GD32F30x_standard_peripheral/Source/gd32f30x_sdio.c ****     \param[in]  none
 109:Drivers/GD32F30x_standard_peripheral/Source/gd32f30x_sdio.c ****     \param[out] none
 110:Drivers/GD32F30x_standard_peripheral/Source/gd32f30x_sdio.c ****     \retval     none
 111:Drivers/GD32F30x_standard_peripheral/Source/gd32f30x_sdio.c **** */
 112:Drivers/GD32F30x_standard_peripheral/Source/gd32f30x_sdio.c **** void sdio_hardware_clock_disable(void)
 113:Drivers/GD32F30x_standard_peripheral/Source/gd32f30x_sdio.c **** {
 195              		.loc 1 113 1 is_stmt 1 view -0
 196              		.cfi_startproc
 197              		@ args = 0, pretend = 0, frame = 0
 198              		@ frame_needed = 0, uses_anonymous_args = 0
 199              		@ link register save eliminated.
 114:Drivers/GD32F30x_standard_peripheral/Source/gd32f30x_sdio.c ****     SDIO_CLKCTL &= ~SDIO_CLKCTL_HWCLKEN;
 200              		.loc 1 114 5 view .LVU48
 201              		.loc 1 114 17 is_stmt 0 view .LVU49
 202 0000 024A     		ldr	r2, .L13
 203 0002 5368     		ldr	r3, [r2, #4]
 204 0004 23F48043 		bic	r3, r3, #16384
 205 0008 5360     		str	r3, [r2, #4]
 115:Drivers/GD32F30x_standard_peripheral/Source/gd32f30x_sdio.c **** }
 206              		.loc 1 115 1 view .LVU50
 207 000a 7047     		bx	lr
 208              	.L14:
 209              		.align	2
 210              	.L13:
 211 000c 00800140 		.word	1073840128
 212              		.cfi_endproc
 213              	.LFE119:
 215              		.section	.text.sdio_bus_mode_set,"ax",%progbits
 216              		.align	1
 217              		.global	sdio_bus_mode_set
 218              		.syntax unified
 219              		.thumb
 220              		.thumb_func
 221              		.fpu fpv4-sp-d16
 223              	sdio_bus_mode_set:
 224              	.LVL11:
 225              	.LFB120:
 116:Drivers/GD32F30x_standard_peripheral/Source/gd32f30x_sdio.c **** 
 117:Drivers/GD32F30x_standard_peripheral/Source/gd32f30x_sdio.c **** /*!
 118:Drivers/GD32F30x_standard_peripheral/Source/gd32f30x_sdio.c ****     \brief      set different SDIO card bus mode
 119:Drivers/GD32F30x_standard_peripheral/Source/gd32f30x_sdio.c ****     \param[in]  bus_mode: SDIO card bus mode
 120:Drivers/GD32F30x_standard_peripheral/Source/gd32f30x_sdio.c ****                 only one parameter can be selected which is shown as below:
 121:Drivers/GD32F30x_standard_peripheral/Source/gd32f30x_sdio.c ****       \arg        SDIO_BUSMODE_1BIT: 1-bit SDIO card bus mode
 122:Drivers/GD32F30x_standard_peripheral/Source/gd32f30x_sdio.c ****       \arg        SDIO_BUSMODE_4BIT: 4-bit SDIO card bus mode
 123:Drivers/GD32F30x_standard_peripheral/Source/gd32f30x_sdio.c ****       \arg        SDIO_BUSMODE_8BIT: 8-bit SDIO card bus mode
 124:Drivers/GD32F30x_standard_peripheral/Source/gd32f30x_sdio.c ****     \param[out] none
 125:Drivers/GD32F30x_standard_peripheral/Source/gd32f30x_sdio.c ****     \retval     none
 126:Drivers/GD32F30x_standard_peripheral/Source/gd32f30x_sdio.c **** */
ARM GAS  C:\Users\Prog\AppData\Local\Temp\ccKGkBSd.s 			page 7


 127:Drivers/GD32F30x_standard_peripheral/Source/gd32f30x_sdio.c **** void sdio_bus_mode_set(uint32_t bus_mode)
 128:Drivers/GD32F30x_standard_peripheral/Source/gd32f30x_sdio.c **** {
 226              		.loc 1 128 1 is_stmt 1 view -0
 227              		.cfi_startproc
 228              		@ args = 0, pretend = 0, frame = 0
 229              		@ frame_needed = 0, uses_anonymous_args = 0
 230              		@ link register save eliminated.
 129:Drivers/GD32F30x_standard_peripheral/Source/gd32f30x_sdio.c ****     /* reset the SDIO card bus mode bits and set according to bus_mode */
 130:Drivers/GD32F30x_standard_peripheral/Source/gd32f30x_sdio.c ****     SDIO_CLKCTL &= ~SDIO_CLKCTL_BUSMODE;
 231              		.loc 1 130 5 view .LVU52
 232              		.loc 1 130 17 is_stmt 0 view .LVU53
 233 0000 044B     		ldr	r3, .L16
 234 0002 5968     		ldr	r1, [r3, #4]
 235 0004 21F4C051 		bic	r1, r1, #6144
 236 0008 5960     		str	r1, [r3, #4]
 131:Drivers/GD32F30x_standard_peripheral/Source/gd32f30x_sdio.c ****     SDIO_CLKCTL |= bus_mode;
 237              		.loc 1 131 5 is_stmt 1 view .LVU54
 238              		.loc 1 131 17 is_stmt 0 view .LVU55
 239 000a 5A68     		ldr	r2, [r3, #4]
 240 000c 0243     		orrs	r2, r2, r0
 241 000e 5A60     		str	r2, [r3, #4]
 132:Drivers/GD32F30x_standard_peripheral/Source/gd32f30x_sdio.c **** }
 242              		.loc 1 132 1 view .LVU56
 243 0010 7047     		bx	lr
 244              	.L17:
 245 0012 00BF     		.align	2
 246              	.L16:
 247 0014 00800140 		.word	1073840128
 248              		.cfi_endproc
 249              	.LFE120:
 251              		.section	.text.sdio_power_state_set,"ax",%progbits
 252              		.align	1
 253              		.global	sdio_power_state_set
 254              		.syntax unified
 255              		.thumb
 256              		.thumb_func
 257              		.fpu fpv4-sp-d16
 259              	sdio_power_state_set:
 260              	.LVL12:
 261              	.LFB121:
 133:Drivers/GD32F30x_standard_peripheral/Source/gd32f30x_sdio.c **** 
 134:Drivers/GD32F30x_standard_peripheral/Source/gd32f30x_sdio.c **** /*!
 135:Drivers/GD32F30x_standard_peripheral/Source/gd32f30x_sdio.c ****     \brief      set the SDIO power state
 136:Drivers/GD32F30x_standard_peripheral/Source/gd32f30x_sdio.c ****     \param[in]  power_state: SDIO power state
 137:Drivers/GD32F30x_standard_peripheral/Source/gd32f30x_sdio.c ****                 only one parameter can be selected which is shown as below:
 138:Drivers/GD32F30x_standard_peripheral/Source/gd32f30x_sdio.c ****       \arg        SDIO_POWER_ON: SDIO power on
 139:Drivers/GD32F30x_standard_peripheral/Source/gd32f30x_sdio.c ****       \arg        SDIO_POWER_OFF: SDIO power off
 140:Drivers/GD32F30x_standard_peripheral/Source/gd32f30x_sdio.c ****     \param[out] none
 141:Drivers/GD32F30x_standard_peripheral/Source/gd32f30x_sdio.c ****     \retval     none
 142:Drivers/GD32F30x_standard_peripheral/Source/gd32f30x_sdio.c **** */
 143:Drivers/GD32F30x_standard_peripheral/Source/gd32f30x_sdio.c **** void sdio_power_state_set(uint32_t power_state)
 144:Drivers/GD32F30x_standard_peripheral/Source/gd32f30x_sdio.c **** {
 262              		.loc 1 144 1 is_stmt 1 view -0
 263              		.cfi_startproc
 264              		@ args = 0, pretend = 0, frame = 0
 265              		@ frame_needed = 0, uses_anonymous_args = 0
 266              		@ link register save eliminated.
ARM GAS  C:\Users\Prog\AppData\Local\Temp\ccKGkBSd.s 			page 8


 145:Drivers/GD32F30x_standard_peripheral/Source/gd32f30x_sdio.c ****     SDIO_PWRCTL = power_state;
 267              		.loc 1 145 5 view .LVU58
 268              		.loc 1 145 17 is_stmt 0 view .LVU59
 269 0000 014B     		ldr	r3, .L19
 270 0002 1860     		str	r0, [r3]
 146:Drivers/GD32F30x_standard_peripheral/Source/gd32f30x_sdio.c **** }
 271              		.loc 1 146 1 view .LVU60
 272 0004 7047     		bx	lr
 273              	.L20:
 274 0006 00BF     		.align	2
 275              	.L19:
 276 0008 00800140 		.word	1073840128
 277              		.cfi_endproc
 278              	.LFE121:
 280              		.section	.text.sdio_power_state_get,"ax",%progbits
 281              		.align	1
 282              		.global	sdio_power_state_get
 283              		.syntax unified
 284              		.thumb
 285              		.thumb_func
 286              		.fpu fpv4-sp-d16
 288              	sdio_power_state_get:
 289              	.LFB122:
 147:Drivers/GD32F30x_standard_peripheral/Source/gd32f30x_sdio.c **** 
 148:Drivers/GD32F30x_standard_peripheral/Source/gd32f30x_sdio.c **** /*!
 149:Drivers/GD32F30x_standard_peripheral/Source/gd32f30x_sdio.c ****     \brief      get the SDIO power state
 150:Drivers/GD32F30x_standard_peripheral/Source/gd32f30x_sdio.c ****     \param[in]  none
 151:Drivers/GD32F30x_standard_peripheral/Source/gd32f30x_sdio.c ****     \param[out] none
 152:Drivers/GD32F30x_standard_peripheral/Source/gd32f30x_sdio.c ****     \retval     SDIO power state
 153:Drivers/GD32F30x_standard_peripheral/Source/gd32f30x_sdio.c ****       \arg        SDIO_POWER_ON: SDIO power on
 154:Drivers/GD32F30x_standard_peripheral/Source/gd32f30x_sdio.c ****       \arg        SDIO_POWER_OFF: SDIO power off
 155:Drivers/GD32F30x_standard_peripheral/Source/gd32f30x_sdio.c **** */
 156:Drivers/GD32F30x_standard_peripheral/Source/gd32f30x_sdio.c **** uint32_t sdio_power_state_get(void)
 157:Drivers/GD32F30x_standard_peripheral/Source/gd32f30x_sdio.c **** {
 290              		.loc 1 157 1 is_stmt 1 view -0
 291              		.cfi_startproc
 292              		@ args = 0, pretend = 0, frame = 0
 293              		@ frame_needed = 0, uses_anonymous_args = 0
 294              		@ link register save eliminated.
 158:Drivers/GD32F30x_standard_peripheral/Source/gd32f30x_sdio.c ****     return SDIO_PWRCTL;
 295              		.loc 1 158 5 view .LVU62
 296              		.loc 1 158 12 is_stmt 0 view .LVU63
 297 0000 014B     		ldr	r3, .L22
 298 0002 1868     		ldr	r0, [r3]
 159:Drivers/GD32F30x_standard_peripheral/Source/gd32f30x_sdio.c **** }
 299              		.loc 1 159 1 view .LVU64
 300 0004 7047     		bx	lr
 301              	.L23:
 302 0006 00BF     		.align	2
 303              	.L22:
 304 0008 00800140 		.word	1073840128
 305              		.cfi_endproc
 306              	.LFE122:
 308              		.section	.text.sdio_clock_enable,"ax",%progbits
 309              		.align	1
 310              		.global	sdio_clock_enable
 311              		.syntax unified
ARM GAS  C:\Users\Prog\AppData\Local\Temp\ccKGkBSd.s 			page 9


 312              		.thumb
 313              		.thumb_func
 314              		.fpu fpv4-sp-d16
 316              	sdio_clock_enable:
 317              	.LFB123:
 160:Drivers/GD32F30x_standard_peripheral/Source/gd32f30x_sdio.c **** 
 161:Drivers/GD32F30x_standard_peripheral/Source/gd32f30x_sdio.c **** /*!
 162:Drivers/GD32F30x_standard_peripheral/Source/gd32f30x_sdio.c ****     \brief      enable SDIO_CLK clock output
 163:Drivers/GD32F30x_standard_peripheral/Source/gd32f30x_sdio.c ****     \param[in]  none
 164:Drivers/GD32F30x_standard_peripheral/Source/gd32f30x_sdio.c ****     \param[out] none
 165:Drivers/GD32F30x_standard_peripheral/Source/gd32f30x_sdio.c ****     \retval     none
 166:Drivers/GD32F30x_standard_peripheral/Source/gd32f30x_sdio.c **** */
 167:Drivers/GD32F30x_standard_peripheral/Source/gd32f30x_sdio.c **** void sdio_clock_enable(void)
 168:Drivers/GD32F30x_standard_peripheral/Source/gd32f30x_sdio.c **** {
 318              		.loc 1 168 1 is_stmt 1 view -0
 319              		.cfi_startproc
 320              		@ args = 0, pretend = 0, frame = 0
 321              		@ frame_needed = 0, uses_anonymous_args = 0
 322              		@ link register save eliminated.
 169:Drivers/GD32F30x_standard_peripheral/Source/gd32f30x_sdio.c ****     SDIO_CLKCTL |= SDIO_CLKCTL_CLKEN;
 323              		.loc 1 169 5 view .LVU66
 324              		.loc 1 169 17 is_stmt 0 view .LVU67
 325 0000 024A     		ldr	r2, .L25
 326 0002 5368     		ldr	r3, [r2, #4]
 327 0004 43F48073 		orr	r3, r3, #256
 328 0008 5360     		str	r3, [r2, #4]
 170:Drivers/GD32F30x_standard_peripheral/Source/gd32f30x_sdio.c **** }
 329              		.loc 1 170 1 view .LVU68
 330 000a 7047     		bx	lr
 331              	.L26:
 332              		.align	2
 333              	.L25:
 334 000c 00800140 		.word	1073840128
 335              		.cfi_endproc
 336              	.LFE123:
 338              		.section	.text.sdio_clock_disable,"ax",%progbits
 339              		.align	1
 340              		.global	sdio_clock_disable
 341              		.syntax unified
 342              		.thumb
 343              		.thumb_func
 344              		.fpu fpv4-sp-d16
 346              	sdio_clock_disable:
 347              	.LFB124:
 171:Drivers/GD32F30x_standard_peripheral/Source/gd32f30x_sdio.c **** 
 172:Drivers/GD32F30x_standard_peripheral/Source/gd32f30x_sdio.c **** /*!
 173:Drivers/GD32F30x_standard_peripheral/Source/gd32f30x_sdio.c ****     \brief      disable SDIO_CLK clock output
 174:Drivers/GD32F30x_standard_peripheral/Source/gd32f30x_sdio.c ****     \param[in]  none
 175:Drivers/GD32F30x_standard_peripheral/Source/gd32f30x_sdio.c ****     \param[out] none
 176:Drivers/GD32F30x_standard_peripheral/Source/gd32f30x_sdio.c ****     \retval     none
 177:Drivers/GD32F30x_standard_peripheral/Source/gd32f30x_sdio.c **** */
 178:Drivers/GD32F30x_standard_peripheral/Source/gd32f30x_sdio.c **** void sdio_clock_disable(void)
 179:Drivers/GD32F30x_standard_peripheral/Source/gd32f30x_sdio.c **** {
 348              		.loc 1 179 1 is_stmt 1 view -0
 349              		.cfi_startproc
 350              		@ args = 0, pretend = 0, frame = 0
 351              		@ frame_needed = 0, uses_anonymous_args = 0
ARM GAS  C:\Users\Prog\AppData\Local\Temp\ccKGkBSd.s 			page 10


 352              		@ link register save eliminated.
 180:Drivers/GD32F30x_standard_peripheral/Source/gd32f30x_sdio.c ****     SDIO_CLKCTL &= ~SDIO_CLKCTL_CLKEN;
 353              		.loc 1 180 5 view .LVU70
 354              		.loc 1 180 17 is_stmt 0 view .LVU71
 355 0000 024A     		ldr	r2, .L28
 356 0002 5368     		ldr	r3, [r2, #4]
 357 0004 23F48073 		bic	r3, r3, #256
 358 0008 5360     		str	r3, [r2, #4]
 181:Drivers/GD32F30x_standard_peripheral/Source/gd32f30x_sdio.c **** }
 359              		.loc 1 181 1 view .LVU72
 360 000a 7047     		bx	lr
 361              	.L29:
 362              		.align	2
 363              	.L28:
 364 000c 00800140 		.word	1073840128
 365              		.cfi_endproc
 366              	.LFE124:
 368              		.section	.text.sdio_command_response_config,"ax",%progbits
 369              		.align	1
 370              		.global	sdio_command_response_config
 371              		.syntax unified
 372              		.thumb
 373              		.thumb_func
 374              		.fpu fpv4-sp-d16
 376              	sdio_command_response_config:
 377              	.LVL13:
 378              	.LFB125:
 182:Drivers/GD32F30x_standard_peripheral/Source/gd32f30x_sdio.c **** 
 183:Drivers/GD32F30x_standard_peripheral/Source/gd32f30x_sdio.c **** /*!
 184:Drivers/GD32F30x_standard_peripheral/Source/gd32f30x_sdio.c ****     \brief      configure the command and response
 185:Drivers/GD32F30x_standard_peripheral/Source/gd32f30x_sdio.c ****     \param[in]  cmd_index: command index, refer to the related specifications
 186:Drivers/GD32F30x_standard_peripheral/Source/gd32f30x_sdio.c ****     \param[in]  cmd_argument: command argument, refer to the related specifications
 187:Drivers/GD32F30x_standard_peripheral/Source/gd32f30x_sdio.c ****     \param[in]  response_type: response type
 188:Drivers/GD32F30x_standard_peripheral/Source/gd32f30x_sdio.c ****                 only one parameter can be selected which is shown as below:
 189:Drivers/GD32F30x_standard_peripheral/Source/gd32f30x_sdio.c ****       \arg        SDIO_RESPONSETYPE_NO: no response
 190:Drivers/GD32F30x_standard_peripheral/Source/gd32f30x_sdio.c ****       \arg        SDIO_RESPONSETYPE_SHORT: short response
 191:Drivers/GD32F30x_standard_peripheral/Source/gd32f30x_sdio.c ****       \arg        SDIO_RESPONSETYPE_LONG: long response
 192:Drivers/GD32F30x_standard_peripheral/Source/gd32f30x_sdio.c ****     \param[out] none
 193:Drivers/GD32F30x_standard_peripheral/Source/gd32f30x_sdio.c ****     \retval     none
 194:Drivers/GD32F30x_standard_peripheral/Source/gd32f30x_sdio.c **** */
 195:Drivers/GD32F30x_standard_peripheral/Source/gd32f30x_sdio.c **** void sdio_command_response_config(uint32_t cmd_index, uint32_t cmd_argument, uint32_t response_type
 196:Drivers/GD32F30x_standard_peripheral/Source/gd32f30x_sdio.c **** {
 379              		.loc 1 196 1 is_stmt 1 view -0
 380              		.cfi_startproc
 381              		@ args = 0, pretend = 0, frame = 0
 382              		@ frame_needed = 0, uses_anonymous_args = 0
 383              		@ link register save eliminated.
 384              		.loc 1 196 1 is_stmt 0 view .LVU74
 385 0000 10B4     		push	{r4}
 386              	.LCFI2:
 387              		.cfi_def_cfa_offset 4
 388              		.cfi_offset 4, -4
 197:Drivers/GD32F30x_standard_peripheral/Source/gd32f30x_sdio.c ****     uint32_t cmd_config = 0U;
 389              		.loc 1 197 5 is_stmt 1 view .LVU75
 390              	.LVL14:
 198:Drivers/GD32F30x_standard_peripheral/Source/gd32f30x_sdio.c ****     /* reset the command index, command argument and response type */
 199:Drivers/GD32F30x_standard_peripheral/Source/gd32f30x_sdio.c ****     SDIO_CMDAGMT &= ~SDIO_CMDAGMT_CMDAGMT;
ARM GAS  C:\Users\Prog\AppData\Local\Temp\ccKGkBSd.s 			page 11


 391              		.loc 1 199 5 view .LVU76
 392              		.loc 1 199 18 is_stmt 0 view .LVU77
 393 0002 074B     		ldr	r3, .L32
 394 0004 9C68     		ldr	r4, [r3, #8]
 395 0006 0024     		movs	r4, #0
 396 0008 9C60     		str	r4, [r3, #8]
 200:Drivers/GD32F30x_standard_peripheral/Source/gd32f30x_sdio.c ****     SDIO_CMDAGMT = cmd_argument;
 397              		.loc 1 200 5 is_stmt 1 view .LVU78
 398              		.loc 1 200 18 is_stmt 0 view .LVU79
 399 000a 9960     		str	r1, [r3, #8]
 201:Drivers/GD32F30x_standard_peripheral/Source/gd32f30x_sdio.c ****     cmd_config = SDIO_CMDCTL;
 400              		.loc 1 201 5 is_stmt 1 view .LVU80
 401              		.loc 1 201 16 is_stmt 0 view .LVU81
 402 000c D968     		ldr	r1, [r3, #12]
 403              	.LVL15:
 202:Drivers/GD32F30x_standard_peripheral/Source/gd32f30x_sdio.c ****     cmd_config &= ~(SDIO_CMDCTL_CMDIDX | SDIO_CMDCTL_CMDRESP);
 404              		.loc 1 202 5 is_stmt 1 view .LVU82
 405              		.loc 1 202 16 is_stmt 0 view .LVU83
 406 000e 21F0FF01 		bic	r1, r1, #255
 407              	.LVL16:
 203:Drivers/GD32F30x_standard_peripheral/Source/gd32f30x_sdio.c ****     /* configure SDIO_CMDCTL and SDIO_CMDAGMT according to the parameters */
 204:Drivers/GD32F30x_standard_peripheral/Source/gd32f30x_sdio.c ****     cmd_config |= (cmd_index | response_type);
 408              		.loc 1 204 5 is_stmt 1 view .LVU84
 409              		.loc 1 204 30 is_stmt 0 view .LVU85
 410 0012 1043     		orrs	r0, r0, r2
 411              	.LVL17:
 412              		.loc 1 204 16 view .LVU86
 413 0014 0843     		orrs	r0, r0, r1
 414              	.LVL18:
 205:Drivers/GD32F30x_standard_peripheral/Source/gd32f30x_sdio.c ****     SDIO_CMDCTL = cmd_config;
 415              		.loc 1 205 5 is_stmt 1 view .LVU87
 416              		.loc 1 205 17 is_stmt 0 view .LVU88
 417 0016 D860     		str	r0, [r3, #12]
 418              	.LVL19:
 206:Drivers/GD32F30x_standard_peripheral/Source/gd32f30x_sdio.c **** }
 419              		.loc 1 206 1 view .LVU89
 420 0018 5DF8044B 		ldr	r4, [sp], #4
 421              	.LCFI3:
 422              		.cfi_restore 4
 423              		.cfi_def_cfa_offset 0
 424 001c 7047     		bx	lr
 425              	.L33:
 426 001e 00BF     		.align	2
 427              	.L32:
 428 0020 00800140 		.word	1073840128
 429              		.cfi_endproc
 430              	.LFE125:
 432              		.section	.text.sdio_wait_type_set,"ax",%progbits
 433              		.align	1
 434              		.global	sdio_wait_type_set
 435              		.syntax unified
 436              		.thumb
 437              		.thumb_func
 438              		.fpu fpv4-sp-d16
 440              	sdio_wait_type_set:
 441              	.LVL20:
 442              	.LFB126:
ARM GAS  C:\Users\Prog\AppData\Local\Temp\ccKGkBSd.s 			page 12


 207:Drivers/GD32F30x_standard_peripheral/Source/gd32f30x_sdio.c **** 
 208:Drivers/GD32F30x_standard_peripheral/Source/gd32f30x_sdio.c **** /*!
 209:Drivers/GD32F30x_standard_peripheral/Source/gd32f30x_sdio.c ****     \brief      set the command state machine wait type
 210:Drivers/GD32F30x_standard_peripheral/Source/gd32f30x_sdio.c ****     \param[in]  wait_type: wait type
 211:Drivers/GD32F30x_standard_peripheral/Source/gd32f30x_sdio.c ****                 only one parameter can be selected which is shown as below:
 212:Drivers/GD32F30x_standard_peripheral/Source/gd32f30x_sdio.c ****       \arg        SDIO_WAITTYPE_NO: not wait interrupt
 213:Drivers/GD32F30x_standard_peripheral/Source/gd32f30x_sdio.c ****       \arg        SDIO_WAITTYPE_INTERRUPT: wait interrupt
 214:Drivers/GD32F30x_standard_peripheral/Source/gd32f30x_sdio.c ****       \arg        SDIO_WAITTYPE_DATAEND: wait the end of data transfer
 215:Drivers/GD32F30x_standard_peripheral/Source/gd32f30x_sdio.c ****     \param[out] none
 216:Drivers/GD32F30x_standard_peripheral/Source/gd32f30x_sdio.c ****     \retval     none
 217:Drivers/GD32F30x_standard_peripheral/Source/gd32f30x_sdio.c **** */
 218:Drivers/GD32F30x_standard_peripheral/Source/gd32f30x_sdio.c **** void sdio_wait_type_set(uint32_t wait_type)
 219:Drivers/GD32F30x_standard_peripheral/Source/gd32f30x_sdio.c **** {
 443              		.loc 1 219 1 is_stmt 1 view -0
 444              		.cfi_startproc
 445              		@ args = 0, pretend = 0, frame = 0
 446              		@ frame_needed = 0, uses_anonymous_args = 0
 447              		@ link register save eliminated.
 220:Drivers/GD32F30x_standard_peripheral/Source/gd32f30x_sdio.c ****     /* reset INTWAIT and WAITDEND */
 221:Drivers/GD32F30x_standard_peripheral/Source/gd32f30x_sdio.c ****     SDIO_CMDCTL &= ~(SDIO_CMDCTL_INTWAIT | SDIO_CMDCTL_WAITDEND);
 448              		.loc 1 221 5 view .LVU91
 449              		.loc 1 221 17 is_stmt 0 view .LVU92
 450 0000 044B     		ldr	r3, .L35
 451 0002 D968     		ldr	r1, [r3, #12]
 452 0004 21F44071 		bic	r1, r1, #768
 453 0008 D960     		str	r1, [r3, #12]
 222:Drivers/GD32F30x_standard_peripheral/Source/gd32f30x_sdio.c ****     /* set the wait type according to wait_type */
 223:Drivers/GD32F30x_standard_peripheral/Source/gd32f30x_sdio.c ****     SDIO_CMDCTL |= wait_type;
 454              		.loc 1 223 5 is_stmt 1 view .LVU93
 455              		.loc 1 223 17 is_stmt 0 view .LVU94
 456 000a DA68     		ldr	r2, [r3, #12]
 457 000c 0243     		orrs	r2, r2, r0
 458 000e DA60     		str	r2, [r3, #12]
 224:Drivers/GD32F30x_standard_peripheral/Source/gd32f30x_sdio.c **** }
 459              		.loc 1 224 1 view .LVU95
 460 0010 7047     		bx	lr
 461              	.L36:
 462 0012 00BF     		.align	2
 463              	.L35:
 464 0014 00800140 		.word	1073840128
 465              		.cfi_endproc
 466              	.LFE126:
 468              		.section	.text.sdio_csm_enable,"ax",%progbits
 469              		.align	1
 470              		.global	sdio_csm_enable
 471              		.syntax unified
 472              		.thumb
 473              		.thumb_func
 474              		.fpu fpv4-sp-d16
 476              	sdio_csm_enable:
 477              	.LFB127:
 225:Drivers/GD32F30x_standard_peripheral/Source/gd32f30x_sdio.c **** 
 226:Drivers/GD32F30x_standard_peripheral/Source/gd32f30x_sdio.c **** /*!
 227:Drivers/GD32F30x_standard_peripheral/Source/gd32f30x_sdio.c ****     \brief      enable the CSM(command state machine)
 228:Drivers/GD32F30x_standard_peripheral/Source/gd32f30x_sdio.c ****     \param[in]  none
 229:Drivers/GD32F30x_standard_peripheral/Source/gd32f30x_sdio.c ****     \param[out] none
 230:Drivers/GD32F30x_standard_peripheral/Source/gd32f30x_sdio.c ****     \retval     none
ARM GAS  C:\Users\Prog\AppData\Local\Temp\ccKGkBSd.s 			page 13


 231:Drivers/GD32F30x_standard_peripheral/Source/gd32f30x_sdio.c **** */
 232:Drivers/GD32F30x_standard_peripheral/Source/gd32f30x_sdio.c **** void sdio_csm_enable(void)
 233:Drivers/GD32F30x_standard_peripheral/Source/gd32f30x_sdio.c **** {
 478              		.loc 1 233 1 is_stmt 1 view -0
 479              		.cfi_startproc
 480              		@ args = 0, pretend = 0, frame = 0
 481              		@ frame_needed = 0, uses_anonymous_args = 0
 482              		@ link register save eliminated.
 234:Drivers/GD32F30x_standard_peripheral/Source/gd32f30x_sdio.c ****     SDIO_CMDCTL |= SDIO_CMDCTL_CSMEN;
 483              		.loc 1 234 5 view .LVU97
 484              		.loc 1 234 17 is_stmt 0 view .LVU98
 485 0000 024A     		ldr	r2, .L38
 486 0002 D368     		ldr	r3, [r2, #12]
 487 0004 43F48063 		orr	r3, r3, #1024
 488 0008 D360     		str	r3, [r2, #12]
 235:Drivers/GD32F30x_standard_peripheral/Source/gd32f30x_sdio.c **** }
 489              		.loc 1 235 1 view .LVU99
 490 000a 7047     		bx	lr
 491              	.L39:
 492              		.align	2
 493              	.L38:
 494 000c 00800140 		.word	1073840128
 495              		.cfi_endproc
 496              	.LFE127:
 498              		.section	.text.sdio_csm_disable,"ax",%progbits
 499              		.align	1
 500              		.global	sdio_csm_disable
 501              		.syntax unified
 502              		.thumb
 503              		.thumb_func
 504              		.fpu fpv4-sp-d16
 506              	sdio_csm_disable:
 507              	.LFB128:
 236:Drivers/GD32F30x_standard_peripheral/Source/gd32f30x_sdio.c **** 
 237:Drivers/GD32F30x_standard_peripheral/Source/gd32f30x_sdio.c **** /*!
 238:Drivers/GD32F30x_standard_peripheral/Source/gd32f30x_sdio.c ****     \brief      disable the CSM(command state machine)
 239:Drivers/GD32F30x_standard_peripheral/Source/gd32f30x_sdio.c ****     \param[in]  none
 240:Drivers/GD32F30x_standard_peripheral/Source/gd32f30x_sdio.c ****     \param[out] none
 241:Drivers/GD32F30x_standard_peripheral/Source/gd32f30x_sdio.c ****     \retval     none
 242:Drivers/GD32F30x_standard_peripheral/Source/gd32f30x_sdio.c **** */
 243:Drivers/GD32F30x_standard_peripheral/Source/gd32f30x_sdio.c **** void sdio_csm_disable(void)
 244:Drivers/GD32F30x_standard_peripheral/Source/gd32f30x_sdio.c **** {
 508              		.loc 1 244 1 is_stmt 1 view -0
 509              		.cfi_startproc
 510              		@ args = 0, pretend = 0, frame = 0
 511              		@ frame_needed = 0, uses_anonymous_args = 0
 512              		@ link register save eliminated.
 245:Drivers/GD32F30x_standard_peripheral/Source/gd32f30x_sdio.c ****     SDIO_CMDCTL &= ~SDIO_CMDCTL_CSMEN;
 513              		.loc 1 245 5 view .LVU101
 514              		.loc 1 245 17 is_stmt 0 view .LVU102
 515 0000 024A     		ldr	r2, .L41
 516 0002 D368     		ldr	r3, [r2, #12]
 517 0004 23F48063 		bic	r3, r3, #1024
 518 0008 D360     		str	r3, [r2, #12]
 246:Drivers/GD32F30x_standard_peripheral/Source/gd32f30x_sdio.c **** }
 519              		.loc 1 246 1 view .LVU103
 520 000a 7047     		bx	lr
ARM GAS  C:\Users\Prog\AppData\Local\Temp\ccKGkBSd.s 			page 14


 521              	.L42:
 522              		.align	2
 523              	.L41:
 524 000c 00800140 		.word	1073840128
 525              		.cfi_endproc
 526              	.LFE128:
 528              		.section	.text.sdio_command_index_get,"ax",%progbits
 529              		.align	1
 530              		.global	sdio_command_index_get
 531              		.syntax unified
 532              		.thumb
 533              		.thumb_func
 534              		.fpu fpv4-sp-d16
 536              	sdio_command_index_get:
 537              	.LFB129:
 247:Drivers/GD32F30x_standard_peripheral/Source/gd32f30x_sdio.c **** 
 248:Drivers/GD32F30x_standard_peripheral/Source/gd32f30x_sdio.c **** /*!
 249:Drivers/GD32F30x_standard_peripheral/Source/gd32f30x_sdio.c ****     \brief      get the last response command index
 250:Drivers/GD32F30x_standard_peripheral/Source/gd32f30x_sdio.c ****     \param[in]  none
 251:Drivers/GD32F30x_standard_peripheral/Source/gd32f30x_sdio.c ****     \param[out] none
 252:Drivers/GD32F30x_standard_peripheral/Source/gd32f30x_sdio.c ****     \retval     last response command index
 253:Drivers/GD32F30x_standard_peripheral/Source/gd32f30x_sdio.c **** */
 254:Drivers/GD32F30x_standard_peripheral/Source/gd32f30x_sdio.c **** uint8_t sdio_command_index_get(void)
 255:Drivers/GD32F30x_standard_peripheral/Source/gd32f30x_sdio.c **** {
 538              		.loc 1 255 1 is_stmt 1 view -0
 539              		.cfi_startproc
 540              		@ args = 0, pretend = 0, frame = 0
 541              		@ frame_needed = 0, uses_anonymous_args = 0
 542              		@ link register save eliminated.
 256:Drivers/GD32F30x_standard_peripheral/Source/gd32f30x_sdio.c ****     return (uint8_t)SDIO_RSPCMDIDX;
 543              		.loc 1 256 5 view .LVU105
 544              		.loc 1 256 21 is_stmt 0 view .LVU106
 545 0000 014B     		ldr	r3, .L44
 546 0002 1869     		ldr	r0, [r3, #16]
 257:Drivers/GD32F30x_standard_peripheral/Source/gd32f30x_sdio.c **** }
 547              		.loc 1 257 1 view .LVU107
 548 0004 C0B2     		uxtb	r0, r0
 549 0006 7047     		bx	lr
 550              	.L45:
 551              		.align	2
 552              	.L44:
 553 0008 00800140 		.word	1073840128
 554              		.cfi_endproc
 555              	.LFE129:
 557              		.section	.text.sdio_response_get,"ax",%progbits
 558              		.align	1
 559              		.global	sdio_response_get
 560              		.syntax unified
 561              		.thumb
 562              		.thumb_func
 563              		.fpu fpv4-sp-d16
 565              	sdio_response_get:
 566              	.LVL21:
 567              	.LFB130:
 258:Drivers/GD32F30x_standard_peripheral/Source/gd32f30x_sdio.c **** 
 259:Drivers/GD32F30x_standard_peripheral/Source/gd32f30x_sdio.c **** /*!
 260:Drivers/GD32F30x_standard_peripheral/Source/gd32f30x_sdio.c ****     \brief      get the response for the last received command
ARM GAS  C:\Users\Prog\AppData\Local\Temp\ccKGkBSd.s 			page 15


 261:Drivers/GD32F30x_standard_peripheral/Source/gd32f30x_sdio.c ****     \param[in]  responsex: SDIO response
 262:Drivers/GD32F30x_standard_peripheral/Source/gd32f30x_sdio.c ****                 only one parameter can be selected which is shown as below:
 263:Drivers/GD32F30x_standard_peripheral/Source/gd32f30x_sdio.c ****       \arg       SDIO_RESPONSE0: card response[31:0]/card response[127:96]
 264:Drivers/GD32F30x_standard_peripheral/Source/gd32f30x_sdio.c ****       \arg       SDIO_RESPONSE1: card response[95:64]
 265:Drivers/GD32F30x_standard_peripheral/Source/gd32f30x_sdio.c ****       \arg       SDIO_RESPONSE2: card response[63:32]
 266:Drivers/GD32F30x_standard_peripheral/Source/gd32f30x_sdio.c ****       \arg       SDIO_RESPONSE3: card response[31:1], plus bit 0
 267:Drivers/GD32F30x_standard_peripheral/Source/gd32f30x_sdio.c ****     \param[out] none
 268:Drivers/GD32F30x_standard_peripheral/Source/gd32f30x_sdio.c ****     \retval     response for the last received command
 269:Drivers/GD32F30x_standard_peripheral/Source/gd32f30x_sdio.c **** */
 270:Drivers/GD32F30x_standard_peripheral/Source/gd32f30x_sdio.c **** uint32_t sdio_response_get(uint32_t responsex)
 271:Drivers/GD32F30x_standard_peripheral/Source/gd32f30x_sdio.c **** {
 568              		.loc 1 271 1 is_stmt 1 view -0
 569              		.cfi_startproc
 570              		@ args = 0, pretend = 0, frame = 0
 571              		@ frame_needed = 0, uses_anonymous_args = 0
 572              		@ link register save eliminated.
 272:Drivers/GD32F30x_standard_peripheral/Source/gd32f30x_sdio.c ****     uint32_t resp_content = 0U;
 573              		.loc 1 272 5 view .LVU109
 273:Drivers/GD32F30x_standard_peripheral/Source/gd32f30x_sdio.c ****     switch(responsex){
 574              		.loc 1 273 5 view .LVU110
 575 0000 0328     		cmp	r0, #3
 576 0002 0FD8     		bhi	.L53
 577 0004 DFE800F0 		tbb	[pc, r0]
 578              	.L49:
 579 0008 02       		.byte	(.L52-.L49)/2
 580 0009 05       		.byte	(.L51-.L49)/2
 581 000a 08       		.byte	(.L50-.L49)/2
 582 000b 0B       		.byte	(.L48-.L49)/2
 583              		.p2align 1
 584              	.L52:
 274:Drivers/GD32F30x_standard_peripheral/Source/gd32f30x_sdio.c ****     case SDIO_RESPONSE0:
 275:Drivers/GD32F30x_standard_peripheral/Source/gd32f30x_sdio.c ****         resp_content = SDIO_RESP0;
 585              		.loc 1 275 9 view .LVU111
 586              		.loc 1 275 22 is_stmt 0 view .LVU112
 587 000c 064B     		ldr	r3, .L54
 588 000e 5869     		ldr	r0, [r3, #20]
 589              	.LVL22:
 276:Drivers/GD32F30x_standard_peripheral/Source/gd32f30x_sdio.c ****         break;
 590              		.loc 1 276 9 is_stmt 1 view .LVU113
 591 0010 7047     		bx	lr
 592              	.LVL23:
 593              	.L51:
 277:Drivers/GD32F30x_standard_peripheral/Source/gd32f30x_sdio.c ****     case SDIO_RESPONSE1:
 278:Drivers/GD32F30x_standard_peripheral/Source/gd32f30x_sdio.c ****         resp_content = SDIO_RESP1;
 594              		.loc 1 278 9 view .LVU114
 595              		.loc 1 278 22 is_stmt 0 view .LVU115
 596 0012 054B     		ldr	r3, .L54
 597 0014 9869     		ldr	r0, [r3, #24]
 598              	.LVL24:
 279:Drivers/GD32F30x_standard_peripheral/Source/gd32f30x_sdio.c ****         break;
 599              		.loc 1 279 9 is_stmt 1 view .LVU116
 600 0016 7047     		bx	lr
 601              	.LVL25:
 602              	.L50:
 280:Drivers/GD32F30x_standard_peripheral/Source/gd32f30x_sdio.c ****     case SDIO_RESPONSE2:
 281:Drivers/GD32F30x_standard_peripheral/Source/gd32f30x_sdio.c ****         resp_content = SDIO_RESP2;
 603              		.loc 1 281 9 view .LVU117
ARM GAS  C:\Users\Prog\AppData\Local\Temp\ccKGkBSd.s 			page 16


 604              		.loc 1 281 22 is_stmt 0 view .LVU118
 605 0018 034B     		ldr	r3, .L54
 606 001a D869     		ldr	r0, [r3, #28]
 607              	.LVL26:
 282:Drivers/GD32F30x_standard_peripheral/Source/gd32f30x_sdio.c ****         break;
 608              		.loc 1 282 9 is_stmt 1 view .LVU119
 609 001c 7047     		bx	lr
 610              	.LVL27:
 611              	.L48:
 283:Drivers/GD32F30x_standard_peripheral/Source/gd32f30x_sdio.c ****     case SDIO_RESPONSE3:
 284:Drivers/GD32F30x_standard_peripheral/Source/gd32f30x_sdio.c ****         resp_content = SDIO_RESP3;
 612              		.loc 1 284 9 view .LVU120
 613              		.loc 1 284 22 is_stmt 0 view .LVU121
 614 001e 024B     		ldr	r3, .L54
 615 0020 186A     		ldr	r0, [r3, #32]
 616              	.LVL28:
 285:Drivers/GD32F30x_standard_peripheral/Source/gd32f30x_sdio.c ****         break;
 617              		.loc 1 285 9 is_stmt 1 view .LVU122
 618 0022 7047     		bx	lr
 619              	.LVL29:
 620              	.L53:
 271:Drivers/GD32F30x_standard_peripheral/Source/gd32f30x_sdio.c ****     uint32_t resp_content = 0U;
 621              		.loc 1 271 1 is_stmt 0 view .LVU123
 622 0024 0020     		movs	r0, #0
 623              	.LVL30:
 286:Drivers/GD32F30x_standard_peripheral/Source/gd32f30x_sdio.c ****     default:
 287:Drivers/GD32F30x_standard_peripheral/Source/gd32f30x_sdio.c ****         break;
 288:Drivers/GD32F30x_standard_peripheral/Source/gd32f30x_sdio.c ****     }
 289:Drivers/GD32F30x_standard_peripheral/Source/gd32f30x_sdio.c ****     return resp_content;
 624              		.loc 1 289 5 is_stmt 1 view .LVU124
 290:Drivers/GD32F30x_standard_peripheral/Source/gd32f30x_sdio.c **** }
 625              		.loc 1 290 1 is_stmt 0 view .LVU125
 626 0026 7047     		bx	lr
 627              	.L55:
 628              		.align	2
 629              	.L54:
 630 0028 00800140 		.word	1073840128
 631              		.cfi_endproc
 632              	.LFE130:
 634              		.section	.text.sdio_data_config,"ax",%progbits
 635              		.align	1
 636              		.global	sdio_data_config
 637              		.syntax unified
 638              		.thumb
 639              		.thumb_func
 640              		.fpu fpv4-sp-d16
 642              	sdio_data_config:
 643              	.LVL31:
 644              	.LFB131:
 291:Drivers/GD32F30x_standard_peripheral/Source/gd32f30x_sdio.c **** 
 292:Drivers/GD32F30x_standard_peripheral/Source/gd32f30x_sdio.c **** /*!
 293:Drivers/GD32F30x_standard_peripheral/Source/gd32f30x_sdio.c ****     \brief      configure the data timeout, data length and data block size
 294:Drivers/GD32F30x_standard_peripheral/Source/gd32f30x_sdio.c ****     \param[in]  data_timeout: data timeout period in card bus clock periods
 295:Drivers/GD32F30x_standard_peripheral/Source/gd32f30x_sdio.c ****     \param[in]  data_length: number of data bytes to be transferred
 296:Drivers/GD32F30x_standard_peripheral/Source/gd32f30x_sdio.c ****     \param[in]  data_blocksize: size of data block for block transfer
 297:Drivers/GD32F30x_standard_peripheral/Source/gd32f30x_sdio.c ****                 only one parameter can be selected which is shown as below:
 298:Drivers/GD32F30x_standard_peripheral/Source/gd32f30x_sdio.c ****       \arg        SDIO_DATABLOCKSIZE_1BYTE: block size = 1 byte
ARM GAS  C:\Users\Prog\AppData\Local\Temp\ccKGkBSd.s 			page 17


 299:Drivers/GD32F30x_standard_peripheral/Source/gd32f30x_sdio.c ****       \arg        SDIO_DATABLOCKSIZE_2BYTES: block size = 2 bytes
 300:Drivers/GD32F30x_standard_peripheral/Source/gd32f30x_sdio.c ****       \arg        SDIO_DATABLOCKSIZE_4BYTES: block size = 4 bytes
 301:Drivers/GD32F30x_standard_peripheral/Source/gd32f30x_sdio.c ****       \arg        SDIO_DATABLOCKSIZE_8BYTES: block size = 8 bytes
 302:Drivers/GD32F30x_standard_peripheral/Source/gd32f30x_sdio.c ****       \arg        SDIO_DATABLOCKSIZE_16BYTES: block size = 16 bytes
 303:Drivers/GD32F30x_standard_peripheral/Source/gd32f30x_sdio.c ****       \arg        SDIO_DATABLOCKSIZE_32BYTES: block size = 32 bytes
 304:Drivers/GD32F30x_standard_peripheral/Source/gd32f30x_sdio.c ****       \arg        SDIO_DATABLOCKSIZE_64BYTES: block size = 64 bytes
 305:Drivers/GD32F30x_standard_peripheral/Source/gd32f30x_sdio.c ****       \arg        SDIO_DATABLOCKSIZE_128BYTES: block size = 128 bytes
 306:Drivers/GD32F30x_standard_peripheral/Source/gd32f30x_sdio.c ****       \arg        SDIO_DATABLOCKSIZE_256BYTES: block size = 256 bytes
 307:Drivers/GD32F30x_standard_peripheral/Source/gd32f30x_sdio.c ****       \arg        SDIO_DATABLOCKSIZE_512BYTES: block size = 512 bytes
 308:Drivers/GD32F30x_standard_peripheral/Source/gd32f30x_sdio.c ****       \arg        SDIO_DATABLOCKSIZE_1024BYTES: block size = 1024 bytes
 309:Drivers/GD32F30x_standard_peripheral/Source/gd32f30x_sdio.c ****       \arg        SDIO_DATABLOCKSIZE_2048BYTES: block size = 2048 bytes
 310:Drivers/GD32F30x_standard_peripheral/Source/gd32f30x_sdio.c ****       \arg        SDIO_DATABLOCKSIZE_4096BYTES: block size = 4096 bytes
 311:Drivers/GD32F30x_standard_peripheral/Source/gd32f30x_sdio.c ****       \arg        SDIO_DATABLOCKSIZE_8192BYTES: block size = 8192 bytes
 312:Drivers/GD32F30x_standard_peripheral/Source/gd32f30x_sdio.c ****       \arg        SDIO_DATABLOCKSIZE_16384BYTES: block size = 16384 bytes
 313:Drivers/GD32F30x_standard_peripheral/Source/gd32f30x_sdio.c ****     \param[out] none
 314:Drivers/GD32F30x_standard_peripheral/Source/gd32f30x_sdio.c ****     \retval     none
 315:Drivers/GD32F30x_standard_peripheral/Source/gd32f30x_sdio.c **** */
 316:Drivers/GD32F30x_standard_peripheral/Source/gd32f30x_sdio.c **** void sdio_data_config(uint32_t data_timeout, uint32_t data_length, uint32_t data_blocksize)
 317:Drivers/GD32F30x_standard_peripheral/Source/gd32f30x_sdio.c **** {
 645              		.loc 1 317 1 is_stmt 1 view -0
 646              		.cfi_startproc
 647              		@ args = 0, pretend = 0, frame = 0
 648              		@ frame_needed = 0, uses_anonymous_args = 0
 649              		@ link register save eliminated.
 650              		.loc 1 317 1 is_stmt 0 view .LVU127
 651 0000 10B4     		push	{r4}
 652              	.LCFI4:
 653              		.cfi_def_cfa_offset 4
 654              		.cfi_offset 4, -4
 318:Drivers/GD32F30x_standard_peripheral/Source/gd32f30x_sdio.c ****     /* reset data timeout, data length and data block size */
 319:Drivers/GD32F30x_standard_peripheral/Source/gd32f30x_sdio.c ****     SDIO_DATATO &= ~SDIO_DATATO_DATATO;
 655              		.loc 1 319 5 is_stmt 1 view .LVU128
 656              		.loc 1 319 17 is_stmt 0 view .LVU129
 657 0002 0A4B     		ldr	r3, .L58
 658 0004 5C6A     		ldr	r4, [r3, #36]
 659 0006 0024     		movs	r4, #0
 660 0008 5C62     		str	r4, [r3, #36]
 320:Drivers/GD32F30x_standard_peripheral/Source/gd32f30x_sdio.c ****     SDIO_DATALEN &= ~SDIO_DATALEN_DATALEN;
 661              		.loc 1 320 5 is_stmt 1 view .LVU130
 662              		.loc 1 320 18 is_stmt 0 view .LVU131
 663 000a 9C6A     		ldr	r4, [r3, #40]
 664 000c 04F07E44 		and	r4, r4, #-33554432
 665 0010 9C62     		str	r4, [r3, #40]
 321:Drivers/GD32F30x_standard_peripheral/Source/gd32f30x_sdio.c ****     SDIO_DATACTL &= ~SDIO_DATACTL_BLKSZ;
 666              		.loc 1 321 5 is_stmt 1 view .LVU132
 667              		.loc 1 321 18 is_stmt 0 view .LVU133
 668 0012 DC6A     		ldr	r4, [r3, #44]
 669 0014 24F0F004 		bic	r4, r4, #240
 670 0018 DC62     		str	r4, [r3, #44]
 322:Drivers/GD32F30x_standard_peripheral/Source/gd32f30x_sdio.c ****     /* configure the related parameters of data */
 323:Drivers/GD32F30x_standard_peripheral/Source/gd32f30x_sdio.c ****     SDIO_DATATO = data_timeout;
 671              		.loc 1 323 5 is_stmt 1 view .LVU134
 672              		.loc 1 323 17 is_stmt 0 view .LVU135
 673 001a 5862     		str	r0, [r3, #36]
 324:Drivers/GD32F30x_standard_peripheral/Source/gd32f30x_sdio.c ****     SDIO_DATALEN = data_length;
 674              		.loc 1 324 5 is_stmt 1 view .LVU136
 675              		.loc 1 324 18 is_stmt 0 view .LVU137
ARM GAS  C:\Users\Prog\AppData\Local\Temp\ccKGkBSd.s 			page 18


 676 001c 9962     		str	r1, [r3, #40]
 325:Drivers/GD32F30x_standard_peripheral/Source/gd32f30x_sdio.c ****     SDIO_DATACTL |= data_blocksize;
 677              		.loc 1 325 5 is_stmt 1 view .LVU138
 678              		.loc 1 325 18 is_stmt 0 view .LVU139
 679 001e D96A     		ldr	r1, [r3, #44]
 680              	.LVL32:
 681              		.loc 1 325 18 view .LVU140
 682 0020 1143     		orrs	r1, r1, r2
 683 0022 D962     		str	r1, [r3, #44]
 684              	.LVL33:
 326:Drivers/GD32F30x_standard_peripheral/Source/gd32f30x_sdio.c **** }
 685              		.loc 1 326 1 view .LVU141
 686 0024 5DF8044B 		ldr	r4, [sp], #4
 687              	.LCFI5:
 688              		.cfi_restore 4
 689              		.cfi_def_cfa_offset 0
 690 0028 7047     		bx	lr
 691              	.L59:
 692 002a 00BF     		.align	2
 693              	.L58:
 694 002c 00800140 		.word	1073840128
 695              		.cfi_endproc
 696              	.LFE131:
 698              		.section	.text.sdio_data_transfer_config,"ax",%progbits
 699              		.align	1
 700              		.global	sdio_data_transfer_config
 701              		.syntax unified
 702              		.thumb
 703              		.thumb_func
 704              		.fpu fpv4-sp-d16
 706              	sdio_data_transfer_config:
 707              	.LVL34:
 708              	.LFB132:
 327:Drivers/GD32F30x_standard_peripheral/Source/gd32f30x_sdio.c **** 
 328:Drivers/GD32F30x_standard_peripheral/Source/gd32f30x_sdio.c **** /*!
 329:Drivers/GD32F30x_standard_peripheral/Source/gd32f30x_sdio.c ****     \brief      configure the data transfer mode and direction
 330:Drivers/GD32F30x_standard_peripheral/Source/gd32f30x_sdio.c ****     \param[in]  transfer_mode: mode of data transfer
 331:Drivers/GD32F30x_standard_peripheral/Source/gd32f30x_sdio.c ****                 only one parameter can be selected which is shown as below:
 332:Drivers/GD32F30x_standard_peripheral/Source/gd32f30x_sdio.c ****       \arg       SDIO_TRANSMODE_BLOCK: block transfer
 333:Drivers/GD32F30x_standard_peripheral/Source/gd32f30x_sdio.c ****       \arg       SDIO_TRANSMODE_STREAM: stream transfer or SDIO multibyte transfer
 334:Drivers/GD32F30x_standard_peripheral/Source/gd32f30x_sdio.c ****     \param[in]  transfer_direction: data transfer direction, read or write
 335:Drivers/GD32F30x_standard_peripheral/Source/gd32f30x_sdio.c ****                 only one parameter can be selected which is shown as below:
 336:Drivers/GD32F30x_standard_peripheral/Source/gd32f30x_sdio.c ****       \arg       SDIO_TRANSDIRECTION_TOCARD: write data to card
 337:Drivers/GD32F30x_standard_peripheral/Source/gd32f30x_sdio.c ****       \arg       SDIO_TRANSDIRECTION_TOSDIO: read data from card
 338:Drivers/GD32F30x_standard_peripheral/Source/gd32f30x_sdio.c ****     \param[out] none
 339:Drivers/GD32F30x_standard_peripheral/Source/gd32f30x_sdio.c ****     \retval     none
 340:Drivers/GD32F30x_standard_peripheral/Source/gd32f30x_sdio.c **** */
 341:Drivers/GD32F30x_standard_peripheral/Source/gd32f30x_sdio.c **** void sdio_data_transfer_config(uint32_t transfer_mode, uint32_t transfer_direction)
 342:Drivers/GD32F30x_standard_peripheral/Source/gd32f30x_sdio.c **** {
 709              		.loc 1 342 1 is_stmt 1 view -0
 710              		.cfi_startproc
 711              		@ args = 0, pretend = 0, frame = 0
 712              		@ frame_needed = 0, uses_anonymous_args = 0
 713              		@ link register save eliminated.
 343:Drivers/GD32F30x_standard_peripheral/Source/gd32f30x_sdio.c ****     uint32_t data_trans = 0U;
 714              		.loc 1 343 5 view .LVU143
 344:Drivers/GD32F30x_standard_peripheral/Source/gd32f30x_sdio.c ****     /* reset the data transfer mode, transfer direction and set according to the parameters */
ARM GAS  C:\Users\Prog\AppData\Local\Temp\ccKGkBSd.s 			page 19


 345:Drivers/GD32F30x_standard_peripheral/Source/gd32f30x_sdio.c ****     data_trans = SDIO_DATACTL;
 715              		.loc 1 345 5 view .LVU144
 716              		.loc 1 345 16 is_stmt 0 view .LVU145
 717 0000 034A     		ldr	r2, .L61
 718 0002 D36A     		ldr	r3, [r2, #44]
 719              	.LVL35:
 346:Drivers/GD32F30x_standard_peripheral/Source/gd32f30x_sdio.c ****     data_trans &= ~(SDIO_DATACTL_TRANSMOD | SDIO_DATACTL_DATADIR);
 720              		.loc 1 346 5 is_stmt 1 view .LVU146
 721              		.loc 1 346 16 is_stmt 0 view .LVU147
 722 0004 23F00603 		bic	r3, r3, #6
 723              	.LVL36:
 347:Drivers/GD32F30x_standard_peripheral/Source/gd32f30x_sdio.c ****     data_trans |= (transfer_mode | transfer_direction);
 724              		.loc 1 347 5 is_stmt 1 view .LVU148
 725              		.loc 1 347 34 is_stmt 0 view .LVU149
 726 0008 0843     		orrs	r0, r0, r1
 727              	.LVL37:
 728              		.loc 1 347 16 view .LVU150
 729 000a 1843     		orrs	r0, r0, r3
 730              	.LVL38:
 348:Drivers/GD32F30x_standard_peripheral/Source/gd32f30x_sdio.c ****     SDIO_DATACTL = data_trans;
 731              		.loc 1 348 5 is_stmt 1 view .LVU151
 732              		.loc 1 348 18 is_stmt 0 view .LVU152
 733 000c D062     		str	r0, [r2, #44]
 349:Drivers/GD32F30x_standard_peripheral/Source/gd32f30x_sdio.c **** }
 734              		.loc 1 349 1 view .LVU153
 735 000e 7047     		bx	lr
 736              	.L62:
 737              		.align	2
 738              	.L61:
 739 0010 00800140 		.word	1073840128
 740              		.cfi_endproc
 741              	.LFE132:
 743              		.section	.text.sdio_dsm_enable,"ax",%progbits
 744              		.align	1
 745              		.global	sdio_dsm_enable
 746              		.syntax unified
 747              		.thumb
 748              		.thumb_func
 749              		.fpu fpv4-sp-d16
 751              	sdio_dsm_enable:
 752              	.LFB133:
 350:Drivers/GD32F30x_standard_peripheral/Source/gd32f30x_sdio.c **** 
 351:Drivers/GD32F30x_standard_peripheral/Source/gd32f30x_sdio.c **** /*!
 352:Drivers/GD32F30x_standard_peripheral/Source/gd32f30x_sdio.c ****     \brief      enable the DSM(data state machine) for data transfer
 353:Drivers/GD32F30x_standard_peripheral/Source/gd32f30x_sdio.c ****     \param[in]  none
 354:Drivers/GD32F30x_standard_peripheral/Source/gd32f30x_sdio.c ****     \param[out] none
 355:Drivers/GD32F30x_standard_peripheral/Source/gd32f30x_sdio.c ****     \retval     none
 356:Drivers/GD32F30x_standard_peripheral/Source/gd32f30x_sdio.c **** */
 357:Drivers/GD32F30x_standard_peripheral/Source/gd32f30x_sdio.c **** void sdio_dsm_enable(void)
 358:Drivers/GD32F30x_standard_peripheral/Source/gd32f30x_sdio.c **** {
 753              		.loc 1 358 1 is_stmt 1 view -0
 754              		.cfi_startproc
 755              		@ args = 0, pretend = 0, frame = 0
 756              		@ frame_needed = 0, uses_anonymous_args = 0
 757              		@ link register save eliminated.
 359:Drivers/GD32F30x_standard_peripheral/Source/gd32f30x_sdio.c ****     SDIO_DATACTL |= SDIO_DATACTL_DATAEN;
 758              		.loc 1 359 5 view .LVU155
ARM GAS  C:\Users\Prog\AppData\Local\Temp\ccKGkBSd.s 			page 20


 759              		.loc 1 359 18 is_stmt 0 view .LVU156
 760 0000 024A     		ldr	r2, .L64
 761 0002 D36A     		ldr	r3, [r2, #44]
 762 0004 43F00103 		orr	r3, r3, #1
 763 0008 D362     		str	r3, [r2, #44]
 360:Drivers/GD32F30x_standard_peripheral/Source/gd32f30x_sdio.c **** }
 764              		.loc 1 360 1 view .LVU157
 765 000a 7047     		bx	lr
 766              	.L65:
 767              		.align	2
 768              	.L64:
 769 000c 00800140 		.word	1073840128
 770              		.cfi_endproc
 771              	.LFE133:
 773              		.section	.text.sdio_dsm_disable,"ax",%progbits
 774              		.align	1
 775              		.global	sdio_dsm_disable
 776              		.syntax unified
 777              		.thumb
 778              		.thumb_func
 779              		.fpu fpv4-sp-d16
 781              	sdio_dsm_disable:
 782              	.LFB134:
 361:Drivers/GD32F30x_standard_peripheral/Source/gd32f30x_sdio.c **** 
 362:Drivers/GD32F30x_standard_peripheral/Source/gd32f30x_sdio.c **** /*!
 363:Drivers/GD32F30x_standard_peripheral/Source/gd32f30x_sdio.c ****     \brief      disable the DSM(data state machine)
 364:Drivers/GD32F30x_standard_peripheral/Source/gd32f30x_sdio.c ****     \param[in]  none
 365:Drivers/GD32F30x_standard_peripheral/Source/gd32f30x_sdio.c ****     \param[out] none
 366:Drivers/GD32F30x_standard_peripheral/Source/gd32f30x_sdio.c ****     \retval     none
 367:Drivers/GD32F30x_standard_peripheral/Source/gd32f30x_sdio.c **** */
 368:Drivers/GD32F30x_standard_peripheral/Source/gd32f30x_sdio.c **** void sdio_dsm_disable(void)
 369:Drivers/GD32F30x_standard_peripheral/Source/gd32f30x_sdio.c **** {
 783              		.loc 1 369 1 is_stmt 1 view -0
 784              		.cfi_startproc
 785              		@ args = 0, pretend = 0, frame = 0
 786              		@ frame_needed = 0, uses_anonymous_args = 0
 787              		@ link register save eliminated.
 370:Drivers/GD32F30x_standard_peripheral/Source/gd32f30x_sdio.c ****     SDIO_DATACTL &= ~SDIO_DATACTL_DATAEN;
 788              		.loc 1 370 5 view .LVU159
 789              		.loc 1 370 18 is_stmt 0 view .LVU160
 790 0000 024A     		ldr	r2, .L67
 791 0002 D36A     		ldr	r3, [r2, #44]
 792 0004 23F00103 		bic	r3, r3, #1
 793 0008 D362     		str	r3, [r2, #44]
 371:Drivers/GD32F30x_standard_peripheral/Source/gd32f30x_sdio.c **** }
 794              		.loc 1 371 1 view .LVU161
 795 000a 7047     		bx	lr
 796              	.L68:
 797              		.align	2
 798              	.L67:
 799 000c 00800140 		.word	1073840128
 800              		.cfi_endproc
 801              	.LFE134:
 803              		.section	.text.sdio_data_write,"ax",%progbits
 804              		.align	1
 805              		.global	sdio_data_write
 806              		.syntax unified
ARM GAS  C:\Users\Prog\AppData\Local\Temp\ccKGkBSd.s 			page 21


 807              		.thumb
 808              		.thumb_func
 809              		.fpu fpv4-sp-d16
 811              	sdio_data_write:
 812              	.LVL39:
 813              	.LFB135:
 372:Drivers/GD32F30x_standard_peripheral/Source/gd32f30x_sdio.c **** 
 373:Drivers/GD32F30x_standard_peripheral/Source/gd32f30x_sdio.c **** /*!
 374:Drivers/GD32F30x_standard_peripheral/Source/gd32f30x_sdio.c ****     \brief      write data(one word) to the transmit FIFO
 375:Drivers/GD32F30x_standard_peripheral/Source/gd32f30x_sdio.c ****     \param[in]  data: 32-bit data write to card
 376:Drivers/GD32F30x_standard_peripheral/Source/gd32f30x_sdio.c ****     \param[out] none
 377:Drivers/GD32F30x_standard_peripheral/Source/gd32f30x_sdio.c ****     \retval     none
 378:Drivers/GD32F30x_standard_peripheral/Source/gd32f30x_sdio.c **** */
 379:Drivers/GD32F30x_standard_peripheral/Source/gd32f30x_sdio.c **** void sdio_data_write(uint32_t data)
 380:Drivers/GD32F30x_standard_peripheral/Source/gd32f30x_sdio.c **** {
 814              		.loc 1 380 1 is_stmt 1 view -0
 815              		.cfi_startproc
 816              		@ args = 0, pretend = 0, frame = 0
 817              		@ frame_needed = 0, uses_anonymous_args = 0
 818              		@ link register save eliminated.
 381:Drivers/GD32F30x_standard_peripheral/Source/gd32f30x_sdio.c ****     SDIO_FIFO = data;
 819              		.loc 1 381 5 view .LVU163
 820              		.loc 1 381 15 is_stmt 0 view .LVU164
 821 0000 014B     		ldr	r3, .L70
 822 0002 C3F88000 		str	r0, [r3, #128]
 382:Drivers/GD32F30x_standard_peripheral/Source/gd32f30x_sdio.c **** }
 823              		.loc 1 382 1 view .LVU165
 824 0006 7047     		bx	lr
 825              	.L71:
 826              		.align	2
 827              	.L70:
 828 0008 00800140 		.word	1073840128
 829              		.cfi_endproc
 830              	.LFE135:
 832              		.section	.text.sdio_data_read,"ax",%progbits
 833              		.align	1
 834              		.global	sdio_data_read
 835              		.syntax unified
 836              		.thumb
 837              		.thumb_func
 838              		.fpu fpv4-sp-d16
 840              	sdio_data_read:
 841              	.LFB136:
 383:Drivers/GD32F30x_standard_peripheral/Source/gd32f30x_sdio.c **** 
 384:Drivers/GD32F30x_standard_peripheral/Source/gd32f30x_sdio.c **** /*!
 385:Drivers/GD32F30x_standard_peripheral/Source/gd32f30x_sdio.c ****     \brief      read data(one word) from the receive FIFO
 386:Drivers/GD32F30x_standard_peripheral/Source/gd32f30x_sdio.c ****     \param[in]  none
 387:Drivers/GD32F30x_standard_peripheral/Source/gd32f30x_sdio.c ****     \param[out] none
 388:Drivers/GD32F30x_standard_peripheral/Source/gd32f30x_sdio.c ****     \retval     received data
 389:Drivers/GD32F30x_standard_peripheral/Source/gd32f30x_sdio.c **** */
 390:Drivers/GD32F30x_standard_peripheral/Source/gd32f30x_sdio.c **** uint32_t sdio_data_read(void)
 391:Drivers/GD32F30x_standard_peripheral/Source/gd32f30x_sdio.c **** {
 842              		.loc 1 391 1 is_stmt 1 view -0
 843              		.cfi_startproc
 844              		@ args = 0, pretend = 0, frame = 0
 845              		@ frame_needed = 0, uses_anonymous_args = 0
 846              		@ link register save eliminated.
ARM GAS  C:\Users\Prog\AppData\Local\Temp\ccKGkBSd.s 			page 22


 392:Drivers/GD32F30x_standard_peripheral/Source/gd32f30x_sdio.c ****     return SDIO_FIFO;
 847              		.loc 1 392 5 view .LVU167
 848              		.loc 1 392 12 is_stmt 0 view .LVU168
 849 0000 014B     		ldr	r3, .L73
 850 0002 D3F88000 		ldr	r0, [r3, #128]
 393:Drivers/GD32F30x_standard_peripheral/Source/gd32f30x_sdio.c **** }
 851              		.loc 1 393 1 view .LVU169
 852 0006 7047     		bx	lr
 853              	.L74:
 854              		.align	2
 855              	.L73:
 856 0008 00800140 		.word	1073840128
 857              		.cfi_endproc
 858              	.LFE136:
 860              		.section	.text.sdio_data_counter_get,"ax",%progbits
 861              		.align	1
 862              		.global	sdio_data_counter_get
 863              		.syntax unified
 864              		.thumb
 865              		.thumb_func
 866              		.fpu fpv4-sp-d16
 868              	sdio_data_counter_get:
 869              	.LFB137:
 394:Drivers/GD32F30x_standard_peripheral/Source/gd32f30x_sdio.c **** 
 395:Drivers/GD32F30x_standard_peripheral/Source/gd32f30x_sdio.c **** /*!
 396:Drivers/GD32F30x_standard_peripheral/Source/gd32f30x_sdio.c ****     \brief      get the number of remaining data bytes to be transferred to card
 397:Drivers/GD32F30x_standard_peripheral/Source/gd32f30x_sdio.c ****     \param[in]  none
 398:Drivers/GD32F30x_standard_peripheral/Source/gd32f30x_sdio.c ****     \param[out] none
 399:Drivers/GD32F30x_standard_peripheral/Source/gd32f30x_sdio.c ****     \retval     number of remaining data bytes to be transferred
 400:Drivers/GD32F30x_standard_peripheral/Source/gd32f30x_sdio.c **** */
 401:Drivers/GD32F30x_standard_peripheral/Source/gd32f30x_sdio.c **** uint32_t sdio_data_counter_get(void)
 402:Drivers/GD32F30x_standard_peripheral/Source/gd32f30x_sdio.c **** {
 870              		.loc 1 402 1 is_stmt 1 view -0
 871              		.cfi_startproc
 872              		@ args = 0, pretend = 0, frame = 0
 873              		@ frame_needed = 0, uses_anonymous_args = 0
 874              		@ link register save eliminated.
 403:Drivers/GD32F30x_standard_peripheral/Source/gd32f30x_sdio.c ****     return SDIO_DATACNT;
 875              		.loc 1 403 5 view .LVU171
 876              		.loc 1 403 12 is_stmt 0 view .LVU172
 877 0000 014B     		ldr	r3, .L76
 878 0002 186B     		ldr	r0, [r3, #48]
 404:Drivers/GD32F30x_standard_peripheral/Source/gd32f30x_sdio.c **** }
 879              		.loc 1 404 1 view .LVU173
 880 0004 7047     		bx	lr
 881              	.L77:
 882 0006 00BF     		.align	2
 883              	.L76:
 884 0008 00800140 		.word	1073840128
 885              		.cfi_endproc
 886              	.LFE137:
 888              		.section	.text.sdio_fifo_counter_get,"ax",%progbits
 889              		.align	1
 890              		.global	sdio_fifo_counter_get
 891              		.syntax unified
 892              		.thumb
 893              		.thumb_func
ARM GAS  C:\Users\Prog\AppData\Local\Temp\ccKGkBSd.s 			page 23


 894              		.fpu fpv4-sp-d16
 896              	sdio_fifo_counter_get:
 897              	.LFB138:
 405:Drivers/GD32F30x_standard_peripheral/Source/gd32f30x_sdio.c **** 
 406:Drivers/GD32F30x_standard_peripheral/Source/gd32f30x_sdio.c **** /*!
 407:Drivers/GD32F30x_standard_peripheral/Source/gd32f30x_sdio.c ****     \brief      get the number of words remaining to be written or read from FIFO
 408:Drivers/GD32F30x_standard_peripheral/Source/gd32f30x_sdio.c ****     \param[in]  none
 409:Drivers/GD32F30x_standard_peripheral/Source/gd32f30x_sdio.c ****     \param[out] none
 410:Drivers/GD32F30x_standard_peripheral/Source/gd32f30x_sdio.c ****     \retval     remaining number of words
 411:Drivers/GD32F30x_standard_peripheral/Source/gd32f30x_sdio.c **** */
 412:Drivers/GD32F30x_standard_peripheral/Source/gd32f30x_sdio.c **** uint32_t sdio_fifo_counter_get(void)
 413:Drivers/GD32F30x_standard_peripheral/Source/gd32f30x_sdio.c **** {
 898              		.loc 1 413 1 is_stmt 1 view -0
 899              		.cfi_startproc
 900              		@ args = 0, pretend = 0, frame = 0
 901              		@ frame_needed = 0, uses_anonymous_args = 0
 902              		@ link register save eliminated.
 414:Drivers/GD32F30x_standard_peripheral/Source/gd32f30x_sdio.c ****     return SDIO_FIFOCNT;
 903              		.loc 1 414 5 view .LVU175
 904              		.loc 1 414 12 is_stmt 0 view .LVU176
 905 0000 014B     		ldr	r3, .L79
 906 0002 986C     		ldr	r0, [r3, #72]
 415:Drivers/GD32F30x_standard_peripheral/Source/gd32f30x_sdio.c **** }
 907              		.loc 1 415 1 view .LVU177
 908 0004 7047     		bx	lr
 909              	.L80:
 910 0006 00BF     		.align	2
 911              	.L79:
 912 0008 00800140 		.word	1073840128
 913              		.cfi_endproc
 914              	.LFE138:
 916              		.section	.text.sdio_dma_enable,"ax",%progbits
 917              		.align	1
 918              		.global	sdio_dma_enable
 919              		.syntax unified
 920              		.thumb
 921              		.thumb_func
 922              		.fpu fpv4-sp-d16
 924              	sdio_dma_enable:
 925              	.LFB139:
 416:Drivers/GD32F30x_standard_peripheral/Source/gd32f30x_sdio.c **** 
 417:Drivers/GD32F30x_standard_peripheral/Source/gd32f30x_sdio.c **** /*!
 418:Drivers/GD32F30x_standard_peripheral/Source/gd32f30x_sdio.c ****     \brief      enable the DMA request for SDIO
 419:Drivers/GD32F30x_standard_peripheral/Source/gd32f30x_sdio.c ****     \param[in]  none
 420:Drivers/GD32F30x_standard_peripheral/Source/gd32f30x_sdio.c ****     \param[out] none
 421:Drivers/GD32F30x_standard_peripheral/Source/gd32f30x_sdio.c ****     \retval     none
 422:Drivers/GD32F30x_standard_peripheral/Source/gd32f30x_sdio.c **** */
 423:Drivers/GD32F30x_standard_peripheral/Source/gd32f30x_sdio.c **** void sdio_dma_enable(void)
 424:Drivers/GD32F30x_standard_peripheral/Source/gd32f30x_sdio.c **** {
 926              		.loc 1 424 1 is_stmt 1 view -0
 927              		.cfi_startproc
 928              		@ args = 0, pretend = 0, frame = 0
 929              		@ frame_needed = 0, uses_anonymous_args = 0
 930              		@ link register save eliminated.
 425:Drivers/GD32F30x_standard_peripheral/Source/gd32f30x_sdio.c ****     SDIO_DATACTL |= SDIO_DATACTL_DMAEN;
 931              		.loc 1 425 5 view .LVU179
 932              		.loc 1 425 18 is_stmt 0 view .LVU180
ARM GAS  C:\Users\Prog\AppData\Local\Temp\ccKGkBSd.s 			page 24


 933 0000 024A     		ldr	r2, .L82
 934 0002 D36A     		ldr	r3, [r2, #44]
 935 0004 43F00803 		orr	r3, r3, #8
 936 0008 D362     		str	r3, [r2, #44]
 426:Drivers/GD32F30x_standard_peripheral/Source/gd32f30x_sdio.c **** }
 937              		.loc 1 426 1 view .LVU181
 938 000a 7047     		bx	lr
 939              	.L83:
 940              		.align	2
 941              	.L82:
 942 000c 00800140 		.word	1073840128
 943              		.cfi_endproc
 944              	.LFE139:
 946              		.section	.text.sdio_dma_disable,"ax",%progbits
 947              		.align	1
 948              		.global	sdio_dma_disable
 949              		.syntax unified
 950              		.thumb
 951              		.thumb_func
 952              		.fpu fpv4-sp-d16
 954              	sdio_dma_disable:
 955              	.LFB140:
 427:Drivers/GD32F30x_standard_peripheral/Source/gd32f30x_sdio.c **** 
 428:Drivers/GD32F30x_standard_peripheral/Source/gd32f30x_sdio.c **** /*!
 429:Drivers/GD32F30x_standard_peripheral/Source/gd32f30x_sdio.c ****     \brief      disable the DMA request for SDIO
 430:Drivers/GD32F30x_standard_peripheral/Source/gd32f30x_sdio.c ****     \param[in]  none
 431:Drivers/GD32F30x_standard_peripheral/Source/gd32f30x_sdio.c ****     \param[out] none
 432:Drivers/GD32F30x_standard_peripheral/Source/gd32f30x_sdio.c ****     \retval     none
 433:Drivers/GD32F30x_standard_peripheral/Source/gd32f30x_sdio.c **** */
 434:Drivers/GD32F30x_standard_peripheral/Source/gd32f30x_sdio.c **** void sdio_dma_disable(void)
 435:Drivers/GD32F30x_standard_peripheral/Source/gd32f30x_sdio.c **** {
 956              		.loc 1 435 1 is_stmt 1 view -0
 957              		.cfi_startproc
 958              		@ args = 0, pretend = 0, frame = 0
 959              		@ frame_needed = 0, uses_anonymous_args = 0
 960              		@ link register save eliminated.
 436:Drivers/GD32F30x_standard_peripheral/Source/gd32f30x_sdio.c ****     SDIO_DATACTL &= ~SDIO_DATACTL_DMAEN;
 961              		.loc 1 436 5 view .LVU183
 962              		.loc 1 436 18 is_stmt 0 view .LVU184
 963 0000 024A     		ldr	r2, .L85
 964 0002 D36A     		ldr	r3, [r2, #44]
 965 0004 23F00803 		bic	r3, r3, #8
 966 0008 D362     		str	r3, [r2, #44]
 437:Drivers/GD32F30x_standard_peripheral/Source/gd32f30x_sdio.c **** }
 967              		.loc 1 437 1 view .LVU185
 968 000a 7047     		bx	lr
 969              	.L86:
 970              		.align	2
 971              	.L85:
 972 000c 00800140 		.word	1073840128
 973              		.cfi_endproc
 974              	.LFE140:
 976              		.section	.text.sdio_flag_get,"ax",%progbits
 977              		.align	1
 978              		.global	sdio_flag_get
 979              		.syntax unified
 980              		.thumb
ARM GAS  C:\Users\Prog\AppData\Local\Temp\ccKGkBSd.s 			page 25


 981              		.thumb_func
 982              		.fpu fpv4-sp-d16
 984              	sdio_flag_get:
 985              	.LVL40:
 986              	.LFB141:
 438:Drivers/GD32F30x_standard_peripheral/Source/gd32f30x_sdio.c **** 
 439:Drivers/GD32F30x_standard_peripheral/Source/gd32f30x_sdio.c **** /*!
 440:Drivers/GD32F30x_standard_peripheral/Source/gd32f30x_sdio.c ****     \brief      get the flags state of SDIO
 441:Drivers/GD32F30x_standard_peripheral/Source/gd32f30x_sdio.c ****     \param[in]  flag: flags state of SDIO
 442:Drivers/GD32F30x_standard_peripheral/Source/gd32f30x_sdio.c ****                 one or more parameters can be selected which are shown as below:
 443:Drivers/GD32F30x_standard_peripheral/Source/gd32f30x_sdio.c ****       \arg        SDIO_FLAG_CCRCERR: command response received (CRC check failed) flag
 444:Drivers/GD32F30x_standard_peripheral/Source/gd32f30x_sdio.c ****       \arg        SDIO_FLAG_DTCRCERR: data block sent/received (CRC check failed) flag
 445:Drivers/GD32F30x_standard_peripheral/Source/gd32f30x_sdio.c ****       \arg        SDIO_FLAG_CMDTMOUT: command response timeout flag
 446:Drivers/GD32F30x_standard_peripheral/Source/gd32f30x_sdio.c ****       \arg        SDIO_FLAG_DTTMOUT: data timeout flag
 447:Drivers/GD32F30x_standard_peripheral/Source/gd32f30x_sdio.c ****       \arg        SDIO_FLAG_TXURE: transmit FIFO underrun error occurs flag
 448:Drivers/GD32F30x_standard_peripheral/Source/gd32f30x_sdio.c ****       \arg        SDIO_FLAG_RXORE: received FIFO overrun error occurs flag
 449:Drivers/GD32F30x_standard_peripheral/Source/gd32f30x_sdio.c ****       \arg        SDIO_FLAG_CMDRECV: command response received (CRC check passed) flag
 450:Drivers/GD32F30x_standard_peripheral/Source/gd32f30x_sdio.c ****       \arg        SDIO_FLAG_CMDSEND: command sent (no response required) flag
 451:Drivers/GD32F30x_standard_peripheral/Source/gd32f30x_sdio.c ****       \arg        SDIO_FLAG_DTEND: data end (data counter, SDIO_DATACNT, is zero) flag
 452:Drivers/GD32F30x_standard_peripheral/Source/gd32f30x_sdio.c ****       \arg        SDIO_FLAG_STBITE: start bit error in the bus flag
 453:Drivers/GD32F30x_standard_peripheral/Source/gd32f30x_sdio.c ****       \arg        SDIO_FLAG_DTBLKEND: data block sent/received (CRC check passed) flag
 454:Drivers/GD32F30x_standard_peripheral/Source/gd32f30x_sdio.c ****       \arg        SDIO_FLAG_CMDRUN: command transmission in progress flag
 455:Drivers/GD32F30x_standard_peripheral/Source/gd32f30x_sdio.c ****       \arg        SDIO_FLAG_TXRUN: data transmission in progress flag
 456:Drivers/GD32F30x_standard_peripheral/Source/gd32f30x_sdio.c ****       \arg        SDIO_FLAG_RXRUN: data reception in progress flag
 457:Drivers/GD32F30x_standard_peripheral/Source/gd32f30x_sdio.c ****       \arg        SDIO_FLAG_TFH: transmit FIFO is half empty flag: at least 8 words can be written 
 458:Drivers/GD32F30x_standard_peripheral/Source/gd32f30x_sdio.c ****       \arg        SDIO_FLAG_RFH: receive FIFO is half full flag: at least 8 words can be read in th
 459:Drivers/GD32F30x_standard_peripheral/Source/gd32f30x_sdio.c ****       \arg        SDIO_FLAG_TFF: transmit FIFO is full flag
 460:Drivers/GD32F30x_standard_peripheral/Source/gd32f30x_sdio.c ****       \arg        SDIO_FLAG_RFF: receive FIFO is full flag
 461:Drivers/GD32F30x_standard_peripheral/Source/gd32f30x_sdio.c ****       \arg        SDIO_FLAG_TFE: transmit FIFO is empty flag
 462:Drivers/GD32F30x_standard_peripheral/Source/gd32f30x_sdio.c ****       \arg        SDIO_FLAG_RFE: receive FIFO is empty flag
 463:Drivers/GD32F30x_standard_peripheral/Source/gd32f30x_sdio.c ****       \arg        SDIO_FLAG_TXDTVAL: data is valid in transmit FIFO flag
 464:Drivers/GD32F30x_standard_peripheral/Source/gd32f30x_sdio.c ****       \arg        SDIO_FLAG_RXDTVAL: data is valid in receive FIFO flag
 465:Drivers/GD32F30x_standard_peripheral/Source/gd32f30x_sdio.c ****       \arg        SDIO_FLAG_SDIOINT: SD I/O interrupt received flag
 466:Drivers/GD32F30x_standard_peripheral/Source/gd32f30x_sdio.c ****       \arg        SDIO_FLAG_ATAEND: CE-ATA command completion signal received (only for CMD61) flag
 467:Drivers/GD32F30x_standard_peripheral/Source/gd32f30x_sdio.c ****     \param[out] none
 468:Drivers/GD32F30x_standard_peripheral/Source/gd32f30x_sdio.c ****     \retval     FlagStatus: SET or RESET
 469:Drivers/GD32F30x_standard_peripheral/Source/gd32f30x_sdio.c **** */
 470:Drivers/GD32F30x_standard_peripheral/Source/gd32f30x_sdio.c **** FlagStatus sdio_flag_get(uint32_t flag)
 471:Drivers/GD32F30x_standard_peripheral/Source/gd32f30x_sdio.c **** {
 987              		.loc 1 471 1 is_stmt 1 view -0
 988              		.cfi_startproc
 989              		@ args = 0, pretend = 0, frame = 0
 990              		@ frame_needed = 0, uses_anonymous_args = 0
 991              		@ link register save eliminated.
 472:Drivers/GD32F30x_standard_peripheral/Source/gd32f30x_sdio.c ****     if(RESET != (SDIO_STAT & flag)){
 992              		.loc 1 472 5 view .LVU187
 993              		.loc 1 472 18 is_stmt 0 view .LVU188
 994 0000 034B     		ldr	r3, .L90
 995 0002 5B6B     		ldr	r3, [r3, #52]
 996              		.loc 1 472 7 view .LVU189
 997 0004 0342     		tst	r3, r0
 998 0006 01D1     		bne	.L89
 473:Drivers/GD32F30x_standard_peripheral/Source/gd32f30x_sdio.c ****         return SET;
 474:Drivers/GD32F30x_standard_peripheral/Source/gd32f30x_sdio.c ****     }
 475:Drivers/GD32F30x_standard_peripheral/Source/gd32f30x_sdio.c ****     return RESET;
 999              		.loc 1 475 12 view .LVU190
 1000 0008 0020     		movs	r0, #0
ARM GAS  C:\Users\Prog\AppData\Local\Temp\ccKGkBSd.s 			page 26


 1001              	.LVL41:
 1002              		.loc 1 475 12 view .LVU191
 1003 000a 7047     		bx	lr
 1004              	.LVL42:
 1005              	.L89:
 473:Drivers/GD32F30x_standard_peripheral/Source/gd32f30x_sdio.c ****         return SET;
 1006              		.loc 1 473 16 view .LVU192
 1007 000c 0120     		movs	r0, #1
 1008              	.LVL43:
 476:Drivers/GD32F30x_standard_peripheral/Source/gd32f30x_sdio.c **** }
 1009              		.loc 1 476 1 view .LVU193
 1010 000e 7047     		bx	lr
 1011              	.L91:
 1012              		.align	2
 1013              	.L90:
 1014 0010 00800140 		.word	1073840128
 1015              		.cfi_endproc
 1016              	.LFE141:
 1018              		.section	.text.sdio_flag_clear,"ax",%progbits
 1019              		.align	1
 1020              		.global	sdio_flag_clear
 1021              		.syntax unified
 1022              		.thumb
 1023              		.thumb_func
 1024              		.fpu fpv4-sp-d16
 1026              	sdio_flag_clear:
 1027              	.LVL44:
 1028              	.LFB142:
 477:Drivers/GD32F30x_standard_peripheral/Source/gd32f30x_sdio.c **** 
 478:Drivers/GD32F30x_standard_peripheral/Source/gd32f30x_sdio.c **** /*!
 479:Drivers/GD32F30x_standard_peripheral/Source/gd32f30x_sdio.c ****     \brief      clear the pending flags of SDIO
 480:Drivers/GD32F30x_standard_peripheral/Source/gd32f30x_sdio.c ****     \param[in]  flag: flags state of SDIO
 481:Drivers/GD32F30x_standard_peripheral/Source/gd32f30x_sdio.c ****                 one or more parameters can be selected which are shown as below:
 482:Drivers/GD32F30x_standard_peripheral/Source/gd32f30x_sdio.c ****       \arg        SDIO_FLAG_CCRCERR: command response received (CRC check failed) flag
 483:Drivers/GD32F30x_standard_peripheral/Source/gd32f30x_sdio.c ****       \arg        SDIO_FLAG_DTCRCERR: data block sent/received (CRC check failed) flag
 484:Drivers/GD32F30x_standard_peripheral/Source/gd32f30x_sdio.c ****       \arg        SDIO_FLAG_CMDTMOUT: command response timeout flag
 485:Drivers/GD32F30x_standard_peripheral/Source/gd32f30x_sdio.c ****       \arg        SDIO_FLAG_DTTMOUT: data timeout flag
 486:Drivers/GD32F30x_standard_peripheral/Source/gd32f30x_sdio.c ****       \arg        SDIO_FLAG_TXURE: transmit FIFO underrun error occurs flag
 487:Drivers/GD32F30x_standard_peripheral/Source/gd32f30x_sdio.c ****       \arg        SDIO_FLAG_RXORE: received FIFO overrun error occurs flag
 488:Drivers/GD32F30x_standard_peripheral/Source/gd32f30x_sdio.c ****       \arg        SDIO_FLAG_CMDRECV: command response received (CRC check passed) flag
 489:Drivers/GD32F30x_standard_peripheral/Source/gd32f30x_sdio.c ****       \arg        SDIO_FLAG_CMDSEND: command sent (no response required) flag
 490:Drivers/GD32F30x_standard_peripheral/Source/gd32f30x_sdio.c ****       \arg        SDIO_FLAG_DTEND: data end (data counter, SDIO_DATACNT, is zero) flag
 491:Drivers/GD32F30x_standard_peripheral/Source/gd32f30x_sdio.c ****       \arg        SDIO_FLAG_STBITE: start bit error in the bus flag
 492:Drivers/GD32F30x_standard_peripheral/Source/gd32f30x_sdio.c ****       \arg        SDIO_FLAG_DTBLKEND: data block sent/received (CRC check passed) flag
 493:Drivers/GD32F30x_standard_peripheral/Source/gd32f30x_sdio.c ****       \arg        SDIO_FLAG_SDIOINT: SD I/O interrupt received flag
 494:Drivers/GD32F30x_standard_peripheral/Source/gd32f30x_sdio.c ****       \arg        SDIO_FLAG_ATAEND: CE-ATA command completion signal received (only for CMD61) flag
 495:Drivers/GD32F30x_standard_peripheral/Source/gd32f30x_sdio.c ****     \param[out] none
 496:Drivers/GD32F30x_standard_peripheral/Source/gd32f30x_sdio.c ****     \retval     none
 497:Drivers/GD32F30x_standard_peripheral/Source/gd32f30x_sdio.c **** */
 498:Drivers/GD32F30x_standard_peripheral/Source/gd32f30x_sdio.c **** void sdio_flag_clear(uint32_t flag)
 499:Drivers/GD32F30x_standard_peripheral/Source/gd32f30x_sdio.c **** {
 1029              		.loc 1 499 1 is_stmt 1 view -0
 1030              		.cfi_startproc
 1031              		@ args = 0, pretend = 0, frame = 0
 1032              		@ frame_needed = 0, uses_anonymous_args = 0
 1033              		@ link register save eliminated.
 500:Drivers/GD32F30x_standard_peripheral/Source/gd32f30x_sdio.c ****     SDIO_INTC = flag;
ARM GAS  C:\Users\Prog\AppData\Local\Temp\ccKGkBSd.s 			page 27


 1034              		.loc 1 500 5 view .LVU195
 1035              		.loc 1 500 15 is_stmt 0 view .LVU196
 1036 0000 014B     		ldr	r3, .L93
 1037 0002 9863     		str	r0, [r3, #56]
 501:Drivers/GD32F30x_standard_peripheral/Source/gd32f30x_sdio.c **** }
 1038              		.loc 1 501 1 view .LVU197
 1039 0004 7047     		bx	lr
 1040              	.L94:
 1041 0006 00BF     		.align	2
 1042              	.L93:
 1043 0008 00800140 		.word	1073840128
 1044              		.cfi_endproc
 1045              	.LFE142:
 1047              		.section	.text.sdio_interrupt_enable,"ax",%progbits
 1048              		.align	1
 1049              		.global	sdio_interrupt_enable
 1050              		.syntax unified
 1051              		.thumb
 1052              		.thumb_func
 1053              		.fpu fpv4-sp-d16
 1055              	sdio_interrupt_enable:
 1056              	.LVL45:
 1057              	.LFB143:
 502:Drivers/GD32F30x_standard_peripheral/Source/gd32f30x_sdio.c **** 
 503:Drivers/GD32F30x_standard_peripheral/Source/gd32f30x_sdio.c **** /*!
 504:Drivers/GD32F30x_standard_peripheral/Source/gd32f30x_sdio.c ****     \brief      enable the SDIO interrupt
 505:Drivers/GD32F30x_standard_peripheral/Source/gd32f30x_sdio.c ****     \param[in]  int_flag: interrupt flags state of SDIO
 506:Drivers/GD32F30x_standard_peripheral/Source/gd32f30x_sdio.c ****                 one or more parameters can be selected which are shown as below:
 507:Drivers/GD32F30x_standard_peripheral/Source/gd32f30x_sdio.c ****       \arg        SDIO_INT_CCRCERR: SDIO CCRCERR interrupt
 508:Drivers/GD32F30x_standard_peripheral/Source/gd32f30x_sdio.c ****       \arg        SDIO_INT_DTCRCERR: SDIO DTCRCERR interrupt
 509:Drivers/GD32F30x_standard_peripheral/Source/gd32f30x_sdio.c ****       \arg        SDIO_INT_CMDTMOUT: SDIO CMDTMOUT interrupt
 510:Drivers/GD32F30x_standard_peripheral/Source/gd32f30x_sdio.c ****       \arg        SDIO_INT_DTTMOUT: SDIO DTTMOUT interrupt
 511:Drivers/GD32F30x_standard_peripheral/Source/gd32f30x_sdio.c ****       \arg        SDIO_INT_TXURE: SDIO TXURE interrupt
 512:Drivers/GD32F30x_standard_peripheral/Source/gd32f30x_sdio.c ****       \arg        SDIO_INT_RXORE: SDIO RXORE interrupt
 513:Drivers/GD32F30x_standard_peripheral/Source/gd32f30x_sdio.c ****       \arg        SDIO_INT_CMDRECV: SDIO CMDRECV interrupt
 514:Drivers/GD32F30x_standard_peripheral/Source/gd32f30x_sdio.c ****       \arg        SDIO_INT_CMDSEND: SDIO CMDSEND interrupt
 515:Drivers/GD32F30x_standard_peripheral/Source/gd32f30x_sdio.c ****       \arg        SDIO_INT_DTEND: SDIO DTEND interrupt
 516:Drivers/GD32F30x_standard_peripheral/Source/gd32f30x_sdio.c ****       \arg        SDIO_INT_STBITE: SDIO STBITE interrupt
 517:Drivers/GD32F30x_standard_peripheral/Source/gd32f30x_sdio.c ****       \arg        SDIO_INT_DTBLKEND: SDIO DTBLKEND interrupt
 518:Drivers/GD32F30x_standard_peripheral/Source/gd32f30x_sdio.c ****       \arg        SDIO_INT_CMDRUN: SDIO CMDRUN interrupt
 519:Drivers/GD32F30x_standard_peripheral/Source/gd32f30x_sdio.c ****       \arg        SDIO_INT_TXRUN: SDIO TXRUN interrupt
 520:Drivers/GD32F30x_standard_peripheral/Source/gd32f30x_sdio.c ****       \arg        SDIO_INT_RXRUN: SDIO RXRUN interrupt
 521:Drivers/GD32F30x_standard_peripheral/Source/gd32f30x_sdio.c ****       \arg        SDIO_INT_TFH: SDIO TFH interrupt
 522:Drivers/GD32F30x_standard_peripheral/Source/gd32f30x_sdio.c ****       \arg        SDIO_INT_RFH: SDIO RFH interrupt
 523:Drivers/GD32F30x_standard_peripheral/Source/gd32f30x_sdio.c ****       \arg        SDIO_INT_TFF: SDIO TFF interrupt
 524:Drivers/GD32F30x_standard_peripheral/Source/gd32f30x_sdio.c ****       \arg        SDIO_INT_RFF: SDIO RFF interrupt
 525:Drivers/GD32F30x_standard_peripheral/Source/gd32f30x_sdio.c ****       \arg        SDIO_INT_TFE: SDIO TFE interrupt
 526:Drivers/GD32F30x_standard_peripheral/Source/gd32f30x_sdio.c ****       \arg        SDIO_INT_RFE: SDIO RFE interrupt
 527:Drivers/GD32F30x_standard_peripheral/Source/gd32f30x_sdio.c ****       \arg        SDIO_INT_TXDTVAL: SDIO TXDTVAL interrupt
 528:Drivers/GD32F30x_standard_peripheral/Source/gd32f30x_sdio.c ****       \arg        SDIO_INT_RXDTVAL: SDIO RXDTVAL interrupt
 529:Drivers/GD32F30x_standard_peripheral/Source/gd32f30x_sdio.c ****       \arg        SDIO_INT_SDIOINT: SDIO SDIOINT interrupt
 530:Drivers/GD32F30x_standard_peripheral/Source/gd32f30x_sdio.c ****       \arg        SDIO_INT_ATAEND: SDIO ATAEND interrupt
 531:Drivers/GD32F30x_standard_peripheral/Source/gd32f30x_sdio.c ****     \param[out] none
 532:Drivers/GD32F30x_standard_peripheral/Source/gd32f30x_sdio.c ****     \retval     none
 533:Drivers/GD32F30x_standard_peripheral/Source/gd32f30x_sdio.c **** */
 534:Drivers/GD32F30x_standard_peripheral/Source/gd32f30x_sdio.c **** void sdio_interrupt_enable(uint32_t int_flag)
 535:Drivers/GD32F30x_standard_peripheral/Source/gd32f30x_sdio.c **** {
ARM GAS  C:\Users\Prog\AppData\Local\Temp\ccKGkBSd.s 			page 28


 1058              		.loc 1 535 1 is_stmt 1 view -0
 1059              		.cfi_startproc
 1060              		@ args = 0, pretend = 0, frame = 0
 1061              		@ frame_needed = 0, uses_anonymous_args = 0
 1062              		@ link register save eliminated.
 536:Drivers/GD32F30x_standard_peripheral/Source/gd32f30x_sdio.c ****     SDIO_INTEN |= int_flag;
 1063              		.loc 1 536 5 view .LVU199
 1064              		.loc 1 536 16 is_stmt 0 view .LVU200
 1065 0000 024A     		ldr	r2, .L96
 1066 0002 D36B     		ldr	r3, [r2, #60]
 1067 0004 0343     		orrs	r3, r3, r0
 1068 0006 D363     		str	r3, [r2, #60]
 537:Drivers/GD32F30x_standard_peripheral/Source/gd32f30x_sdio.c **** }
 1069              		.loc 1 537 1 view .LVU201
 1070 0008 7047     		bx	lr
 1071              	.L97:
 1072 000a 00BF     		.align	2
 1073              	.L96:
 1074 000c 00800140 		.word	1073840128
 1075              		.cfi_endproc
 1076              	.LFE143:
 1078              		.section	.text.sdio_interrupt_disable,"ax",%progbits
 1079              		.align	1
 1080              		.global	sdio_interrupt_disable
 1081              		.syntax unified
 1082              		.thumb
 1083              		.thumb_func
 1084              		.fpu fpv4-sp-d16
 1086              	sdio_interrupt_disable:
 1087              	.LVL46:
 1088              	.LFB144:
 538:Drivers/GD32F30x_standard_peripheral/Source/gd32f30x_sdio.c **** 
 539:Drivers/GD32F30x_standard_peripheral/Source/gd32f30x_sdio.c **** /*!
 540:Drivers/GD32F30x_standard_peripheral/Source/gd32f30x_sdio.c ****     \brief      disable the SDIO interrupt
 541:Drivers/GD32F30x_standard_peripheral/Source/gd32f30x_sdio.c ****     \param[in]  int_flag: interrupt flags state of SDIO
 542:Drivers/GD32F30x_standard_peripheral/Source/gd32f30x_sdio.c ****                 one or more parameters can be selected which are shown as below:
 543:Drivers/GD32F30x_standard_peripheral/Source/gd32f30x_sdio.c ****       \arg        SDIO_INT_CCRCERR: SDIO CCRCERR interrupt
 544:Drivers/GD32F30x_standard_peripheral/Source/gd32f30x_sdio.c ****       \arg        SDIO_INT_DTCRCERR: SDIO DTCRCERR interrupt
 545:Drivers/GD32F30x_standard_peripheral/Source/gd32f30x_sdio.c ****       \arg        SDIO_INT_CMDTMOUT: SDIO CMDTMOUT interrupt
 546:Drivers/GD32F30x_standard_peripheral/Source/gd32f30x_sdio.c ****       \arg        SDIO_INT_DTTMOUT: SDIO DTTMOUT interrupt
 547:Drivers/GD32F30x_standard_peripheral/Source/gd32f30x_sdio.c ****       \arg        SDIO_INT_TXURE: SDIO TXURE interrupt
 548:Drivers/GD32F30x_standard_peripheral/Source/gd32f30x_sdio.c ****       \arg        SDIO_INT_RXORE: SDIO RXORE interrupt
 549:Drivers/GD32F30x_standard_peripheral/Source/gd32f30x_sdio.c ****       \arg        SDIO_INT_CMDRECV: SDIO CMDRECV interrupt
 550:Drivers/GD32F30x_standard_peripheral/Source/gd32f30x_sdio.c ****       \arg        SDIO_INT_CMDSEND: SDIO CMDSEND interrupt
 551:Drivers/GD32F30x_standard_peripheral/Source/gd32f30x_sdio.c ****       \arg        SDIO_INT_DTEND: SDIO DTEND interrupt
 552:Drivers/GD32F30x_standard_peripheral/Source/gd32f30x_sdio.c ****       \arg        SDIO_INT_STBITE: SDIO STBITE interrupt
 553:Drivers/GD32F30x_standard_peripheral/Source/gd32f30x_sdio.c ****       \arg        SDIO_INT_DTBLKEND: SDIO DTBLKEND interrupt
 554:Drivers/GD32F30x_standard_peripheral/Source/gd32f30x_sdio.c ****       \arg        SDIO_INT_CMDRUN: SDIO CMDRUN interrupt
 555:Drivers/GD32F30x_standard_peripheral/Source/gd32f30x_sdio.c ****       \arg        SDIO_INT_TXRUN: SDIO TXRUN interrupt
 556:Drivers/GD32F30x_standard_peripheral/Source/gd32f30x_sdio.c ****       \arg        SDIO_INT_RXRUN: SDIO RXRUN interrupt
 557:Drivers/GD32F30x_standard_peripheral/Source/gd32f30x_sdio.c ****       \arg        SDIO_INT_TFH: SDIO TFH interrupt
 558:Drivers/GD32F30x_standard_peripheral/Source/gd32f30x_sdio.c ****       \arg        SDIO_INT_RFH: SDIO RFH interrupt
 559:Drivers/GD32F30x_standard_peripheral/Source/gd32f30x_sdio.c ****       \arg        SDIO_INT_TFF: SDIO TFF interrupt
 560:Drivers/GD32F30x_standard_peripheral/Source/gd32f30x_sdio.c ****       \arg        SDIO_INT_RFF: SDIO RFF interrupt
 561:Drivers/GD32F30x_standard_peripheral/Source/gd32f30x_sdio.c ****       \arg        SDIO_INT_TFE: SDIO TFE interrupt
 562:Drivers/GD32F30x_standard_peripheral/Source/gd32f30x_sdio.c ****       \arg        SDIO_INT_RFE: SDIO RFE interrupt
 563:Drivers/GD32F30x_standard_peripheral/Source/gd32f30x_sdio.c ****       \arg        SDIO_INT_TXDTVAL: SDIO TXDTVAL interrupt
ARM GAS  C:\Users\Prog\AppData\Local\Temp\ccKGkBSd.s 			page 29


 564:Drivers/GD32F30x_standard_peripheral/Source/gd32f30x_sdio.c ****       \arg        SDIO_INT_RXDTVAL: SDIO RXDTVAL interrupt
 565:Drivers/GD32F30x_standard_peripheral/Source/gd32f30x_sdio.c ****       \arg        SDIO_INT_SDIOINT: SDIO SDIOINT interrupt
 566:Drivers/GD32F30x_standard_peripheral/Source/gd32f30x_sdio.c ****       \arg        SDIO_INT_ATAEND: SDIO ATAEND interrupt
 567:Drivers/GD32F30x_standard_peripheral/Source/gd32f30x_sdio.c ****     \param[out] none
 568:Drivers/GD32F30x_standard_peripheral/Source/gd32f30x_sdio.c ****     \retval     none
 569:Drivers/GD32F30x_standard_peripheral/Source/gd32f30x_sdio.c **** */
 570:Drivers/GD32F30x_standard_peripheral/Source/gd32f30x_sdio.c **** void sdio_interrupt_disable(uint32_t int_flag)
 571:Drivers/GD32F30x_standard_peripheral/Source/gd32f30x_sdio.c **** {
 1089              		.loc 1 571 1 is_stmt 1 view -0
 1090              		.cfi_startproc
 1091              		@ args = 0, pretend = 0, frame = 0
 1092              		@ frame_needed = 0, uses_anonymous_args = 0
 1093              		@ link register save eliminated.
 572:Drivers/GD32F30x_standard_peripheral/Source/gd32f30x_sdio.c ****     SDIO_INTEN &= ~int_flag;
 1094              		.loc 1 572 5 view .LVU203
 1095              		.loc 1 572 16 is_stmt 0 view .LVU204
 1096 0000 024A     		ldr	r2, .L99
 1097 0002 D36B     		ldr	r3, [r2, #60]
 1098 0004 23EA0003 		bic	r3, r3, r0
 1099 0008 D363     		str	r3, [r2, #60]
 573:Drivers/GD32F30x_standard_peripheral/Source/gd32f30x_sdio.c **** }
 1100              		.loc 1 573 1 view .LVU205
 1101 000a 7047     		bx	lr
 1102              	.L100:
 1103              		.align	2
 1104              	.L99:
 1105 000c 00800140 		.word	1073840128
 1106              		.cfi_endproc
 1107              	.LFE144:
 1109              		.section	.text.sdio_interrupt_flag_get,"ax",%progbits
 1110              		.align	1
 1111              		.global	sdio_interrupt_flag_get
 1112              		.syntax unified
 1113              		.thumb
 1114              		.thumb_func
 1115              		.fpu fpv4-sp-d16
 1117              	sdio_interrupt_flag_get:
 1118              	.LVL47:
 1119              	.LFB145:
 574:Drivers/GD32F30x_standard_peripheral/Source/gd32f30x_sdio.c **** 
 575:Drivers/GD32F30x_standard_peripheral/Source/gd32f30x_sdio.c **** /*!
 576:Drivers/GD32F30x_standard_peripheral/Source/gd32f30x_sdio.c ****     \brief      get the interrupt flags state of SDIO
 577:Drivers/GD32F30x_standard_peripheral/Source/gd32f30x_sdio.c ****     \param[in]  int_flag: interrupt flags state of SDIO
 578:Drivers/GD32F30x_standard_peripheral/Source/gd32f30x_sdio.c ****                 one or more parameters can be selected which are shown as below:
 579:Drivers/GD32F30x_standard_peripheral/Source/gd32f30x_sdio.c ****       \arg        SDIO_INT_FLAG_CCRCERR: SDIO CCRCERR interrupt flag
 580:Drivers/GD32F30x_standard_peripheral/Source/gd32f30x_sdio.c ****       \arg        SDIO_INT_FLAG_DTCRCERR: SDIO DTCRCERR interrupt flag
 581:Drivers/GD32F30x_standard_peripheral/Source/gd32f30x_sdio.c ****       \arg        SDIO_INT_FLAG_CMDTMOUT: SDIO CMDTMOUT interrupt flag
 582:Drivers/GD32F30x_standard_peripheral/Source/gd32f30x_sdio.c ****       \arg        SDIO_INT_FLAG_DTTMOUT: SDIO DTTMOUT interrupt flag
 583:Drivers/GD32F30x_standard_peripheral/Source/gd32f30x_sdio.c ****       \arg        SDIO_INT_FLAG_TXURE: SDIO TXURE interrupt flag
 584:Drivers/GD32F30x_standard_peripheral/Source/gd32f30x_sdio.c ****       \arg        SDIO_INT_FLAG_RXORE: SDIO RXORE interrupt flag
 585:Drivers/GD32F30x_standard_peripheral/Source/gd32f30x_sdio.c ****       \arg        SDIO_INT_FLAG_CMDRECV: SDIO CMDRECV interrupt flag
 586:Drivers/GD32F30x_standard_peripheral/Source/gd32f30x_sdio.c ****       \arg        SDIO_INT_FLAG_CMDSEND: SDIO CMDSEND interrupt flag
 587:Drivers/GD32F30x_standard_peripheral/Source/gd32f30x_sdio.c ****       \arg        SDIO_INT_FLAG_DTEND: SDIO DTEND interrupt flag
 588:Drivers/GD32F30x_standard_peripheral/Source/gd32f30x_sdio.c ****       \arg        SDIO_INT_FLAG_STBITE: SDIO STBITE interrupt flag
 589:Drivers/GD32F30x_standard_peripheral/Source/gd32f30x_sdio.c ****       \arg        SDIO_INT_FLAG_DTBLKEND: SDIO DTBLKEND interrupt flag
 590:Drivers/GD32F30x_standard_peripheral/Source/gd32f30x_sdio.c ****       \arg        SDIO_INT_FLAG_CMDRUN: SDIO CMDRUN interrupt flag
 591:Drivers/GD32F30x_standard_peripheral/Source/gd32f30x_sdio.c ****       \arg        SDIO_INT_FLAG_TXRUN: SDIO TXRUN interrupt flag
ARM GAS  C:\Users\Prog\AppData\Local\Temp\ccKGkBSd.s 			page 30


 592:Drivers/GD32F30x_standard_peripheral/Source/gd32f30x_sdio.c ****       \arg        SDIO_INT_FLAG_RXRUN: SDIO RXRUN interrupt flag
 593:Drivers/GD32F30x_standard_peripheral/Source/gd32f30x_sdio.c ****       \arg        SDIO_INT_FLAG_TFH: SDIO TFH interrupt flag
 594:Drivers/GD32F30x_standard_peripheral/Source/gd32f30x_sdio.c ****       \arg        SDIO_INT_FLAG_RFH: SDIO RFH interrupt flag
 595:Drivers/GD32F30x_standard_peripheral/Source/gd32f30x_sdio.c ****       \arg        SDIO_INT_FLAG_TFF: SDIO TFF interrupt flag
 596:Drivers/GD32F30x_standard_peripheral/Source/gd32f30x_sdio.c ****       \arg        SDIO_INT_FLAG_RFF: SDIO RFF interrupt flag
 597:Drivers/GD32F30x_standard_peripheral/Source/gd32f30x_sdio.c ****       \arg        SDIO_INT_FLAG_TFE: SDIO TFE interrupt flag
 598:Drivers/GD32F30x_standard_peripheral/Source/gd32f30x_sdio.c ****       \arg        SDIO_INT_FLAG_RFE: SDIO RFE interrupt flag
 599:Drivers/GD32F30x_standard_peripheral/Source/gd32f30x_sdio.c ****       \arg        SDIO_INT_FLAG_TXDTVAL: SDIO TXDTVAL interrupt flag
 600:Drivers/GD32F30x_standard_peripheral/Source/gd32f30x_sdio.c ****       \arg        SDIO_INT_FLAG_RXDTVAL: SDIO RXDTVAL interrupt flag
 601:Drivers/GD32F30x_standard_peripheral/Source/gd32f30x_sdio.c ****       \arg        SDIO_INT_FLAG_SDIOINT: SDIO SDIOINT interrupt flag
 602:Drivers/GD32F30x_standard_peripheral/Source/gd32f30x_sdio.c ****       \arg        SDIO_INT_FLAG_ATAEND: SDIO ATAEND interrupt flag
 603:Drivers/GD32F30x_standard_peripheral/Source/gd32f30x_sdio.c ****     \param[out] none
 604:Drivers/GD32F30x_standard_peripheral/Source/gd32f30x_sdio.c ****     \retval     FlagStatus: SET or RESET
 605:Drivers/GD32F30x_standard_peripheral/Source/gd32f30x_sdio.c **** */
 606:Drivers/GD32F30x_standard_peripheral/Source/gd32f30x_sdio.c **** FlagStatus sdio_interrupt_flag_get(uint32_t int_flag)
 607:Drivers/GD32F30x_standard_peripheral/Source/gd32f30x_sdio.c **** {
 1120              		.loc 1 607 1 is_stmt 1 view -0
 1121              		.cfi_startproc
 1122              		@ args = 0, pretend = 0, frame = 0
 1123              		@ frame_needed = 0, uses_anonymous_args = 0
 1124              		@ link register save eliminated.
 608:Drivers/GD32F30x_standard_peripheral/Source/gd32f30x_sdio.c ****     if(RESET != (SDIO_STAT & int_flag)){
 1125              		.loc 1 608 5 view .LVU207
 1126              		.loc 1 608 18 is_stmt 0 view .LVU208
 1127 0000 034B     		ldr	r3, .L104
 1128 0002 5B6B     		ldr	r3, [r3, #52]
 1129              		.loc 1 608 7 view .LVU209
 1130 0004 0342     		tst	r3, r0
 1131 0006 01D1     		bne	.L103
 609:Drivers/GD32F30x_standard_peripheral/Source/gd32f30x_sdio.c ****         return SET;
 610:Drivers/GD32F30x_standard_peripheral/Source/gd32f30x_sdio.c ****     }
 611:Drivers/GD32F30x_standard_peripheral/Source/gd32f30x_sdio.c ****     return RESET;
 1132              		.loc 1 611 12 view .LVU210
 1133 0008 0020     		movs	r0, #0
 1134              	.LVL48:
 1135              		.loc 1 611 12 view .LVU211
 1136 000a 7047     		bx	lr
 1137              	.LVL49:
 1138              	.L103:
 609:Drivers/GD32F30x_standard_peripheral/Source/gd32f30x_sdio.c ****         return SET;
 1139              		.loc 1 609 16 view .LVU212
 1140 000c 0120     		movs	r0, #1
 1141              	.LVL50:
 612:Drivers/GD32F30x_standard_peripheral/Source/gd32f30x_sdio.c **** }
 1142              		.loc 1 612 1 view .LVU213
 1143 000e 7047     		bx	lr
 1144              	.L105:
 1145              		.align	2
 1146              	.L104:
 1147 0010 00800140 		.word	1073840128
 1148              		.cfi_endproc
 1149              	.LFE145:
 1151              		.section	.text.sdio_interrupt_flag_clear,"ax",%progbits
 1152              		.align	1
 1153              		.global	sdio_interrupt_flag_clear
 1154              		.syntax unified
 1155              		.thumb
ARM GAS  C:\Users\Prog\AppData\Local\Temp\ccKGkBSd.s 			page 31


 1156              		.thumb_func
 1157              		.fpu fpv4-sp-d16
 1159              	sdio_interrupt_flag_clear:
 1160              	.LVL51:
 1161              	.LFB146:
 613:Drivers/GD32F30x_standard_peripheral/Source/gd32f30x_sdio.c **** 
 614:Drivers/GD32F30x_standard_peripheral/Source/gd32f30x_sdio.c **** /*!
 615:Drivers/GD32F30x_standard_peripheral/Source/gd32f30x_sdio.c ****     \brief      clear the interrupt pending flags of SDIO
 616:Drivers/GD32F30x_standard_peripheral/Source/gd32f30x_sdio.c ****     \param[in]  int_flag: interrupt flags state of SDIO
 617:Drivers/GD32F30x_standard_peripheral/Source/gd32f30x_sdio.c ****                 one or more parameters can be selected which are shown as below:
 618:Drivers/GD32F30x_standard_peripheral/Source/gd32f30x_sdio.c ****       \arg        SDIO_INT_FLAG_CCRCERR: command response received (CRC check failed) flag
 619:Drivers/GD32F30x_standard_peripheral/Source/gd32f30x_sdio.c ****       \arg        SDIO_INT_FLAG_DTCRCERR: data block sent/received (CRC check failed) flag
 620:Drivers/GD32F30x_standard_peripheral/Source/gd32f30x_sdio.c ****       \arg        SDIO_INT_FLAG_CMDTMOUT: command response timeout flag
 621:Drivers/GD32F30x_standard_peripheral/Source/gd32f30x_sdio.c ****       \arg        SDIO_INT_FLAG_DTTMOUT: data timeout flag
 622:Drivers/GD32F30x_standard_peripheral/Source/gd32f30x_sdio.c ****       \arg        SDIO_INT_FLAG_TXURE: transmit FIFO underrun error occurs flag
 623:Drivers/GD32F30x_standard_peripheral/Source/gd32f30x_sdio.c ****       \arg        SDIO_INT_FLAG_RXORE: received FIFO overrun error occurs flag
 624:Drivers/GD32F30x_standard_peripheral/Source/gd32f30x_sdio.c ****       \arg        SDIO_INT_FLAG_CMDRECV: command response received (CRC check passed) flag
 625:Drivers/GD32F30x_standard_peripheral/Source/gd32f30x_sdio.c ****       \arg        SDIO_INT_FLAG_CMDSEND: command sent (no response required) flag
 626:Drivers/GD32F30x_standard_peripheral/Source/gd32f30x_sdio.c ****       \arg        SDIO_INT_FLAG_DTEND: data end (data counter, SDIO_DATACNT, is zero) flag
 627:Drivers/GD32F30x_standard_peripheral/Source/gd32f30x_sdio.c ****       \arg        SDIO_INT_FLAG_STBITE: start bit error in the bus flag
 628:Drivers/GD32F30x_standard_peripheral/Source/gd32f30x_sdio.c ****       \arg        SDIO_INT_FLAG_DTBLKEND: data block sent/received (CRC check passed) flag
 629:Drivers/GD32F30x_standard_peripheral/Source/gd32f30x_sdio.c ****       \arg        SDIO_INT_FLAG_SDIOINT: SD I/O interrupt received flag
 630:Drivers/GD32F30x_standard_peripheral/Source/gd32f30x_sdio.c ****       \arg        SDIO_INT_FLAG_ATAEND: CE-ATA command completion signal received (only for CMD61) 
 631:Drivers/GD32F30x_standard_peripheral/Source/gd32f30x_sdio.c ****     \param[out] none
 632:Drivers/GD32F30x_standard_peripheral/Source/gd32f30x_sdio.c ****     \retval     none
 633:Drivers/GD32F30x_standard_peripheral/Source/gd32f30x_sdio.c **** */
 634:Drivers/GD32F30x_standard_peripheral/Source/gd32f30x_sdio.c **** void sdio_interrupt_flag_clear(uint32_t int_flag)
 635:Drivers/GD32F30x_standard_peripheral/Source/gd32f30x_sdio.c **** {
 1162              		.loc 1 635 1 is_stmt 1 view -0
 1163              		.cfi_startproc
 1164              		@ args = 0, pretend = 0, frame = 0
 1165              		@ frame_needed = 0, uses_anonymous_args = 0
 1166              		@ link register save eliminated.
 636:Drivers/GD32F30x_standard_peripheral/Source/gd32f30x_sdio.c ****     SDIO_INTC = int_flag;
 1167              		.loc 1 636 5 view .LVU215
 1168              		.loc 1 636 15 is_stmt 0 view .LVU216
 1169 0000 014B     		ldr	r3, .L107
 1170 0002 9863     		str	r0, [r3, #56]
 637:Drivers/GD32F30x_standard_peripheral/Source/gd32f30x_sdio.c **** }
 1171              		.loc 1 637 1 view .LVU217
 1172 0004 7047     		bx	lr
 1173              	.L108:
 1174 0006 00BF     		.align	2
 1175              	.L107:
 1176 0008 00800140 		.word	1073840128
 1177              		.cfi_endproc
 1178              	.LFE146:
 1180              		.section	.text.sdio_readwait_enable,"ax",%progbits
 1181              		.align	1
 1182              		.global	sdio_readwait_enable
 1183              		.syntax unified
 1184              		.thumb
 1185              		.thumb_func
 1186              		.fpu fpv4-sp-d16
 1188              	sdio_readwait_enable:
 1189              	.LFB147:
 638:Drivers/GD32F30x_standard_peripheral/Source/gd32f30x_sdio.c **** 
ARM GAS  C:\Users\Prog\AppData\Local\Temp\ccKGkBSd.s 			page 32


 639:Drivers/GD32F30x_standard_peripheral/Source/gd32f30x_sdio.c **** /*!
 640:Drivers/GD32F30x_standard_peripheral/Source/gd32f30x_sdio.c ****     \brief      enable the read wait mode(SD I/O only)
 641:Drivers/GD32F30x_standard_peripheral/Source/gd32f30x_sdio.c ****     \param[in]  none
 642:Drivers/GD32F30x_standard_peripheral/Source/gd32f30x_sdio.c ****     \param[out] none
 643:Drivers/GD32F30x_standard_peripheral/Source/gd32f30x_sdio.c ****     \retval     none
 644:Drivers/GD32F30x_standard_peripheral/Source/gd32f30x_sdio.c **** */
 645:Drivers/GD32F30x_standard_peripheral/Source/gd32f30x_sdio.c **** void sdio_readwait_enable(void)
 646:Drivers/GD32F30x_standard_peripheral/Source/gd32f30x_sdio.c **** {
 1190              		.loc 1 646 1 is_stmt 1 view -0
 1191              		.cfi_startproc
 1192              		@ args = 0, pretend = 0, frame = 0
 1193              		@ frame_needed = 0, uses_anonymous_args = 0
 1194              		@ link register save eliminated.
 647:Drivers/GD32F30x_standard_peripheral/Source/gd32f30x_sdio.c ****     SDIO_DATACTL |= SDIO_DATACTL_RWEN;
 1195              		.loc 1 647 5 view .LVU219
 1196              		.loc 1 647 18 is_stmt 0 view .LVU220
 1197 0000 024A     		ldr	r2, .L110
 1198 0002 D36A     		ldr	r3, [r2, #44]
 1199 0004 43F48073 		orr	r3, r3, #256
 1200 0008 D362     		str	r3, [r2, #44]
 648:Drivers/GD32F30x_standard_peripheral/Source/gd32f30x_sdio.c **** }
 1201              		.loc 1 648 1 view .LVU221
 1202 000a 7047     		bx	lr
 1203              	.L111:
 1204              		.align	2
 1205              	.L110:
 1206 000c 00800140 		.word	1073840128
 1207              		.cfi_endproc
 1208              	.LFE147:
 1210              		.section	.text.sdio_readwait_disable,"ax",%progbits
 1211              		.align	1
 1212              		.global	sdio_readwait_disable
 1213              		.syntax unified
 1214              		.thumb
 1215              		.thumb_func
 1216              		.fpu fpv4-sp-d16
 1218              	sdio_readwait_disable:
 1219              	.LFB148:
 649:Drivers/GD32F30x_standard_peripheral/Source/gd32f30x_sdio.c **** 
 650:Drivers/GD32F30x_standard_peripheral/Source/gd32f30x_sdio.c **** /*!
 651:Drivers/GD32F30x_standard_peripheral/Source/gd32f30x_sdio.c ****     \brief      disable the read wait mode(SD I/O only)
 652:Drivers/GD32F30x_standard_peripheral/Source/gd32f30x_sdio.c ****     \param[in]  none
 653:Drivers/GD32F30x_standard_peripheral/Source/gd32f30x_sdio.c ****     \param[out] none
 654:Drivers/GD32F30x_standard_peripheral/Source/gd32f30x_sdio.c ****     \retval     none
 655:Drivers/GD32F30x_standard_peripheral/Source/gd32f30x_sdio.c **** */
 656:Drivers/GD32F30x_standard_peripheral/Source/gd32f30x_sdio.c **** void sdio_readwait_disable(void)
 657:Drivers/GD32F30x_standard_peripheral/Source/gd32f30x_sdio.c **** {
 1220              		.loc 1 657 1 is_stmt 1 view -0
 1221              		.cfi_startproc
 1222              		@ args = 0, pretend = 0, frame = 0
 1223              		@ frame_needed = 0, uses_anonymous_args = 0
 1224              		@ link register save eliminated.
 658:Drivers/GD32F30x_standard_peripheral/Source/gd32f30x_sdio.c ****     SDIO_DATACTL &= ~SDIO_DATACTL_RWEN;
 1225              		.loc 1 658 5 view .LVU223
 1226              		.loc 1 658 18 is_stmt 0 view .LVU224
 1227 0000 024A     		ldr	r2, .L113
 1228 0002 D36A     		ldr	r3, [r2, #44]
ARM GAS  C:\Users\Prog\AppData\Local\Temp\ccKGkBSd.s 			page 33


 1229 0004 23F48073 		bic	r3, r3, #256
 1230 0008 D362     		str	r3, [r2, #44]
 659:Drivers/GD32F30x_standard_peripheral/Source/gd32f30x_sdio.c **** }
 1231              		.loc 1 659 1 view .LVU225
 1232 000a 7047     		bx	lr
 1233              	.L114:
 1234              		.align	2
 1235              	.L113:
 1236 000c 00800140 		.word	1073840128
 1237              		.cfi_endproc
 1238              	.LFE148:
 1240              		.section	.text.sdio_stop_readwait_enable,"ax",%progbits
 1241              		.align	1
 1242              		.global	sdio_stop_readwait_enable
 1243              		.syntax unified
 1244              		.thumb
 1245              		.thumb_func
 1246              		.fpu fpv4-sp-d16
 1248              	sdio_stop_readwait_enable:
 1249              	.LFB149:
 660:Drivers/GD32F30x_standard_peripheral/Source/gd32f30x_sdio.c **** 
 661:Drivers/GD32F30x_standard_peripheral/Source/gd32f30x_sdio.c **** /*!
 662:Drivers/GD32F30x_standard_peripheral/Source/gd32f30x_sdio.c ****     \brief      enable the function that stop the read wait process(SD I/O only)
 663:Drivers/GD32F30x_standard_peripheral/Source/gd32f30x_sdio.c ****     \param[in]  none
 664:Drivers/GD32F30x_standard_peripheral/Source/gd32f30x_sdio.c ****     \param[out] none
 665:Drivers/GD32F30x_standard_peripheral/Source/gd32f30x_sdio.c ****     \retval     none
 666:Drivers/GD32F30x_standard_peripheral/Source/gd32f30x_sdio.c **** */
 667:Drivers/GD32F30x_standard_peripheral/Source/gd32f30x_sdio.c **** void sdio_stop_readwait_enable(void)
 668:Drivers/GD32F30x_standard_peripheral/Source/gd32f30x_sdio.c **** {
 1250              		.loc 1 668 1 is_stmt 1 view -0
 1251              		.cfi_startproc
 1252              		@ args = 0, pretend = 0, frame = 0
 1253              		@ frame_needed = 0, uses_anonymous_args = 0
 1254              		@ link register save eliminated.
 669:Drivers/GD32F30x_standard_peripheral/Source/gd32f30x_sdio.c ****     SDIO_DATACTL |= SDIO_DATACTL_RWSTOP;
 1255              		.loc 1 669 5 view .LVU227
 1256              		.loc 1 669 18 is_stmt 0 view .LVU228
 1257 0000 024A     		ldr	r2, .L116
 1258 0002 D36A     		ldr	r3, [r2, #44]
 1259 0004 43F40073 		orr	r3, r3, #512
 1260 0008 D362     		str	r3, [r2, #44]
 670:Drivers/GD32F30x_standard_peripheral/Source/gd32f30x_sdio.c **** }
 1261              		.loc 1 670 1 view .LVU229
 1262 000a 7047     		bx	lr
 1263              	.L117:
 1264              		.align	2
 1265              	.L116:
 1266 000c 00800140 		.word	1073840128
 1267              		.cfi_endproc
 1268              	.LFE149:
 1270              		.section	.text.sdio_stop_readwait_disable,"ax",%progbits
 1271              		.align	1
 1272              		.global	sdio_stop_readwait_disable
 1273              		.syntax unified
 1274              		.thumb
 1275              		.thumb_func
 1276              		.fpu fpv4-sp-d16
ARM GAS  C:\Users\Prog\AppData\Local\Temp\ccKGkBSd.s 			page 34


 1278              	sdio_stop_readwait_disable:
 1279              	.LFB150:
 671:Drivers/GD32F30x_standard_peripheral/Source/gd32f30x_sdio.c **** 
 672:Drivers/GD32F30x_standard_peripheral/Source/gd32f30x_sdio.c **** /*!
 673:Drivers/GD32F30x_standard_peripheral/Source/gd32f30x_sdio.c ****     \brief      disable the function that stop the read wait process(SD I/O only)
 674:Drivers/GD32F30x_standard_peripheral/Source/gd32f30x_sdio.c ****     \param[in]  none
 675:Drivers/GD32F30x_standard_peripheral/Source/gd32f30x_sdio.c ****     \param[out] none
 676:Drivers/GD32F30x_standard_peripheral/Source/gd32f30x_sdio.c ****     \retval     none
 677:Drivers/GD32F30x_standard_peripheral/Source/gd32f30x_sdio.c **** */
 678:Drivers/GD32F30x_standard_peripheral/Source/gd32f30x_sdio.c **** void sdio_stop_readwait_disable(void)
 679:Drivers/GD32F30x_standard_peripheral/Source/gd32f30x_sdio.c **** {
 1280              		.loc 1 679 1 is_stmt 1 view -0
 1281              		.cfi_startproc
 1282              		@ args = 0, pretend = 0, frame = 0
 1283              		@ frame_needed = 0, uses_anonymous_args = 0
 1284              		@ link register save eliminated.
 680:Drivers/GD32F30x_standard_peripheral/Source/gd32f30x_sdio.c ****     SDIO_DATACTL &= ~SDIO_DATACTL_RWSTOP;
 1285              		.loc 1 680 5 view .LVU231
 1286              		.loc 1 680 18 is_stmt 0 view .LVU232
 1287 0000 024A     		ldr	r2, .L119
 1288 0002 D36A     		ldr	r3, [r2, #44]
 1289 0004 23F40073 		bic	r3, r3, #512
 1290 0008 D362     		str	r3, [r2, #44]
 681:Drivers/GD32F30x_standard_peripheral/Source/gd32f30x_sdio.c **** }
 1291              		.loc 1 681 1 view .LVU233
 1292 000a 7047     		bx	lr
 1293              	.L120:
 1294              		.align	2
 1295              	.L119:
 1296 000c 00800140 		.word	1073840128
 1297              		.cfi_endproc
 1298              	.LFE150:
 1300              		.section	.text.sdio_readwait_type_set,"ax",%progbits
 1301              		.align	1
 1302              		.global	sdio_readwait_type_set
 1303              		.syntax unified
 1304              		.thumb
 1305              		.thumb_func
 1306              		.fpu fpv4-sp-d16
 1308              	sdio_readwait_type_set:
 1309              	.LVL52:
 1310              	.LFB151:
 682:Drivers/GD32F30x_standard_peripheral/Source/gd32f30x_sdio.c **** 
 683:Drivers/GD32F30x_standard_peripheral/Source/gd32f30x_sdio.c **** /*!
 684:Drivers/GD32F30x_standard_peripheral/Source/gd32f30x_sdio.c ****     \brief      set the read wait type(SD I/O only)
 685:Drivers/GD32F30x_standard_peripheral/Source/gd32f30x_sdio.c ****     \param[in]  readwait_type: SD I/O read wait type
 686:Drivers/GD32F30x_standard_peripheral/Source/gd32f30x_sdio.c ****                 only one parameter can be selected which is shown as below:
 687:Drivers/GD32F30x_standard_peripheral/Source/gd32f30x_sdio.c ****       \arg        SDIO_READWAITTYPE_CLK: read wait control by stopping SDIO_CLK
 688:Drivers/GD32F30x_standard_peripheral/Source/gd32f30x_sdio.c ****       \arg        SDIO_READWAITTYPE_DAT2: read wait control using SDIO_DAT[2]
 689:Drivers/GD32F30x_standard_peripheral/Source/gd32f30x_sdio.c ****     \param[out] none
 690:Drivers/GD32F30x_standard_peripheral/Source/gd32f30x_sdio.c ****     \retval     none
 691:Drivers/GD32F30x_standard_peripheral/Source/gd32f30x_sdio.c **** */
 692:Drivers/GD32F30x_standard_peripheral/Source/gd32f30x_sdio.c **** void sdio_readwait_type_set(uint32_t readwait_type)
 693:Drivers/GD32F30x_standard_peripheral/Source/gd32f30x_sdio.c **** {
 1311              		.loc 1 693 1 is_stmt 1 view -0
 1312              		.cfi_startproc
 1313              		@ args = 0, pretend = 0, frame = 0
ARM GAS  C:\Users\Prog\AppData\Local\Temp\ccKGkBSd.s 			page 35


 1314              		@ frame_needed = 0, uses_anonymous_args = 0
 1315              		@ link register save eliminated.
 694:Drivers/GD32F30x_standard_peripheral/Source/gd32f30x_sdio.c ****     if(SDIO_READWAITTYPE_CLK == readwait_type){
 1316              		.loc 1 694 5 view .LVU235
 1317              		.loc 1 694 7 is_stmt 0 view .LVU236
 1318 0000 B0F5806F 		cmp	r0, #1024
 1319 0004 05D0     		beq	.L124
 695:Drivers/GD32F30x_standard_peripheral/Source/gd32f30x_sdio.c ****         SDIO_DATACTL |= SDIO_DATACTL_RWTYPE;
 696:Drivers/GD32F30x_standard_peripheral/Source/gd32f30x_sdio.c ****     }else{
 697:Drivers/GD32F30x_standard_peripheral/Source/gd32f30x_sdio.c ****         SDIO_DATACTL &= ~SDIO_DATACTL_RWTYPE;
 1320              		.loc 1 697 9 is_stmt 1 view .LVU237
 1321              		.loc 1 697 22 is_stmt 0 view .LVU238
 1322 0006 064A     		ldr	r2, .L125
 1323 0008 D36A     		ldr	r3, [r2, #44]
 1324 000a 23F48063 		bic	r3, r3, #1024
 1325 000e D362     		str	r3, [r2, #44]
 698:Drivers/GD32F30x_standard_peripheral/Source/gd32f30x_sdio.c ****     }
 699:Drivers/GD32F30x_standard_peripheral/Source/gd32f30x_sdio.c **** }
 1326              		.loc 1 699 1 view .LVU239
 1327 0010 7047     		bx	lr
 1328              	.L124:
 695:Drivers/GD32F30x_standard_peripheral/Source/gd32f30x_sdio.c ****         SDIO_DATACTL |= SDIO_DATACTL_RWTYPE;
 1329              		.loc 1 695 9 is_stmt 1 view .LVU240
 695:Drivers/GD32F30x_standard_peripheral/Source/gd32f30x_sdio.c ****         SDIO_DATACTL |= SDIO_DATACTL_RWTYPE;
 1330              		.loc 1 695 22 is_stmt 0 view .LVU241
 1331 0012 034A     		ldr	r2, .L125
 1332 0014 D36A     		ldr	r3, [r2, #44]
 1333 0016 43F48063 		orr	r3, r3, #1024
 1334 001a D362     		str	r3, [r2, #44]
 1335 001c 7047     		bx	lr
 1336              	.L126:
 1337 001e 00BF     		.align	2
 1338              	.L125:
 1339 0020 00800140 		.word	1073840128
 1340              		.cfi_endproc
 1341              	.LFE151:
 1343              		.section	.text.sdio_operation_enable,"ax",%progbits
 1344              		.align	1
 1345              		.global	sdio_operation_enable
 1346              		.syntax unified
 1347              		.thumb
 1348              		.thumb_func
 1349              		.fpu fpv4-sp-d16
 1351              	sdio_operation_enable:
 1352              	.LFB152:
 700:Drivers/GD32F30x_standard_peripheral/Source/gd32f30x_sdio.c **** 
 701:Drivers/GD32F30x_standard_peripheral/Source/gd32f30x_sdio.c **** /*!
 702:Drivers/GD32F30x_standard_peripheral/Source/gd32f30x_sdio.c ****     \brief      enable the SD I/O mode specific operation(SD I/O only)
 703:Drivers/GD32F30x_standard_peripheral/Source/gd32f30x_sdio.c ****     \param[in]  none
 704:Drivers/GD32F30x_standard_peripheral/Source/gd32f30x_sdio.c ****     \param[out] none
 705:Drivers/GD32F30x_standard_peripheral/Source/gd32f30x_sdio.c ****     \retval     none
 706:Drivers/GD32F30x_standard_peripheral/Source/gd32f30x_sdio.c **** */
 707:Drivers/GD32F30x_standard_peripheral/Source/gd32f30x_sdio.c **** void sdio_operation_enable(void)
 708:Drivers/GD32F30x_standard_peripheral/Source/gd32f30x_sdio.c **** {
 1353              		.loc 1 708 1 is_stmt 1 view -0
 1354              		.cfi_startproc
 1355              		@ args = 0, pretend = 0, frame = 0
ARM GAS  C:\Users\Prog\AppData\Local\Temp\ccKGkBSd.s 			page 36


 1356              		@ frame_needed = 0, uses_anonymous_args = 0
 1357              		@ link register save eliminated.
 709:Drivers/GD32F30x_standard_peripheral/Source/gd32f30x_sdio.c ****     SDIO_DATACTL |= SDIO_DATACTL_IOEN;
 1358              		.loc 1 709 5 view .LVU243
 1359              		.loc 1 709 18 is_stmt 0 view .LVU244
 1360 0000 024A     		ldr	r2, .L128
 1361 0002 D36A     		ldr	r3, [r2, #44]
 1362 0004 43F40063 		orr	r3, r3, #2048
 1363 0008 D362     		str	r3, [r2, #44]
 710:Drivers/GD32F30x_standard_peripheral/Source/gd32f30x_sdio.c **** }
 1364              		.loc 1 710 1 view .LVU245
 1365 000a 7047     		bx	lr
 1366              	.L129:
 1367              		.align	2
 1368              	.L128:
 1369 000c 00800140 		.word	1073840128
 1370              		.cfi_endproc
 1371              	.LFE152:
 1373              		.section	.text.sdio_operation_disable,"ax",%progbits
 1374              		.align	1
 1375              		.global	sdio_operation_disable
 1376              		.syntax unified
 1377              		.thumb
 1378              		.thumb_func
 1379              		.fpu fpv4-sp-d16
 1381              	sdio_operation_disable:
 1382              	.LFB153:
 711:Drivers/GD32F30x_standard_peripheral/Source/gd32f30x_sdio.c **** 
 712:Drivers/GD32F30x_standard_peripheral/Source/gd32f30x_sdio.c **** /*!
 713:Drivers/GD32F30x_standard_peripheral/Source/gd32f30x_sdio.c ****     \brief      disable the SD I/O mode specific operation(SD I/O only)
 714:Drivers/GD32F30x_standard_peripheral/Source/gd32f30x_sdio.c ****     \param[in]  none
 715:Drivers/GD32F30x_standard_peripheral/Source/gd32f30x_sdio.c ****     \param[out] none
 716:Drivers/GD32F30x_standard_peripheral/Source/gd32f30x_sdio.c ****     \retval     none
 717:Drivers/GD32F30x_standard_peripheral/Source/gd32f30x_sdio.c **** */
 718:Drivers/GD32F30x_standard_peripheral/Source/gd32f30x_sdio.c **** void sdio_operation_disable(void)
 719:Drivers/GD32F30x_standard_peripheral/Source/gd32f30x_sdio.c **** {
 1383              		.loc 1 719 1 is_stmt 1 view -0
 1384              		.cfi_startproc
 1385              		@ args = 0, pretend = 0, frame = 0
 1386              		@ frame_needed = 0, uses_anonymous_args = 0
 1387              		@ link register save eliminated.
 720:Drivers/GD32F30x_standard_peripheral/Source/gd32f30x_sdio.c ****     SDIO_DATACTL &= ~SDIO_DATACTL_IOEN;
 1388              		.loc 1 720 5 view .LVU247
 1389              		.loc 1 720 18 is_stmt 0 view .LVU248
 1390 0000 024A     		ldr	r2, .L131
 1391 0002 D36A     		ldr	r3, [r2, #44]
 1392 0004 23F40063 		bic	r3, r3, #2048
 1393 0008 D362     		str	r3, [r2, #44]
 721:Drivers/GD32F30x_standard_peripheral/Source/gd32f30x_sdio.c **** }
 1394              		.loc 1 721 1 view .LVU249
 1395 000a 7047     		bx	lr
 1396              	.L132:
 1397              		.align	2
 1398              	.L131:
 1399 000c 00800140 		.word	1073840128
 1400              		.cfi_endproc
 1401              	.LFE153:
ARM GAS  C:\Users\Prog\AppData\Local\Temp\ccKGkBSd.s 			page 37


 1403              		.section	.text.sdio_suspend_enable,"ax",%progbits
 1404              		.align	1
 1405              		.global	sdio_suspend_enable
 1406              		.syntax unified
 1407              		.thumb
 1408              		.thumb_func
 1409              		.fpu fpv4-sp-d16
 1411              	sdio_suspend_enable:
 1412              	.LFB154:
 722:Drivers/GD32F30x_standard_peripheral/Source/gd32f30x_sdio.c **** 
 723:Drivers/GD32F30x_standard_peripheral/Source/gd32f30x_sdio.c **** /*!
 724:Drivers/GD32F30x_standard_peripheral/Source/gd32f30x_sdio.c ****     \brief      enable the SD I/O suspend operation(SD I/O only)
 725:Drivers/GD32F30x_standard_peripheral/Source/gd32f30x_sdio.c ****     \param[in]  none
 726:Drivers/GD32F30x_standard_peripheral/Source/gd32f30x_sdio.c ****     \param[out] none
 727:Drivers/GD32F30x_standard_peripheral/Source/gd32f30x_sdio.c ****     \retval     none
 728:Drivers/GD32F30x_standard_peripheral/Source/gd32f30x_sdio.c **** */
 729:Drivers/GD32F30x_standard_peripheral/Source/gd32f30x_sdio.c **** void sdio_suspend_enable(void)
 730:Drivers/GD32F30x_standard_peripheral/Source/gd32f30x_sdio.c **** {
 1413              		.loc 1 730 1 is_stmt 1 view -0
 1414              		.cfi_startproc
 1415              		@ args = 0, pretend = 0, frame = 0
 1416              		@ frame_needed = 0, uses_anonymous_args = 0
 1417              		@ link register save eliminated.
 731:Drivers/GD32F30x_standard_peripheral/Source/gd32f30x_sdio.c ****     SDIO_CMDCTL |= SDIO_CMDCTL_SUSPEND;
 1418              		.loc 1 731 5 view .LVU251
 1419              		.loc 1 731 17 is_stmt 0 view .LVU252
 1420 0000 024A     		ldr	r2, .L134
 1421 0002 D368     		ldr	r3, [r2, #12]
 1422 0004 43F40063 		orr	r3, r3, #2048
 1423 0008 D360     		str	r3, [r2, #12]
 732:Drivers/GD32F30x_standard_peripheral/Source/gd32f30x_sdio.c **** }
 1424              		.loc 1 732 1 view .LVU253
 1425 000a 7047     		bx	lr
 1426              	.L135:
 1427              		.align	2
 1428              	.L134:
 1429 000c 00800140 		.word	1073840128
 1430              		.cfi_endproc
 1431              	.LFE154:
 1433              		.section	.text.sdio_suspend_disable,"ax",%progbits
 1434              		.align	1
 1435              		.global	sdio_suspend_disable
 1436              		.syntax unified
 1437              		.thumb
 1438              		.thumb_func
 1439              		.fpu fpv4-sp-d16
 1441              	sdio_suspend_disable:
 1442              	.LFB155:
 733:Drivers/GD32F30x_standard_peripheral/Source/gd32f30x_sdio.c **** 
 734:Drivers/GD32F30x_standard_peripheral/Source/gd32f30x_sdio.c **** /*!
 735:Drivers/GD32F30x_standard_peripheral/Source/gd32f30x_sdio.c ****     \brief      disable the SD I/O suspend operation(SD I/O only)
 736:Drivers/GD32F30x_standard_peripheral/Source/gd32f30x_sdio.c ****     \param[in]  none
 737:Drivers/GD32F30x_standard_peripheral/Source/gd32f30x_sdio.c ****     \param[out] none
 738:Drivers/GD32F30x_standard_peripheral/Source/gd32f30x_sdio.c ****     \retval     none
 739:Drivers/GD32F30x_standard_peripheral/Source/gd32f30x_sdio.c **** */
 740:Drivers/GD32F30x_standard_peripheral/Source/gd32f30x_sdio.c **** void sdio_suspend_disable(void)
 741:Drivers/GD32F30x_standard_peripheral/Source/gd32f30x_sdio.c **** {
ARM GAS  C:\Users\Prog\AppData\Local\Temp\ccKGkBSd.s 			page 38


 1443              		.loc 1 741 1 is_stmt 1 view -0
 1444              		.cfi_startproc
 1445              		@ args = 0, pretend = 0, frame = 0
 1446              		@ frame_needed = 0, uses_anonymous_args = 0
 1447              		@ link register save eliminated.
 742:Drivers/GD32F30x_standard_peripheral/Source/gd32f30x_sdio.c ****     SDIO_CMDCTL &= ~SDIO_CMDCTL_SUSPEND;
 1448              		.loc 1 742 5 view .LVU255
 1449              		.loc 1 742 17 is_stmt 0 view .LVU256
 1450 0000 024A     		ldr	r2, .L137
 1451 0002 D368     		ldr	r3, [r2, #12]
 1452 0004 23F40063 		bic	r3, r3, #2048
 1453 0008 D360     		str	r3, [r2, #12]
 743:Drivers/GD32F30x_standard_peripheral/Source/gd32f30x_sdio.c **** }
 1454              		.loc 1 743 1 view .LVU257
 1455 000a 7047     		bx	lr
 1456              	.L138:
 1457              		.align	2
 1458              	.L137:
 1459 000c 00800140 		.word	1073840128
 1460              		.cfi_endproc
 1461              	.LFE155:
 1463              		.section	.text.sdio_ceata_command_enable,"ax",%progbits
 1464              		.align	1
 1465              		.global	sdio_ceata_command_enable
 1466              		.syntax unified
 1467              		.thumb
 1468              		.thumb_func
 1469              		.fpu fpv4-sp-d16
 1471              	sdio_ceata_command_enable:
 1472              	.LFB156:
 744:Drivers/GD32F30x_standard_peripheral/Source/gd32f30x_sdio.c **** 
 745:Drivers/GD32F30x_standard_peripheral/Source/gd32f30x_sdio.c **** /*!
 746:Drivers/GD32F30x_standard_peripheral/Source/gd32f30x_sdio.c ****     \brief      enable the CE-ATA command(CE-ATA only)
 747:Drivers/GD32F30x_standard_peripheral/Source/gd32f30x_sdio.c ****     \param[in]  none
 748:Drivers/GD32F30x_standard_peripheral/Source/gd32f30x_sdio.c ****     \param[out] none
 749:Drivers/GD32F30x_standard_peripheral/Source/gd32f30x_sdio.c ****     \retval     none
 750:Drivers/GD32F30x_standard_peripheral/Source/gd32f30x_sdio.c **** */
 751:Drivers/GD32F30x_standard_peripheral/Source/gd32f30x_sdio.c **** void sdio_ceata_command_enable(void)
 752:Drivers/GD32F30x_standard_peripheral/Source/gd32f30x_sdio.c **** {
 1473              		.loc 1 752 1 is_stmt 1 view -0
 1474              		.cfi_startproc
 1475              		@ args = 0, pretend = 0, frame = 0
 1476              		@ frame_needed = 0, uses_anonymous_args = 0
 1477              		@ link register save eliminated.
 753:Drivers/GD32F30x_standard_peripheral/Source/gd32f30x_sdio.c ****     SDIO_CMDCTL |= SDIO_CMDCTL_ATAEN;
 1478              		.loc 1 753 5 view .LVU259
 1479              		.loc 1 753 17 is_stmt 0 view .LVU260
 1480 0000 024A     		ldr	r2, .L140
 1481 0002 D368     		ldr	r3, [r2, #12]
 1482 0004 43F48043 		orr	r3, r3, #16384
 1483 0008 D360     		str	r3, [r2, #12]
 754:Drivers/GD32F30x_standard_peripheral/Source/gd32f30x_sdio.c **** }
 1484              		.loc 1 754 1 view .LVU261
 1485 000a 7047     		bx	lr
 1486              	.L141:
 1487              		.align	2
 1488              	.L140:
ARM GAS  C:\Users\Prog\AppData\Local\Temp\ccKGkBSd.s 			page 39


 1489 000c 00800140 		.word	1073840128
 1490              		.cfi_endproc
 1491              	.LFE156:
 1493              		.section	.text.sdio_ceata_command_disable,"ax",%progbits
 1494              		.align	1
 1495              		.global	sdio_ceata_command_disable
 1496              		.syntax unified
 1497              		.thumb
 1498              		.thumb_func
 1499              		.fpu fpv4-sp-d16
 1501              	sdio_ceata_command_disable:
 1502              	.LFB157:
 755:Drivers/GD32F30x_standard_peripheral/Source/gd32f30x_sdio.c **** 
 756:Drivers/GD32F30x_standard_peripheral/Source/gd32f30x_sdio.c **** /*!
 757:Drivers/GD32F30x_standard_peripheral/Source/gd32f30x_sdio.c ****     \brief      disable the CE-ATA command(CE-ATA only)
 758:Drivers/GD32F30x_standard_peripheral/Source/gd32f30x_sdio.c ****     \param[in]  none
 759:Drivers/GD32F30x_standard_peripheral/Source/gd32f30x_sdio.c ****     \param[out] none
 760:Drivers/GD32F30x_standard_peripheral/Source/gd32f30x_sdio.c ****     \retval     none
 761:Drivers/GD32F30x_standard_peripheral/Source/gd32f30x_sdio.c **** */
 762:Drivers/GD32F30x_standard_peripheral/Source/gd32f30x_sdio.c **** void sdio_ceata_command_disable(void)
 763:Drivers/GD32F30x_standard_peripheral/Source/gd32f30x_sdio.c **** {
 1503              		.loc 1 763 1 is_stmt 1 view -0
 1504              		.cfi_startproc
 1505              		@ args = 0, pretend = 0, frame = 0
 1506              		@ frame_needed = 0, uses_anonymous_args = 0
 1507              		@ link register save eliminated.
 764:Drivers/GD32F30x_standard_peripheral/Source/gd32f30x_sdio.c ****     SDIO_CMDCTL &= ~SDIO_CMDCTL_ATAEN;
 1508              		.loc 1 764 5 view .LVU263
 1509              		.loc 1 764 17 is_stmt 0 view .LVU264
 1510 0000 024A     		ldr	r2, .L143
 1511 0002 D368     		ldr	r3, [r2, #12]
 1512 0004 23F48043 		bic	r3, r3, #16384
 1513 0008 D360     		str	r3, [r2, #12]
 765:Drivers/GD32F30x_standard_peripheral/Source/gd32f30x_sdio.c **** }
 1514              		.loc 1 765 1 view .LVU265
 1515 000a 7047     		bx	lr
 1516              	.L144:
 1517              		.align	2
 1518              	.L143:
 1519 000c 00800140 		.word	1073840128
 1520              		.cfi_endproc
 1521              	.LFE157:
 1523              		.section	.text.sdio_ceata_interrupt_enable,"ax",%progbits
 1524              		.align	1
 1525              		.global	sdio_ceata_interrupt_enable
 1526              		.syntax unified
 1527              		.thumb
 1528              		.thumb_func
 1529              		.fpu fpv4-sp-d16
 1531              	sdio_ceata_interrupt_enable:
 1532              	.LFB158:
 766:Drivers/GD32F30x_standard_peripheral/Source/gd32f30x_sdio.c **** 
 767:Drivers/GD32F30x_standard_peripheral/Source/gd32f30x_sdio.c **** /*!
 768:Drivers/GD32F30x_standard_peripheral/Source/gd32f30x_sdio.c ****     \brief      enable the CE-ATA interrupt(CE-ATA only)
 769:Drivers/GD32F30x_standard_peripheral/Source/gd32f30x_sdio.c ****     \param[in]  none
 770:Drivers/GD32F30x_standard_peripheral/Source/gd32f30x_sdio.c ****     \param[out] none
 771:Drivers/GD32F30x_standard_peripheral/Source/gd32f30x_sdio.c ****     \retval     none
ARM GAS  C:\Users\Prog\AppData\Local\Temp\ccKGkBSd.s 			page 40


 772:Drivers/GD32F30x_standard_peripheral/Source/gd32f30x_sdio.c **** */
 773:Drivers/GD32F30x_standard_peripheral/Source/gd32f30x_sdio.c **** void sdio_ceata_interrupt_enable(void)
 774:Drivers/GD32F30x_standard_peripheral/Source/gd32f30x_sdio.c **** {
 1533              		.loc 1 774 1 is_stmt 1 view -0
 1534              		.cfi_startproc
 1535              		@ args = 0, pretend = 0, frame = 0
 1536              		@ frame_needed = 0, uses_anonymous_args = 0
 1537              		@ link register save eliminated.
 775:Drivers/GD32F30x_standard_peripheral/Source/gd32f30x_sdio.c ****     SDIO_CMDCTL &= ~SDIO_CMDCTL_NINTEN;
 1538              		.loc 1 775 5 view .LVU267
 1539              		.loc 1 775 17 is_stmt 0 view .LVU268
 1540 0000 024A     		ldr	r2, .L146
 1541 0002 D368     		ldr	r3, [r2, #12]
 1542 0004 23F40053 		bic	r3, r3, #8192
 1543 0008 D360     		str	r3, [r2, #12]
 776:Drivers/GD32F30x_standard_peripheral/Source/gd32f30x_sdio.c **** }
 1544              		.loc 1 776 1 view .LVU269
 1545 000a 7047     		bx	lr
 1546              	.L147:
 1547              		.align	2
 1548              	.L146:
 1549 000c 00800140 		.word	1073840128
 1550              		.cfi_endproc
 1551              	.LFE158:
 1553              		.section	.text.sdio_ceata_interrupt_disable,"ax",%progbits
 1554              		.align	1
 1555              		.global	sdio_ceata_interrupt_disable
 1556              		.syntax unified
 1557              		.thumb
 1558              		.thumb_func
 1559              		.fpu fpv4-sp-d16
 1561              	sdio_ceata_interrupt_disable:
 1562              	.LFB159:
 777:Drivers/GD32F30x_standard_peripheral/Source/gd32f30x_sdio.c **** 
 778:Drivers/GD32F30x_standard_peripheral/Source/gd32f30x_sdio.c **** /*!
 779:Drivers/GD32F30x_standard_peripheral/Source/gd32f30x_sdio.c ****     \brief      disable the CE-ATA interrupt(CE-ATA only)
 780:Drivers/GD32F30x_standard_peripheral/Source/gd32f30x_sdio.c ****     \param[in]  none
 781:Drivers/GD32F30x_standard_peripheral/Source/gd32f30x_sdio.c ****     \param[out] none
 782:Drivers/GD32F30x_standard_peripheral/Source/gd32f30x_sdio.c ****     \retval     none
 783:Drivers/GD32F30x_standard_peripheral/Source/gd32f30x_sdio.c **** */
 784:Drivers/GD32F30x_standard_peripheral/Source/gd32f30x_sdio.c **** void sdio_ceata_interrupt_disable(void)
 785:Drivers/GD32F30x_standard_peripheral/Source/gd32f30x_sdio.c **** {
 1563              		.loc 1 785 1 is_stmt 1 view -0
 1564              		.cfi_startproc
 1565              		@ args = 0, pretend = 0, frame = 0
 1566              		@ frame_needed = 0, uses_anonymous_args = 0
 1567              		@ link register save eliminated.
 786:Drivers/GD32F30x_standard_peripheral/Source/gd32f30x_sdio.c ****     SDIO_CMDCTL |= SDIO_CMDCTL_NINTEN;
 1568              		.loc 1 786 5 view .LVU271
 1569              		.loc 1 786 17 is_stmt 0 view .LVU272
 1570 0000 024A     		ldr	r2, .L149
 1571 0002 D368     		ldr	r3, [r2, #12]
 1572 0004 43F40053 		orr	r3, r3, #8192
 1573 0008 D360     		str	r3, [r2, #12]
 787:Drivers/GD32F30x_standard_peripheral/Source/gd32f30x_sdio.c **** }
 1574              		.loc 1 787 1 view .LVU273
 1575 000a 7047     		bx	lr
ARM GAS  C:\Users\Prog\AppData\Local\Temp\ccKGkBSd.s 			page 41


 1576              	.L150:
 1577              		.align	2
 1578              	.L149:
 1579 000c 00800140 		.word	1073840128
 1580              		.cfi_endproc
 1581              	.LFE159:
 1583              		.section	.text.sdio_ceata_command_completion_enable,"ax",%progbits
 1584              		.align	1
 1585              		.global	sdio_ceata_command_completion_enable
 1586              		.syntax unified
 1587              		.thumb
 1588              		.thumb_func
 1589              		.fpu fpv4-sp-d16
 1591              	sdio_ceata_command_completion_enable:
 1592              	.LFB160:
 788:Drivers/GD32F30x_standard_peripheral/Source/gd32f30x_sdio.c **** 
 789:Drivers/GD32F30x_standard_peripheral/Source/gd32f30x_sdio.c **** /*!
 790:Drivers/GD32F30x_standard_peripheral/Source/gd32f30x_sdio.c ****     \brief      enable the CE-ATA command completion signal(CE-ATA only)
 791:Drivers/GD32F30x_standard_peripheral/Source/gd32f30x_sdio.c ****     \param[in]  none
 792:Drivers/GD32F30x_standard_peripheral/Source/gd32f30x_sdio.c ****     \param[out] none
 793:Drivers/GD32F30x_standard_peripheral/Source/gd32f30x_sdio.c ****     \retval     none
 794:Drivers/GD32F30x_standard_peripheral/Source/gd32f30x_sdio.c **** */
 795:Drivers/GD32F30x_standard_peripheral/Source/gd32f30x_sdio.c **** void sdio_ceata_command_completion_enable(void)
 796:Drivers/GD32F30x_standard_peripheral/Source/gd32f30x_sdio.c **** {
 1593              		.loc 1 796 1 is_stmt 1 view -0
 1594              		.cfi_startproc
 1595              		@ args = 0, pretend = 0, frame = 0
 1596              		@ frame_needed = 0, uses_anonymous_args = 0
 1597              		@ link register save eliminated.
 797:Drivers/GD32F30x_standard_peripheral/Source/gd32f30x_sdio.c ****     SDIO_CMDCTL |= SDIO_CMDCTL_ENCMDC;
 1598              		.loc 1 797 5 view .LVU275
 1599              		.loc 1 797 17 is_stmt 0 view .LVU276
 1600 0000 024A     		ldr	r2, .L152
 1601 0002 D368     		ldr	r3, [r2, #12]
 1602 0004 43F48053 		orr	r3, r3, #4096
 1603 0008 D360     		str	r3, [r2, #12]
 798:Drivers/GD32F30x_standard_peripheral/Source/gd32f30x_sdio.c **** }
 1604              		.loc 1 798 1 view .LVU277
 1605 000a 7047     		bx	lr
 1606              	.L153:
 1607              		.align	2
 1608              	.L152:
 1609 000c 00800140 		.word	1073840128
 1610              		.cfi_endproc
 1611              	.LFE160:
 1613              		.section	.text.sdio_ceata_command_completion_disable,"ax",%progbits
 1614              		.align	1
 1615              		.global	sdio_ceata_command_completion_disable
 1616              		.syntax unified
 1617              		.thumb
 1618              		.thumb_func
 1619              		.fpu fpv4-sp-d16
 1621              	sdio_ceata_command_completion_disable:
 1622              	.LFB161:
 799:Drivers/GD32F30x_standard_peripheral/Source/gd32f30x_sdio.c **** 
 800:Drivers/GD32F30x_standard_peripheral/Source/gd32f30x_sdio.c **** /*!
 801:Drivers/GD32F30x_standard_peripheral/Source/gd32f30x_sdio.c ****     \brief      disable the CE-ATA command completion signal(CE-ATA only)
ARM GAS  C:\Users\Prog\AppData\Local\Temp\ccKGkBSd.s 			page 42


 802:Drivers/GD32F30x_standard_peripheral/Source/gd32f30x_sdio.c ****     \param[in]  none
 803:Drivers/GD32F30x_standard_peripheral/Source/gd32f30x_sdio.c ****     \param[out] none
 804:Drivers/GD32F30x_standard_peripheral/Source/gd32f30x_sdio.c ****     \retval     none
 805:Drivers/GD32F30x_standard_peripheral/Source/gd32f30x_sdio.c **** */
 806:Drivers/GD32F30x_standard_peripheral/Source/gd32f30x_sdio.c **** void sdio_ceata_command_completion_disable(void)
 807:Drivers/GD32F30x_standard_peripheral/Source/gd32f30x_sdio.c **** {
 1623              		.loc 1 807 1 is_stmt 1 view -0
 1624              		.cfi_startproc
 1625              		@ args = 0, pretend = 0, frame = 0
 1626              		@ frame_needed = 0, uses_anonymous_args = 0
 1627              		@ link register save eliminated.
 808:Drivers/GD32F30x_standard_peripheral/Source/gd32f30x_sdio.c ****     SDIO_CMDCTL &= ~SDIO_CMDCTL_ENCMDC;
 1628              		.loc 1 808 5 view .LVU279
 1629              		.loc 1 808 17 is_stmt 0 view .LVU280
 1630 0000 024A     		ldr	r2, .L155
 1631 0002 D368     		ldr	r3, [r2, #12]
 1632 0004 23F48053 		bic	r3, r3, #4096
 1633 0008 D360     		str	r3, [r2, #12]
 809:Drivers/GD32F30x_standard_peripheral/Source/gd32f30x_sdio.c **** }
 1634              		.loc 1 809 1 view .LVU281
 1635 000a 7047     		bx	lr
 1636              	.L156:
 1637              		.align	2
 1638              	.L155:
 1639 000c 00800140 		.word	1073840128
 1640              		.cfi_endproc
 1641              	.LFE161:
 1643              		.text
 1644              	.Letext0:
 1645              		.file 2 "c:\\programdata\\chocolatey\\lib\\gcc-arm-embedded\\tools\\gcc-arm-none-eabi-10-2020-q4-m
 1646              		.file 3 "c:\\programdata\\chocolatey\\lib\\gcc-arm-embedded\\tools\\gcc-arm-none-eabi-10-2020-q4-m
 1647              		.file 4 "Drivers/CMSIS/GD/GD32F30x/Include/gd32f30x.h"
ARM GAS  C:\Users\Prog\AppData\Local\Temp\ccKGkBSd.s 			page 43


DEFINED SYMBOLS
                            *ABS*:00000000 gd32f30x_sdio.c
C:\Users\Prog\AppData\Local\Temp\ccKGkBSd.s:18     .text.sdio_deinit:00000000 $t
C:\Users\Prog\AppData\Local\Temp\ccKGkBSd.s:26     .text.sdio_deinit:00000000 sdio_deinit
C:\Users\Prog\AppData\Local\Temp\ccKGkBSd.s:68     .text.sdio_deinit:00000018 $d
C:\Users\Prog\AppData\Local\Temp\ccKGkBSd.s:73     .text.sdio_clock_config:00000000 $t
C:\Users\Prog\AppData\Local\Temp\ccKGkBSd.s:80     .text.sdio_clock_config:00000000 sdio_clock_config
C:\Users\Prog\AppData\Local\Temp\ccKGkBSd.s:150    .text.sdio_clock_config:00000028 $d
C:\Users\Prog\AppData\Local\Temp\ccKGkBSd.s:156    .text.sdio_hardware_clock_enable:00000000 $t
C:\Users\Prog\AppData\Local\Temp\ccKGkBSd.s:163    .text.sdio_hardware_clock_enable:00000000 sdio_hardware_clock_enable
C:\Users\Prog\AppData\Local\Temp\ccKGkBSd.s:181    .text.sdio_hardware_clock_enable:0000000c $d
C:\Users\Prog\AppData\Local\Temp\ccKGkBSd.s:186    .text.sdio_hardware_clock_disable:00000000 $t
C:\Users\Prog\AppData\Local\Temp\ccKGkBSd.s:193    .text.sdio_hardware_clock_disable:00000000 sdio_hardware_clock_disable
C:\Users\Prog\AppData\Local\Temp\ccKGkBSd.s:211    .text.sdio_hardware_clock_disable:0000000c $d
C:\Users\Prog\AppData\Local\Temp\ccKGkBSd.s:216    .text.sdio_bus_mode_set:00000000 $t
C:\Users\Prog\AppData\Local\Temp\ccKGkBSd.s:223    .text.sdio_bus_mode_set:00000000 sdio_bus_mode_set
C:\Users\Prog\AppData\Local\Temp\ccKGkBSd.s:247    .text.sdio_bus_mode_set:00000014 $d
C:\Users\Prog\AppData\Local\Temp\ccKGkBSd.s:252    .text.sdio_power_state_set:00000000 $t
C:\Users\Prog\AppData\Local\Temp\ccKGkBSd.s:259    .text.sdio_power_state_set:00000000 sdio_power_state_set
C:\Users\Prog\AppData\Local\Temp\ccKGkBSd.s:276    .text.sdio_power_state_set:00000008 $d
C:\Users\Prog\AppData\Local\Temp\ccKGkBSd.s:281    .text.sdio_power_state_get:00000000 $t
C:\Users\Prog\AppData\Local\Temp\ccKGkBSd.s:288    .text.sdio_power_state_get:00000000 sdio_power_state_get
C:\Users\Prog\AppData\Local\Temp\ccKGkBSd.s:304    .text.sdio_power_state_get:00000008 $d
C:\Users\Prog\AppData\Local\Temp\ccKGkBSd.s:309    .text.sdio_clock_enable:00000000 $t
C:\Users\Prog\AppData\Local\Temp\ccKGkBSd.s:316    .text.sdio_clock_enable:00000000 sdio_clock_enable
C:\Users\Prog\AppData\Local\Temp\ccKGkBSd.s:334    .text.sdio_clock_enable:0000000c $d
C:\Users\Prog\AppData\Local\Temp\ccKGkBSd.s:339    .text.sdio_clock_disable:00000000 $t
C:\Users\Prog\AppData\Local\Temp\ccKGkBSd.s:346    .text.sdio_clock_disable:00000000 sdio_clock_disable
C:\Users\Prog\AppData\Local\Temp\ccKGkBSd.s:364    .text.sdio_clock_disable:0000000c $d
C:\Users\Prog\AppData\Local\Temp\ccKGkBSd.s:369    .text.sdio_command_response_config:00000000 $t
C:\Users\Prog\AppData\Local\Temp\ccKGkBSd.s:376    .text.sdio_command_response_config:00000000 sdio_command_response_config
C:\Users\Prog\AppData\Local\Temp\ccKGkBSd.s:428    .text.sdio_command_response_config:00000020 $d
C:\Users\Prog\AppData\Local\Temp\ccKGkBSd.s:433    .text.sdio_wait_type_set:00000000 $t
C:\Users\Prog\AppData\Local\Temp\ccKGkBSd.s:440    .text.sdio_wait_type_set:00000000 sdio_wait_type_set
C:\Users\Prog\AppData\Local\Temp\ccKGkBSd.s:464    .text.sdio_wait_type_set:00000014 $d
C:\Users\Prog\AppData\Local\Temp\ccKGkBSd.s:469    .text.sdio_csm_enable:00000000 $t
C:\Users\Prog\AppData\Local\Temp\ccKGkBSd.s:476    .text.sdio_csm_enable:00000000 sdio_csm_enable
C:\Users\Prog\AppData\Local\Temp\ccKGkBSd.s:494    .text.sdio_csm_enable:0000000c $d
C:\Users\Prog\AppData\Local\Temp\ccKGkBSd.s:499    .text.sdio_csm_disable:00000000 $t
C:\Users\Prog\AppData\Local\Temp\ccKGkBSd.s:506    .text.sdio_csm_disable:00000000 sdio_csm_disable
C:\Users\Prog\AppData\Local\Temp\ccKGkBSd.s:524    .text.sdio_csm_disable:0000000c $d
C:\Users\Prog\AppData\Local\Temp\ccKGkBSd.s:529    .text.sdio_command_index_get:00000000 $t
C:\Users\Prog\AppData\Local\Temp\ccKGkBSd.s:536    .text.sdio_command_index_get:00000000 sdio_command_index_get
C:\Users\Prog\AppData\Local\Temp\ccKGkBSd.s:553    .text.sdio_command_index_get:00000008 $d
C:\Users\Prog\AppData\Local\Temp\ccKGkBSd.s:558    .text.sdio_response_get:00000000 $t
C:\Users\Prog\AppData\Local\Temp\ccKGkBSd.s:565    .text.sdio_response_get:00000000 sdio_response_get
C:\Users\Prog\AppData\Local\Temp\ccKGkBSd.s:579    .text.sdio_response_get:00000008 $d
C:\Users\Prog\AppData\Local\Temp\ccKGkBSd.s:583    .text.sdio_response_get:0000000c $t
C:\Users\Prog\AppData\Local\Temp\ccKGkBSd.s:630    .text.sdio_response_get:00000028 $d
C:\Users\Prog\AppData\Local\Temp\ccKGkBSd.s:635    .text.sdio_data_config:00000000 $t
C:\Users\Prog\AppData\Local\Temp\ccKGkBSd.s:642    .text.sdio_data_config:00000000 sdio_data_config
C:\Users\Prog\AppData\Local\Temp\ccKGkBSd.s:694    .text.sdio_data_config:0000002c $d
C:\Users\Prog\AppData\Local\Temp\ccKGkBSd.s:699    .text.sdio_data_transfer_config:00000000 $t
C:\Users\Prog\AppData\Local\Temp\ccKGkBSd.s:706    .text.sdio_data_transfer_config:00000000 sdio_data_transfer_config
C:\Users\Prog\AppData\Local\Temp\ccKGkBSd.s:739    .text.sdio_data_transfer_config:00000010 $d
C:\Users\Prog\AppData\Local\Temp\ccKGkBSd.s:744    .text.sdio_dsm_enable:00000000 $t
C:\Users\Prog\AppData\Local\Temp\ccKGkBSd.s:751    .text.sdio_dsm_enable:00000000 sdio_dsm_enable
ARM GAS  C:\Users\Prog\AppData\Local\Temp\ccKGkBSd.s 			page 44


C:\Users\Prog\AppData\Local\Temp\ccKGkBSd.s:769    .text.sdio_dsm_enable:0000000c $d
C:\Users\Prog\AppData\Local\Temp\ccKGkBSd.s:774    .text.sdio_dsm_disable:00000000 $t
C:\Users\Prog\AppData\Local\Temp\ccKGkBSd.s:781    .text.sdio_dsm_disable:00000000 sdio_dsm_disable
C:\Users\Prog\AppData\Local\Temp\ccKGkBSd.s:799    .text.sdio_dsm_disable:0000000c $d
C:\Users\Prog\AppData\Local\Temp\ccKGkBSd.s:804    .text.sdio_data_write:00000000 $t
C:\Users\Prog\AppData\Local\Temp\ccKGkBSd.s:811    .text.sdio_data_write:00000000 sdio_data_write
C:\Users\Prog\AppData\Local\Temp\ccKGkBSd.s:828    .text.sdio_data_write:00000008 $d
C:\Users\Prog\AppData\Local\Temp\ccKGkBSd.s:833    .text.sdio_data_read:00000000 $t
C:\Users\Prog\AppData\Local\Temp\ccKGkBSd.s:840    .text.sdio_data_read:00000000 sdio_data_read
C:\Users\Prog\AppData\Local\Temp\ccKGkBSd.s:856    .text.sdio_data_read:00000008 $d
C:\Users\Prog\AppData\Local\Temp\ccKGkBSd.s:861    .text.sdio_data_counter_get:00000000 $t
C:\Users\Prog\AppData\Local\Temp\ccKGkBSd.s:868    .text.sdio_data_counter_get:00000000 sdio_data_counter_get
C:\Users\Prog\AppData\Local\Temp\ccKGkBSd.s:884    .text.sdio_data_counter_get:00000008 $d
C:\Users\Prog\AppData\Local\Temp\ccKGkBSd.s:889    .text.sdio_fifo_counter_get:00000000 $t
C:\Users\Prog\AppData\Local\Temp\ccKGkBSd.s:896    .text.sdio_fifo_counter_get:00000000 sdio_fifo_counter_get
C:\Users\Prog\AppData\Local\Temp\ccKGkBSd.s:912    .text.sdio_fifo_counter_get:00000008 $d
C:\Users\Prog\AppData\Local\Temp\ccKGkBSd.s:917    .text.sdio_dma_enable:00000000 $t
C:\Users\Prog\AppData\Local\Temp\ccKGkBSd.s:924    .text.sdio_dma_enable:00000000 sdio_dma_enable
C:\Users\Prog\AppData\Local\Temp\ccKGkBSd.s:942    .text.sdio_dma_enable:0000000c $d
C:\Users\Prog\AppData\Local\Temp\ccKGkBSd.s:947    .text.sdio_dma_disable:00000000 $t
C:\Users\Prog\AppData\Local\Temp\ccKGkBSd.s:954    .text.sdio_dma_disable:00000000 sdio_dma_disable
C:\Users\Prog\AppData\Local\Temp\ccKGkBSd.s:972    .text.sdio_dma_disable:0000000c $d
C:\Users\Prog\AppData\Local\Temp\ccKGkBSd.s:977    .text.sdio_flag_get:00000000 $t
C:\Users\Prog\AppData\Local\Temp\ccKGkBSd.s:984    .text.sdio_flag_get:00000000 sdio_flag_get
C:\Users\Prog\AppData\Local\Temp\ccKGkBSd.s:1014   .text.sdio_flag_get:00000010 $d
C:\Users\Prog\AppData\Local\Temp\ccKGkBSd.s:1019   .text.sdio_flag_clear:00000000 $t
C:\Users\Prog\AppData\Local\Temp\ccKGkBSd.s:1026   .text.sdio_flag_clear:00000000 sdio_flag_clear
C:\Users\Prog\AppData\Local\Temp\ccKGkBSd.s:1043   .text.sdio_flag_clear:00000008 $d
C:\Users\Prog\AppData\Local\Temp\ccKGkBSd.s:1048   .text.sdio_interrupt_enable:00000000 $t
C:\Users\Prog\AppData\Local\Temp\ccKGkBSd.s:1055   .text.sdio_interrupt_enable:00000000 sdio_interrupt_enable
C:\Users\Prog\AppData\Local\Temp\ccKGkBSd.s:1074   .text.sdio_interrupt_enable:0000000c $d
C:\Users\Prog\AppData\Local\Temp\ccKGkBSd.s:1079   .text.sdio_interrupt_disable:00000000 $t
C:\Users\Prog\AppData\Local\Temp\ccKGkBSd.s:1086   .text.sdio_interrupt_disable:00000000 sdio_interrupt_disable
C:\Users\Prog\AppData\Local\Temp\ccKGkBSd.s:1105   .text.sdio_interrupt_disable:0000000c $d
C:\Users\Prog\AppData\Local\Temp\ccKGkBSd.s:1110   .text.sdio_interrupt_flag_get:00000000 $t
C:\Users\Prog\AppData\Local\Temp\ccKGkBSd.s:1117   .text.sdio_interrupt_flag_get:00000000 sdio_interrupt_flag_get
C:\Users\Prog\AppData\Local\Temp\ccKGkBSd.s:1147   .text.sdio_interrupt_flag_get:00000010 $d
C:\Users\Prog\AppData\Local\Temp\ccKGkBSd.s:1152   .text.sdio_interrupt_flag_clear:00000000 $t
C:\Users\Prog\AppData\Local\Temp\ccKGkBSd.s:1159   .text.sdio_interrupt_flag_clear:00000000 sdio_interrupt_flag_clear
C:\Users\Prog\AppData\Local\Temp\ccKGkBSd.s:1176   .text.sdio_interrupt_flag_clear:00000008 $d
C:\Users\Prog\AppData\Local\Temp\ccKGkBSd.s:1181   .text.sdio_readwait_enable:00000000 $t
C:\Users\Prog\AppData\Local\Temp\ccKGkBSd.s:1188   .text.sdio_readwait_enable:00000000 sdio_readwait_enable
C:\Users\Prog\AppData\Local\Temp\ccKGkBSd.s:1206   .text.sdio_readwait_enable:0000000c $d
C:\Users\Prog\AppData\Local\Temp\ccKGkBSd.s:1211   .text.sdio_readwait_disable:00000000 $t
C:\Users\Prog\AppData\Local\Temp\ccKGkBSd.s:1218   .text.sdio_readwait_disable:00000000 sdio_readwait_disable
C:\Users\Prog\AppData\Local\Temp\ccKGkBSd.s:1236   .text.sdio_readwait_disable:0000000c $d
C:\Users\Prog\AppData\Local\Temp\ccKGkBSd.s:1241   .text.sdio_stop_readwait_enable:00000000 $t
C:\Users\Prog\AppData\Local\Temp\ccKGkBSd.s:1248   .text.sdio_stop_readwait_enable:00000000 sdio_stop_readwait_enable
C:\Users\Prog\AppData\Local\Temp\ccKGkBSd.s:1266   .text.sdio_stop_readwait_enable:0000000c $d
C:\Users\Prog\AppData\Local\Temp\ccKGkBSd.s:1271   .text.sdio_stop_readwait_disable:00000000 $t
C:\Users\Prog\AppData\Local\Temp\ccKGkBSd.s:1278   .text.sdio_stop_readwait_disable:00000000 sdio_stop_readwait_disable
C:\Users\Prog\AppData\Local\Temp\ccKGkBSd.s:1296   .text.sdio_stop_readwait_disable:0000000c $d
C:\Users\Prog\AppData\Local\Temp\ccKGkBSd.s:1301   .text.sdio_readwait_type_set:00000000 $t
C:\Users\Prog\AppData\Local\Temp\ccKGkBSd.s:1308   .text.sdio_readwait_type_set:00000000 sdio_readwait_type_set
C:\Users\Prog\AppData\Local\Temp\ccKGkBSd.s:1339   .text.sdio_readwait_type_set:00000020 $d
C:\Users\Prog\AppData\Local\Temp\ccKGkBSd.s:1344   .text.sdio_operation_enable:00000000 $t
C:\Users\Prog\AppData\Local\Temp\ccKGkBSd.s:1351   .text.sdio_operation_enable:00000000 sdio_operation_enable
ARM GAS  C:\Users\Prog\AppData\Local\Temp\ccKGkBSd.s 			page 45


C:\Users\Prog\AppData\Local\Temp\ccKGkBSd.s:1369   .text.sdio_operation_enable:0000000c $d
C:\Users\Prog\AppData\Local\Temp\ccKGkBSd.s:1374   .text.sdio_operation_disable:00000000 $t
C:\Users\Prog\AppData\Local\Temp\ccKGkBSd.s:1381   .text.sdio_operation_disable:00000000 sdio_operation_disable
C:\Users\Prog\AppData\Local\Temp\ccKGkBSd.s:1399   .text.sdio_operation_disable:0000000c $d
C:\Users\Prog\AppData\Local\Temp\ccKGkBSd.s:1404   .text.sdio_suspend_enable:00000000 $t
C:\Users\Prog\AppData\Local\Temp\ccKGkBSd.s:1411   .text.sdio_suspend_enable:00000000 sdio_suspend_enable
C:\Users\Prog\AppData\Local\Temp\ccKGkBSd.s:1429   .text.sdio_suspend_enable:0000000c $d
C:\Users\Prog\AppData\Local\Temp\ccKGkBSd.s:1434   .text.sdio_suspend_disable:00000000 $t
C:\Users\Prog\AppData\Local\Temp\ccKGkBSd.s:1441   .text.sdio_suspend_disable:00000000 sdio_suspend_disable
C:\Users\Prog\AppData\Local\Temp\ccKGkBSd.s:1459   .text.sdio_suspend_disable:0000000c $d
C:\Users\Prog\AppData\Local\Temp\ccKGkBSd.s:1464   .text.sdio_ceata_command_enable:00000000 $t
C:\Users\Prog\AppData\Local\Temp\ccKGkBSd.s:1471   .text.sdio_ceata_command_enable:00000000 sdio_ceata_command_enable
C:\Users\Prog\AppData\Local\Temp\ccKGkBSd.s:1489   .text.sdio_ceata_command_enable:0000000c $d
C:\Users\Prog\AppData\Local\Temp\ccKGkBSd.s:1494   .text.sdio_ceata_command_disable:00000000 $t
C:\Users\Prog\AppData\Local\Temp\ccKGkBSd.s:1501   .text.sdio_ceata_command_disable:00000000 sdio_ceata_command_disable
C:\Users\Prog\AppData\Local\Temp\ccKGkBSd.s:1519   .text.sdio_ceata_command_disable:0000000c $d
C:\Users\Prog\AppData\Local\Temp\ccKGkBSd.s:1524   .text.sdio_ceata_interrupt_enable:00000000 $t
C:\Users\Prog\AppData\Local\Temp\ccKGkBSd.s:1531   .text.sdio_ceata_interrupt_enable:00000000 sdio_ceata_interrupt_enable
C:\Users\Prog\AppData\Local\Temp\ccKGkBSd.s:1549   .text.sdio_ceata_interrupt_enable:0000000c $d
C:\Users\Prog\AppData\Local\Temp\ccKGkBSd.s:1554   .text.sdio_ceata_interrupt_disable:00000000 $t
C:\Users\Prog\AppData\Local\Temp\ccKGkBSd.s:1561   .text.sdio_ceata_interrupt_disable:00000000 sdio_ceata_interrupt_disable
C:\Users\Prog\AppData\Local\Temp\ccKGkBSd.s:1579   .text.sdio_ceata_interrupt_disable:0000000c $d
C:\Users\Prog\AppData\Local\Temp\ccKGkBSd.s:1584   .text.sdio_ceata_command_completion_enable:00000000 $t
C:\Users\Prog\AppData\Local\Temp\ccKGkBSd.s:1591   .text.sdio_ceata_command_completion_enable:00000000 sdio_ceata_command_completion_enable
C:\Users\Prog\AppData\Local\Temp\ccKGkBSd.s:1609   .text.sdio_ceata_command_completion_enable:0000000c $d
C:\Users\Prog\AppData\Local\Temp\ccKGkBSd.s:1614   .text.sdio_ceata_command_completion_disable:00000000 $t
C:\Users\Prog\AppData\Local\Temp\ccKGkBSd.s:1621   .text.sdio_ceata_command_completion_disable:00000000 sdio_ceata_command_completion_disable
C:\Users\Prog\AppData\Local\Temp\ccKGkBSd.s:1639   .text.sdio_ceata_command_completion_disable:0000000c $d

NO UNDEFINED SYMBOLS
