ARM GAS  C:\Users\Prog\AppData\Local\Temp\ccT8qdHj.s 			page 1


   1              		.cpu cortex-m4
   2              		.eabi_attribute 27, 1
   3              		.eabi_attribute 28, 1
   4              		.eabi_attribute 20, 1
   5              		.eabi_attribute 21, 1
   6              		.eabi_attribute 23, 3
   7              		.eabi_attribute 24, 1
   8              		.eabi_attribute 25, 1
   9              		.eabi_attribute 26, 1
  10              		.eabi_attribute 30, 1
  11              		.eabi_attribute 34, 1
  12              		.eabi_attribute 18, 4
  13              		.file	"gd32f30x_timer.c"
  14              		.text
  15              	.Ltext0:
  16              		.cfi_sections	.debug_frame
  17              		.section	.text.timer_deinit,"ax",%progbits
  18              		.align	1
  19              		.global	timer_deinit
  20              		.arch armv7e-m
  21              		.syntax unified
  22              		.thumb
  23              		.thumb_func
  24              		.fpu fpv4-sp-d16
  26              	timer_deinit:
  27              	.LVL0:
  28              	.LFB116:
  29              		.file 1 "Drivers/GD32F30x_standard_peripheral/Source/gd32f30x_timer.c"
   1:Drivers/GD32F30x_standard_peripheral/Source/gd32f30x_timer.c **** /*!
   2:Drivers/GD32F30x_standard_peripheral/Source/gd32f30x_timer.c ****     \file    gd32f30x_timer.c
   3:Drivers/GD32F30x_standard_peripheral/Source/gd32f30x_timer.c ****     \brief   TIMER driver
   4:Drivers/GD32F30x_standard_peripheral/Source/gd32f30x_timer.c **** 
   5:Drivers/GD32F30x_standard_peripheral/Source/gd32f30x_timer.c ****     \version 2017-02-10, V1.0.0, firmware for GD32F30x
   6:Drivers/GD32F30x_standard_peripheral/Source/gd32f30x_timer.c ****     \version 2018-10-10, V1.1.0, firmware for GD32F30x
   7:Drivers/GD32F30x_standard_peripheral/Source/gd32f30x_timer.c ****     \version 2018-12-25, V2.0.0, firmware for GD32F30x
   8:Drivers/GD32F30x_standard_peripheral/Source/gd32f30x_timer.c ****     \version 2020-09-30, V2.1.0, firmware for GD32F30x
   9:Drivers/GD32F30x_standard_peripheral/Source/gd32f30x_timer.c **** */
  10:Drivers/GD32F30x_standard_peripheral/Source/gd32f30x_timer.c **** 
  11:Drivers/GD32F30x_standard_peripheral/Source/gd32f30x_timer.c **** /*
  12:Drivers/GD32F30x_standard_peripheral/Source/gd32f30x_timer.c ****     Copyright (c) 2020, GigaDevice Semiconductor Inc.
  13:Drivers/GD32F30x_standard_peripheral/Source/gd32f30x_timer.c **** 
  14:Drivers/GD32F30x_standard_peripheral/Source/gd32f30x_timer.c ****     Redistribution and use in source and binary forms, with or without modification, 
  15:Drivers/GD32F30x_standard_peripheral/Source/gd32f30x_timer.c **** are permitted provided that the following conditions are met:
  16:Drivers/GD32F30x_standard_peripheral/Source/gd32f30x_timer.c **** 
  17:Drivers/GD32F30x_standard_peripheral/Source/gd32f30x_timer.c ****     1. Redistributions of source code must retain the above copyright notice, this 
  18:Drivers/GD32F30x_standard_peripheral/Source/gd32f30x_timer.c ****        list of conditions and the following disclaimer.
  19:Drivers/GD32F30x_standard_peripheral/Source/gd32f30x_timer.c ****     2. Redistributions in binary form must reproduce the above copyright notice, 
  20:Drivers/GD32F30x_standard_peripheral/Source/gd32f30x_timer.c ****        this list of conditions and the following disclaimer in the documentation 
  21:Drivers/GD32F30x_standard_peripheral/Source/gd32f30x_timer.c ****        and/or other materials provided with the distribution.
  22:Drivers/GD32F30x_standard_peripheral/Source/gd32f30x_timer.c ****     3. Neither the name of the copyright holder nor the names of its contributors 
  23:Drivers/GD32F30x_standard_peripheral/Source/gd32f30x_timer.c ****        may be used to endorse or promote products derived from this software without 
  24:Drivers/GD32F30x_standard_peripheral/Source/gd32f30x_timer.c ****        specific prior written permission.
  25:Drivers/GD32F30x_standard_peripheral/Source/gd32f30x_timer.c **** 
  26:Drivers/GD32F30x_standard_peripheral/Source/gd32f30x_timer.c ****     THIS SOFTWARE IS PROVIDED BY THE COPYRIGHT HOLDERS AND CONTRIBUTORS "AS IS" 
  27:Drivers/GD32F30x_standard_peripheral/Source/gd32f30x_timer.c **** AND ANY EXPRESS OR IMPLIED WARRANTIES, INCLUDING, BUT NOT LIMITED TO, THE IMPLIED 
  28:Drivers/GD32F30x_standard_peripheral/Source/gd32f30x_timer.c **** WARRANTIES OF MERCHANTABILITY AND FITNESS FOR A PARTICULAR PURPOSE ARE DISCLAIMED. 
  29:Drivers/GD32F30x_standard_peripheral/Source/gd32f30x_timer.c **** IN NO EVENT SHALL THE COPYRIGHT HOLDER OR CONTRIBUTORS BE LIABLE FOR ANY DIRECT, 
ARM GAS  C:\Users\Prog\AppData\Local\Temp\ccT8qdHj.s 			page 2


  30:Drivers/GD32F30x_standard_peripheral/Source/gd32f30x_timer.c **** INDIRECT, INCIDENTAL, SPECIAL, EXEMPLARY, OR CONSEQUENTIAL DAMAGES (INCLUDING, BUT 
  31:Drivers/GD32F30x_standard_peripheral/Source/gd32f30x_timer.c **** NOT LIMITED TO, PROCUREMENT OF SUBSTITUTE GOODS OR SERVICES; LOSS OF USE, DATA, OR 
  32:Drivers/GD32F30x_standard_peripheral/Source/gd32f30x_timer.c **** PROFITS; OR BUSINESS INTERRUPTION) HOWEVER CAUSED AND ON ANY THEORY OF LIABILITY, 
  33:Drivers/GD32F30x_standard_peripheral/Source/gd32f30x_timer.c **** WHETHER IN CONTRACT, STRICT LIABILITY, OR TORT (INCLUDING NEGLIGENCE OR OTHERWISE) 
  34:Drivers/GD32F30x_standard_peripheral/Source/gd32f30x_timer.c **** ARISING IN ANY WAY OUT OF THE USE OF THIS SOFTWARE, EVEN IF ADVISED OF THE POSSIBILITY 
  35:Drivers/GD32F30x_standard_peripheral/Source/gd32f30x_timer.c **** OF SUCH DAMAGE.
  36:Drivers/GD32F30x_standard_peripheral/Source/gd32f30x_timer.c **** */
  37:Drivers/GD32F30x_standard_peripheral/Source/gd32f30x_timer.c **** 
  38:Drivers/GD32F30x_standard_peripheral/Source/gd32f30x_timer.c **** #include "gd32f30x_timer.h"
  39:Drivers/GD32F30x_standard_peripheral/Source/gd32f30x_timer.c **** 
  40:Drivers/GD32F30x_standard_peripheral/Source/gd32f30x_timer.c **** /*!
  41:Drivers/GD32F30x_standard_peripheral/Source/gd32f30x_timer.c ****     \brief      deinit a TIMER
  42:Drivers/GD32F30x_standard_peripheral/Source/gd32f30x_timer.c ****     \param[in]  timer_periph: TIMERx(x=0..13)
  43:Drivers/GD32F30x_standard_peripheral/Source/gd32f30x_timer.c ****     \param[out] none
  44:Drivers/GD32F30x_standard_peripheral/Source/gd32f30x_timer.c ****     \retval     none
  45:Drivers/GD32F30x_standard_peripheral/Source/gd32f30x_timer.c **** */
  46:Drivers/GD32F30x_standard_peripheral/Source/gd32f30x_timer.c **** void timer_deinit(uint32_t timer_periph)
  47:Drivers/GD32F30x_standard_peripheral/Source/gd32f30x_timer.c **** {
  30              		.loc 1 47 1 view -0
  31              		.cfi_startproc
  32              		@ args = 0, pretend = 0, frame = 0
  33              		@ frame_needed = 0, uses_anonymous_args = 0
  34              		.loc 1 47 1 is_stmt 0 view .LVU1
  35 0000 08B5     		push	{r3, lr}
  36              	.LCFI0:
  37              		.cfi_def_cfa_offset 8
  38              		.cfi_offset 3, -8
  39              		.cfi_offset 14, -4
  48:Drivers/GD32F30x_standard_peripheral/Source/gd32f30x_timer.c ****     switch(timer_periph){
  40              		.loc 1 48 5 is_stmt 1 view .LVU2
  41 0002 334B     		ldr	r3, .L16
  42 0004 9842     		cmp	r0, r3
  43 0006 59D0     		beq	.L2
  44 0008 20D8     		bhi	.L3
  45 000a A3F50063 		sub	r3, r3, #2048
  46 000e 9842     		cmp	r0, r3
  47 0010 4BD0     		beq	.L4
  48 0012 0BD9     		bls	.L14
  49 0014 2F4B     		ldr	r3, .L16+4
  50 0016 9842     		cmp	r0, r3
  51 0018 3DD1     		bne	.L1
  49:Drivers/GD32F30x_standard_peripheral/Source/gd32f30x_timer.c ****     case TIMER0:
  50:Drivers/GD32F30x_standard_peripheral/Source/gd32f30x_timer.c ****         /* reset TIMER0 */
  51:Drivers/GD32F30x_standard_peripheral/Source/gd32f30x_timer.c ****         rcu_periph_reset_enable(RCU_TIMER0RST);
  52:Drivers/GD32F30x_standard_peripheral/Source/gd32f30x_timer.c ****         rcu_periph_reset_disable(RCU_TIMER0RST);
  53:Drivers/GD32F30x_standard_peripheral/Source/gd32f30x_timer.c ****         break;
  54:Drivers/GD32F30x_standard_peripheral/Source/gd32f30x_timer.c ****     case TIMER1:
  55:Drivers/GD32F30x_standard_peripheral/Source/gd32f30x_timer.c ****         /* reset TIMER1 */
  56:Drivers/GD32F30x_standard_peripheral/Source/gd32f30x_timer.c ****         rcu_periph_reset_enable(RCU_TIMER1RST);
  57:Drivers/GD32F30x_standard_peripheral/Source/gd32f30x_timer.c ****         rcu_periph_reset_disable(RCU_TIMER1RST);
  58:Drivers/GD32F30x_standard_peripheral/Source/gd32f30x_timer.c ****         break;
  59:Drivers/GD32F30x_standard_peripheral/Source/gd32f30x_timer.c ****     case TIMER2:
  60:Drivers/GD32F30x_standard_peripheral/Source/gd32f30x_timer.c ****         /* reset TIMER2 */
  61:Drivers/GD32F30x_standard_peripheral/Source/gd32f30x_timer.c ****         rcu_periph_reset_enable(RCU_TIMER2RST);
  62:Drivers/GD32F30x_standard_peripheral/Source/gd32f30x_timer.c ****         rcu_periph_reset_disable(RCU_TIMER2RST);
  63:Drivers/GD32F30x_standard_peripheral/Source/gd32f30x_timer.c ****         break;
  64:Drivers/GD32F30x_standard_peripheral/Source/gd32f30x_timer.c ****     case TIMER3:
ARM GAS  C:\Users\Prog\AppData\Local\Temp\ccT8qdHj.s 			page 3


  65:Drivers/GD32F30x_standard_peripheral/Source/gd32f30x_timer.c ****         /* reset TIMER3 */
  66:Drivers/GD32F30x_standard_peripheral/Source/gd32f30x_timer.c ****         rcu_periph_reset_enable(RCU_TIMER3RST);
  67:Drivers/GD32F30x_standard_peripheral/Source/gd32f30x_timer.c ****         rcu_periph_reset_disable(RCU_TIMER3RST);
  68:Drivers/GD32F30x_standard_peripheral/Source/gd32f30x_timer.c ****         break;
  69:Drivers/GD32F30x_standard_peripheral/Source/gd32f30x_timer.c ****     case TIMER4:
  70:Drivers/GD32F30x_standard_peripheral/Source/gd32f30x_timer.c ****         /* reset TIMER4 */
  71:Drivers/GD32F30x_standard_peripheral/Source/gd32f30x_timer.c ****         rcu_periph_reset_enable(RCU_TIMER4RST);
  52              		.loc 1 71 9 view .LVU3
  53 001a 40F20340 		movw	r0, #1027
  54              	.LVL1:
  55              		.loc 1 71 9 is_stmt 0 view .LVU4
  56 001e FFF7FEFF 		bl	rcu_periph_reset_enable
  57              	.LVL2:
  72:Drivers/GD32F30x_standard_peripheral/Source/gd32f30x_timer.c ****         rcu_periph_reset_disable(RCU_TIMER4RST);
  58              		.loc 1 72 9 is_stmt 1 view .LVU5
  59 0022 40F20340 		movw	r0, #1027
  60 0026 FFF7FEFF 		bl	rcu_periph_reset_disable
  61              	.LVL3:
  73:Drivers/GD32F30x_standard_peripheral/Source/gd32f30x_timer.c ****         break;
  62              		.loc 1 73 9 view .LVU6
  63 002a 34E0     		b	.L1
  64              	.LVL4:
  65              	.L14:
  48:Drivers/GD32F30x_standard_peripheral/Source/gd32f30x_timer.c ****     case TIMER0:
  66              		.loc 1 48 5 is_stmt 0 view .LVU7
  67 002c B0F1804F 		cmp	r0, #1073741824
  68 0030 32D0     		beq	.L6
  69 0032 A3F58063 		sub	r3, r3, #1024
  70 0036 9842     		cmp	r0, r3
  71 0038 2DD1     		bne	.L1
  61:Drivers/GD32F30x_standard_peripheral/Source/gd32f30x_timer.c ****         rcu_periph_reset_disable(RCU_TIMER2RST);
  72              		.loc 1 61 9 is_stmt 1 view .LVU8
  73 003a 40F20140 		movw	r0, #1025
  74              	.LVL5:
  61:Drivers/GD32F30x_standard_peripheral/Source/gd32f30x_timer.c ****         rcu_periph_reset_disable(RCU_TIMER2RST);
  75              		.loc 1 61 9 is_stmt 0 view .LVU9
  76 003e FFF7FEFF 		bl	rcu_periph_reset_enable
  77              	.LVL6:
  62:Drivers/GD32F30x_standard_peripheral/Source/gd32f30x_timer.c ****         break;
  78              		.loc 1 62 9 is_stmt 1 view .LVU10
  79 0042 40F20140 		movw	r0, #1025
  80 0046 FFF7FEFF 		bl	rcu_periph_reset_disable
  81              	.LVL7:
  63:Drivers/GD32F30x_standard_peripheral/Source/gd32f30x_timer.c ****     case TIMER3:
  82              		.loc 1 63 9 view .LVU11
  83 004a 24E0     		b	.L1
  84              	.LVL8:
  85              	.L3:
  48:Drivers/GD32F30x_standard_peripheral/Source/gd32f30x_timer.c ****     case TIMER0:
  86              		.loc 1 48 5 is_stmt 0 view .LVU12
  87 004c 224B     		ldr	r3, .L16+8
  88 004e 9842     		cmp	r0, r3
  89 0050 19D0     		beq	.L10
  90 0052 03F50063 		add	r3, r3, #2048
  91 0056 9842     		cmp	r0, r3
  92 0058 08D1     		bne	.L15
  74:Drivers/GD32F30x_standard_peripheral/Source/gd32f30x_timer.c ****     case TIMER5:
ARM GAS  C:\Users\Prog\AppData\Local\Temp\ccT8qdHj.s 			page 4


  75:Drivers/GD32F30x_standard_peripheral/Source/gd32f30x_timer.c ****         /* reset TIMER5 */
  76:Drivers/GD32F30x_standard_peripheral/Source/gd32f30x_timer.c ****         rcu_periph_reset_enable(RCU_TIMER5RST);
  77:Drivers/GD32F30x_standard_peripheral/Source/gd32f30x_timer.c ****         rcu_periph_reset_disable(RCU_TIMER5RST);
  78:Drivers/GD32F30x_standard_peripheral/Source/gd32f30x_timer.c ****         break;
  79:Drivers/GD32F30x_standard_peripheral/Source/gd32f30x_timer.c ****     case TIMER6:
  80:Drivers/GD32F30x_standard_peripheral/Source/gd32f30x_timer.c ****         /* reset TIMER6 */
  81:Drivers/GD32F30x_standard_peripheral/Source/gd32f30x_timer.c ****         rcu_periph_reset_enable(RCU_TIMER6RST);
  82:Drivers/GD32F30x_standard_peripheral/Source/gd32f30x_timer.c ****         rcu_periph_reset_disable(RCU_TIMER6RST);
  83:Drivers/GD32F30x_standard_peripheral/Source/gd32f30x_timer.c ****         break;
  84:Drivers/GD32F30x_standard_peripheral/Source/gd32f30x_timer.c ****     case TIMER7:
  85:Drivers/GD32F30x_standard_peripheral/Source/gd32f30x_timer.c ****         /* reset TIMER7 */
  86:Drivers/GD32F30x_standard_peripheral/Source/gd32f30x_timer.c ****         rcu_periph_reset_enable(RCU_TIMER7RST);
  93              		.loc 1 86 9 is_stmt 1 view .LVU13
  94 005a 40F20D30 		movw	r0, #781
  95              	.LVL9:
  96              		.loc 1 86 9 is_stmt 0 view .LVU14
  97 005e FFF7FEFF 		bl	rcu_periph_reset_enable
  98              	.LVL10:
  87:Drivers/GD32F30x_standard_peripheral/Source/gd32f30x_timer.c ****         rcu_periph_reset_disable(RCU_TIMER7RST);
  99              		.loc 1 87 9 is_stmt 1 view .LVU15
 100 0062 40F20D30 		movw	r0, #781
 101 0066 FFF7FEFF 		bl	rcu_periph_reset_disable
 102              	.LVL11:
  88:Drivers/GD32F30x_standard_peripheral/Source/gd32f30x_timer.c ****         break;
 103              		.loc 1 88 9 view .LVU16
  89:Drivers/GD32F30x_standard_peripheral/Source/gd32f30x_timer.c **** #ifndef GD32F30X_HD
  90:Drivers/GD32F30x_standard_peripheral/Source/gd32f30x_timer.c ****     case TIMER8:
  91:Drivers/GD32F30x_standard_peripheral/Source/gd32f30x_timer.c ****         /* reset TIMER8 */
  92:Drivers/GD32F30x_standard_peripheral/Source/gd32f30x_timer.c ****         rcu_periph_reset_enable(RCU_TIMER8RST);
  93:Drivers/GD32F30x_standard_peripheral/Source/gd32f30x_timer.c ****         rcu_periph_reset_disable(RCU_TIMER8RST);
  94:Drivers/GD32F30x_standard_peripheral/Source/gd32f30x_timer.c ****         break;
  95:Drivers/GD32F30x_standard_peripheral/Source/gd32f30x_timer.c ****     case TIMER9:
  96:Drivers/GD32F30x_standard_peripheral/Source/gd32f30x_timer.c ****         /* reset TIMER9 */
  97:Drivers/GD32F30x_standard_peripheral/Source/gd32f30x_timer.c ****         rcu_periph_reset_enable(RCU_TIMER9RST);
  98:Drivers/GD32F30x_standard_peripheral/Source/gd32f30x_timer.c ****         rcu_periph_reset_disable(RCU_TIMER9RST);
  99:Drivers/GD32F30x_standard_peripheral/Source/gd32f30x_timer.c ****         break;
 100:Drivers/GD32F30x_standard_peripheral/Source/gd32f30x_timer.c ****     case TIMER10:
 101:Drivers/GD32F30x_standard_peripheral/Source/gd32f30x_timer.c ****         /* reset TIMER10 */
 102:Drivers/GD32F30x_standard_peripheral/Source/gd32f30x_timer.c ****         rcu_periph_reset_enable(RCU_TIMER10RST);
 103:Drivers/GD32F30x_standard_peripheral/Source/gd32f30x_timer.c ****         rcu_periph_reset_disable(RCU_TIMER10RST);
 104:Drivers/GD32F30x_standard_peripheral/Source/gd32f30x_timer.c ****         break;
 105:Drivers/GD32F30x_standard_peripheral/Source/gd32f30x_timer.c ****     case TIMER11:
 106:Drivers/GD32F30x_standard_peripheral/Source/gd32f30x_timer.c ****         /* reset TIMER11 */
 107:Drivers/GD32F30x_standard_peripheral/Source/gd32f30x_timer.c ****         rcu_periph_reset_enable(RCU_TIMER11RST);
 108:Drivers/GD32F30x_standard_peripheral/Source/gd32f30x_timer.c ****         rcu_periph_reset_disable(RCU_TIMER11RST);
 109:Drivers/GD32F30x_standard_peripheral/Source/gd32f30x_timer.c ****         break;
 110:Drivers/GD32F30x_standard_peripheral/Source/gd32f30x_timer.c ****     case TIMER12:
 111:Drivers/GD32F30x_standard_peripheral/Source/gd32f30x_timer.c ****         /* reset TIMER12 */
 112:Drivers/GD32F30x_standard_peripheral/Source/gd32f30x_timer.c ****         rcu_periph_reset_enable(RCU_TIMER12RST);
 113:Drivers/GD32F30x_standard_peripheral/Source/gd32f30x_timer.c ****         rcu_periph_reset_disable(RCU_TIMER12RST);
 114:Drivers/GD32F30x_standard_peripheral/Source/gd32f30x_timer.c ****         break;
 115:Drivers/GD32F30x_standard_peripheral/Source/gd32f30x_timer.c ****     case TIMER13:
 116:Drivers/GD32F30x_standard_peripheral/Source/gd32f30x_timer.c ****         /* reset TIMER13 */
 117:Drivers/GD32F30x_standard_peripheral/Source/gd32f30x_timer.c ****         rcu_periph_reset_enable(RCU_TIMER13RST);
 118:Drivers/GD32F30x_standard_peripheral/Source/gd32f30x_timer.c ****         rcu_periph_reset_disable(RCU_TIMER13RST);
 119:Drivers/GD32F30x_standard_peripheral/Source/gd32f30x_timer.c ****         break;
 120:Drivers/GD32F30x_standard_peripheral/Source/gd32f30x_timer.c **** #endif /* GD32F30X_HD */
ARM GAS  C:\Users\Prog\AppData\Local\Temp\ccT8qdHj.s 			page 5


 121:Drivers/GD32F30x_standard_peripheral/Source/gd32f30x_timer.c ****     default:
 122:Drivers/GD32F30x_standard_peripheral/Source/gd32f30x_timer.c ****         break;
 123:Drivers/GD32F30x_standard_peripheral/Source/gd32f30x_timer.c ****     }
 124:Drivers/GD32F30x_standard_peripheral/Source/gd32f30x_timer.c **** }
 104              		.loc 1 124 1 is_stmt 0 view .LVU17
 105 006a 14E0     		b	.L1
 106              	.LVL12:
 107              	.L15:
  48:Drivers/GD32F30x_standard_peripheral/Source/gd32f30x_timer.c ****     case TIMER0:
 108              		.loc 1 48 5 view .LVU18
 109 006c A3F59033 		sub	r3, r3, #73728
 110 0070 9842     		cmp	r0, r3
 111 0072 10D1     		bne	.L1
  81:Drivers/GD32F30x_standard_peripheral/Source/gd32f30x_timer.c ****         rcu_periph_reset_disable(RCU_TIMER6RST);
 112              		.loc 1 81 9 is_stmt 1 view .LVU19
 113 0074 40F20540 		movw	r0, #1029
 114              	.LVL13:
  81:Drivers/GD32F30x_standard_peripheral/Source/gd32f30x_timer.c ****         rcu_periph_reset_disable(RCU_TIMER6RST);
 115              		.loc 1 81 9 is_stmt 0 view .LVU20
 116 0078 FFF7FEFF 		bl	rcu_periph_reset_enable
 117              	.LVL14:
  82:Drivers/GD32F30x_standard_peripheral/Source/gd32f30x_timer.c ****         break;
 118              		.loc 1 82 9 is_stmt 1 view .LVU21
 119 007c 40F20540 		movw	r0, #1029
 120 0080 FFF7FEFF 		bl	rcu_periph_reset_disable
 121              	.LVL15:
  83:Drivers/GD32F30x_standard_peripheral/Source/gd32f30x_timer.c ****     case TIMER7:
 122              		.loc 1 83 9 view .LVU22
 123 0084 07E0     		b	.L1
 124              	.LVL16:
 125              	.L10:
  51:Drivers/GD32F30x_standard_peripheral/Source/gd32f30x_timer.c ****         rcu_periph_reset_disable(RCU_TIMER0RST);
 126              		.loc 1 51 9 view .LVU23
 127 0086 40F20B30 		movw	r0, #779
 128              	.LVL17:
  51:Drivers/GD32F30x_standard_peripheral/Source/gd32f30x_timer.c ****         rcu_periph_reset_disable(RCU_TIMER0RST);
 129              		.loc 1 51 9 is_stmt 0 view .LVU24
 130 008a FFF7FEFF 		bl	rcu_periph_reset_enable
 131              	.LVL18:
  52:Drivers/GD32F30x_standard_peripheral/Source/gd32f30x_timer.c ****         break;
 132              		.loc 1 52 9 is_stmt 1 view .LVU25
 133 008e 40F20B30 		movw	r0, #779
 134 0092 FFF7FEFF 		bl	rcu_periph_reset_disable
 135              	.LVL19:
  53:Drivers/GD32F30x_standard_peripheral/Source/gd32f30x_timer.c ****     case TIMER1:
 136              		.loc 1 53 9 view .LVU26
 137              	.L1:
 138              		.loc 1 124 1 is_stmt 0 view .LVU27
 139 0096 08BD     		pop	{r3, pc}
 140              	.LVL20:
 141              	.L6:
  56:Drivers/GD32F30x_standard_peripheral/Source/gd32f30x_timer.c ****         rcu_periph_reset_disable(RCU_TIMER1RST);
 142              		.loc 1 56 9 is_stmt 1 view .LVU28
 143 0098 4FF48060 		mov	r0, #1024
 144              	.LVL21:
  56:Drivers/GD32F30x_standard_peripheral/Source/gd32f30x_timer.c ****         rcu_periph_reset_disable(RCU_TIMER1RST);
 145              		.loc 1 56 9 is_stmt 0 view .LVU29
ARM GAS  C:\Users\Prog\AppData\Local\Temp\ccT8qdHj.s 			page 6


 146 009c FFF7FEFF 		bl	rcu_periph_reset_enable
 147              	.LVL22:
  57:Drivers/GD32F30x_standard_peripheral/Source/gd32f30x_timer.c ****         break;
 148              		.loc 1 57 9 is_stmt 1 view .LVU30
 149 00a0 4FF48060 		mov	r0, #1024
 150 00a4 FFF7FEFF 		bl	rcu_periph_reset_disable
 151              	.LVL23:
  58:Drivers/GD32F30x_standard_peripheral/Source/gd32f30x_timer.c ****     case TIMER2:
 152              		.loc 1 58 9 view .LVU31
 153 00a8 F5E7     		b	.L1
 154              	.LVL24:
 155              	.L4:
  66:Drivers/GD32F30x_standard_peripheral/Source/gd32f30x_timer.c ****         rcu_periph_reset_disable(RCU_TIMER3RST);
 156              		.loc 1 66 9 view .LVU32
 157 00aa 40F20240 		movw	r0, #1026
 158              	.LVL25:
  66:Drivers/GD32F30x_standard_peripheral/Source/gd32f30x_timer.c ****         rcu_periph_reset_disable(RCU_TIMER3RST);
 159              		.loc 1 66 9 is_stmt 0 view .LVU33
 160 00ae FFF7FEFF 		bl	rcu_periph_reset_enable
 161              	.LVL26:
  67:Drivers/GD32F30x_standard_peripheral/Source/gd32f30x_timer.c ****         break;
 162              		.loc 1 67 9 is_stmt 1 view .LVU34
 163 00b2 40F20240 		movw	r0, #1026
 164 00b6 FFF7FEFF 		bl	rcu_periph_reset_disable
 165              	.LVL27:
  68:Drivers/GD32F30x_standard_peripheral/Source/gd32f30x_timer.c ****     case TIMER4:
 166              		.loc 1 68 9 view .LVU35
 167 00ba ECE7     		b	.L1
 168              	.LVL28:
 169              	.L2:
  76:Drivers/GD32F30x_standard_peripheral/Source/gd32f30x_timer.c ****         rcu_periph_reset_disable(RCU_TIMER5RST);
 170              		.loc 1 76 9 view .LVU36
 171 00bc 40F20440 		movw	r0, #1028
 172              	.LVL29:
  76:Drivers/GD32F30x_standard_peripheral/Source/gd32f30x_timer.c ****         rcu_periph_reset_disable(RCU_TIMER5RST);
 173              		.loc 1 76 9 is_stmt 0 view .LVU37
 174 00c0 FFF7FEFF 		bl	rcu_periph_reset_enable
 175              	.LVL30:
  77:Drivers/GD32F30x_standard_peripheral/Source/gd32f30x_timer.c ****         break;
 176              		.loc 1 77 9 is_stmt 1 view .LVU38
 177 00c4 40F20440 		movw	r0, #1028
 178 00c8 FFF7FEFF 		bl	rcu_periph_reset_disable
 179              	.LVL31:
  78:Drivers/GD32F30x_standard_peripheral/Source/gd32f30x_timer.c ****     case TIMER6:
 180              		.loc 1 78 9 view .LVU39
 181 00cc E3E7     		b	.L1
 182              	.L17:
 183 00ce 00BF     		.align	2
 184              	.L16:
 185 00d0 00100040 		.word	1073745920
 186 00d4 000C0040 		.word	1073744896
 187 00d8 002C0140 		.word	1073818624
 188              		.cfi_endproc
 189              	.LFE116:
 191              		.section	.text.timer_struct_para_init,"ax",%progbits
 192              		.align	1
 193              		.global	timer_struct_para_init
ARM GAS  C:\Users\Prog\AppData\Local\Temp\ccT8qdHj.s 			page 7


 194              		.syntax unified
 195              		.thumb
 196              		.thumb_func
 197              		.fpu fpv4-sp-d16
 199              	timer_struct_para_init:
 200              	.LVL32:
 201              	.LFB117:
 125:Drivers/GD32F30x_standard_peripheral/Source/gd32f30x_timer.c **** 
 126:Drivers/GD32F30x_standard_peripheral/Source/gd32f30x_timer.c **** /*!
 127:Drivers/GD32F30x_standard_peripheral/Source/gd32f30x_timer.c ****     \brief      initialize TIMER init parameter struct with a default value
 128:Drivers/GD32F30x_standard_peripheral/Source/gd32f30x_timer.c ****     \param[in]  initpara: init parameter struct
 129:Drivers/GD32F30x_standard_peripheral/Source/gd32f30x_timer.c ****     \param[out] none
 130:Drivers/GD32F30x_standard_peripheral/Source/gd32f30x_timer.c ****     \retval     none
 131:Drivers/GD32F30x_standard_peripheral/Source/gd32f30x_timer.c **** */
 132:Drivers/GD32F30x_standard_peripheral/Source/gd32f30x_timer.c **** void timer_struct_para_init(timer_parameter_struct* initpara)
 133:Drivers/GD32F30x_standard_peripheral/Source/gd32f30x_timer.c **** {
 202              		.loc 1 133 1 view -0
 203              		.cfi_startproc
 204              		@ args = 0, pretend = 0, frame = 0
 205              		@ frame_needed = 0, uses_anonymous_args = 0
 206              		@ link register save eliminated.
 134:Drivers/GD32F30x_standard_peripheral/Source/gd32f30x_timer.c ****     /* initialize the init parameter struct member with the default value */
 135:Drivers/GD32F30x_standard_peripheral/Source/gd32f30x_timer.c ****     initpara->prescaler         = 0U;
 207              		.loc 1 135 5 view .LVU41
 208              		.loc 1 135 33 is_stmt 0 view .LVU42
 209 0000 0023     		movs	r3, #0
 210 0002 0380     		strh	r3, [r0]	@ movhi
 136:Drivers/GD32F30x_standard_peripheral/Source/gd32f30x_timer.c ****     initpara->alignedmode       = TIMER_COUNTER_EDGE;
 211              		.loc 1 136 5 is_stmt 1 view .LVU43
 212              		.loc 1 136 33 is_stmt 0 view .LVU44
 213 0004 4380     		strh	r3, [r0, #2]	@ movhi
 137:Drivers/GD32F30x_standard_peripheral/Source/gd32f30x_timer.c ****     initpara->counterdirection  = TIMER_COUNTER_UP;
 214              		.loc 1 137 5 is_stmt 1 view .LVU45
 215              		.loc 1 137 33 is_stmt 0 view .LVU46
 216 0006 8380     		strh	r3, [r0, #4]	@ movhi
 138:Drivers/GD32F30x_standard_peripheral/Source/gd32f30x_timer.c ****     initpara->period            = 65535U;
 217              		.loc 1 138 5 is_stmt 1 view .LVU47
 218              		.loc 1 138 33 is_stmt 0 view .LVU48
 219 0008 4FF6FF72 		movw	r2, #65535
 220 000c 8260     		str	r2, [r0, #8]
 139:Drivers/GD32F30x_standard_peripheral/Source/gd32f30x_timer.c ****     initpara->clockdivision     = TIMER_CKDIV_DIV1;
 221              		.loc 1 139 5 is_stmt 1 view .LVU49
 222              		.loc 1 139 33 is_stmt 0 view .LVU50
 223 000e C380     		strh	r3, [r0, #6]	@ movhi
 140:Drivers/GD32F30x_standard_peripheral/Source/gd32f30x_timer.c ****     initpara->repetitioncounter = 0U;
 224              		.loc 1 140 5 is_stmt 1 view .LVU51
 225              		.loc 1 140 33 is_stmt 0 view .LVU52
 226 0010 0373     		strb	r3, [r0, #12]
 141:Drivers/GD32F30x_standard_peripheral/Source/gd32f30x_timer.c **** }
 227              		.loc 1 141 1 view .LVU53
 228 0012 7047     		bx	lr
 229              		.cfi_endproc
 230              	.LFE117:
 232              		.section	.text.timer_init,"ax",%progbits
 233              		.align	1
 234              		.global	timer_init
 235              		.syntax unified
ARM GAS  C:\Users\Prog\AppData\Local\Temp\ccT8qdHj.s 			page 8


 236              		.thumb
 237              		.thumb_func
 238              		.fpu fpv4-sp-d16
 240              	timer_init:
 241              	.LVL33:
 242              	.LFB118:
 142:Drivers/GD32F30x_standard_peripheral/Source/gd32f30x_timer.c **** 
 143:Drivers/GD32F30x_standard_peripheral/Source/gd32f30x_timer.c **** /*!
 144:Drivers/GD32F30x_standard_peripheral/Source/gd32f30x_timer.c ****     \brief      initialize TIMER counter
 145:Drivers/GD32F30x_standard_peripheral/Source/gd32f30x_timer.c ****     \param[in]  timer_periph: TIMERx(x=0..13)
 146:Drivers/GD32F30x_standard_peripheral/Source/gd32f30x_timer.c ****     \param[in]  initpara: init parameter struct
 147:Drivers/GD32F30x_standard_peripheral/Source/gd32f30x_timer.c ****                   prescaler: prescaler value of the counter clock, 0~65535
 148:Drivers/GD32F30x_standard_peripheral/Source/gd32f30x_timer.c ****                   alignedmode: TIMER_COUNTER_EDGE, TIMER_COUNTER_CENTER_DOWN, TIMER_COUNTER_CENTER_
 149:Drivers/GD32F30x_standard_peripheral/Source/gd32f30x_timer.c ****                   counterdirection: TIMER_COUNTER_UP, TIMER_COUNTER_DOWN
 150:Drivers/GD32F30x_standard_peripheral/Source/gd32f30x_timer.c ****                   period: counter auto reload value, 0~65535
 151:Drivers/GD32F30x_standard_peripheral/Source/gd32f30x_timer.c ****                   clockdivision: TIMER_CKDIV_DIV1, TIMER_CKDIV_DIV2, TIMER_CKDIV_DIV4
 152:Drivers/GD32F30x_standard_peripheral/Source/gd32f30x_timer.c ****                   repetitioncounter: counter repetition value, 0~255
 153:Drivers/GD32F30x_standard_peripheral/Source/gd32f30x_timer.c ****     \param[out] none
 154:Drivers/GD32F30x_standard_peripheral/Source/gd32f30x_timer.c ****     \retval     none
 155:Drivers/GD32F30x_standard_peripheral/Source/gd32f30x_timer.c **** */
 156:Drivers/GD32F30x_standard_peripheral/Source/gd32f30x_timer.c **** void timer_init(uint32_t timer_periph, timer_parameter_struct* initpara)
 157:Drivers/GD32F30x_standard_peripheral/Source/gd32f30x_timer.c **** {
 243              		.loc 1 157 1 is_stmt 1 view -0
 244              		.cfi_startproc
 245              		@ args = 0, pretend = 0, frame = 0
 246              		@ frame_needed = 0, uses_anonymous_args = 0
 247              		@ link register save eliminated.
 158:Drivers/GD32F30x_standard_peripheral/Source/gd32f30x_timer.c ****     /* configure the counter prescaler value */
 159:Drivers/GD32F30x_standard_peripheral/Source/gd32f30x_timer.c ****     TIMER_PSC(timer_periph) = (uint16_t)initpara->prescaler;
 248              		.loc 1 159 5 view .LVU55
 249              		.loc 1 159 49 is_stmt 0 view .LVU56
 250 0000 0B88     		ldrh	r3, [r1]
 251              		.loc 1 159 29 view .LVU57
 252 0002 8362     		str	r3, [r0, #40]
 160:Drivers/GD32F30x_standard_peripheral/Source/gd32f30x_timer.c **** 
 161:Drivers/GD32F30x_standard_peripheral/Source/gd32f30x_timer.c ****     /* configure the counter direction and aligned mode */
 162:Drivers/GD32F30x_standard_peripheral/Source/gd32f30x_timer.c ****     if((TIMER0 == timer_periph) || (TIMER1 == timer_periph) || (TIMER2 == timer_periph)
 253              		.loc 1 162 5 is_stmt 1 view .LVU58
 254              		.loc 1 162 7 is_stmt 0 view .LVU59
 255 0004 204B     		ldr	r3, .L25
 256 0006 9842     		cmp	r0, r3
 257 0008 12D0     		beq	.L20
 258              		.loc 1 162 33 discriminator 1 view .LVU60
 259 000a B0F1804F 		cmp	r0, #1073741824
 260 000e 0FD0     		beq	.L20
 261              		.loc 1 162 61 discriminator 2 view .LVU61
 262 0010 A3F59433 		sub	r3, r3, #75776
 263 0014 9842     		cmp	r0, r3
 264 0016 0BD0     		beq	.L20
 163:Drivers/GD32F30x_standard_peripheral/Source/gd32f30x_timer.c ****         || (TIMER3 == timer_periph) || (TIMER4 == timer_periph) || (TIMER7 == timer_periph)){
 265              		.loc 1 163 9 view .LVU62
 266 0018 03F58063 		add	r3, r3, #1024
 267 001c 9842     		cmp	r0, r3
 268 001e 07D0     		beq	.L20
 269              		.loc 1 163 37 discriminator 1 view .LVU63
 270 0020 03F58063 		add	r3, r3, #1024
 271 0024 9842     		cmp	r0, r3
ARM GAS  C:\Users\Prog\AppData\Local\Temp\ccT8qdHj.s 			page 9


 272 0026 03D0     		beq	.L20
 273              		.loc 1 163 65 discriminator 2 view .LVU64
 274 0028 03F59433 		add	r3, r3, #75776
 275 002c 9842     		cmp	r0, r3
 276 002e 0BD1     		bne	.L21
 277              	.L20:
 164:Drivers/GD32F30x_standard_peripheral/Source/gd32f30x_timer.c ****         TIMER_CTL0(timer_periph) &= ~(uint32_t)(TIMER_CTL0_DIR|TIMER_CTL0_CAM);
 278              		.loc 1 164 9 is_stmt 1 view .LVU65
 279              		.loc 1 164 34 is_stmt 0 view .LVU66
 280 0030 0368     		ldr	r3, [r0]
 281 0032 23F07003 		bic	r3, r3, #112
 282 0036 0360     		str	r3, [r0]
 165:Drivers/GD32F30x_standard_peripheral/Source/gd32f30x_timer.c ****         TIMER_CTL0(timer_periph) |= (uint32_t)initpara->alignedmode;
 283              		.loc 1 165 9 is_stmt 1 view .LVU67
 284              		.loc 1 165 34 is_stmt 0 view .LVU68
 285 0038 0368     		ldr	r3, [r0]
 286              		.loc 1 165 55 view .LVU69
 287 003a 4A88     		ldrh	r2, [r1, #2]
 288              		.loc 1 165 34 view .LVU70
 289 003c 1343     		orrs	r3, r3, r2
 290 003e 0360     		str	r3, [r0]
 166:Drivers/GD32F30x_standard_peripheral/Source/gd32f30x_timer.c ****         TIMER_CTL0(timer_periph) |= (uint32_t)initpara->counterdirection;
 291              		.loc 1 166 9 is_stmt 1 view .LVU71
 292              		.loc 1 166 34 is_stmt 0 view .LVU72
 293 0040 0368     		ldr	r3, [r0]
 294              		.loc 1 166 55 view .LVU73
 295 0042 8A88     		ldrh	r2, [r1, #4]
 296              		.loc 1 166 34 view .LVU74
 297 0044 1343     		orrs	r3, r3, r2
 298 0046 0360     		str	r3, [r0]
 299              	.L21:
 167:Drivers/GD32F30x_standard_peripheral/Source/gd32f30x_timer.c ****     }
 168:Drivers/GD32F30x_standard_peripheral/Source/gd32f30x_timer.c **** 
 169:Drivers/GD32F30x_standard_peripheral/Source/gd32f30x_timer.c ****     /* configure the autoreload value */
 170:Drivers/GD32F30x_standard_peripheral/Source/gd32f30x_timer.c ****     TIMER_CAR(timer_periph) = (uint32_t)initpara->period;
 300              		.loc 1 170 5 is_stmt 1 view .LVU75
 301              		.loc 1 170 49 is_stmt 0 view .LVU76
 302 0048 8B68     		ldr	r3, [r1, #8]
 303              		.loc 1 170 29 view .LVU77
 304 004a C362     		str	r3, [r0, #44]
 171:Drivers/GD32F30x_standard_peripheral/Source/gd32f30x_timer.c **** 
 172:Drivers/GD32F30x_standard_peripheral/Source/gd32f30x_timer.c ****     if((TIMER5 != timer_periph) && (TIMER6 != timer_periph)){
 305              		.loc 1 172 5 is_stmt 1 view .LVU78
 306              		.loc 1 172 7 is_stmt 0 view .LVU79
 307 004c 0F4B     		ldr	r3, .L25+4
 308 004e 9842     		cmp	r0, r3
 309 0050 0BD0     		beq	.L22
 310              		.loc 1 172 33 discriminator 1 view .LVU80
 311 0052 03F58063 		add	r3, r3, #1024
 312 0056 9842     		cmp	r0, r3
 313 0058 07D0     		beq	.L22
 173:Drivers/GD32F30x_standard_peripheral/Source/gd32f30x_timer.c ****         /* reset the CKDIV bit */
 174:Drivers/GD32F30x_standard_peripheral/Source/gd32f30x_timer.c ****         TIMER_CTL0(timer_periph) &= ~(uint32_t)TIMER_CTL0_CKDIV;
 314              		.loc 1 174 9 is_stmt 1 view .LVU81
 315              		.loc 1 174 34 is_stmt 0 view .LVU82
 316 005a 0368     		ldr	r3, [r0]
 317 005c 23F44073 		bic	r3, r3, #768
ARM GAS  C:\Users\Prog\AppData\Local\Temp\ccT8qdHj.s 			page 10


 318 0060 0360     		str	r3, [r0]
 175:Drivers/GD32F30x_standard_peripheral/Source/gd32f30x_timer.c ****         TIMER_CTL0(timer_periph) |= (uint32_t)initpara->clockdivision;
 319              		.loc 1 175 9 is_stmt 1 view .LVU83
 320              		.loc 1 175 34 is_stmt 0 view .LVU84
 321 0062 0368     		ldr	r3, [r0]
 322              		.loc 1 175 55 view .LVU85
 323 0064 CA88     		ldrh	r2, [r1, #6]
 324              		.loc 1 175 34 view .LVU86
 325 0066 1343     		orrs	r3, r3, r2
 326 0068 0360     		str	r3, [r0]
 327              	.L22:
 176:Drivers/GD32F30x_standard_peripheral/Source/gd32f30x_timer.c ****     }
 177:Drivers/GD32F30x_standard_peripheral/Source/gd32f30x_timer.c **** 
 178:Drivers/GD32F30x_standard_peripheral/Source/gd32f30x_timer.c ****     if((TIMER0 == timer_periph) || (TIMER7 == timer_periph)){
 328              		.loc 1 178 5 is_stmt 1 view .LVU87
 329              		.loc 1 178 7 is_stmt 0 view .LVU88
 330 006a 074B     		ldr	r3, .L25
 331 006c 9842     		cmp	r0, r3
 332 006e 03D0     		beq	.L23
 333              		.loc 1 178 33 discriminator 1 view .LVU89
 334 0070 03F50063 		add	r3, r3, #2048
 335 0074 9842     		cmp	r0, r3
 336 0076 01D1     		bne	.L24
 337              	.L23:
 179:Drivers/GD32F30x_standard_peripheral/Source/gd32f30x_timer.c ****         /* configure the repetition counter value */
 180:Drivers/GD32F30x_standard_peripheral/Source/gd32f30x_timer.c ****         TIMER_CREP(timer_periph) = (uint32_t)initpara->repetitioncounter;
 338              		.loc 1 180 9 is_stmt 1 view .LVU90
 339              		.loc 1 180 54 is_stmt 0 view .LVU91
 340 0078 0B7B     		ldrb	r3, [r1, #12]	@ zero_extendqisi2
 341              		.loc 1 180 34 view .LVU92
 342 007a 0363     		str	r3, [r0, #48]
 343              	.L24:
 181:Drivers/GD32F30x_standard_peripheral/Source/gd32f30x_timer.c ****     }
 182:Drivers/GD32F30x_standard_peripheral/Source/gd32f30x_timer.c **** 
 183:Drivers/GD32F30x_standard_peripheral/Source/gd32f30x_timer.c ****     /* generate an update event */
 184:Drivers/GD32F30x_standard_peripheral/Source/gd32f30x_timer.c ****     TIMER_SWEVG(timer_periph) |= (uint32_t)TIMER_SWEVG_UPG;
 344              		.loc 1 184 5 is_stmt 1 view .LVU93
 345              		.loc 1 184 31 is_stmt 0 view .LVU94
 346 007c 4369     		ldr	r3, [r0, #20]
 347 007e 43F00103 		orr	r3, r3, #1
 348 0082 4361     		str	r3, [r0, #20]
 185:Drivers/GD32F30x_standard_peripheral/Source/gd32f30x_timer.c **** }
 349              		.loc 1 185 1 view .LVU95
 350 0084 7047     		bx	lr
 351              	.L26:
 352 0086 00BF     		.align	2
 353              	.L25:
 354 0088 002C0140 		.word	1073818624
 355 008c 00100040 		.word	1073745920
 356              		.cfi_endproc
 357              	.LFE118:
 359              		.section	.text.timer_enable,"ax",%progbits
 360              		.align	1
 361              		.global	timer_enable
 362              		.syntax unified
 363              		.thumb
 364              		.thumb_func
ARM GAS  C:\Users\Prog\AppData\Local\Temp\ccT8qdHj.s 			page 11


 365              		.fpu fpv4-sp-d16
 367              	timer_enable:
 368              	.LVL34:
 369              	.LFB119:
 186:Drivers/GD32F30x_standard_peripheral/Source/gd32f30x_timer.c **** 
 187:Drivers/GD32F30x_standard_peripheral/Source/gd32f30x_timer.c **** /*!
 188:Drivers/GD32F30x_standard_peripheral/Source/gd32f30x_timer.c ****     \brief      enable a TIMER
 189:Drivers/GD32F30x_standard_peripheral/Source/gd32f30x_timer.c ****     \param[in]  timer_periph: TIMERx(x=0..13)
 190:Drivers/GD32F30x_standard_peripheral/Source/gd32f30x_timer.c ****     \param[out] none
 191:Drivers/GD32F30x_standard_peripheral/Source/gd32f30x_timer.c ****     \retval     none
 192:Drivers/GD32F30x_standard_peripheral/Source/gd32f30x_timer.c **** */
 193:Drivers/GD32F30x_standard_peripheral/Source/gd32f30x_timer.c **** void timer_enable(uint32_t timer_periph)
 194:Drivers/GD32F30x_standard_peripheral/Source/gd32f30x_timer.c **** {
 370              		.loc 1 194 1 is_stmt 1 view -0
 371              		.cfi_startproc
 372              		@ args = 0, pretend = 0, frame = 0
 373              		@ frame_needed = 0, uses_anonymous_args = 0
 374              		@ link register save eliminated.
 195:Drivers/GD32F30x_standard_peripheral/Source/gd32f30x_timer.c ****     TIMER_CTL0(timer_periph) |= (uint32_t)TIMER_CTL0_CEN;
 375              		.loc 1 195 5 view .LVU97
 376              		.loc 1 195 30 is_stmt 0 view .LVU98
 377 0000 0368     		ldr	r3, [r0]
 378 0002 43F00103 		orr	r3, r3, #1
 379 0006 0360     		str	r3, [r0]
 196:Drivers/GD32F30x_standard_peripheral/Source/gd32f30x_timer.c **** }
 380              		.loc 1 196 1 view .LVU99
 381 0008 7047     		bx	lr
 382              		.cfi_endproc
 383              	.LFE119:
 385              		.section	.text.timer_disable,"ax",%progbits
 386              		.align	1
 387              		.global	timer_disable
 388              		.syntax unified
 389              		.thumb
 390              		.thumb_func
 391              		.fpu fpv4-sp-d16
 393              	timer_disable:
 394              	.LVL35:
 395              	.LFB120:
 197:Drivers/GD32F30x_standard_peripheral/Source/gd32f30x_timer.c **** 
 198:Drivers/GD32F30x_standard_peripheral/Source/gd32f30x_timer.c **** /*!
 199:Drivers/GD32F30x_standard_peripheral/Source/gd32f30x_timer.c ****     \brief      disable a TIMER
 200:Drivers/GD32F30x_standard_peripheral/Source/gd32f30x_timer.c ****     \param[in]  timer_periph: TIMERx(x=0..13)
 201:Drivers/GD32F30x_standard_peripheral/Source/gd32f30x_timer.c ****     \param[out] none
 202:Drivers/GD32F30x_standard_peripheral/Source/gd32f30x_timer.c ****     \retval     none
 203:Drivers/GD32F30x_standard_peripheral/Source/gd32f30x_timer.c **** */
 204:Drivers/GD32F30x_standard_peripheral/Source/gd32f30x_timer.c **** void timer_disable(uint32_t timer_periph)
 205:Drivers/GD32F30x_standard_peripheral/Source/gd32f30x_timer.c **** {
 396              		.loc 1 205 1 is_stmt 1 view -0
 397              		.cfi_startproc
 398              		@ args = 0, pretend = 0, frame = 0
 399              		@ frame_needed = 0, uses_anonymous_args = 0
 400              		@ link register save eliminated.
 206:Drivers/GD32F30x_standard_peripheral/Source/gd32f30x_timer.c ****     TIMER_CTL0(timer_periph) &= ~(uint32_t)TIMER_CTL0_CEN;
 401              		.loc 1 206 5 view .LVU101
 402              		.loc 1 206 30 is_stmt 0 view .LVU102
 403 0000 0368     		ldr	r3, [r0]
ARM GAS  C:\Users\Prog\AppData\Local\Temp\ccT8qdHj.s 			page 12


 404 0002 23F00103 		bic	r3, r3, #1
 405 0006 0360     		str	r3, [r0]
 207:Drivers/GD32F30x_standard_peripheral/Source/gd32f30x_timer.c **** }
 406              		.loc 1 207 1 view .LVU103
 407 0008 7047     		bx	lr
 408              		.cfi_endproc
 409              	.LFE120:
 411              		.section	.text.timer_auto_reload_shadow_enable,"ax",%progbits
 412              		.align	1
 413              		.global	timer_auto_reload_shadow_enable
 414              		.syntax unified
 415              		.thumb
 416              		.thumb_func
 417              		.fpu fpv4-sp-d16
 419              	timer_auto_reload_shadow_enable:
 420              	.LVL36:
 421              	.LFB121:
 208:Drivers/GD32F30x_standard_peripheral/Source/gd32f30x_timer.c **** 
 209:Drivers/GD32F30x_standard_peripheral/Source/gd32f30x_timer.c **** /*!
 210:Drivers/GD32F30x_standard_peripheral/Source/gd32f30x_timer.c ****     \brief      enable the auto reload shadow function
 211:Drivers/GD32F30x_standard_peripheral/Source/gd32f30x_timer.c ****     \param[in]  timer_periph: TIMERx(x=0..13)
 212:Drivers/GD32F30x_standard_peripheral/Source/gd32f30x_timer.c ****     \param[out] none
 213:Drivers/GD32F30x_standard_peripheral/Source/gd32f30x_timer.c ****     \retval     none
 214:Drivers/GD32F30x_standard_peripheral/Source/gd32f30x_timer.c **** */
 215:Drivers/GD32F30x_standard_peripheral/Source/gd32f30x_timer.c **** void timer_auto_reload_shadow_enable(uint32_t timer_periph)
 216:Drivers/GD32F30x_standard_peripheral/Source/gd32f30x_timer.c **** {
 422              		.loc 1 216 1 is_stmt 1 view -0
 423              		.cfi_startproc
 424              		@ args = 0, pretend = 0, frame = 0
 425              		@ frame_needed = 0, uses_anonymous_args = 0
 426              		@ link register save eliminated.
 217:Drivers/GD32F30x_standard_peripheral/Source/gd32f30x_timer.c ****     TIMER_CTL0(timer_periph) |= (uint32_t)TIMER_CTL0_ARSE;
 427              		.loc 1 217 5 view .LVU105
 428              		.loc 1 217 30 is_stmt 0 view .LVU106
 429 0000 0368     		ldr	r3, [r0]
 430 0002 43F08003 		orr	r3, r3, #128
 431 0006 0360     		str	r3, [r0]
 218:Drivers/GD32F30x_standard_peripheral/Source/gd32f30x_timer.c **** }
 432              		.loc 1 218 1 view .LVU107
 433 0008 7047     		bx	lr
 434              		.cfi_endproc
 435              	.LFE121:
 437              		.section	.text.timer_auto_reload_shadow_disable,"ax",%progbits
 438              		.align	1
 439              		.global	timer_auto_reload_shadow_disable
 440              		.syntax unified
 441              		.thumb
 442              		.thumb_func
 443              		.fpu fpv4-sp-d16
 445              	timer_auto_reload_shadow_disable:
 446              	.LVL37:
 447              	.LFB122:
 219:Drivers/GD32F30x_standard_peripheral/Source/gd32f30x_timer.c **** 
 220:Drivers/GD32F30x_standard_peripheral/Source/gd32f30x_timer.c **** /*!
 221:Drivers/GD32F30x_standard_peripheral/Source/gd32f30x_timer.c ****     \brief      disable the auto reload shadow function
 222:Drivers/GD32F30x_standard_peripheral/Source/gd32f30x_timer.c ****     \param[in]  timer_periph: TIMERx(x=0..13)
 223:Drivers/GD32F30x_standard_peripheral/Source/gd32f30x_timer.c ****     \param[out] none
ARM GAS  C:\Users\Prog\AppData\Local\Temp\ccT8qdHj.s 			page 13


 224:Drivers/GD32F30x_standard_peripheral/Source/gd32f30x_timer.c ****     \retval     none
 225:Drivers/GD32F30x_standard_peripheral/Source/gd32f30x_timer.c **** */
 226:Drivers/GD32F30x_standard_peripheral/Source/gd32f30x_timer.c **** void timer_auto_reload_shadow_disable(uint32_t timer_periph)
 227:Drivers/GD32F30x_standard_peripheral/Source/gd32f30x_timer.c **** {
 448              		.loc 1 227 1 is_stmt 1 view -0
 449              		.cfi_startproc
 450              		@ args = 0, pretend = 0, frame = 0
 451              		@ frame_needed = 0, uses_anonymous_args = 0
 452              		@ link register save eliminated.
 228:Drivers/GD32F30x_standard_peripheral/Source/gd32f30x_timer.c ****     TIMER_CTL0(timer_periph) &= ~(uint32_t)TIMER_CTL0_ARSE;
 453              		.loc 1 228 5 view .LVU109
 454              		.loc 1 228 30 is_stmt 0 view .LVU110
 455 0000 0368     		ldr	r3, [r0]
 456 0002 23F08003 		bic	r3, r3, #128
 457 0006 0360     		str	r3, [r0]
 229:Drivers/GD32F30x_standard_peripheral/Source/gd32f30x_timer.c **** }
 458              		.loc 1 229 1 view .LVU111
 459 0008 7047     		bx	lr
 460              		.cfi_endproc
 461              	.LFE122:
 463              		.section	.text.timer_update_event_enable,"ax",%progbits
 464              		.align	1
 465              		.global	timer_update_event_enable
 466              		.syntax unified
 467              		.thumb
 468              		.thumb_func
 469              		.fpu fpv4-sp-d16
 471              	timer_update_event_enable:
 472              	.LVL38:
 473              	.LFB123:
 230:Drivers/GD32F30x_standard_peripheral/Source/gd32f30x_timer.c **** 
 231:Drivers/GD32F30x_standard_peripheral/Source/gd32f30x_timer.c **** /*!
 232:Drivers/GD32F30x_standard_peripheral/Source/gd32f30x_timer.c ****     \brief      enable the update event
 233:Drivers/GD32F30x_standard_peripheral/Source/gd32f30x_timer.c ****     \param[in]  timer_periph: TIMERx(x=0..13)
 234:Drivers/GD32F30x_standard_peripheral/Source/gd32f30x_timer.c ****     \param[out] none
 235:Drivers/GD32F30x_standard_peripheral/Source/gd32f30x_timer.c ****     \retval     none
 236:Drivers/GD32F30x_standard_peripheral/Source/gd32f30x_timer.c **** */
 237:Drivers/GD32F30x_standard_peripheral/Source/gd32f30x_timer.c **** void timer_update_event_enable(uint32_t timer_periph)
 238:Drivers/GD32F30x_standard_peripheral/Source/gd32f30x_timer.c **** {
 474              		.loc 1 238 1 is_stmt 1 view -0
 475              		.cfi_startproc
 476              		@ args = 0, pretend = 0, frame = 0
 477              		@ frame_needed = 0, uses_anonymous_args = 0
 478              		@ link register save eliminated.
 239:Drivers/GD32F30x_standard_peripheral/Source/gd32f30x_timer.c ****     TIMER_CTL0(timer_periph) &= ~(uint32_t)TIMER_CTL0_UPDIS;
 479              		.loc 1 239 5 view .LVU113
 480              		.loc 1 239 30 is_stmt 0 view .LVU114
 481 0000 0368     		ldr	r3, [r0]
 482 0002 23F00203 		bic	r3, r3, #2
 483 0006 0360     		str	r3, [r0]
 240:Drivers/GD32F30x_standard_peripheral/Source/gd32f30x_timer.c **** }
 484              		.loc 1 240 1 view .LVU115
 485 0008 7047     		bx	lr
 486              		.cfi_endproc
 487              	.LFE123:
 489              		.section	.text.timer_update_event_disable,"ax",%progbits
 490              		.align	1
ARM GAS  C:\Users\Prog\AppData\Local\Temp\ccT8qdHj.s 			page 14


 491              		.global	timer_update_event_disable
 492              		.syntax unified
 493              		.thumb
 494              		.thumb_func
 495              		.fpu fpv4-sp-d16
 497              	timer_update_event_disable:
 498              	.LVL39:
 499              	.LFB124:
 241:Drivers/GD32F30x_standard_peripheral/Source/gd32f30x_timer.c **** 
 242:Drivers/GD32F30x_standard_peripheral/Source/gd32f30x_timer.c **** /*!
 243:Drivers/GD32F30x_standard_peripheral/Source/gd32f30x_timer.c ****     \brief      disable the update event
 244:Drivers/GD32F30x_standard_peripheral/Source/gd32f30x_timer.c ****     \param[in]  timer_periph: TIMERx(x=0..13)
 245:Drivers/GD32F30x_standard_peripheral/Source/gd32f30x_timer.c ****     \param[out] none
 246:Drivers/GD32F30x_standard_peripheral/Source/gd32f30x_timer.c ****     \retval     none
 247:Drivers/GD32F30x_standard_peripheral/Source/gd32f30x_timer.c **** */
 248:Drivers/GD32F30x_standard_peripheral/Source/gd32f30x_timer.c **** void timer_update_event_disable(uint32_t timer_periph)
 249:Drivers/GD32F30x_standard_peripheral/Source/gd32f30x_timer.c **** {
 500              		.loc 1 249 1 is_stmt 1 view -0
 501              		.cfi_startproc
 502              		@ args = 0, pretend = 0, frame = 0
 503              		@ frame_needed = 0, uses_anonymous_args = 0
 504              		@ link register save eliminated.
 250:Drivers/GD32F30x_standard_peripheral/Source/gd32f30x_timer.c ****     TIMER_CTL0(timer_periph) |= (uint32_t) TIMER_CTL0_UPDIS;
 505              		.loc 1 250 5 view .LVU117
 506              		.loc 1 250 30 is_stmt 0 view .LVU118
 507 0000 0368     		ldr	r3, [r0]
 508 0002 43F00203 		orr	r3, r3, #2
 509 0006 0360     		str	r3, [r0]
 251:Drivers/GD32F30x_standard_peripheral/Source/gd32f30x_timer.c **** }
 510              		.loc 1 251 1 view .LVU119
 511 0008 7047     		bx	lr
 512              		.cfi_endproc
 513              	.LFE124:
 515              		.section	.text.timer_counter_alignment,"ax",%progbits
 516              		.align	1
 517              		.global	timer_counter_alignment
 518              		.syntax unified
 519              		.thumb
 520              		.thumb_func
 521              		.fpu fpv4-sp-d16
 523              	timer_counter_alignment:
 524              	.LVL40:
 525              	.LFB125:
 252:Drivers/GD32F30x_standard_peripheral/Source/gd32f30x_timer.c **** 
 253:Drivers/GD32F30x_standard_peripheral/Source/gd32f30x_timer.c **** /*!
 254:Drivers/GD32F30x_standard_peripheral/Source/gd32f30x_timer.c ****     \brief      set TIMER counter alignment mode
 255:Drivers/GD32F30x_standard_peripheral/Source/gd32f30x_timer.c ****     \param[in]  timer_periph: TIMERx(x=0..4,7)
 256:Drivers/GD32F30x_standard_peripheral/Source/gd32f30x_timer.c ****     \param[in]  aligned:
 257:Drivers/GD32F30x_standard_peripheral/Source/gd32f30x_timer.c ****                 only one parameter can be selected which is shown as below:
 258:Drivers/GD32F30x_standard_peripheral/Source/gd32f30x_timer.c ****       \arg        TIMER_COUNTER_EDGE: edge-aligned mode
 259:Drivers/GD32F30x_standard_peripheral/Source/gd32f30x_timer.c ****       \arg        TIMER_COUNTER_CENTER_DOWN: center-aligned and counting down assert mode
 260:Drivers/GD32F30x_standard_peripheral/Source/gd32f30x_timer.c ****       \arg        TIMER_COUNTER_CENTER_UP: center-aligned and counting up assert mode
 261:Drivers/GD32F30x_standard_peripheral/Source/gd32f30x_timer.c ****       \arg        TIMER_COUNTER_CENTER_BOTH: center-aligned and counting up/down assert mode
 262:Drivers/GD32F30x_standard_peripheral/Source/gd32f30x_timer.c ****     \param[out] none
 263:Drivers/GD32F30x_standard_peripheral/Source/gd32f30x_timer.c ****     \retval     none
 264:Drivers/GD32F30x_standard_peripheral/Source/gd32f30x_timer.c **** */
 265:Drivers/GD32F30x_standard_peripheral/Source/gd32f30x_timer.c **** void timer_counter_alignment(uint32_t timer_periph, uint16_t aligned)
ARM GAS  C:\Users\Prog\AppData\Local\Temp\ccT8qdHj.s 			page 15


 266:Drivers/GD32F30x_standard_peripheral/Source/gd32f30x_timer.c **** {
 526              		.loc 1 266 1 is_stmt 1 view -0
 527              		.cfi_startproc
 528              		@ args = 0, pretend = 0, frame = 0
 529              		@ frame_needed = 0, uses_anonymous_args = 0
 530              		@ link register save eliminated.
 267:Drivers/GD32F30x_standard_peripheral/Source/gd32f30x_timer.c ****     TIMER_CTL0(timer_periph) &= ~(uint32_t)TIMER_CTL0_CAM;
 531              		.loc 1 267 5 view .LVU121
 532              		.loc 1 267 30 is_stmt 0 view .LVU122
 533 0000 0268     		ldr	r2, [r0]
 534 0002 22F06002 		bic	r2, r2, #96
 535 0006 0260     		str	r2, [r0]
 268:Drivers/GD32F30x_standard_peripheral/Source/gd32f30x_timer.c ****     TIMER_CTL0(timer_periph) |= (uint32_t)aligned;
 536              		.loc 1 268 5 is_stmt 1 view .LVU123
 537              		.loc 1 268 30 is_stmt 0 view .LVU124
 538 0008 0368     		ldr	r3, [r0]
 539 000a 0B43     		orrs	r3, r3, r1
 540 000c 0360     		str	r3, [r0]
 269:Drivers/GD32F30x_standard_peripheral/Source/gd32f30x_timer.c **** }
 541              		.loc 1 269 1 view .LVU125
 542 000e 7047     		bx	lr
 543              		.cfi_endproc
 544              	.LFE125:
 546              		.section	.text.timer_counter_up_direction,"ax",%progbits
 547              		.align	1
 548              		.global	timer_counter_up_direction
 549              		.syntax unified
 550              		.thumb
 551              		.thumb_func
 552              		.fpu fpv4-sp-d16
 554              	timer_counter_up_direction:
 555              	.LVL41:
 556              	.LFB126:
 270:Drivers/GD32F30x_standard_peripheral/Source/gd32f30x_timer.c **** 
 271:Drivers/GD32F30x_standard_peripheral/Source/gd32f30x_timer.c **** /*!
 272:Drivers/GD32F30x_standard_peripheral/Source/gd32f30x_timer.c ****     \brief      set TIMER counter up direction
 273:Drivers/GD32F30x_standard_peripheral/Source/gd32f30x_timer.c ****     \param[in]  timer_periph: TIMERx(x=0..4,7)
 274:Drivers/GD32F30x_standard_peripheral/Source/gd32f30x_timer.c ****     \param[out] none
 275:Drivers/GD32F30x_standard_peripheral/Source/gd32f30x_timer.c ****     \retval     none
 276:Drivers/GD32F30x_standard_peripheral/Source/gd32f30x_timer.c **** */
 277:Drivers/GD32F30x_standard_peripheral/Source/gd32f30x_timer.c **** void timer_counter_up_direction(uint32_t timer_periph)
 278:Drivers/GD32F30x_standard_peripheral/Source/gd32f30x_timer.c **** {
 557              		.loc 1 278 1 is_stmt 1 view -0
 558              		.cfi_startproc
 559              		@ args = 0, pretend = 0, frame = 0
 560              		@ frame_needed = 0, uses_anonymous_args = 0
 561              		@ link register save eliminated.
 279:Drivers/GD32F30x_standard_peripheral/Source/gd32f30x_timer.c ****     TIMER_CTL0(timer_periph) &= ~(uint32_t)TIMER_CTL0_DIR;
 562              		.loc 1 279 5 view .LVU127
 563              		.loc 1 279 30 is_stmt 0 view .LVU128
 564 0000 0368     		ldr	r3, [r0]
 565 0002 23F01003 		bic	r3, r3, #16
 566 0006 0360     		str	r3, [r0]
 280:Drivers/GD32F30x_standard_peripheral/Source/gd32f30x_timer.c **** }
 567              		.loc 1 280 1 view .LVU129
 568 0008 7047     		bx	lr
 569              		.cfi_endproc
ARM GAS  C:\Users\Prog\AppData\Local\Temp\ccT8qdHj.s 			page 16


 570              	.LFE126:
 572              		.section	.text.timer_counter_down_direction,"ax",%progbits
 573              		.align	1
 574              		.global	timer_counter_down_direction
 575              		.syntax unified
 576              		.thumb
 577              		.thumb_func
 578              		.fpu fpv4-sp-d16
 580              	timer_counter_down_direction:
 581              	.LVL42:
 582              	.LFB127:
 281:Drivers/GD32F30x_standard_peripheral/Source/gd32f30x_timer.c **** 
 282:Drivers/GD32F30x_standard_peripheral/Source/gd32f30x_timer.c **** /*!
 283:Drivers/GD32F30x_standard_peripheral/Source/gd32f30x_timer.c ****     \brief      set TIMER counter down direction
 284:Drivers/GD32F30x_standard_peripheral/Source/gd32f30x_timer.c ****     \param[in]  timer_periph: TIMERx(x=0..4,7)
 285:Drivers/GD32F30x_standard_peripheral/Source/gd32f30x_timer.c ****     \param[out] none
 286:Drivers/GD32F30x_standard_peripheral/Source/gd32f30x_timer.c ****     \retval     none
 287:Drivers/GD32F30x_standard_peripheral/Source/gd32f30x_timer.c **** */
 288:Drivers/GD32F30x_standard_peripheral/Source/gd32f30x_timer.c **** void timer_counter_down_direction(uint32_t timer_periph)
 289:Drivers/GD32F30x_standard_peripheral/Source/gd32f30x_timer.c **** {
 583              		.loc 1 289 1 is_stmt 1 view -0
 584              		.cfi_startproc
 585              		@ args = 0, pretend = 0, frame = 0
 586              		@ frame_needed = 0, uses_anonymous_args = 0
 587              		@ link register save eliminated.
 290:Drivers/GD32F30x_standard_peripheral/Source/gd32f30x_timer.c ****     TIMER_CTL0(timer_periph) |= (uint32_t)TIMER_CTL0_DIR;
 588              		.loc 1 290 5 view .LVU131
 589              		.loc 1 290 30 is_stmt 0 view .LVU132
 590 0000 0368     		ldr	r3, [r0]
 591 0002 43F01003 		orr	r3, r3, #16
 592 0006 0360     		str	r3, [r0]
 291:Drivers/GD32F30x_standard_peripheral/Source/gd32f30x_timer.c **** }
 593              		.loc 1 291 1 view .LVU133
 594 0008 7047     		bx	lr
 595              		.cfi_endproc
 596              	.LFE127:
 598              		.section	.text.timer_prescaler_config,"ax",%progbits
 599              		.align	1
 600              		.global	timer_prescaler_config
 601              		.syntax unified
 602              		.thumb
 603              		.thumb_func
 604              		.fpu fpv4-sp-d16
 606              	timer_prescaler_config:
 607              	.LVL43:
 608              	.LFB128:
 292:Drivers/GD32F30x_standard_peripheral/Source/gd32f30x_timer.c **** 
 293:Drivers/GD32F30x_standard_peripheral/Source/gd32f30x_timer.c **** /*!
 294:Drivers/GD32F30x_standard_peripheral/Source/gd32f30x_timer.c ****     \brief      configure TIMER prescaler
 295:Drivers/GD32F30x_standard_peripheral/Source/gd32f30x_timer.c ****     \param[in]  timer_periph: TIMERx(x=0..13)
 296:Drivers/GD32F30x_standard_peripheral/Source/gd32f30x_timer.c ****     \param[in]  prescaler: prescaler value,0~65535
 297:Drivers/GD32F30x_standard_peripheral/Source/gd32f30x_timer.c ****     \param[in]  pscreload: prescaler reload mode
 298:Drivers/GD32F30x_standard_peripheral/Source/gd32f30x_timer.c ****                 only one parameter can be selected which is shown as below:
 299:Drivers/GD32F30x_standard_peripheral/Source/gd32f30x_timer.c ****       \arg        TIMER_PSC_RELOAD_NOW: the prescaler is loaded right now
 300:Drivers/GD32F30x_standard_peripheral/Source/gd32f30x_timer.c ****       \arg        TIMER_PSC_RELOAD_UPDATE: the prescaler is loaded at the next update event
 301:Drivers/GD32F30x_standard_peripheral/Source/gd32f30x_timer.c ****     \param[out] none
 302:Drivers/GD32F30x_standard_peripheral/Source/gd32f30x_timer.c ****     \retval     none
ARM GAS  C:\Users\Prog\AppData\Local\Temp\ccT8qdHj.s 			page 17


 303:Drivers/GD32F30x_standard_peripheral/Source/gd32f30x_timer.c **** */
 304:Drivers/GD32F30x_standard_peripheral/Source/gd32f30x_timer.c **** void timer_prescaler_config(uint32_t timer_periph, uint16_t prescaler, uint8_t pscreload)
 305:Drivers/GD32F30x_standard_peripheral/Source/gd32f30x_timer.c **** {
 609              		.loc 1 305 1 is_stmt 1 view -0
 610              		.cfi_startproc
 611              		@ args = 0, pretend = 0, frame = 0
 612              		@ frame_needed = 0, uses_anonymous_args = 0
 613              		@ link register save eliminated.
 306:Drivers/GD32F30x_standard_peripheral/Source/gd32f30x_timer.c ****     TIMER_PSC(timer_periph) = (uint32_t)prescaler;
 614              		.loc 1 306 5 view .LVU135
 615              		.loc 1 306 29 is_stmt 0 view .LVU136
 616 0000 8162     		str	r1, [r0, #40]
 307:Drivers/GD32F30x_standard_peripheral/Source/gd32f30x_timer.c ****     
 308:Drivers/GD32F30x_standard_peripheral/Source/gd32f30x_timer.c ****     if(TIMER_PSC_RELOAD_NOW == pscreload){
 617              		.loc 1 308 5 is_stmt 1 view .LVU137
 618              		.loc 1 308 7 is_stmt 0 view .LVU138
 619 0002 1AB9     		cbnz	r2, .L36
 309:Drivers/GD32F30x_standard_peripheral/Source/gd32f30x_timer.c ****         TIMER_SWEVG(timer_periph) |= (uint32_t)TIMER_SWEVG_UPG;
 620              		.loc 1 309 9 is_stmt 1 view .LVU139
 621              		.loc 1 309 35 is_stmt 0 view .LVU140
 622 0004 4369     		ldr	r3, [r0, #20]
 623 0006 43F00103 		orr	r3, r3, #1
 624 000a 4361     		str	r3, [r0, #20]
 625              	.L36:
 310:Drivers/GD32F30x_standard_peripheral/Source/gd32f30x_timer.c ****     }
 311:Drivers/GD32F30x_standard_peripheral/Source/gd32f30x_timer.c **** }
 626              		.loc 1 311 1 view .LVU141
 627 000c 7047     		bx	lr
 628              		.cfi_endproc
 629              	.LFE128:
 631              		.section	.text.timer_repetition_value_config,"ax",%progbits
 632              		.align	1
 633              		.global	timer_repetition_value_config
 634              		.syntax unified
 635              		.thumb
 636              		.thumb_func
 637              		.fpu fpv4-sp-d16
 639              	timer_repetition_value_config:
 640              	.LVL44:
 641              	.LFB129:
 312:Drivers/GD32F30x_standard_peripheral/Source/gd32f30x_timer.c **** 
 313:Drivers/GD32F30x_standard_peripheral/Source/gd32f30x_timer.c **** /*!
 314:Drivers/GD32F30x_standard_peripheral/Source/gd32f30x_timer.c ****     \brief      configure TIMER repetition register value
 315:Drivers/GD32F30x_standard_peripheral/Source/gd32f30x_timer.c ****     \param[in]  timer_periph: TIMERx(x=0,7)
 316:Drivers/GD32F30x_standard_peripheral/Source/gd32f30x_timer.c ****     \param[in]  repetition: the counter repetition value,0~255
 317:Drivers/GD32F30x_standard_peripheral/Source/gd32f30x_timer.c ****     \param[out] none
 318:Drivers/GD32F30x_standard_peripheral/Source/gd32f30x_timer.c ****     \retval     none
 319:Drivers/GD32F30x_standard_peripheral/Source/gd32f30x_timer.c **** */
 320:Drivers/GD32F30x_standard_peripheral/Source/gd32f30x_timer.c **** void timer_repetition_value_config(uint32_t timer_periph, uint16_t repetition)
 321:Drivers/GD32F30x_standard_peripheral/Source/gd32f30x_timer.c **** {
 642              		.loc 1 321 1 is_stmt 1 view -0
 643              		.cfi_startproc
 644              		@ args = 0, pretend = 0, frame = 0
 645              		@ frame_needed = 0, uses_anonymous_args = 0
 646              		@ link register save eliminated.
 322:Drivers/GD32F30x_standard_peripheral/Source/gd32f30x_timer.c ****     TIMER_CREP(timer_periph) = (uint32_t)repetition;
 647              		.loc 1 322 5 view .LVU143
ARM GAS  C:\Users\Prog\AppData\Local\Temp\ccT8qdHj.s 			page 18


 648              		.loc 1 322 30 is_stmt 0 view .LVU144
 649 0000 0163     		str	r1, [r0, #48]
 323:Drivers/GD32F30x_standard_peripheral/Source/gd32f30x_timer.c **** } 
 650              		.loc 1 323 1 view .LVU145
 651 0002 7047     		bx	lr
 652              		.cfi_endproc
 653              	.LFE129:
 655              		.section	.text.timer_autoreload_value_config,"ax",%progbits
 656              		.align	1
 657              		.global	timer_autoreload_value_config
 658              		.syntax unified
 659              		.thumb
 660              		.thumb_func
 661              		.fpu fpv4-sp-d16
 663              	timer_autoreload_value_config:
 664              	.LVL45:
 665              	.LFB130:
 324:Drivers/GD32F30x_standard_peripheral/Source/gd32f30x_timer.c ****  
 325:Drivers/GD32F30x_standard_peripheral/Source/gd32f30x_timer.c **** /*!
 326:Drivers/GD32F30x_standard_peripheral/Source/gd32f30x_timer.c ****     \brief      configure TIMER autoreload register value
 327:Drivers/GD32F30x_standard_peripheral/Source/gd32f30x_timer.c ****     \param[in]  timer_periph: TIMERx(x=0..13)
 328:Drivers/GD32F30x_standard_peripheral/Source/gd32f30x_timer.c ****     \param[in]  autoreload: the counter auto-reload value,0~65535
 329:Drivers/GD32F30x_standard_peripheral/Source/gd32f30x_timer.c ****     \param[out] none
 330:Drivers/GD32F30x_standard_peripheral/Source/gd32f30x_timer.c ****     \retval     none
 331:Drivers/GD32F30x_standard_peripheral/Source/gd32f30x_timer.c **** */         
 332:Drivers/GD32F30x_standard_peripheral/Source/gd32f30x_timer.c **** void timer_autoreload_value_config(uint32_t timer_periph, uint16_t autoreload)
 333:Drivers/GD32F30x_standard_peripheral/Source/gd32f30x_timer.c **** {
 666              		.loc 1 333 1 is_stmt 1 view -0
 667              		.cfi_startproc
 668              		@ args = 0, pretend = 0, frame = 0
 669              		@ frame_needed = 0, uses_anonymous_args = 0
 670              		@ link register save eliminated.
 334:Drivers/GD32F30x_standard_peripheral/Source/gd32f30x_timer.c ****     TIMER_CAR(timer_periph) = (uint32_t)autoreload;
 671              		.loc 1 334 5 view .LVU147
 672              		.loc 1 334 29 is_stmt 0 view .LVU148
 673 0000 C162     		str	r1, [r0, #44]
 335:Drivers/GD32F30x_standard_peripheral/Source/gd32f30x_timer.c **** }
 674              		.loc 1 335 1 view .LVU149
 675 0002 7047     		bx	lr
 676              		.cfi_endproc
 677              	.LFE130:
 679              		.section	.text.timer_counter_value_config,"ax",%progbits
 680              		.align	1
 681              		.global	timer_counter_value_config
 682              		.syntax unified
 683              		.thumb
 684              		.thumb_func
 685              		.fpu fpv4-sp-d16
 687              	timer_counter_value_config:
 688              	.LVL46:
 689              	.LFB131:
 336:Drivers/GD32F30x_standard_peripheral/Source/gd32f30x_timer.c **** 
 337:Drivers/GD32F30x_standard_peripheral/Source/gd32f30x_timer.c **** /*!
 338:Drivers/GD32F30x_standard_peripheral/Source/gd32f30x_timer.c ****     \brief      configure TIMER counter register value
 339:Drivers/GD32F30x_standard_peripheral/Source/gd32f30x_timer.c ****     \param[in]  timer_periph: TIMERx(x=0..13)
 340:Drivers/GD32F30x_standard_peripheral/Source/gd32f30x_timer.c ****     \param[in]  counter: the counter value,0~65535
 341:Drivers/GD32F30x_standard_peripheral/Source/gd32f30x_timer.c ****     \param[out] none
ARM GAS  C:\Users\Prog\AppData\Local\Temp\ccT8qdHj.s 			page 19


 342:Drivers/GD32F30x_standard_peripheral/Source/gd32f30x_timer.c ****     \retval     none
 343:Drivers/GD32F30x_standard_peripheral/Source/gd32f30x_timer.c **** */         
 344:Drivers/GD32F30x_standard_peripheral/Source/gd32f30x_timer.c **** void timer_counter_value_config(uint32_t timer_periph, uint16_t counter)
 345:Drivers/GD32F30x_standard_peripheral/Source/gd32f30x_timer.c **** {
 690              		.loc 1 345 1 is_stmt 1 view -0
 691              		.cfi_startproc
 692              		@ args = 0, pretend = 0, frame = 0
 693              		@ frame_needed = 0, uses_anonymous_args = 0
 694              		@ link register save eliminated.
 346:Drivers/GD32F30x_standard_peripheral/Source/gd32f30x_timer.c ****     TIMER_CNT(timer_periph) = (uint32_t)counter;
 695              		.loc 1 346 5 view .LVU151
 696              		.loc 1 346 29 is_stmt 0 view .LVU152
 697 0000 4162     		str	r1, [r0, #36]
 347:Drivers/GD32F30x_standard_peripheral/Source/gd32f30x_timer.c **** }
 698              		.loc 1 347 1 view .LVU153
 699 0002 7047     		bx	lr
 700              		.cfi_endproc
 701              	.LFE131:
 703              		.section	.text.timer_counter_read,"ax",%progbits
 704              		.align	1
 705              		.global	timer_counter_read
 706              		.syntax unified
 707              		.thumb
 708              		.thumb_func
 709              		.fpu fpv4-sp-d16
 711              	timer_counter_read:
 712              	.LVL47:
 713              	.LFB132:
 348:Drivers/GD32F30x_standard_peripheral/Source/gd32f30x_timer.c **** 
 349:Drivers/GD32F30x_standard_peripheral/Source/gd32f30x_timer.c **** /*!
 350:Drivers/GD32F30x_standard_peripheral/Source/gd32f30x_timer.c ****     \brief      read TIMER counter value
 351:Drivers/GD32F30x_standard_peripheral/Source/gd32f30x_timer.c ****     \param[in]  timer_periph: TIMERx(x=0..13)
 352:Drivers/GD32F30x_standard_peripheral/Source/gd32f30x_timer.c ****     \param[out] none
 353:Drivers/GD32F30x_standard_peripheral/Source/gd32f30x_timer.c ****     \retval     counter value
 354:Drivers/GD32F30x_standard_peripheral/Source/gd32f30x_timer.c **** */         
 355:Drivers/GD32F30x_standard_peripheral/Source/gd32f30x_timer.c **** uint32_t timer_counter_read(uint32_t timer_periph)
 356:Drivers/GD32F30x_standard_peripheral/Source/gd32f30x_timer.c **** {
 714              		.loc 1 356 1 is_stmt 1 view -0
 715              		.cfi_startproc
 716              		@ args = 0, pretend = 0, frame = 0
 717              		@ frame_needed = 0, uses_anonymous_args = 0
 718              		@ link register save eliminated.
 357:Drivers/GD32F30x_standard_peripheral/Source/gd32f30x_timer.c ****     uint32_t count_value = 0U;
 719              		.loc 1 357 5 view .LVU155
 358:Drivers/GD32F30x_standard_peripheral/Source/gd32f30x_timer.c ****     count_value = TIMER_CNT(timer_periph);
 720              		.loc 1 358 5 view .LVU156
 721              		.loc 1 358 17 is_stmt 0 view .LVU157
 722 0000 406A     		ldr	r0, [r0, #36]
 723              	.LVL48:
 359:Drivers/GD32F30x_standard_peripheral/Source/gd32f30x_timer.c ****     return (count_value);
 724              		.loc 1 359 5 is_stmt 1 view .LVU158
 360:Drivers/GD32F30x_standard_peripheral/Source/gd32f30x_timer.c **** }
 725              		.loc 1 360 1 is_stmt 0 view .LVU159
 726 0002 7047     		bx	lr
 727              		.cfi_endproc
 728              	.LFE132:
 730              		.section	.text.timer_prescaler_read,"ax",%progbits
ARM GAS  C:\Users\Prog\AppData\Local\Temp\ccT8qdHj.s 			page 20


 731              		.align	1
 732              		.global	timer_prescaler_read
 733              		.syntax unified
 734              		.thumb
 735              		.thumb_func
 736              		.fpu fpv4-sp-d16
 738              	timer_prescaler_read:
 739              	.LVL49:
 740              	.LFB133:
 361:Drivers/GD32F30x_standard_peripheral/Source/gd32f30x_timer.c **** 
 362:Drivers/GD32F30x_standard_peripheral/Source/gd32f30x_timer.c **** /*!
 363:Drivers/GD32F30x_standard_peripheral/Source/gd32f30x_timer.c ****     \brief      read TIMER prescaler value
 364:Drivers/GD32F30x_standard_peripheral/Source/gd32f30x_timer.c ****     \param[in]  timer_periph: TIMERx(x=0..13)
 365:Drivers/GD32F30x_standard_peripheral/Source/gd32f30x_timer.c ****     \param[out] none
 366:Drivers/GD32F30x_standard_peripheral/Source/gd32f30x_timer.c ****     \retval     prescaler register value
 367:Drivers/GD32F30x_standard_peripheral/Source/gd32f30x_timer.c **** */         
 368:Drivers/GD32F30x_standard_peripheral/Source/gd32f30x_timer.c **** uint16_t timer_prescaler_read(uint32_t timer_periph)
 369:Drivers/GD32F30x_standard_peripheral/Source/gd32f30x_timer.c **** {
 741              		.loc 1 369 1 is_stmt 1 view -0
 742              		.cfi_startproc
 743              		@ args = 0, pretend = 0, frame = 0
 744              		@ frame_needed = 0, uses_anonymous_args = 0
 745              		@ link register save eliminated.
 370:Drivers/GD32F30x_standard_peripheral/Source/gd32f30x_timer.c ****     uint16_t prescaler_value = 0U;
 746              		.loc 1 370 5 view .LVU161
 371:Drivers/GD32F30x_standard_peripheral/Source/gd32f30x_timer.c ****     prescaler_value = (uint16_t)(TIMER_PSC(timer_periph));
 747              		.loc 1 371 5 view .LVU162
 748              		.loc 1 371 34 is_stmt 0 view .LVU163
 749 0000 806A     		ldr	r0, [r0, #40]
 750              	.LVL50:
 372:Drivers/GD32F30x_standard_peripheral/Source/gd32f30x_timer.c ****     return (prescaler_value);
 751              		.loc 1 372 5 is_stmt 1 view .LVU164
 373:Drivers/GD32F30x_standard_peripheral/Source/gd32f30x_timer.c **** }
 752              		.loc 1 373 1 is_stmt 0 view .LVU165
 753 0002 80B2     		uxth	r0, r0
 754              		.loc 1 373 1 view .LVU166
 755 0004 7047     		bx	lr
 756              		.cfi_endproc
 757              	.LFE133:
 759              		.section	.text.timer_single_pulse_mode_config,"ax",%progbits
 760              		.align	1
 761              		.global	timer_single_pulse_mode_config
 762              		.syntax unified
 763              		.thumb
 764              		.thumb_func
 765              		.fpu fpv4-sp-d16
 767              	timer_single_pulse_mode_config:
 768              	.LVL51:
 769              	.LFB134:
 374:Drivers/GD32F30x_standard_peripheral/Source/gd32f30x_timer.c **** 
 375:Drivers/GD32F30x_standard_peripheral/Source/gd32f30x_timer.c **** /*!
 376:Drivers/GD32F30x_standard_peripheral/Source/gd32f30x_timer.c ****     \brief      configure TIMER single pulse mode
 377:Drivers/GD32F30x_standard_peripheral/Source/gd32f30x_timer.c ****     \param[in]  timer_periph: TIMERx(x=0..8,11)
 378:Drivers/GD32F30x_standard_peripheral/Source/gd32f30x_timer.c ****     \param[in]  spmode:
 379:Drivers/GD32F30x_standard_peripheral/Source/gd32f30x_timer.c ****                 only one parameter can be selected which is shown as below:
 380:Drivers/GD32F30x_standard_peripheral/Source/gd32f30x_timer.c ****       \arg        TIMER_SP_MODE_SINGLE: single pulse mode
 381:Drivers/GD32F30x_standard_peripheral/Source/gd32f30x_timer.c ****       \arg        TIMER_SP_MODE_REPETITIVE: repetitive pulse mode
ARM GAS  C:\Users\Prog\AppData\Local\Temp\ccT8qdHj.s 			page 21


 382:Drivers/GD32F30x_standard_peripheral/Source/gd32f30x_timer.c ****     \param[out] none
 383:Drivers/GD32F30x_standard_peripheral/Source/gd32f30x_timer.c ****     \retval     none
 384:Drivers/GD32F30x_standard_peripheral/Source/gd32f30x_timer.c **** */
 385:Drivers/GD32F30x_standard_peripheral/Source/gd32f30x_timer.c **** void timer_single_pulse_mode_config(uint32_t timer_periph, uint32_t spmode)
 386:Drivers/GD32F30x_standard_peripheral/Source/gd32f30x_timer.c **** {
 770              		.loc 1 386 1 is_stmt 1 view -0
 771              		.cfi_startproc
 772              		@ args = 0, pretend = 0, frame = 0
 773              		@ frame_needed = 0, uses_anonymous_args = 0
 774              		@ link register save eliminated.
 387:Drivers/GD32F30x_standard_peripheral/Source/gd32f30x_timer.c ****     if(TIMER_SP_MODE_SINGLE == spmode){
 775              		.loc 1 387 5 view .LVU168
 776              		.loc 1 387 7 is_stmt 0 view .LVU169
 777 0000 21B9     		cbnz	r1, .L44
 388:Drivers/GD32F30x_standard_peripheral/Source/gd32f30x_timer.c ****         TIMER_CTL0(timer_periph) |= (uint32_t)TIMER_CTL0_SPM;
 778              		.loc 1 388 9 is_stmt 1 view .LVU170
 779              		.loc 1 388 34 is_stmt 0 view .LVU171
 780 0002 0368     		ldr	r3, [r0]
 781 0004 43F00803 		orr	r3, r3, #8
 782 0008 0360     		str	r3, [r0]
 783 000a 7047     		bx	lr
 784              	.L44:
 389:Drivers/GD32F30x_standard_peripheral/Source/gd32f30x_timer.c ****     }else if(TIMER_SP_MODE_REPETITIVE == spmode){
 785              		.loc 1 389 11 is_stmt 1 view .LVU172
 786              		.loc 1 389 13 is_stmt 0 view .LVU173
 787 000c 0129     		cmp	r1, #1
 788 000e 00D0     		beq	.L46
 789              	.L43:
 390:Drivers/GD32F30x_standard_peripheral/Source/gd32f30x_timer.c ****         TIMER_CTL0(timer_periph) &= ~((uint32_t)TIMER_CTL0_SPM);
 391:Drivers/GD32F30x_standard_peripheral/Source/gd32f30x_timer.c ****     }else{
 392:Drivers/GD32F30x_standard_peripheral/Source/gd32f30x_timer.c ****         /* illegal parameters */
 393:Drivers/GD32F30x_standard_peripheral/Source/gd32f30x_timer.c ****     }
 394:Drivers/GD32F30x_standard_peripheral/Source/gd32f30x_timer.c **** }
 790              		.loc 1 394 1 view .LVU174
 791 0010 7047     		bx	lr
 792              	.L46:
 390:Drivers/GD32F30x_standard_peripheral/Source/gd32f30x_timer.c ****         TIMER_CTL0(timer_periph) &= ~((uint32_t)TIMER_CTL0_SPM);
 793              		.loc 1 390 9 is_stmt 1 view .LVU175
 390:Drivers/GD32F30x_standard_peripheral/Source/gd32f30x_timer.c ****         TIMER_CTL0(timer_periph) &= ~((uint32_t)TIMER_CTL0_SPM);
 794              		.loc 1 390 34 is_stmt 0 view .LVU176
 795 0012 0368     		ldr	r3, [r0]
 796 0014 23F00803 		bic	r3, r3, #8
 797 0018 0360     		str	r3, [r0]
 393:Drivers/GD32F30x_standard_peripheral/Source/gd32f30x_timer.c **** }
 798              		.loc 1 393 5 is_stmt 1 view .LVU177
 799              		.loc 1 394 1 is_stmt 0 view .LVU178
 800 001a F9E7     		b	.L43
 801              		.cfi_endproc
 802              	.LFE134:
 804              		.section	.text.timer_update_source_config,"ax",%progbits
 805              		.align	1
 806              		.global	timer_update_source_config
 807              		.syntax unified
 808              		.thumb
 809              		.thumb_func
 810              		.fpu fpv4-sp-d16
 812              	timer_update_source_config:
ARM GAS  C:\Users\Prog\AppData\Local\Temp\ccT8qdHj.s 			page 22


 813              	.LVL52:
 814              	.LFB135:
 395:Drivers/GD32F30x_standard_peripheral/Source/gd32f30x_timer.c **** 
 396:Drivers/GD32F30x_standard_peripheral/Source/gd32f30x_timer.c **** /*!
 397:Drivers/GD32F30x_standard_peripheral/Source/gd32f30x_timer.c ****     \brief      configure TIMER update source 
 398:Drivers/GD32F30x_standard_peripheral/Source/gd32f30x_timer.c ****     \param[in]  timer_periph: TIMERx(x=0..13)
 399:Drivers/GD32F30x_standard_peripheral/Source/gd32f30x_timer.c ****     \param[in]  update: 
 400:Drivers/GD32F30x_standard_peripheral/Source/gd32f30x_timer.c ****                 only one parameter can be selected which is shown as below:
 401:Drivers/GD32F30x_standard_peripheral/Source/gd32f30x_timer.c ****       \arg        TIMER_UPDATE_SRC_GLOBAL: update generate by setting of UPG bit or the counter ove
 402:Drivers/GD32F30x_standard_peripheral/Source/gd32f30x_timer.c ****       \arg        TIMER_UPDATE_SRC_REGULAR: update generate only by counter overflow/underflow
 403:Drivers/GD32F30x_standard_peripheral/Source/gd32f30x_timer.c ****     \param[out] none
 404:Drivers/GD32F30x_standard_peripheral/Source/gd32f30x_timer.c ****     \retval     none
 405:Drivers/GD32F30x_standard_peripheral/Source/gd32f30x_timer.c **** */
 406:Drivers/GD32F30x_standard_peripheral/Source/gd32f30x_timer.c **** void timer_update_source_config(uint32_t timer_periph, uint32_t update)
 407:Drivers/GD32F30x_standard_peripheral/Source/gd32f30x_timer.c **** {
 815              		.loc 1 407 1 is_stmt 1 view -0
 816              		.cfi_startproc
 817              		@ args = 0, pretend = 0, frame = 0
 818              		@ frame_needed = 0, uses_anonymous_args = 0
 819              		@ link register save eliminated.
 408:Drivers/GD32F30x_standard_peripheral/Source/gd32f30x_timer.c ****     if(TIMER_UPDATE_SRC_REGULAR == update){
 820              		.loc 1 408 5 view .LVU180
 821              		.loc 1 408 7 is_stmt 0 view .LVU181
 822 0000 21B9     		cbnz	r1, .L48
 409:Drivers/GD32F30x_standard_peripheral/Source/gd32f30x_timer.c ****         TIMER_CTL0(timer_periph) |= (uint32_t)TIMER_CTL0_UPS;
 823              		.loc 1 409 9 is_stmt 1 view .LVU182
 824              		.loc 1 409 34 is_stmt 0 view .LVU183
 825 0002 0368     		ldr	r3, [r0]
 826 0004 43F00403 		orr	r3, r3, #4
 827 0008 0360     		str	r3, [r0]
 828 000a 7047     		bx	lr
 829              	.L48:
 410:Drivers/GD32F30x_standard_peripheral/Source/gd32f30x_timer.c ****     }else if(TIMER_UPDATE_SRC_GLOBAL == update){
 830              		.loc 1 410 11 is_stmt 1 view .LVU184
 831              		.loc 1 410 13 is_stmt 0 view .LVU185
 832 000c 0129     		cmp	r1, #1
 833 000e 00D0     		beq	.L50
 834              	.L47:
 411:Drivers/GD32F30x_standard_peripheral/Source/gd32f30x_timer.c ****         TIMER_CTL0(timer_periph) &= ~(uint32_t)TIMER_CTL0_UPS;
 412:Drivers/GD32F30x_standard_peripheral/Source/gd32f30x_timer.c ****     }else{
 413:Drivers/GD32F30x_standard_peripheral/Source/gd32f30x_timer.c ****         /* illegal parameters */
 414:Drivers/GD32F30x_standard_peripheral/Source/gd32f30x_timer.c ****     }
 415:Drivers/GD32F30x_standard_peripheral/Source/gd32f30x_timer.c **** }
 835              		.loc 1 415 1 view .LVU186
 836 0010 7047     		bx	lr
 837              	.L50:
 411:Drivers/GD32F30x_standard_peripheral/Source/gd32f30x_timer.c ****         TIMER_CTL0(timer_periph) &= ~(uint32_t)TIMER_CTL0_UPS;
 838              		.loc 1 411 9 is_stmt 1 view .LVU187
 411:Drivers/GD32F30x_standard_peripheral/Source/gd32f30x_timer.c ****         TIMER_CTL0(timer_periph) &= ~(uint32_t)TIMER_CTL0_UPS;
 839              		.loc 1 411 34 is_stmt 0 view .LVU188
 840 0012 0368     		ldr	r3, [r0]
 841 0014 23F00403 		bic	r3, r3, #4
 842 0018 0360     		str	r3, [r0]
 414:Drivers/GD32F30x_standard_peripheral/Source/gd32f30x_timer.c **** }
 843              		.loc 1 414 5 is_stmt 1 view .LVU189
 844              		.loc 1 415 1 is_stmt 0 view .LVU190
 845 001a F9E7     		b	.L47
ARM GAS  C:\Users\Prog\AppData\Local\Temp\ccT8qdHj.s 			page 23


 846              		.cfi_endproc
 847              	.LFE135:
 849              		.section	.text.timer_interrupt_enable,"ax",%progbits
 850              		.align	1
 851              		.global	timer_interrupt_enable
 852              		.syntax unified
 853              		.thumb
 854              		.thumb_func
 855              		.fpu fpv4-sp-d16
 857              	timer_interrupt_enable:
 858              	.LVL53:
 859              	.LFB136:
 416:Drivers/GD32F30x_standard_peripheral/Source/gd32f30x_timer.c **** 
 417:Drivers/GD32F30x_standard_peripheral/Source/gd32f30x_timer.c **** /*!
 418:Drivers/GD32F30x_standard_peripheral/Source/gd32f30x_timer.c ****     \brief      enable the TIMER interrupt
 419:Drivers/GD32F30x_standard_peripheral/Source/gd32f30x_timer.c ****     \param[in]  timer_periph: please refer to the following parameters 
 420:Drivers/GD32F30x_standard_peripheral/Source/gd32f30x_timer.c ****     \param[in]  interrupt: timer interrupt enable source
 421:Drivers/GD32F30x_standard_peripheral/Source/gd32f30x_timer.c ****                 only one parameter can be selected which is shown as below:
 422:Drivers/GD32F30x_standard_peripheral/Source/gd32f30x_timer.c ****       \arg        TIMER_INT_UP: update interrupt enable, TIMERx(x=0..13)
 423:Drivers/GD32F30x_standard_peripheral/Source/gd32f30x_timer.c ****       \arg        TIMER_INT_CH0: channel 0 interrupt enable, TIMERx(x=0..4,7..13)
 424:Drivers/GD32F30x_standard_peripheral/Source/gd32f30x_timer.c ****       \arg        TIMER_INT_CH1: channel 1 interrupt enable, TIMERx(x=0..4,7,8,11)
 425:Drivers/GD32F30x_standard_peripheral/Source/gd32f30x_timer.c ****       \arg        TIMER_INT_CH2: channel 2 interrupt enable, TIMERx(x=0..4,7)
 426:Drivers/GD32F30x_standard_peripheral/Source/gd32f30x_timer.c ****       \arg        TIMER_INT_CH3: channel 3 interrupt enable , TIMERx(x=0..4,7)
 427:Drivers/GD32F30x_standard_peripheral/Source/gd32f30x_timer.c ****       \arg        TIMER_INT_CMT: commutation interrupt enable, TIMERx(x=0,7)
 428:Drivers/GD32F30x_standard_peripheral/Source/gd32f30x_timer.c ****       \arg        TIMER_INT_TRG: trigger interrupt enable, TIMERx(x=0..4,7,8,11)
 429:Drivers/GD32F30x_standard_peripheral/Source/gd32f30x_timer.c ****       \arg        TIMER_INT_BRK: break interrupt enable, TIMERx(x=0,7)
 430:Drivers/GD32F30x_standard_peripheral/Source/gd32f30x_timer.c ****     \param[out] none
 431:Drivers/GD32F30x_standard_peripheral/Source/gd32f30x_timer.c ****     \retval     none
 432:Drivers/GD32F30x_standard_peripheral/Source/gd32f30x_timer.c **** */
 433:Drivers/GD32F30x_standard_peripheral/Source/gd32f30x_timer.c **** void timer_interrupt_enable(uint32_t timer_periph, uint32_t interrupt)
 434:Drivers/GD32F30x_standard_peripheral/Source/gd32f30x_timer.c **** {
 860              		.loc 1 434 1 is_stmt 1 view -0
 861              		.cfi_startproc
 862              		@ args = 0, pretend = 0, frame = 0
 863              		@ frame_needed = 0, uses_anonymous_args = 0
 864              		@ link register save eliminated.
 435:Drivers/GD32F30x_standard_peripheral/Source/gd32f30x_timer.c ****     TIMER_DMAINTEN(timer_periph) |= (uint32_t) interrupt; 
 865              		.loc 1 435 5 view .LVU192
 866              		.loc 1 435 34 is_stmt 0 view .LVU193
 867 0000 C368     		ldr	r3, [r0, #12]
 868 0002 0B43     		orrs	r3, r3, r1
 869 0004 C360     		str	r3, [r0, #12]
 436:Drivers/GD32F30x_standard_peripheral/Source/gd32f30x_timer.c **** }
 870              		.loc 1 436 1 view .LVU194
 871 0006 7047     		bx	lr
 872              		.cfi_endproc
 873              	.LFE136:
 875              		.section	.text.timer_interrupt_disable,"ax",%progbits
 876              		.align	1
 877              		.global	timer_interrupt_disable
 878              		.syntax unified
 879              		.thumb
 880              		.thumb_func
 881              		.fpu fpv4-sp-d16
 883              	timer_interrupt_disable:
 884              	.LVL54:
 885              	.LFB137:
ARM GAS  C:\Users\Prog\AppData\Local\Temp\ccT8qdHj.s 			page 24


 437:Drivers/GD32F30x_standard_peripheral/Source/gd32f30x_timer.c **** 
 438:Drivers/GD32F30x_standard_peripheral/Source/gd32f30x_timer.c **** /*!
 439:Drivers/GD32F30x_standard_peripheral/Source/gd32f30x_timer.c ****     \brief      disable the TIMER interrupt
 440:Drivers/GD32F30x_standard_peripheral/Source/gd32f30x_timer.c ****     \param[in]  timer_periph: please refer to the following parameters
 441:Drivers/GD32F30x_standard_peripheral/Source/gd32f30x_timer.c ****     \param[in]  interrupt: timer interrupt source disable 
 442:Drivers/GD32F30x_standard_peripheral/Source/gd32f30x_timer.c ****                 only one parameter can be selected which is shown as below:
 443:Drivers/GD32F30x_standard_peripheral/Source/gd32f30x_timer.c ****       \arg        TIMER_INT_UP: update interrupt disable, TIMERx(x=0..13)
 444:Drivers/GD32F30x_standard_peripheral/Source/gd32f30x_timer.c ****       \arg        TIMER_INT_CH0: channel 0 interrupt disable, TIMERx(x=0..4,7..13)
 445:Drivers/GD32F30x_standard_peripheral/Source/gd32f30x_timer.c ****       \arg        TIMER_INT_CH1: channel 1 interrupt disable, TIMERx(x=0..4,7,8,11)
 446:Drivers/GD32F30x_standard_peripheral/Source/gd32f30x_timer.c ****       \arg        TIMER_INT_CH2: channel 2 interrupt disable, TIMERx(x=0..4,7)
 447:Drivers/GD32F30x_standard_peripheral/Source/gd32f30x_timer.c ****       \arg        TIMER_INT_CH3: channel 3 interrupt disable , TIMERx(x=0..4,7)
 448:Drivers/GD32F30x_standard_peripheral/Source/gd32f30x_timer.c ****       \arg        TIMER_INT_CMT: commutation interrupt disable, TIMERx(x=0,7)
 449:Drivers/GD32F30x_standard_peripheral/Source/gd32f30x_timer.c ****       \arg        TIMER_INT_TRG: trigger interrupt disable, TIMERx(x=0..4,7,8,11)
 450:Drivers/GD32F30x_standard_peripheral/Source/gd32f30x_timer.c ****       \arg        TIMER_INT_BRK: break interrupt disable, TIMERx(x=0,7)
 451:Drivers/GD32F30x_standard_peripheral/Source/gd32f30x_timer.c ****     \param[out] none
 452:Drivers/GD32F30x_standard_peripheral/Source/gd32f30x_timer.c ****     \retval     none
 453:Drivers/GD32F30x_standard_peripheral/Source/gd32f30x_timer.c **** */
 454:Drivers/GD32F30x_standard_peripheral/Source/gd32f30x_timer.c **** void timer_interrupt_disable(uint32_t timer_periph, uint32_t interrupt)
 455:Drivers/GD32F30x_standard_peripheral/Source/gd32f30x_timer.c **** {
 886              		.loc 1 455 1 is_stmt 1 view -0
 887              		.cfi_startproc
 888              		@ args = 0, pretend = 0, frame = 0
 889              		@ frame_needed = 0, uses_anonymous_args = 0
 890              		@ link register save eliminated.
 456:Drivers/GD32F30x_standard_peripheral/Source/gd32f30x_timer.c ****     TIMER_DMAINTEN(timer_periph) &= (~(uint32_t)interrupt); 
 891              		.loc 1 456 5 view .LVU196
 892              		.loc 1 456 34 is_stmt 0 view .LVU197
 893 0000 C368     		ldr	r3, [r0, #12]
 894 0002 23EA0103 		bic	r3, r3, r1
 895 0006 C360     		str	r3, [r0, #12]
 457:Drivers/GD32F30x_standard_peripheral/Source/gd32f30x_timer.c **** }
 896              		.loc 1 457 1 view .LVU198
 897 0008 7047     		bx	lr
 898              		.cfi_endproc
 899              	.LFE137:
 901              		.section	.text.timer_interrupt_flag_get,"ax",%progbits
 902              		.align	1
 903              		.global	timer_interrupt_flag_get
 904              		.syntax unified
 905              		.thumb
 906              		.thumb_func
 907              		.fpu fpv4-sp-d16
 909              	timer_interrupt_flag_get:
 910              	.LVL55:
 911              	.LFB138:
 458:Drivers/GD32F30x_standard_peripheral/Source/gd32f30x_timer.c **** 
 459:Drivers/GD32F30x_standard_peripheral/Source/gd32f30x_timer.c **** /*!
 460:Drivers/GD32F30x_standard_peripheral/Source/gd32f30x_timer.c ****     \brief      get timer interrupt flag
 461:Drivers/GD32F30x_standard_peripheral/Source/gd32f30x_timer.c ****     \param[in]  timer_periph: please refer to the following parameters
 462:Drivers/GD32F30x_standard_peripheral/Source/gd32f30x_timer.c ****     \param[in]  interrupt: the timer interrupt bits
 463:Drivers/GD32F30x_standard_peripheral/Source/gd32f30x_timer.c ****                 only one parameter can be selected which is shown as below:
 464:Drivers/GD32F30x_standard_peripheral/Source/gd32f30x_timer.c ****       \arg        TIMER_INT_FLAG_UP: update interrupt flag,TIMERx(x=0..13)
 465:Drivers/GD32F30x_standard_peripheral/Source/gd32f30x_timer.c ****       \arg        TIMER_INT_FLAG_CH0: channel 0 interrupt flag,TIMERx(x=0..4,7..13)
 466:Drivers/GD32F30x_standard_peripheral/Source/gd32f30x_timer.c ****       \arg        TIMER_INT_FLAG_CH1: channel 1 interrupt flag,TIMERx(x=0..4,7,8,11)
 467:Drivers/GD32F30x_standard_peripheral/Source/gd32f30x_timer.c ****       \arg        TIMER_INT_FLAG_CH2: channel 2 interrupt flag,TIMERx(x=0..4,7)
 468:Drivers/GD32F30x_standard_peripheral/Source/gd32f30x_timer.c ****       \arg        TIMER_INT_FLAG_CH3: channel 3 interrupt flag,TIMERx(x=0..4,7)
 469:Drivers/GD32F30x_standard_peripheral/Source/gd32f30x_timer.c ****       \arg        TIMER_INT_FLAG_CMT: channel commutation interrupt flag,TIMERx(x=0,7) 
ARM GAS  C:\Users\Prog\AppData\Local\Temp\ccT8qdHj.s 			page 25


 470:Drivers/GD32F30x_standard_peripheral/Source/gd32f30x_timer.c ****       \arg        TIMER_INT_FLAG_TRG: trigger interrupt flag,TIMERx(x=0,7,8,11)
 471:Drivers/GD32F30x_standard_peripheral/Source/gd32f30x_timer.c ****       \arg        TIMER_INT_FLAG_BRK:  break interrupt flag,TIMERx(x=0,7)
 472:Drivers/GD32F30x_standard_peripheral/Source/gd32f30x_timer.c ****     \param[out] none
 473:Drivers/GD32F30x_standard_peripheral/Source/gd32f30x_timer.c ****     \retval     FlagStatus: SET or RESET
 474:Drivers/GD32F30x_standard_peripheral/Source/gd32f30x_timer.c **** */
 475:Drivers/GD32F30x_standard_peripheral/Source/gd32f30x_timer.c **** FlagStatus timer_interrupt_flag_get(uint32_t timer_periph, uint32_t interrupt)
 476:Drivers/GD32F30x_standard_peripheral/Source/gd32f30x_timer.c **** {
 912              		.loc 1 476 1 is_stmt 1 view -0
 913              		.cfi_startproc
 914              		@ args = 0, pretend = 0, frame = 0
 915              		@ frame_needed = 0, uses_anonymous_args = 0
 916              		@ link register save eliminated.
 477:Drivers/GD32F30x_standard_peripheral/Source/gd32f30x_timer.c ****     uint32_t val;
 917              		.loc 1 477 5 view .LVU200
 478:Drivers/GD32F30x_standard_peripheral/Source/gd32f30x_timer.c ****     val = (TIMER_DMAINTEN(timer_periph) & interrupt);
 918              		.loc 1 478 5 view .LVU201
 919              		.loc 1 478 12 is_stmt 0 view .LVU202
 920 0000 C368     		ldr	r3, [r0, #12]
 921              		.loc 1 478 9 view .LVU203
 922 0002 0B40     		ands	r3, r3, r1
 923              	.LVL56:
 479:Drivers/GD32F30x_standard_peripheral/Source/gd32f30x_timer.c ****     if((RESET != (TIMER_INTF(timer_periph) & interrupt) ) && (RESET != val)){
 924              		.loc 1 479 5 is_stmt 1 view .LVU204
 925              		.loc 1 479 19 is_stmt 0 view .LVU205
 926 0004 0269     		ldr	r2, [r0, #16]
 927              		.loc 1 479 7 view .LVU206
 928 0006 0A42     		tst	r2, r1
 929 0008 02D0     		beq	.L55
 930              		.loc 1 479 59 discriminator 1 view .LVU207
 931 000a 1BB9     		cbnz	r3, .L56
 480:Drivers/GD32F30x_standard_peripheral/Source/gd32f30x_timer.c ****         return SET;
 481:Drivers/GD32F30x_standard_peripheral/Source/gd32f30x_timer.c ****     }else{
 482:Drivers/GD32F30x_standard_peripheral/Source/gd32f30x_timer.c ****         return RESET;
 932              		.loc 1 482 16 view .LVU208
 933 000c 0020     		movs	r0, #0
 934              	.LVL57:
 935              		.loc 1 482 16 view .LVU209
 936 000e 7047     		bx	lr
 937              	.LVL58:
 938              	.L55:
 939              		.loc 1 482 16 view .LVU210
 940 0010 0020     		movs	r0, #0
 941              	.LVL59:
 942              		.loc 1 482 16 view .LVU211
 943 0012 7047     		bx	lr
 944              	.LVL60:
 945              	.L56:
 480:Drivers/GD32F30x_standard_peripheral/Source/gd32f30x_timer.c ****         return SET;
 946              		.loc 1 480 16 view .LVU212
 947 0014 0120     		movs	r0, #1
 948              	.LVL61:
 483:Drivers/GD32F30x_standard_peripheral/Source/gd32f30x_timer.c ****     }
 484:Drivers/GD32F30x_standard_peripheral/Source/gd32f30x_timer.c **** }
 949              		.loc 1 484 1 view .LVU213
 950 0016 7047     		bx	lr
 951              		.cfi_endproc
 952              	.LFE138:
ARM GAS  C:\Users\Prog\AppData\Local\Temp\ccT8qdHj.s 			page 26


 954              		.section	.text.timer_interrupt_flag_clear,"ax",%progbits
 955              		.align	1
 956              		.global	timer_interrupt_flag_clear
 957              		.syntax unified
 958              		.thumb
 959              		.thumb_func
 960              		.fpu fpv4-sp-d16
 962              	timer_interrupt_flag_clear:
 963              	.LVL62:
 964              	.LFB139:
 485:Drivers/GD32F30x_standard_peripheral/Source/gd32f30x_timer.c **** 
 486:Drivers/GD32F30x_standard_peripheral/Source/gd32f30x_timer.c **** /*!
 487:Drivers/GD32F30x_standard_peripheral/Source/gd32f30x_timer.c ****     \brief      clear TIMER interrupt flag
 488:Drivers/GD32F30x_standard_peripheral/Source/gd32f30x_timer.c ****     \param[in]  timer_periph: please refer to the following parameters
 489:Drivers/GD32F30x_standard_peripheral/Source/gd32f30x_timer.c ****     \param[in]  interrupt: the timer interrupt bits
 490:Drivers/GD32F30x_standard_peripheral/Source/gd32f30x_timer.c ****                 only one parameter can be selected which is shown as below:
 491:Drivers/GD32F30x_standard_peripheral/Source/gd32f30x_timer.c ****       \arg        TIMER_INT_FLAG_UP: update interrupt flag,TIMERx(x=0..13)
 492:Drivers/GD32F30x_standard_peripheral/Source/gd32f30x_timer.c ****       \arg        TIMER_INT_FLAG_CH0: channel 0 interrupt flag,TIMERx(x=0..4,7..13)
 493:Drivers/GD32F30x_standard_peripheral/Source/gd32f30x_timer.c ****       \arg        TIMER_INT_FLAG_CH1: channel 1 interrupt flag,TIMERx(x=0..4,7,8,11)
 494:Drivers/GD32F30x_standard_peripheral/Source/gd32f30x_timer.c ****       \arg        TIMER_INT_FLAG_CH2: channel 2 interrupt flag,TIMERx(x=0..4,7)
 495:Drivers/GD32F30x_standard_peripheral/Source/gd32f30x_timer.c ****       \arg        TIMER_INT_FLAG_CH3: channel 3 interrupt flag,TIMERx(x=0..4,7)
 496:Drivers/GD32F30x_standard_peripheral/Source/gd32f30x_timer.c ****       \arg        TIMER_INT_FLAG_CMT: channel commutation interrupt flag,TIMERx(x=0,7) 
 497:Drivers/GD32F30x_standard_peripheral/Source/gd32f30x_timer.c ****       \arg        TIMER_INT_FLAG_TRG: trigger interrupt flag,TIMERx(x=0,7,8,11)
 498:Drivers/GD32F30x_standard_peripheral/Source/gd32f30x_timer.c ****       \arg        TIMER_INT_FLAG_BRK:  break interrupt flag,TIMERx(x=0,7)
 499:Drivers/GD32F30x_standard_peripheral/Source/gd32f30x_timer.c ****     \param[out] none
 500:Drivers/GD32F30x_standard_peripheral/Source/gd32f30x_timer.c ****     \retval     none
 501:Drivers/GD32F30x_standard_peripheral/Source/gd32f30x_timer.c **** */
 502:Drivers/GD32F30x_standard_peripheral/Source/gd32f30x_timer.c **** void timer_interrupt_flag_clear(uint32_t timer_periph, uint32_t interrupt)
 503:Drivers/GD32F30x_standard_peripheral/Source/gd32f30x_timer.c **** {
 965              		.loc 1 503 1 is_stmt 1 view -0
 966              		.cfi_startproc
 967              		@ args = 0, pretend = 0, frame = 0
 968              		@ frame_needed = 0, uses_anonymous_args = 0
 969              		@ link register save eliminated.
 504:Drivers/GD32F30x_standard_peripheral/Source/gd32f30x_timer.c ****     TIMER_INTF(timer_periph) = (~(uint32_t)interrupt);
 970              		.loc 1 504 5 view .LVU215
 971              		.loc 1 504 33 is_stmt 0 view .LVU216
 972 0000 C943     		mvns	r1, r1
 973              	.LVL63:
 974              		.loc 1 504 30 view .LVU217
 975 0002 0161     		str	r1, [r0, #16]
 505:Drivers/GD32F30x_standard_peripheral/Source/gd32f30x_timer.c **** }
 976              		.loc 1 505 1 view .LVU218
 977 0004 7047     		bx	lr
 978              		.cfi_endproc
 979              	.LFE139:
 981              		.section	.text.timer_flag_get,"ax",%progbits
 982              		.align	1
 983              		.global	timer_flag_get
 984              		.syntax unified
 985              		.thumb
 986              		.thumb_func
 987              		.fpu fpv4-sp-d16
 989              	timer_flag_get:
 990              	.LVL64:
 991              	.LFB140:
 506:Drivers/GD32F30x_standard_peripheral/Source/gd32f30x_timer.c **** 
ARM GAS  C:\Users\Prog\AppData\Local\Temp\ccT8qdHj.s 			page 27


 507:Drivers/GD32F30x_standard_peripheral/Source/gd32f30x_timer.c **** /*!
 508:Drivers/GD32F30x_standard_peripheral/Source/gd32f30x_timer.c ****     \brief      get TIMER flags
 509:Drivers/GD32F30x_standard_peripheral/Source/gd32f30x_timer.c ****     \param[in]  timer_periph: please refer to the following parameters
 510:Drivers/GD32F30x_standard_peripheral/Source/gd32f30x_timer.c ****     \param[in]  flag: the timer interrupt flags
 511:Drivers/GD32F30x_standard_peripheral/Source/gd32f30x_timer.c ****                 only one parameter can be selected which is shown as below:
 512:Drivers/GD32F30x_standard_peripheral/Source/gd32f30x_timer.c ****       \arg        TIMER_FLAG_UP: update flag,TIMERx(x=0..13)
 513:Drivers/GD32F30x_standard_peripheral/Source/gd32f30x_timer.c ****       \arg        TIMER_FLAG_CH0: channel 0 flag,TIMERx(x=0..4,7..13)
 514:Drivers/GD32F30x_standard_peripheral/Source/gd32f30x_timer.c ****       \arg        TIMER_FLAG_CH1: channel 1 flag,TIMERx(x=0..4,7,8,11)
 515:Drivers/GD32F30x_standard_peripheral/Source/gd32f30x_timer.c ****       \arg        TIMER_FLAG_CH2: channel 2 flag,TIMERx(x=0..4,7)
 516:Drivers/GD32F30x_standard_peripheral/Source/gd32f30x_timer.c ****       \arg        TIMER_FLAG_CH3: channel 3 flag,TIMERx(x=0..4,7)
 517:Drivers/GD32F30x_standard_peripheral/Source/gd32f30x_timer.c ****       \arg        TIMER_FLAG_CMT: channel control update flag,TIMERx(x=0,7) 
 518:Drivers/GD32F30x_standard_peripheral/Source/gd32f30x_timer.c ****       \arg        TIMER_FLAG_TRG: trigger flag,TIMERx(x=0,7,8,11) 
 519:Drivers/GD32F30x_standard_peripheral/Source/gd32f30x_timer.c ****       \arg        TIMER_FLAG_BRK: break flag,TIMERx(x=0,7)
 520:Drivers/GD32F30x_standard_peripheral/Source/gd32f30x_timer.c ****       \arg        TIMER_FLAG_CH0O: channel 0 overcapture flag,TIMERx(x=0..4,7..11)
 521:Drivers/GD32F30x_standard_peripheral/Source/gd32f30x_timer.c ****       \arg        TIMER_FLAG_CH1O: channel 1 overcapture flag,TIMERx(x=0..4,7,8,11)
 522:Drivers/GD32F30x_standard_peripheral/Source/gd32f30x_timer.c ****       \arg        TIMER_FLAG_CH2O: channel 2 overcapture flag,TIMERx(x=0..4,7)
 523:Drivers/GD32F30x_standard_peripheral/Source/gd32f30x_timer.c ****       \arg        TIMER_FLAG_CH3O: channel 3 overcapture flag,TIMERx(x=0..4,7)
 524:Drivers/GD32F30x_standard_peripheral/Source/gd32f30x_timer.c ****     \param[out] none
 525:Drivers/GD32F30x_standard_peripheral/Source/gd32f30x_timer.c ****     \retval     FlagStatus: SET or RESET
 526:Drivers/GD32F30x_standard_peripheral/Source/gd32f30x_timer.c **** */
 527:Drivers/GD32F30x_standard_peripheral/Source/gd32f30x_timer.c **** FlagStatus timer_flag_get(uint32_t timer_periph, uint32_t flag)
 528:Drivers/GD32F30x_standard_peripheral/Source/gd32f30x_timer.c **** {
 992              		.loc 1 528 1 is_stmt 1 view -0
 993              		.cfi_startproc
 994              		@ args = 0, pretend = 0, frame = 0
 995              		@ frame_needed = 0, uses_anonymous_args = 0
 996              		@ link register save eliminated.
 529:Drivers/GD32F30x_standard_peripheral/Source/gd32f30x_timer.c ****     if(RESET != (TIMER_INTF(timer_periph) & flag)){
 997              		.loc 1 529 5 view .LVU220
 998              		.loc 1 529 18 is_stmt 0 view .LVU221
 999 0000 0369     		ldr	r3, [r0, #16]
 1000              		.loc 1 529 7 view .LVU222
 1001 0002 0B42     		tst	r3, r1
 1002 0004 01D0     		beq	.L60
 530:Drivers/GD32F30x_standard_peripheral/Source/gd32f30x_timer.c ****         return SET;
 1003              		.loc 1 530 16 view .LVU223
 1004 0006 0120     		movs	r0, #1
 1005              	.LVL65:
 1006              		.loc 1 530 16 view .LVU224
 1007 0008 7047     		bx	lr
 1008              	.LVL66:
 1009              	.L60:
 531:Drivers/GD32F30x_standard_peripheral/Source/gd32f30x_timer.c ****     }else{
 532:Drivers/GD32F30x_standard_peripheral/Source/gd32f30x_timer.c ****         return RESET;
 1010              		.loc 1 532 16 view .LVU225
 1011 000a 0020     		movs	r0, #0
 1012              	.LVL67:
 533:Drivers/GD32F30x_standard_peripheral/Source/gd32f30x_timer.c ****     }
 534:Drivers/GD32F30x_standard_peripheral/Source/gd32f30x_timer.c **** }
 1013              		.loc 1 534 1 view .LVU226
 1014 000c 7047     		bx	lr
 1015              		.cfi_endproc
 1016              	.LFE140:
 1018              		.section	.text.timer_flag_clear,"ax",%progbits
 1019              		.align	1
 1020              		.global	timer_flag_clear
 1021              		.syntax unified
ARM GAS  C:\Users\Prog\AppData\Local\Temp\ccT8qdHj.s 			page 28


 1022              		.thumb
 1023              		.thumb_func
 1024              		.fpu fpv4-sp-d16
 1026              	timer_flag_clear:
 1027              	.LVL68:
 1028              	.LFB141:
 535:Drivers/GD32F30x_standard_peripheral/Source/gd32f30x_timer.c **** 
 536:Drivers/GD32F30x_standard_peripheral/Source/gd32f30x_timer.c **** /*!
 537:Drivers/GD32F30x_standard_peripheral/Source/gd32f30x_timer.c ****     \brief      clear TIMER flags
 538:Drivers/GD32F30x_standard_peripheral/Source/gd32f30x_timer.c ****     \param[in]  timer_periph: please refer to the following parameters
 539:Drivers/GD32F30x_standard_peripheral/Source/gd32f30x_timer.c ****     \param[in]  flag: the timer interrupt flags
 540:Drivers/GD32F30x_standard_peripheral/Source/gd32f30x_timer.c ****                 only one parameter can be selected which is shown as below:
 541:Drivers/GD32F30x_standard_peripheral/Source/gd32f30x_timer.c ****       \arg        TIMER_FLAG_UP: update flag,TIMERx(x=0..13)
 542:Drivers/GD32F30x_standard_peripheral/Source/gd32f30x_timer.c ****       \arg        TIMER_FLAG_CH0: channel 0 flag,TIMERx(x=0..4,7..13)
 543:Drivers/GD32F30x_standard_peripheral/Source/gd32f30x_timer.c ****       \arg        TIMER_FLAG_CH1: channel 1 flag,TIMERx(x=0..4,7,8,11)
 544:Drivers/GD32F30x_standard_peripheral/Source/gd32f30x_timer.c ****       \arg        TIMER_FLAG_CH2: channel 2 flag,TIMERx(x=0..4,7)
 545:Drivers/GD32F30x_standard_peripheral/Source/gd32f30x_timer.c ****       \arg        TIMER_FLAG_CH3: channel 3 flag,TIMERx(x=0..4,7)
 546:Drivers/GD32F30x_standard_peripheral/Source/gd32f30x_timer.c ****       \arg        TIMER_FLAG_CMT: channel control update flag,TIMERx(x=0,7) 
 547:Drivers/GD32F30x_standard_peripheral/Source/gd32f30x_timer.c ****       \arg        TIMER_FLAG_TRG: trigger flag,TIMERx(x=0,7,8,11) 
 548:Drivers/GD32F30x_standard_peripheral/Source/gd32f30x_timer.c ****       \arg        TIMER_FLAG_BRK: break flag,TIMERx(x=0,7)
 549:Drivers/GD32F30x_standard_peripheral/Source/gd32f30x_timer.c ****       \arg        TIMER_FLAG_CH0O: channel 0 overcapture flag,TIMERx(x=0..4,7..11)
 550:Drivers/GD32F30x_standard_peripheral/Source/gd32f30x_timer.c ****       \arg        TIMER_FLAG_CH1O: channel 1 overcapture flag,TIMERx(x=0..4,7,8,11)
 551:Drivers/GD32F30x_standard_peripheral/Source/gd32f30x_timer.c ****       \arg        TIMER_FLAG_CH2O: channel 2 overcapture flag,TIMERx(x=0..4,7)
 552:Drivers/GD32F30x_standard_peripheral/Source/gd32f30x_timer.c ****       \arg        TIMER_FLAG_CH3O: channel 3 overcapture flag,TIMERx(x=0..4,7)
 553:Drivers/GD32F30x_standard_peripheral/Source/gd32f30x_timer.c ****     \param[out] none
 554:Drivers/GD32F30x_standard_peripheral/Source/gd32f30x_timer.c ****     \retval     none
 555:Drivers/GD32F30x_standard_peripheral/Source/gd32f30x_timer.c **** */
 556:Drivers/GD32F30x_standard_peripheral/Source/gd32f30x_timer.c **** void timer_flag_clear(uint32_t timer_periph, uint32_t flag)
 557:Drivers/GD32F30x_standard_peripheral/Source/gd32f30x_timer.c **** {
 1029              		.loc 1 557 1 is_stmt 1 view -0
 1030              		.cfi_startproc
 1031              		@ args = 0, pretend = 0, frame = 0
 1032              		@ frame_needed = 0, uses_anonymous_args = 0
 1033              		@ link register save eliminated.
 558:Drivers/GD32F30x_standard_peripheral/Source/gd32f30x_timer.c ****     TIMER_INTF(timer_periph) = (~(uint32_t)flag);
 1034              		.loc 1 558 5 view .LVU228
 1035              		.loc 1 558 33 is_stmt 0 view .LVU229
 1036 0000 C943     		mvns	r1, r1
 1037              	.LVL69:
 1038              		.loc 1 558 30 view .LVU230
 1039 0002 0161     		str	r1, [r0, #16]
 559:Drivers/GD32F30x_standard_peripheral/Source/gd32f30x_timer.c **** }
 1040              		.loc 1 559 1 view .LVU231
 1041 0004 7047     		bx	lr
 1042              		.cfi_endproc
 1043              	.LFE141:
 1045              		.section	.text.timer_dma_enable,"ax",%progbits
 1046              		.align	1
 1047              		.global	timer_dma_enable
 1048              		.syntax unified
 1049              		.thumb
 1050              		.thumb_func
 1051              		.fpu fpv4-sp-d16
 1053              	timer_dma_enable:
 1054              	.LVL70:
 1055              	.LFB142:
 560:Drivers/GD32F30x_standard_peripheral/Source/gd32f30x_timer.c **** 
ARM GAS  C:\Users\Prog\AppData\Local\Temp\ccT8qdHj.s 			page 29


 561:Drivers/GD32F30x_standard_peripheral/Source/gd32f30x_timer.c **** /*!
 562:Drivers/GD32F30x_standard_peripheral/Source/gd32f30x_timer.c ****     \brief      enable the TIMER DMA
 563:Drivers/GD32F30x_standard_peripheral/Source/gd32f30x_timer.c ****     \param[in]  timer_periph: please refer to the following parameters
 564:Drivers/GD32F30x_standard_peripheral/Source/gd32f30x_timer.c ****     \param[in]  dma: specify which DMA to enable
 565:Drivers/GD32F30x_standard_peripheral/Source/gd32f30x_timer.c ****                 only one parameter can be selected which is shown as below:
 566:Drivers/GD32F30x_standard_peripheral/Source/gd32f30x_timer.c ****       \arg        TIMER_DMA_UPD:  update DMA enable,TIMERx(x=0..7)
 567:Drivers/GD32F30x_standard_peripheral/Source/gd32f30x_timer.c ****       \arg        TIMER_DMA_CH0D: channel 0 DMA enable,TIMERx(x=0..4,7)
 568:Drivers/GD32F30x_standard_peripheral/Source/gd32f30x_timer.c ****       \arg        TIMER_DMA_CH1D: channel 1 DMA enable,TIMERx(x=0..4,7)
 569:Drivers/GD32F30x_standard_peripheral/Source/gd32f30x_timer.c ****       \arg        TIMER_DMA_CH2D: channel 2 DMA enable,TIMERx(x=0..4,7)
 570:Drivers/GD32F30x_standard_peripheral/Source/gd32f30x_timer.c ****       \arg        TIMER_DMA_CH3D: channel 3 DMA enable,TIMERx(x=0..4,7)
 571:Drivers/GD32F30x_standard_peripheral/Source/gd32f30x_timer.c ****       \arg        TIMER_DMA_CMTD: commutation DMA request enable,TIMERx(x=0,7)
 572:Drivers/GD32F30x_standard_peripheral/Source/gd32f30x_timer.c ****       \arg        TIMER_DMA_TRGD: trigger DMA enable,TIMERx(x=0..4,7)
 573:Drivers/GD32F30x_standard_peripheral/Source/gd32f30x_timer.c ****     \param[out] none
 574:Drivers/GD32F30x_standard_peripheral/Source/gd32f30x_timer.c ****     \retval     none
 575:Drivers/GD32F30x_standard_peripheral/Source/gd32f30x_timer.c **** */
 576:Drivers/GD32F30x_standard_peripheral/Source/gd32f30x_timer.c **** void timer_dma_enable(uint32_t timer_periph, uint16_t dma)
 577:Drivers/GD32F30x_standard_peripheral/Source/gd32f30x_timer.c **** {
 1056              		.loc 1 577 1 is_stmt 1 view -0
 1057              		.cfi_startproc
 1058              		@ args = 0, pretend = 0, frame = 0
 1059              		@ frame_needed = 0, uses_anonymous_args = 0
 1060              		@ link register save eliminated.
 578:Drivers/GD32F30x_standard_peripheral/Source/gd32f30x_timer.c ****     TIMER_DMAINTEN(timer_periph) |= (uint32_t) dma; 
 1061              		.loc 1 578 5 view .LVU233
 1062              		.loc 1 578 34 is_stmt 0 view .LVU234
 1063 0000 C368     		ldr	r3, [r0, #12]
 1064 0002 0B43     		orrs	r3, r3, r1
 1065 0004 C360     		str	r3, [r0, #12]
 579:Drivers/GD32F30x_standard_peripheral/Source/gd32f30x_timer.c **** }
 1066              		.loc 1 579 1 view .LVU235
 1067 0006 7047     		bx	lr
 1068              		.cfi_endproc
 1069              	.LFE142:
 1071              		.section	.text.timer_dma_disable,"ax",%progbits
 1072              		.align	1
 1073              		.global	timer_dma_disable
 1074              		.syntax unified
 1075              		.thumb
 1076              		.thumb_func
 1077              		.fpu fpv4-sp-d16
 1079              	timer_dma_disable:
 1080              	.LVL71:
 1081              	.LFB143:
 580:Drivers/GD32F30x_standard_peripheral/Source/gd32f30x_timer.c **** 
 581:Drivers/GD32F30x_standard_peripheral/Source/gd32f30x_timer.c **** /*!
 582:Drivers/GD32F30x_standard_peripheral/Source/gd32f30x_timer.c ****     \brief      disable the TIMER DMA
 583:Drivers/GD32F30x_standard_peripheral/Source/gd32f30x_timer.c ****     \param[in]  timer_periph: please refer to the following parameters
 584:Drivers/GD32F30x_standard_peripheral/Source/gd32f30x_timer.c ****     \param[in]  dma: specify which DMA to enable
 585:Drivers/GD32F30x_standard_peripheral/Source/gd32f30x_timer.c ****                 one or more parameters can be selected which are shown as below:
 586:Drivers/GD32F30x_standard_peripheral/Source/gd32f30x_timer.c ****       \arg        TIMER_DMA_UPD:  update DMA ,TIMERx(x=0..7)
 587:Drivers/GD32F30x_standard_peripheral/Source/gd32f30x_timer.c ****       \arg        TIMER_DMA_CH0D: channel 0 DMA request,TIMERx(x=0..4,7)
 588:Drivers/GD32F30x_standard_peripheral/Source/gd32f30x_timer.c ****       \arg        TIMER_DMA_CH1D: channel 1 DMA request,TIMERx(x=0..4,7)
 589:Drivers/GD32F30x_standard_peripheral/Source/gd32f30x_timer.c ****       \arg        TIMER_DMA_CH2D: channel 2 DMA request,TIMERx(x=0..4,7)
 590:Drivers/GD32F30x_standard_peripheral/Source/gd32f30x_timer.c ****       \arg        TIMER_DMA_CH3D: channel 3 DMA request,TIMERx(x=0..4,7)
 591:Drivers/GD32F30x_standard_peripheral/Source/gd32f30x_timer.c ****       \arg        TIMER_DMA_CMTD: commutation DMA request ,TIMERx(x=0,7)
 592:Drivers/GD32F30x_standard_peripheral/Source/gd32f30x_timer.c ****       \arg        TIMER_DMA_TRGD: trigger DMA request,TIMERx(x=0..4,7)
 593:Drivers/GD32F30x_standard_peripheral/Source/gd32f30x_timer.c ****     \param[out] none
ARM GAS  C:\Users\Prog\AppData\Local\Temp\ccT8qdHj.s 			page 30


 594:Drivers/GD32F30x_standard_peripheral/Source/gd32f30x_timer.c ****     \retval     none
 595:Drivers/GD32F30x_standard_peripheral/Source/gd32f30x_timer.c **** */
 596:Drivers/GD32F30x_standard_peripheral/Source/gd32f30x_timer.c **** void timer_dma_disable(uint32_t timer_periph, uint16_t dma)
 597:Drivers/GD32F30x_standard_peripheral/Source/gd32f30x_timer.c **** {
 1082              		.loc 1 597 1 is_stmt 1 view -0
 1083              		.cfi_startproc
 1084              		@ args = 0, pretend = 0, frame = 0
 1085              		@ frame_needed = 0, uses_anonymous_args = 0
 1086              		@ link register save eliminated.
 598:Drivers/GD32F30x_standard_peripheral/Source/gd32f30x_timer.c ****     TIMER_DMAINTEN(timer_periph) &= (~(uint32_t)(dma)); 
 1087              		.loc 1 598 5 view .LVU237
 1088              		.loc 1 598 34 is_stmt 0 view .LVU238
 1089 0000 C368     		ldr	r3, [r0, #12]
 1090 0002 23EA0103 		bic	r3, r3, r1
 1091 0006 C360     		str	r3, [r0, #12]
 599:Drivers/GD32F30x_standard_peripheral/Source/gd32f30x_timer.c **** }
 1092              		.loc 1 599 1 view .LVU239
 1093 0008 7047     		bx	lr
 1094              		.cfi_endproc
 1095              	.LFE143:
 1097              		.section	.text.timer_channel_dma_request_source_select,"ax",%progbits
 1098              		.align	1
 1099              		.global	timer_channel_dma_request_source_select
 1100              		.syntax unified
 1101              		.thumb
 1102              		.thumb_func
 1103              		.fpu fpv4-sp-d16
 1105              	timer_channel_dma_request_source_select:
 1106              	.LVL72:
 1107              	.LFB144:
 600:Drivers/GD32F30x_standard_peripheral/Source/gd32f30x_timer.c **** 
 601:Drivers/GD32F30x_standard_peripheral/Source/gd32f30x_timer.c **** /*!
 602:Drivers/GD32F30x_standard_peripheral/Source/gd32f30x_timer.c ****     \brief      channel DMA request source selection
 603:Drivers/GD32F30x_standard_peripheral/Source/gd32f30x_timer.c ****     \param[in]  timer_periph: TIMERx(x=0..4,7)
 604:Drivers/GD32F30x_standard_peripheral/Source/gd32f30x_timer.c ****     \param[in]  dma_request: channel DMA request source selection
 605:Drivers/GD32F30x_standard_peripheral/Source/gd32f30x_timer.c ****                 only one parameter can be selected which is shown as below:
 606:Drivers/GD32F30x_standard_peripheral/Source/gd32f30x_timer.c ****        \arg        TIMER_DMAREQUEST_CHANNELEVENT: DMA request of channel y is sent when channel y e
 607:Drivers/GD32F30x_standard_peripheral/Source/gd32f30x_timer.c ****        \arg        TIMER_DMAREQUEST_UPDATEEVENT: DMA request of channel y is sent when update event
 608:Drivers/GD32F30x_standard_peripheral/Source/gd32f30x_timer.c ****     \param[out] none
 609:Drivers/GD32F30x_standard_peripheral/Source/gd32f30x_timer.c ****     \retval     none
 610:Drivers/GD32F30x_standard_peripheral/Source/gd32f30x_timer.c **** */
 611:Drivers/GD32F30x_standard_peripheral/Source/gd32f30x_timer.c **** void timer_channel_dma_request_source_select(uint32_t timer_periph, uint8_t dma_request)
 612:Drivers/GD32F30x_standard_peripheral/Source/gd32f30x_timer.c **** {
 1108              		.loc 1 612 1 is_stmt 1 view -0
 1109              		.cfi_startproc
 1110              		@ args = 0, pretend = 0, frame = 0
 1111              		@ frame_needed = 0, uses_anonymous_args = 0
 1112              		@ link register save eliminated.
 613:Drivers/GD32F30x_standard_peripheral/Source/gd32f30x_timer.c ****     if(TIMER_DMAREQUEST_UPDATEEVENT == dma_request){
 1113              		.loc 1 613 5 view .LVU241
 1114              		.loc 1 613 7 is_stmt 0 view .LVU242
 1115 0000 21B9     		cbnz	r1, .L65
 614:Drivers/GD32F30x_standard_peripheral/Source/gd32f30x_timer.c ****         TIMER_CTL1(timer_periph) |= (uint32_t)TIMER_CTL1_DMAS;
 1116              		.loc 1 614 9 is_stmt 1 view .LVU243
 1117              		.loc 1 614 34 is_stmt 0 view .LVU244
 1118 0002 4368     		ldr	r3, [r0, #4]
 1119 0004 43F00803 		orr	r3, r3, #8
ARM GAS  C:\Users\Prog\AppData\Local\Temp\ccT8qdHj.s 			page 31


 1120 0008 4360     		str	r3, [r0, #4]
 1121 000a 7047     		bx	lr
 1122              	.L65:
 615:Drivers/GD32F30x_standard_peripheral/Source/gd32f30x_timer.c ****     }else if(TIMER_DMAREQUEST_CHANNELEVENT == dma_request){
 1123              		.loc 1 615 11 is_stmt 1 view .LVU245
 1124              		.loc 1 615 13 is_stmt 0 view .LVU246
 1125 000c 0129     		cmp	r1, #1
 1126 000e 00D0     		beq	.L67
 1127              	.L64:
 616:Drivers/GD32F30x_standard_peripheral/Source/gd32f30x_timer.c ****         TIMER_CTL1(timer_periph) &= ~(uint32_t)TIMER_CTL1_DMAS;
 617:Drivers/GD32F30x_standard_peripheral/Source/gd32f30x_timer.c ****     }else{
 618:Drivers/GD32F30x_standard_peripheral/Source/gd32f30x_timer.c ****         /* illegal parameters */
 619:Drivers/GD32F30x_standard_peripheral/Source/gd32f30x_timer.c ****     }
 620:Drivers/GD32F30x_standard_peripheral/Source/gd32f30x_timer.c **** }
 1128              		.loc 1 620 1 view .LVU247
 1129 0010 7047     		bx	lr
 1130              	.L67:
 616:Drivers/GD32F30x_standard_peripheral/Source/gd32f30x_timer.c ****         TIMER_CTL1(timer_periph) &= ~(uint32_t)TIMER_CTL1_DMAS;
 1131              		.loc 1 616 9 is_stmt 1 view .LVU248
 616:Drivers/GD32F30x_standard_peripheral/Source/gd32f30x_timer.c ****         TIMER_CTL1(timer_periph) &= ~(uint32_t)TIMER_CTL1_DMAS;
 1132              		.loc 1 616 34 is_stmt 0 view .LVU249
 1133 0012 4368     		ldr	r3, [r0, #4]
 1134 0014 23F00803 		bic	r3, r3, #8
 1135 0018 4360     		str	r3, [r0, #4]
 619:Drivers/GD32F30x_standard_peripheral/Source/gd32f30x_timer.c **** }
 1136              		.loc 1 619 5 is_stmt 1 view .LVU250
 1137              		.loc 1 620 1 is_stmt 0 view .LVU251
 1138 001a F9E7     		b	.L64
 1139              		.cfi_endproc
 1140              	.LFE144:
 1142              		.section	.text.timer_dma_transfer_config,"ax",%progbits
 1143              		.align	1
 1144              		.global	timer_dma_transfer_config
 1145              		.syntax unified
 1146              		.thumb
 1147              		.thumb_func
 1148              		.fpu fpv4-sp-d16
 1150              	timer_dma_transfer_config:
 1151              	.LVL73:
 1152              	.LFB145:
 621:Drivers/GD32F30x_standard_peripheral/Source/gd32f30x_timer.c **** 
 622:Drivers/GD32F30x_standard_peripheral/Source/gd32f30x_timer.c **** /*!
 623:Drivers/GD32F30x_standard_peripheral/Source/gd32f30x_timer.c ****     \brief      configure the TIMER DMA transfer
 624:Drivers/GD32F30x_standard_peripheral/Source/gd32f30x_timer.c ****     \param[in]  timer_periph: please refer to the following parameters
 625:Drivers/GD32F30x_standard_peripheral/Source/gd32f30x_timer.c ****     \param[in]  dma_baseaddr:
 626:Drivers/GD32F30x_standard_peripheral/Source/gd32f30x_timer.c ****                 only one parameter can be selected which is shown as below:
 627:Drivers/GD32F30x_standard_peripheral/Source/gd32f30x_timer.c ****        \arg        TIMER_DMACFG_DMATA_CTL0: DMA transfer address is TIMER_CTL0,TIMERx(x=0..4,7)
 628:Drivers/GD32F30x_standard_peripheral/Source/gd32f30x_timer.c ****        \arg        TIMER_DMACFG_DMATA_CTL1: DMA transfer address is TIMER_CTL1,TIMERx(x=0..4,7)
 629:Drivers/GD32F30x_standard_peripheral/Source/gd32f30x_timer.c ****        \arg        TIMER_DMACFG_DMATA_SMCFG: DMA transfer address is TIMER_SMCFG,TIMERx(x=0..4,7)
 630:Drivers/GD32F30x_standard_peripheral/Source/gd32f30x_timer.c ****        \arg        TIMER_DMACFG_DMATA_DMAINTEN: DMA transfer address is TIMER_DMAINTEN,TIMERx(x=0..
 631:Drivers/GD32F30x_standard_peripheral/Source/gd32f30x_timer.c ****        \arg        TIMER_DMACFG_DMATA_INTF: DMA transfer address is TIMER_INTF,TIMERx(x=0..4,7)
 632:Drivers/GD32F30x_standard_peripheral/Source/gd32f30x_timer.c ****        \arg        TIMER_DMACFG_DMATA_SWEVG: DMA transfer address is TIMER_SWEVG,TIMERx(x=0..4,7)
 633:Drivers/GD32F30x_standard_peripheral/Source/gd32f30x_timer.c ****        \arg        TIMER_DMACFG_DMATA_CHCTL0: DMA transfer address is TIMER_CHCTL0,TIMERx(x=0..4,7)
 634:Drivers/GD32F30x_standard_peripheral/Source/gd32f30x_timer.c ****        \arg        TIMER_DMACFG_DMATA_CHCTL1: DMA transfer address is TIMER_CHCTL1,TIMERx(x=0..4,7)
 635:Drivers/GD32F30x_standard_peripheral/Source/gd32f30x_timer.c ****        \arg        TIMER_DMACFG_DMATA_CHCTL2: DMA transfer address is TIMER_CHCTL2,TIMERx(x=0..4,7)
 636:Drivers/GD32F30x_standard_peripheral/Source/gd32f30x_timer.c ****        \arg        TIMER_DMACFG_DMATA_CNT: DMA transfer address is TIMER_CNT,TIMERx(x=0..4,7)
 637:Drivers/GD32F30x_standard_peripheral/Source/gd32f30x_timer.c ****        \arg        TIMER_DMACFG_DMATA_PSC: DMA transfer address is TIMER_PSC,TIMERx(x=0..4,7)
ARM GAS  C:\Users\Prog\AppData\Local\Temp\ccT8qdHj.s 			page 32


 638:Drivers/GD32F30x_standard_peripheral/Source/gd32f30x_timer.c ****        \arg        TIMER_DMACFG_DMATA_CAR: DMA transfer address is TIMER_CAR,TIMERx(x=0..4,7)
 639:Drivers/GD32F30x_standard_peripheral/Source/gd32f30x_timer.c ****        \arg        TIMER_DMACFG_DMATA_CREP: DMA transfer address is TIMER_CREP,TIMERx(x=0,7)
 640:Drivers/GD32F30x_standard_peripheral/Source/gd32f30x_timer.c ****        \arg        TIMER_DMACFG_DMATA_CH0CV: DMA transfer address is TIMER_CH0CV,TIMERx(x=0..4,7)
 641:Drivers/GD32F30x_standard_peripheral/Source/gd32f30x_timer.c ****        \arg        TIMER_DMACFG_DMATA_CH1CV: DMA transfer address is TIMER_CH1CV,TIMERx(x=0..4,7)
 642:Drivers/GD32F30x_standard_peripheral/Source/gd32f30x_timer.c ****        \arg        TIMER_DMACFG_DMATA_CH2CV: DMA transfer address is TIMER_CH2CV,TIMERx(x=0..4,7)
 643:Drivers/GD32F30x_standard_peripheral/Source/gd32f30x_timer.c ****        \arg        TIMER_DMACFG_DMATA_CH3CV: DMA transfer address is TIMER_CH3CV,TIMERx(x=0..4,7)
 644:Drivers/GD32F30x_standard_peripheral/Source/gd32f30x_timer.c ****        \arg        TIMER_DMACFG_DMATA_CCHP: DMA transfer address is TIMER_CCHP,TIMERx(x=0,7)
 645:Drivers/GD32F30x_standard_peripheral/Source/gd32f30x_timer.c ****        \arg        TIMER_DMACFG_DMATA_DMACFG: DMA transfer address is TIMER_DMACFG,TIMERx(x=0..4,7)
 646:Drivers/GD32F30x_standard_peripheral/Source/gd32f30x_timer.c ****        \arg        TIMER_DMACFG_DMATA_DMATB: DMA transfer address is TIMER_DMATB,TIMERx(x=0..4,7)
 647:Drivers/GD32F30x_standard_peripheral/Source/gd32f30x_timer.c ****     \param[in]  dma_lenth:
 648:Drivers/GD32F30x_standard_peripheral/Source/gd32f30x_timer.c ****                 only one parameter can be selected which is shown as below:
 649:Drivers/GD32F30x_standard_peripheral/Source/gd32f30x_timer.c ****        \arg        TIMER_DMACFG_DMATC_xTRANSFER(x=1..18): DMA transfer x time
 650:Drivers/GD32F30x_standard_peripheral/Source/gd32f30x_timer.c ****     \param[out] none
 651:Drivers/GD32F30x_standard_peripheral/Source/gd32f30x_timer.c ****     \retval     none
 652:Drivers/GD32F30x_standard_peripheral/Source/gd32f30x_timer.c **** */
 653:Drivers/GD32F30x_standard_peripheral/Source/gd32f30x_timer.c **** void timer_dma_transfer_config(uint32_t timer_periph, uint32_t dma_baseaddr, uint32_t dma_lenth)
 654:Drivers/GD32F30x_standard_peripheral/Source/gd32f30x_timer.c **** {
 1153              		.loc 1 654 1 is_stmt 1 view -0
 1154              		.cfi_startproc
 1155              		@ args = 0, pretend = 0, frame = 0
 1156              		@ frame_needed = 0, uses_anonymous_args = 0
 1157              		@ link register save eliminated.
 655:Drivers/GD32F30x_standard_peripheral/Source/gd32f30x_timer.c ****     TIMER_DMACFG(timer_periph) &= (~(uint32_t)(TIMER_DMACFG_DMATA | TIMER_DMACFG_DMATC));
 1158              		.loc 1 655 5 view .LVU253
 1159              		.loc 1 655 32 is_stmt 0 view .LVU254
 1160 0000 836C     		ldr	r3, [r0, #72]
 1161 0002 23F4F853 		bic	r3, r3, #7936
 1162 0006 23F01F03 		bic	r3, r3, #31
 1163 000a 8364     		str	r3, [r0, #72]
 656:Drivers/GD32F30x_standard_peripheral/Source/gd32f30x_timer.c ****     TIMER_DMACFG(timer_periph) |= (uint32_t)(dma_baseaddr | dma_lenth);
 1164              		.loc 1 656 5 is_stmt 1 view .LVU255
 1165              		.loc 1 656 32 is_stmt 0 view .LVU256
 1166 000c 836C     		ldr	r3, [r0, #72]
 1167              		.loc 1 656 59 view .LVU257
 1168 000e 1143     		orrs	r1, r1, r2
 1169              	.LVL74:
 1170              		.loc 1 656 32 view .LVU258
 1171 0010 0B43     		orrs	r3, r3, r1
 1172 0012 8364     		str	r3, [r0, #72]
 657:Drivers/GD32F30x_standard_peripheral/Source/gd32f30x_timer.c **** }
 1173              		.loc 1 657 1 view .LVU259
 1174 0014 7047     		bx	lr
 1175              		.cfi_endproc
 1176              	.LFE145:
 1178              		.section	.text.timer_event_software_generate,"ax",%progbits
 1179              		.align	1
 1180              		.global	timer_event_software_generate
 1181              		.syntax unified
 1182              		.thumb
 1183              		.thumb_func
 1184              		.fpu fpv4-sp-d16
 1186              	timer_event_software_generate:
 1187              	.LVL75:
 1188              	.LFB146:
 658:Drivers/GD32F30x_standard_peripheral/Source/gd32f30x_timer.c **** 
 659:Drivers/GD32F30x_standard_peripheral/Source/gd32f30x_timer.c **** /*!
 660:Drivers/GD32F30x_standard_peripheral/Source/gd32f30x_timer.c ****     \brief      software generate events 
ARM GAS  C:\Users\Prog\AppData\Local\Temp\ccT8qdHj.s 			page 33


 661:Drivers/GD32F30x_standard_peripheral/Source/gd32f30x_timer.c ****     \param[in]  timer_periph: please refer to the following parameters
 662:Drivers/GD32F30x_standard_peripheral/Source/gd32f30x_timer.c ****     \param[in]  event: the timer software event generation sources
 663:Drivers/GD32F30x_standard_peripheral/Source/gd32f30x_timer.c ****                 one or more parameters can be selected which are shown as below:
 664:Drivers/GD32F30x_standard_peripheral/Source/gd32f30x_timer.c ****       \arg        TIMER_EVENT_SRC_UPG: update event,TIMERx(x=0..13)
 665:Drivers/GD32F30x_standard_peripheral/Source/gd32f30x_timer.c ****       \arg        TIMER_EVENT_SRC_CH0G: channel 0 capture or compare event generation,TIMERx(x=0..4
 666:Drivers/GD32F30x_standard_peripheral/Source/gd32f30x_timer.c ****       \arg        TIMER_EVENT_SRC_CH1G: channel 1 capture or compare event generation,TIMERx(x=0..4
 667:Drivers/GD32F30x_standard_peripheral/Source/gd32f30x_timer.c ****       \arg        TIMER_EVENT_SRC_CH2G: channel 2 capture or compare event generation,TIMERx(x=0..4
 668:Drivers/GD32F30x_standard_peripheral/Source/gd32f30x_timer.c ****       \arg        TIMER_EVENT_SRC_CH3G: channel 3 capture or compare event generation,TIMERx(x=0..4
 669:Drivers/GD32F30x_standard_peripheral/Source/gd32f30x_timer.c ****       \arg        TIMER_EVENT_SRC_CMTG: channel commutation event generation,TIMERx(x=0,7) 
 670:Drivers/GD32F30x_standard_peripheral/Source/gd32f30x_timer.c ****       \arg        TIMER_EVENT_SRC_TRGG: trigger event generation,TIMERx(x=0..4,7,8,11)
 671:Drivers/GD32F30x_standard_peripheral/Source/gd32f30x_timer.c ****       \arg        TIMER_EVENT_SRC_BRKG:  break event generation,TIMERx(x=0,7)
 672:Drivers/GD32F30x_standard_peripheral/Source/gd32f30x_timer.c ****     \param[out] none
 673:Drivers/GD32F30x_standard_peripheral/Source/gd32f30x_timer.c ****     \retval     none
 674:Drivers/GD32F30x_standard_peripheral/Source/gd32f30x_timer.c **** */
 675:Drivers/GD32F30x_standard_peripheral/Source/gd32f30x_timer.c **** void timer_event_software_generate(uint32_t timer_periph, uint16_t event)
 676:Drivers/GD32F30x_standard_peripheral/Source/gd32f30x_timer.c **** {
 1189              		.loc 1 676 1 is_stmt 1 view -0
 1190              		.cfi_startproc
 1191              		@ args = 0, pretend = 0, frame = 0
 1192              		@ frame_needed = 0, uses_anonymous_args = 0
 1193              		@ link register save eliminated.
 677:Drivers/GD32F30x_standard_peripheral/Source/gd32f30x_timer.c ****     TIMER_SWEVG(timer_periph) |= (uint32_t)event;
 1194              		.loc 1 677 5 view .LVU261
 1195              		.loc 1 677 31 is_stmt 0 view .LVU262
 1196 0000 4369     		ldr	r3, [r0, #20]
 1197 0002 0B43     		orrs	r3, r3, r1
 1198 0004 4361     		str	r3, [r0, #20]
 678:Drivers/GD32F30x_standard_peripheral/Source/gd32f30x_timer.c **** }
 1199              		.loc 1 678 1 view .LVU263
 1200 0006 7047     		bx	lr
 1201              		.cfi_endproc
 1202              	.LFE146:
 1204              		.section	.text.timer_break_struct_para_init,"ax",%progbits
 1205              		.align	1
 1206              		.global	timer_break_struct_para_init
 1207              		.syntax unified
 1208              		.thumb
 1209              		.thumb_func
 1210              		.fpu fpv4-sp-d16
 1212              	timer_break_struct_para_init:
 1213              	.LVL76:
 1214              	.LFB147:
 679:Drivers/GD32F30x_standard_peripheral/Source/gd32f30x_timer.c **** 
 680:Drivers/GD32F30x_standard_peripheral/Source/gd32f30x_timer.c **** /*!
 681:Drivers/GD32F30x_standard_peripheral/Source/gd32f30x_timer.c ****     \brief      initialize TIMER break parameter struct with a default value
 682:Drivers/GD32F30x_standard_peripheral/Source/gd32f30x_timer.c ****     \param[in]  breakpara: TIMER break parameter struct
 683:Drivers/GD32F30x_standard_peripheral/Source/gd32f30x_timer.c ****     \param[out] none
 684:Drivers/GD32F30x_standard_peripheral/Source/gd32f30x_timer.c ****     \retval     none
 685:Drivers/GD32F30x_standard_peripheral/Source/gd32f30x_timer.c **** */
 686:Drivers/GD32F30x_standard_peripheral/Source/gd32f30x_timer.c **** void timer_break_struct_para_init(timer_break_parameter_struct* breakpara)
 687:Drivers/GD32F30x_standard_peripheral/Source/gd32f30x_timer.c **** {
 1215              		.loc 1 687 1 is_stmt 1 view -0
 1216              		.cfi_startproc
 1217              		@ args = 0, pretend = 0, frame = 0
 1218              		@ frame_needed = 0, uses_anonymous_args = 0
 1219              		@ link register save eliminated.
 688:Drivers/GD32F30x_standard_peripheral/Source/gd32f30x_timer.c ****     /* initialize the break parameter struct member with the default value */
ARM GAS  C:\Users\Prog\AppData\Local\Temp\ccT8qdHj.s 			page 34


 689:Drivers/GD32F30x_standard_peripheral/Source/gd32f30x_timer.c ****     breakpara->runoffstate     = TIMER_ROS_STATE_DISABLE;
 1220              		.loc 1 689 5 view .LVU265
 1221              		.loc 1 689 32 is_stmt 0 view .LVU266
 1222 0000 0023     		movs	r3, #0
 1223 0002 0380     		strh	r3, [r0]	@ movhi
 690:Drivers/GD32F30x_standard_peripheral/Source/gd32f30x_timer.c ****     breakpara->ideloffstate    = TIMER_IOS_STATE_DISABLE;
 1224              		.loc 1 690 5 is_stmt 1 view .LVU267
 1225              		.loc 1 690 32 is_stmt 0 view .LVU268
 1226 0004 4380     		strh	r3, [r0, #2]	@ movhi
 691:Drivers/GD32F30x_standard_peripheral/Source/gd32f30x_timer.c ****     breakpara->deadtime        = 0U;
 1227              		.loc 1 691 5 is_stmt 1 view .LVU269
 1228              		.loc 1 691 32 is_stmt 0 view .LVU270
 1229 0006 8380     		strh	r3, [r0, #4]	@ movhi
 692:Drivers/GD32F30x_standard_peripheral/Source/gd32f30x_timer.c ****     breakpara->breakpolarity   = TIMER_BREAK_POLARITY_LOW;
 1230              		.loc 1 692 5 is_stmt 1 view .LVU271
 1231              		.loc 1 692 32 is_stmt 0 view .LVU272
 1232 0008 C380     		strh	r3, [r0, #6]	@ movhi
 693:Drivers/GD32F30x_standard_peripheral/Source/gd32f30x_timer.c ****     breakpara->outputautostate = TIMER_OUTAUTO_DISABLE;
 1233              		.loc 1 693 5 is_stmt 1 view .LVU273
 1234              		.loc 1 693 32 is_stmt 0 view .LVU274
 1235 000a 0381     		strh	r3, [r0, #8]	@ movhi
 694:Drivers/GD32F30x_standard_peripheral/Source/gd32f30x_timer.c ****     breakpara->protectmode     = TIMER_CCHP_PROT_OFF;
 1236              		.loc 1 694 5 is_stmt 1 view .LVU275
 1237              		.loc 1 694 32 is_stmt 0 view .LVU276
 1238 000c 4381     		strh	r3, [r0, #10]	@ movhi
 695:Drivers/GD32F30x_standard_peripheral/Source/gd32f30x_timer.c ****     breakpara->breakstate      = TIMER_BREAK_DISABLE;
 1239              		.loc 1 695 5 is_stmt 1 view .LVU277
 1240              		.loc 1 695 32 is_stmt 0 view .LVU278
 1241 000e 8381     		strh	r3, [r0, #12]	@ movhi
 696:Drivers/GD32F30x_standard_peripheral/Source/gd32f30x_timer.c **** }
 1242              		.loc 1 696 1 view .LVU279
 1243 0010 7047     		bx	lr
 1244              		.cfi_endproc
 1245              	.LFE147:
 1247              		.section	.text.timer_break_config,"ax",%progbits
 1248              		.align	1
 1249              		.global	timer_break_config
 1250              		.syntax unified
 1251              		.thumb
 1252              		.thumb_func
 1253              		.fpu fpv4-sp-d16
 1255              	timer_break_config:
 1256              	.LVL77:
 1257              	.LFB148:
 697:Drivers/GD32F30x_standard_peripheral/Source/gd32f30x_timer.c **** 
 698:Drivers/GD32F30x_standard_peripheral/Source/gd32f30x_timer.c **** /*!
 699:Drivers/GD32F30x_standard_peripheral/Source/gd32f30x_timer.c ****     \brief      configure TIMER break function 
 700:Drivers/GD32F30x_standard_peripheral/Source/gd32f30x_timer.c ****     \param[in]  timer_periph: TIMERx(x=0,7)
 701:Drivers/GD32F30x_standard_peripheral/Source/gd32f30x_timer.c ****     \param[in]  breakpara: TIMER break parameter struct
 702:Drivers/GD32F30x_standard_peripheral/Source/gd32f30x_timer.c ****                 runoffstate: TIMER_ROS_STATE_ENABLE,TIMER_ROS_STATE_DISABLE
 703:Drivers/GD32F30x_standard_peripheral/Source/gd32f30x_timer.c ****                 ideloffstate: TIMER_IOS_STATE_ENABLE,TIMER_IOS_STATE_DISABLE
 704:Drivers/GD32F30x_standard_peripheral/Source/gd32f30x_timer.c ****                 deadtime: 0~255
 705:Drivers/GD32F30x_standard_peripheral/Source/gd32f30x_timer.c ****                 breakpolarity: TIMER_BREAK_POLARITY_LOW,TIMER_BREAK_POLARITY_HIGH
 706:Drivers/GD32F30x_standard_peripheral/Source/gd32f30x_timer.c ****                 outputautostate: TIMER_OUTAUTO_ENABLE,TIMER_OUTAUTO_DISABLE
 707:Drivers/GD32F30x_standard_peripheral/Source/gd32f30x_timer.c ****                 protectmode: TIMER_CCHP_PROT_OFF,TIMER_CCHP_PROT_0,TIMER_CCHP_PROT_1,TIMER_CCHP_PRO
 708:Drivers/GD32F30x_standard_peripheral/Source/gd32f30x_timer.c ****                 breakstate: TIMER_BREAK_ENABLE,TIMER_BREAK_DISABLE
 709:Drivers/GD32F30x_standard_peripheral/Source/gd32f30x_timer.c ****     \param[out] none
ARM GAS  C:\Users\Prog\AppData\Local\Temp\ccT8qdHj.s 			page 35


 710:Drivers/GD32F30x_standard_peripheral/Source/gd32f30x_timer.c ****     \retval     none
 711:Drivers/GD32F30x_standard_peripheral/Source/gd32f30x_timer.c **** */
 712:Drivers/GD32F30x_standard_peripheral/Source/gd32f30x_timer.c **** void timer_break_config(uint32_t timer_periph, timer_break_parameter_struct* breakpara)
 713:Drivers/GD32F30x_standard_peripheral/Source/gd32f30x_timer.c **** {
 1258              		.loc 1 713 1 is_stmt 1 view -0
 1259              		.cfi_startproc
 1260              		@ args = 0, pretend = 0, frame = 0
 1261              		@ frame_needed = 0, uses_anonymous_args = 0
 1262              		.loc 1 713 1 is_stmt 0 view .LVU281
 1263 0000 70B5     		push	{r4, r5, r6, lr}
 1264              	.LCFI1:
 1265              		.cfi_def_cfa_offset 16
 1266              		.cfi_offset 4, -16
 1267              		.cfi_offset 5, -12
 1268              		.cfi_offset 6, -8
 1269              		.cfi_offset 14, -4
 714:Drivers/GD32F30x_standard_peripheral/Source/gd32f30x_timer.c ****     TIMER_CCHP(timer_periph) = (uint32_t)(((uint32_t)(breakpara->runoffstate))|
 1270              		.loc 1 714 5 is_stmt 1 view .LVU282
 1271              		.loc 1 714 64 is_stmt 0 view .LVU283
 1272 0002 0D88     		ldrh	r5, [r1]
 715:Drivers/GD32F30x_standard_peripheral/Source/gd32f30x_timer.c ****                                           ((uint32_t)(breakpara->ideloffstate))|
 1273              		.loc 1 715 64 view .LVU284
 1274 0004 4E88     		ldrh	r6, [r1, #2]
 716:Drivers/GD32F30x_standard_peripheral/Source/gd32f30x_timer.c ****                                           ((uint32_t)(breakpara->deadtime))|
 1275              		.loc 1 716 64 view .LVU285
 1276 0006 8C88     		ldrh	r4, [r1, #4]
 717:Drivers/GD32F30x_standard_peripheral/Source/gd32f30x_timer.c ****                                           ((uint32_t)(breakpara->breakpolarity))|
 1277              		.loc 1 717 64 view .LVU286
 1278 0008 B1F806E0 		ldrh	lr, [r1, #6]
 718:Drivers/GD32F30x_standard_peripheral/Source/gd32f30x_timer.c ****                                           ((uint32_t)(breakpara->outputautostate)) |
 1279              		.loc 1 718 64 view .LVU287
 1280 000c B1F808C0 		ldrh	ip, [r1, #8]
 719:Drivers/GD32F30x_standard_peripheral/Source/gd32f30x_timer.c ****                                           ((uint32_t)(breakpara->protectmode))|
 1281              		.loc 1 719 64 view .LVU288
 1282 0010 4A89     		ldrh	r2, [r1, #10]
 720:Drivers/GD32F30x_standard_peripheral/Source/gd32f30x_timer.c ****                                           ((uint32_t)(breakpara->breakstate))) ;
 1283              		.loc 1 720 64 view .LVU289
 1284 0012 8B89     		ldrh	r3, [r1, #12]
 714:Drivers/GD32F30x_standard_peripheral/Source/gd32f30x_timer.c ****                                           ((uint32_t)(breakpara->ideloffstate))|
 1285              		.loc 1 714 32 view .LVU290
 1286 0014 45EA0601 		orr	r1, r5, r6
 1287              	.LVL78:
 714:Drivers/GD32F30x_standard_peripheral/Source/gd32f30x_timer.c ****                                           ((uint32_t)(breakpara->ideloffstate))|
 1288              		.loc 1 714 32 view .LVU291
 1289 0018 2143     		orrs	r1, r1, r4
 1290 001a 4EEA0101 		orr	r1, lr, r1
 1291 001e 4CEA0101 		orr	r1, ip, r1
 1292 0022 0A43     		orrs	r2, r2, r1
 1293 0024 1343     		orrs	r3, r3, r2
 714:Drivers/GD32F30x_standard_peripheral/Source/gd32f30x_timer.c ****                                           ((uint32_t)(breakpara->ideloffstate))|
 1294              		.loc 1 714 30 view .LVU292
 1295 0026 4364     		str	r3, [r0, #68]
 721:Drivers/GD32F30x_standard_peripheral/Source/gd32f30x_timer.c **** }
 1296              		.loc 1 721 1 view .LVU293
 1297 0028 70BD     		pop	{r4, r5, r6, pc}
 1298              		.cfi_endproc
 1299              	.LFE148:
ARM GAS  C:\Users\Prog\AppData\Local\Temp\ccT8qdHj.s 			page 36


 1301              		.section	.text.timer_break_enable,"ax",%progbits
 1302              		.align	1
 1303              		.global	timer_break_enable
 1304              		.syntax unified
 1305              		.thumb
 1306              		.thumb_func
 1307              		.fpu fpv4-sp-d16
 1309              	timer_break_enable:
 1310              	.LVL79:
 1311              	.LFB149:
 722:Drivers/GD32F30x_standard_peripheral/Source/gd32f30x_timer.c **** 
 723:Drivers/GD32F30x_standard_peripheral/Source/gd32f30x_timer.c **** /*!
 724:Drivers/GD32F30x_standard_peripheral/Source/gd32f30x_timer.c ****     \brief      enable TIMER break function
 725:Drivers/GD32F30x_standard_peripheral/Source/gd32f30x_timer.c ****     \param[in]  timer_periph: TIMERx(x=0,7)
 726:Drivers/GD32F30x_standard_peripheral/Source/gd32f30x_timer.c ****     \param[out] none
 727:Drivers/GD32F30x_standard_peripheral/Source/gd32f30x_timer.c ****     \retval     none
 728:Drivers/GD32F30x_standard_peripheral/Source/gd32f30x_timer.c **** */
 729:Drivers/GD32F30x_standard_peripheral/Source/gd32f30x_timer.c **** void timer_break_enable(uint32_t timer_periph)
 730:Drivers/GD32F30x_standard_peripheral/Source/gd32f30x_timer.c **** {
 1312              		.loc 1 730 1 is_stmt 1 view -0
 1313              		.cfi_startproc
 1314              		@ args = 0, pretend = 0, frame = 0
 1315              		@ frame_needed = 0, uses_anonymous_args = 0
 1316              		@ link register save eliminated.
 731:Drivers/GD32F30x_standard_peripheral/Source/gd32f30x_timer.c ****     TIMER_CCHP(timer_periph) |= (uint32_t)TIMER_CCHP_BRKEN;
 1317              		.loc 1 731 5 view .LVU295
 1318              		.loc 1 731 30 is_stmt 0 view .LVU296
 1319 0000 436C     		ldr	r3, [r0, #68]
 1320 0002 43F48053 		orr	r3, r3, #4096
 1321 0006 4364     		str	r3, [r0, #68]
 732:Drivers/GD32F30x_standard_peripheral/Source/gd32f30x_timer.c **** }
 1322              		.loc 1 732 1 view .LVU297
 1323 0008 7047     		bx	lr
 1324              		.cfi_endproc
 1325              	.LFE149:
 1327              		.section	.text.timer_break_disable,"ax",%progbits
 1328              		.align	1
 1329              		.global	timer_break_disable
 1330              		.syntax unified
 1331              		.thumb
 1332              		.thumb_func
 1333              		.fpu fpv4-sp-d16
 1335              	timer_break_disable:
 1336              	.LVL80:
 1337              	.LFB150:
 733:Drivers/GD32F30x_standard_peripheral/Source/gd32f30x_timer.c **** 
 734:Drivers/GD32F30x_standard_peripheral/Source/gd32f30x_timer.c **** /*!
 735:Drivers/GD32F30x_standard_peripheral/Source/gd32f30x_timer.c ****     \brief      disable TIMER break function
 736:Drivers/GD32F30x_standard_peripheral/Source/gd32f30x_timer.c ****     \param[in]  timer_periph: TIMERx(x=0,7)
 737:Drivers/GD32F30x_standard_peripheral/Source/gd32f30x_timer.c ****     \param[out] none
 738:Drivers/GD32F30x_standard_peripheral/Source/gd32f30x_timer.c ****     \retval     none
 739:Drivers/GD32F30x_standard_peripheral/Source/gd32f30x_timer.c **** */
 740:Drivers/GD32F30x_standard_peripheral/Source/gd32f30x_timer.c **** void timer_break_disable(uint32_t timer_periph)
 741:Drivers/GD32F30x_standard_peripheral/Source/gd32f30x_timer.c **** {
 1338              		.loc 1 741 1 is_stmt 1 view -0
 1339              		.cfi_startproc
 1340              		@ args = 0, pretend = 0, frame = 0
ARM GAS  C:\Users\Prog\AppData\Local\Temp\ccT8qdHj.s 			page 37


 1341              		@ frame_needed = 0, uses_anonymous_args = 0
 1342              		@ link register save eliminated.
 742:Drivers/GD32F30x_standard_peripheral/Source/gd32f30x_timer.c ****     TIMER_CCHP(timer_periph) &= ~(uint32_t)TIMER_CCHP_BRKEN;
 1343              		.loc 1 742 5 view .LVU299
 1344              		.loc 1 742 30 is_stmt 0 view .LVU300
 1345 0000 436C     		ldr	r3, [r0, #68]
 1346 0002 23F48053 		bic	r3, r3, #4096
 1347 0006 4364     		str	r3, [r0, #68]
 743:Drivers/GD32F30x_standard_peripheral/Source/gd32f30x_timer.c **** }
 1348              		.loc 1 743 1 view .LVU301
 1349 0008 7047     		bx	lr
 1350              		.cfi_endproc
 1351              	.LFE150:
 1353              		.section	.text.timer_automatic_output_enable,"ax",%progbits
 1354              		.align	1
 1355              		.global	timer_automatic_output_enable
 1356              		.syntax unified
 1357              		.thumb
 1358              		.thumb_func
 1359              		.fpu fpv4-sp-d16
 1361              	timer_automatic_output_enable:
 1362              	.LVL81:
 1363              	.LFB151:
 744:Drivers/GD32F30x_standard_peripheral/Source/gd32f30x_timer.c **** 
 745:Drivers/GD32F30x_standard_peripheral/Source/gd32f30x_timer.c **** /*!
 746:Drivers/GD32F30x_standard_peripheral/Source/gd32f30x_timer.c ****     \brief      enable TIMER output automatic function
 747:Drivers/GD32F30x_standard_peripheral/Source/gd32f30x_timer.c ****     \param[in]  timer_periph: TIMERx(x=0,7)
 748:Drivers/GD32F30x_standard_peripheral/Source/gd32f30x_timer.c ****     \param[out] none
 749:Drivers/GD32F30x_standard_peripheral/Source/gd32f30x_timer.c ****     \retval     none
 750:Drivers/GD32F30x_standard_peripheral/Source/gd32f30x_timer.c **** */
 751:Drivers/GD32F30x_standard_peripheral/Source/gd32f30x_timer.c **** void timer_automatic_output_enable(uint32_t timer_periph)
 752:Drivers/GD32F30x_standard_peripheral/Source/gd32f30x_timer.c **** {
 1364              		.loc 1 752 1 is_stmt 1 view -0
 1365              		.cfi_startproc
 1366              		@ args = 0, pretend = 0, frame = 0
 1367              		@ frame_needed = 0, uses_anonymous_args = 0
 1368              		@ link register save eliminated.
 753:Drivers/GD32F30x_standard_peripheral/Source/gd32f30x_timer.c ****     TIMER_CCHP(timer_periph) |= (uint32_t)TIMER_CCHP_OAEN;
 1369              		.loc 1 753 5 view .LVU303
 1370              		.loc 1 753 30 is_stmt 0 view .LVU304
 1371 0000 436C     		ldr	r3, [r0, #68]
 1372 0002 43F48043 		orr	r3, r3, #16384
 1373 0006 4364     		str	r3, [r0, #68]
 754:Drivers/GD32F30x_standard_peripheral/Source/gd32f30x_timer.c **** }
 1374              		.loc 1 754 1 view .LVU305
 1375 0008 7047     		bx	lr
 1376              		.cfi_endproc
 1377              	.LFE151:
 1379              		.section	.text.timer_automatic_output_disable,"ax",%progbits
 1380              		.align	1
 1381              		.global	timer_automatic_output_disable
 1382              		.syntax unified
 1383              		.thumb
 1384              		.thumb_func
 1385              		.fpu fpv4-sp-d16
 1387              	timer_automatic_output_disable:
 1388              	.LVL82:
ARM GAS  C:\Users\Prog\AppData\Local\Temp\ccT8qdHj.s 			page 38


 1389              	.LFB152:
 755:Drivers/GD32F30x_standard_peripheral/Source/gd32f30x_timer.c **** 
 756:Drivers/GD32F30x_standard_peripheral/Source/gd32f30x_timer.c **** /*!
 757:Drivers/GD32F30x_standard_peripheral/Source/gd32f30x_timer.c ****     \brief      disable TIMER output automatic function
 758:Drivers/GD32F30x_standard_peripheral/Source/gd32f30x_timer.c ****     \param[in]  timer_periph: TIMERx(x=0,7)
 759:Drivers/GD32F30x_standard_peripheral/Source/gd32f30x_timer.c ****     \param[out] none
 760:Drivers/GD32F30x_standard_peripheral/Source/gd32f30x_timer.c ****     \retval     none
 761:Drivers/GD32F30x_standard_peripheral/Source/gd32f30x_timer.c **** */
 762:Drivers/GD32F30x_standard_peripheral/Source/gd32f30x_timer.c **** void timer_automatic_output_disable(uint32_t timer_periph)
 763:Drivers/GD32F30x_standard_peripheral/Source/gd32f30x_timer.c **** {
 1390              		.loc 1 763 1 is_stmt 1 view -0
 1391              		.cfi_startproc
 1392              		@ args = 0, pretend = 0, frame = 0
 1393              		@ frame_needed = 0, uses_anonymous_args = 0
 1394              		@ link register save eliminated.
 764:Drivers/GD32F30x_standard_peripheral/Source/gd32f30x_timer.c ****     TIMER_CCHP(timer_periph) &= ~(uint32_t)TIMER_CCHP_OAEN;
 1395              		.loc 1 764 5 view .LVU307
 1396              		.loc 1 764 30 is_stmt 0 view .LVU308
 1397 0000 436C     		ldr	r3, [r0, #68]
 1398 0002 23F48043 		bic	r3, r3, #16384
 1399 0006 4364     		str	r3, [r0, #68]
 765:Drivers/GD32F30x_standard_peripheral/Source/gd32f30x_timer.c **** }
 1400              		.loc 1 765 1 view .LVU309
 1401 0008 7047     		bx	lr
 1402              		.cfi_endproc
 1403              	.LFE152:
 1405              		.section	.text.timer_primary_output_config,"ax",%progbits
 1406              		.align	1
 1407              		.global	timer_primary_output_config
 1408              		.syntax unified
 1409              		.thumb
 1410              		.thumb_func
 1411              		.fpu fpv4-sp-d16
 1413              	timer_primary_output_config:
 1414              	.LVL83:
 1415              	.LFB153:
 766:Drivers/GD32F30x_standard_peripheral/Source/gd32f30x_timer.c **** 
 767:Drivers/GD32F30x_standard_peripheral/Source/gd32f30x_timer.c **** /*!
 768:Drivers/GD32F30x_standard_peripheral/Source/gd32f30x_timer.c ****     \brief      configure TIMER primary output function
 769:Drivers/GD32F30x_standard_peripheral/Source/gd32f30x_timer.c ****     \param[in]  timer_periph: TIMERx(x=0,7)
 770:Drivers/GD32F30x_standard_peripheral/Source/gd32f30x_timer.c ****     \param[in]  newvalue: ENABLE or DISABLE
 771:Drivers/GD32F30x_standard_peripheral/Source/gd32f30x_timer.c ****     \param[out] none
 772:Drivers/GD32F30x_standard_peripheral/Source/gd32f30x_timer.c ****     \retval     none
 773:Drivers/GD32F30x_standard_peripheral/Source/gd32f30x_timer.c **** */
 774:Drivers/GD32F30x_standard_peripheral/Source/gd32f30x_timer.c **** void timer_primary_output_config(uint32_t timer_periph, ControlStatus newvalue)
 775:Drivers/GD32F30x_standard_peripheral/Source/gd32f30x_timer.c **** {
 1416              		.loc 1 775 1 is_stmt 1 view -0
 1417              		.cfi_startproc
 1418              		@ args = 0, pretend = 0, frame = 0
 1419              		@ frame_needed = 0, uses_anonymous_args = 0
 1420              		@ link register save eliminated.
 776:Drivers/GD32F30x_standard_peripheral/Source/gd32f30x_timer.c ****     if(ENABLE == newvalue){
 1421              		.loc 1 776 5 view .LVU311
 1422              		.loc 1 776 7 is_stmt 0 view .LVU312
 1423 0000 0129     		cmp	r1, #1
 1424 0002 04D0     		beq	.L80
 777:Drivers/GD32F30x_standard_peripheral/Source/gd32f30x_timer.c ****         TIMER_CCHP(timer_periph) |= (uint32_t)TIMER_CCHP_POEN;
ARM GAS  C:\Users\Prog\AppData\Local\Temp\ccT8qdHj.s 			page 39


 778:Drivers/GD32F30x_standard_peripheral/Source/gd32f30x_timer.c ****     }else{
 779:Drivers/GD32F30x_standard_peripheral/Source/gd32f30x_timer.c ****         TIMER_CCHP(timer_periph) &= (~(uint32_t)TIMER_CCHP_POEN);
 1425              		.loc 1 779 9 is_stmt 1 view .LVU313
 1426              		.loc 1 779 34 is_stmt 0 view .LVU314
 1427 0004 436C     		ldr	r3, [r0, #68]
 1428 0006 23F40043 		bic	r3, r3, #32768
 1429 000a 4364     		str	r3, [r0, #68]
 780:Drivers/GD32F30x_standard_peripheral/Source/gd32f30x_timer.c ****     }
 781:Drivers/GD32F30x_standard_peripheral/Source/gd32f30x_timer.c **** }
 1430              		.loc 1 781 1 view .LVU315
 1431 000c 7047     		bx	lr
 1432              	.L80:
 777:Drivers/GD32F30x_standard_peripheral/Source/gd32f30x_timer.c ****         TIMER_CCHP(timer_periph) |= (uint32_t)TIMER_CCHP_POEN;
 1433              		.loc 1 777 9 is_stmt 1 view .LVU316
 777:Drivers/GD32F30x_standard_peripheral/Source/gd32f30x_timer.c ****         TIMER_CCHP(timer_periph) |= (uint32_t)TIMER_CCHP_POEN;
 1434              		.loc 1 777 34 is_stmt 0 view .LVU317
 1435 000e 436C     		ldr	r3, [r0, #68]
 1436 0010 43F40043 		orr	r3, r3, #32768
 1437 0014 4364     		str	r3, [r0, #68]
 1438 0016 7047     		bx	lr
 1439              		.cfi_endproc
 1440              	.LFE153:
 1442              		.section	.text.timer_channel_control_shadow_config,"ax",%progbits
 1443              		.align	1
 1444              		.global	timer_channel_control_shadow_config
 1445              		.syntax unified
 1446              		.thumb
 1447              		.thumb_func
 1448              		.fpu fpv4-sp-d16
 1450              	timer_channel_control_shadow_config:
 1451              	.LVL84:
 1452              	.LFB154:
 782:Drivers/GD32F30x_standard_peripheral/Source/gd32f30x_timer.c **** 
 783:Drivers/GD32F30x_standard_peripheral/Source/gd32f30x_timer.c **** /*!
 784:Drivers/GD32F30x_standard_peripheral/Source/gd32f30x_timer.c ****     \brief      enable or disable channel capture/compare control shadow register
 785:Drivers/GD32F30x_standard_peripheral/Source/gd32f30x_timer.c ****     \param[in]  timer_periph: TIMERx(x=0,7)
 786:Drivers/GD32F30x_standard_peripheral/Source/gd32f30x_timer.c ****     \param[in]  newvalue: ENABLE or DISABLE 
 787:Drivers/GD32F30x_standard_peripheral/Source/gd32f30x_timer.c ****     \param[out] none
 788:Drivers/GD32F30x_standard_peripheral/Source/gd32f30x_timer.c ****     \retval     none
 789:Drivers/GD32F30x_standard_peripheral/Source/gd32f30x_timer.c **** */
 790:Drivers/GD32F30x_standard_peripheral/Source/gd32f30x_timer.c **** void timer_channel_control_shadow_config(uint32_t timer_periph, ControlStatus newvalue)
 791:Drivers/GD32F30x_standard_peripheral/Source/gd32f30x_timer.c **** {
 1453              		.loc 1 791 1 is_stmt 1 view -0
 1454              		.cfi_startproc
 1455              		@ args = 0, pretend = 0, frame = 0
 1456              		@ frame_needed = 0, uses_anonymous_args = 0
 1457              		@ link register save eliminated.
 792:Drivers/GD32F30x_standard_peripheral/Source/gd32f30x_timer.c ****      if(ENABLE == newvalue){
 1458              		.loc 1 792 6 view .LVU319
 1459              		.loc 1 792 8 is_stmt 0 view .LVU320
 1460 0000 0129     		cmp	r1, #1
 1461 0002 04D0     		beq	.L84
 793:Drivers/GD32F30x_standard_peripheral/Source/gd32f30x_timer.c ****         TIMER_CTL1(timer_periph) |= (uint32_t)TIMER_CTL1_CCSE;
 794:Drivers/GD32F30x_standard_peripheral/Source/gd32f30x_timer.c ****     }else{
 795:Drivers/GD32F30x_standard_peripheral/Source/gd32f30x_timer.c ****         TIMER_CTL1(timer_periph) &= (~(uint32_t)TIMER_CTL1_CCSE);
 1462              		.loc 1 795 9 is_stmt 1 view .LVU321
 1463              		.loc 1 795 34 is_stmt 0 view .LVU322
ARM GAS  C:\Users\Prog\AppData\Local\Temp\ccT8qdHj.s 			page 40


 1464 0004 4368     		ldr	r3, [r0, #4]
 1465 0006 23F00103 		bic	r3, r3, #1
 1466 000a 4360     		str	r3, [r0, #4]
 796:Drivers/GD32F30x_standard_peripheral/Source/gd32f30x_timer.c ****     }
 797:Drivers/GD32F30x_standard_peripheral/Source/gd32f30x_timer.c **** }
 1467              		.loc 1 797 1 view .LVU323
 1468 000c 7047     		bx	lr
 1469              	.L84:
 793:Drivers/GD32F30x_standard_peripheral/Source/gd32f30x_timer.c ****         TIMER_CTL1(timer_periph) |= (uint32_t)TIMER_CTL1_CCSE;
 1470              		.loc 1 793 9 is_stmt 1 view .LVU324
 793:Drivers/GD32F30x_standard_peripheral/Source/gd32f30x_timer.c ****         TIMER_CTL1(timer_periph) |= (uint32_t)TIMER_CTL1_CCSE;
 1471              		.loc 1 793 34 is_stmt 0 view .LVU325
 1472 000e 4368     		ldr	r3, [r0, #4]
 1473 0010 43F00103 		orr	r3, r3, #1
 1474 0014 4360     		str	r3, [r0, #4]
 1475 0016 7047     		bx	lr
 1476              		.cfi_endproc
 1477              	.LFE154:
 1479              		.section	.text.timer_channel_control_shadow_update_config,"ax",%progbits
 1480              		.align	1
 1481              		.global	timer_channel_control_shadow_update_config
 1482              		.syntax unified
 1483              		.thumb
 1484              		.thumb_func
 1485              		.fpu fpv4-sp-d16
 1487              	timer_channel_control_shadow_update_config:
 1488              	.LVL85:
 1489              	.LFB155:
 798:Drivers/GD32F30x_standard_peripheral/Source/gd32f30x_timer.c **** 
 799:Drivers/GD32F30x_standard_peripheral/Source/gd32f30x_timer.c **** /*!
 800:Drivers/GD32F30x_standard_peripheral/Source/gd32f30x_timer.c ****     \brief      configure TIMER channel control shadow register update control
 801:Drivers/GD32F30x_standard_peripheral/Source/gd32f30x_timer.c ****     \param[in]  timer_periph: TIMERx(x=0,7)
 802:Drivers/GD32F30x_standard_peripheral/Source/gd32f30x_timer.c ****     \param[in]  ccuctl: channel control shadow register update control
 803:Drivers/GD32F30x_standard_peripheral/Source/gd32f30x_timer.c ****                 only one parameter can be selected which is shown as below:
 804:Drivers/GD32F30x_standard_peripheral/Source/gd32f30x_timer.c ****       \arg        TIMER_UPDATECTL_CCU: the shadow registers update by when CMTG bit is set
 805:Drivers/GD32F30x_standard_peripheral/Source/gd32f30x_timer.c ****       \arg        TIMER_UPDATECTL_CCUTRI: the shadow registers update by when CMTG bit is set or an
 806:Drivers/GD32F30x_standard_peripheral/Source/gd32f30x_timer.c ****     \param[out] none
 807:Drivers/GD32F30x_standard_peripheral/Source/gd32f30x_timer.c ****     \retval     none
 808:Drivers/GD32F30x_standard_peripheral/Source/gd32f30x_timer.c **** */              
 809:Drivers/GD32F30x_standard_peripheral/Source/gd32f30x_timer.c **** void timer_channel_control_shadow_update_config(uint32_t timer_periph, uint8_t ccuctl)
 810:Drivers/GD32F30x_standard_peripheral/Source/gd32f30x_timer.c **** {
 1490              		.loc 1 810 1 is_stmt 1 view -0
 1491              		.cfi_startproc
 1492              		@ args = 0, pretend = 0, frame = 0
 1493              		@ frame_needed = 0, uses_anonymous_args = 0
 1494              		@ link register save eliminated.
 811:Drivers/GD32F30x_standard_peripheral/Source/gd32f30x_timer.c ****     if(TIMER_UPDATECTL_CCU == ccuctl){
 1495              		.loc 1 811 5 view .LVU327
 1496              		.loc 1 811 7 is_stmt 0 view .LVU328
 1497 0000 21B9     		cbnz	r1, .L86
 812:Drivers/GD32F30x_standard_peripheral/Source/gd32f30x_timer.c ****         TIMER_CTL1(timer_periph) &= (~(uint32_t)TIMER_CTL1_CCUC);
 1498              		.loc 1 812 9 is_stmt 1 view .LVU329
 1499              		.loc 1 812 34 is_stmt 0 view .LVU330
 1500 0002 4368     		ldr	r3, [r0, #4]
 1501 0004 23F00403 		bic	r3, r3, #4
 1502 0008 4360     		str	r3, [r0, #4]
 1503 000a 7047     		bx	lr
ARM GAS  C:\Users\Prog\AppData\Local\Temp\ccT8qdHj.s 			page 41


 1504              	.L86:
 813:Drivers/GD32F30x_standard_peripheral/Source/gd32f30x_timer.c ****     }else if(TIMER_UPDATECTL_CCUTRI == ccuctl){
 1505              		.loc 1 813 11 is_stmt 1 view .LVU331
 1506              		.loc 1 813 13 is_stmt 0 view .LVU332
 1507 000c 0129     		cmp	r1, #1
 1508 000e 00D0     		beq	.L88
 1509              	.L85:
 814:Drivers/GD32F30x_standard_peripheral/Source/gd32f30x_timer.c ****         TIMER_CTL1(timer_periph) |= (uint32_t)TIMER_CTL1_CCUC;
 815:Drivers/GD32F30x_standard_peripheral/Source/gd32f30x_timer.c ****     }else{
 816:Drivers/GD32F30x_standard_peripheral/Source/gd32f30x_timer.c ****         /* illegal parameters */
 817:Drivers/GD32F30x_standard_peripheral/Source/gd32f30x_timer.c ****     }
 818:Drivers/GD32F30x_standard_peripheral/Source/gd32f30x_timer.c **** }
 1510              		.loc 1 818 1 view .LVU333
 1511 0010 7047     		bx	lr
 1512              	.L88:
 814:Drivers/GD32F30x_standard_peripheral/Source/gd32f30x_timer.c ****         TIMER_CTL1(timer_periph) |= (uint32_t)TIMER_CTL1_CCUC;
 1513              		.loc 1 814 9 is_stmt 1 view .LVU334
 814:Drivers/GD32F30x_standard_peripheral/Source/gd32f30x_timer.c ****         TIMER_CTL1(timer_periph) |= (uint32_t)TIMER_CTL1_CCUC;
 1514              		.loc 1 814 34 is_stmt 0 view .LVU335
 1515 0012 4368     		ldr	r3, [r0, #4]
 1516 0014 43F00403 		orr	r3, r3, #4
 1517 0018 4360     		str	r3, [r0, #4]
 817:Drivers/GD32F30x_standard_peripheral/Source/gd32f30x_timer.c **** }
 1518              		.loc 1 817 5 is_stmt 1 view .LVU336
 1519              		.loc 1 818 1 is_stmt 0 view .LVU337
 1520 001a F9E7     		b	.L85
 1521              		.cfi_endproc
 1522              	.LFE155:
 1524              		.section	.text.timer_channel_output_struct_para_init,"ax",%progbits
 1525              		.align	1
 1526              		.global	timer_channel_output_struct_para_init
 1527              		.syntax unified
 1528              		.thumb
 1529              		.thumb_func
 1530              		.fpu fpv4-sp-d16
 1532              	timer_channel_output_struct_para_init:
 1533              	.LVL86:
 1534              	.LFB156:
 819:Drivers/GD32F30x_standard_peripheral/Source/gd32f30x_timer.c **** 
 820:Drivers/GD32F30x_standard_peripheral/Source/gd32f30x_timer.c **** /*!
 821:Drivers/GD32F30x_standard_peripheral/Source/gd32f30x_timer.c ****     \brief      initialize TIMER channel output parameter struct with a default value
 822:Drivers/GD32F30x_standard_peripheral/Source/gd32f30x_timer.c ****     \param[in]  ocpara: TIMER channel n output parameter struct
 823:Drivers/GD32F30x_standard_peripheral/Source/gd32f30x_timer.c ****     \param[out] none
 824:Drivers/GD32F30x_standard_peripheral/Source/gd32f30x_timer.c ****     \retval     none
 825:Drivers/GD32F30x_standard_peripheral/Source/gd32f30x_timer.c **** */
 826:Drivers/GD32F30x_standard_peripheral/Source/gd32f30x_timer.c **** void timer_channel_output_struct_para_init(timer_oc_parameter_struct* ocpara)
 827:Drivers/GD32F30x_standard_peripheral/Source/gd32f30x_timer.c **** {
 1535              		.loc 1 827 1 is_stmt 1 view -0
 1536              		.cfi_startproc
 1537              		@ args = 0, pretend = 0, frame = 0
 1538              		@ frame_needed = 0, uses_anonymous_args = 0
 1539              		@ link register save eliminated.
 828:Drivers/GD32F30x_standard_peripheral/Source/gd32f30x_timer.c ****     /* initialize the channel output parameter struct member with the default value */
 829:Drivers/GD32F30x_standard_peripheral/Source/gd32f30x_timer.c ****     ocpara->outputstate  = (uint16_t)TIMER_CCX_DISABLE;
 1540              		.loc 1 829 5 view .LVU339
 1541              		.loc 1 829 26 is_stmt 0 view .LVU340
 1542 0000 0023     		movs	r3, #0
ARM GAS  C:\Users\Prog\AppData\Local\Temp\ccT8qdHj.s 			page 42


 1543 0002 0380     		strh	r3, [r0]	@ movhi
 830:Drivers/GD32F30x_standard_peripheral/Source/gd32f30x_timer.c ****     ocpara->outputnstate = TIMER_CCXN_DISABLE;
 1544              		.loc 1 830 5 is_stmt 1 view .LVU341
 1545              		.loc 1 830 26 is_stmt 0 view .LVU342
 1546 0004 4380     		strh	r3, [r0, #2]	@ movhi
 831:Drivers/GD32F30x_standard_peripheral/Source/gd32f30x_timer.c ****     ocpara->ocpolarity   = TIMER_OC_POLARITY_HIGH;
 1547              		.loc 1 831 5 is_stmt 1 view .LVU343
 1548              		.loc 1 831 26 is_stmt 0 view .LVU344
 1549 0006 8380     		strh	r3, [r0, #4]	@ movhi
 832:Drivers/GD32F30x_standard_peripheral/Source/gd32f30x_timer.c ****     ocpara->ocnpolarity  = TIMER_OCN_POLARITY_HIGH;
 1550              		.loc 1 832 5 is_stmt 1 view .LVU345
 1551              		.loc 1 832 26 is_stmt 0 view .LVU346
 1552 0008 C380     		strh	r3, [r0, #6]	@ movhi
 833:Drivers/GD32F30x_standard_peripheral/Source/gd32f30x_timer.c ****     ocpara->ocidlestate  = TIMER_OC_IDLE_STATE_LOW;
 1553              		.loc 1 833 5 is_stmt 1 view .LVU347
 1554              		.loc 1 833 26 is_stmt 0 view .LVU348
 1555 000a 0381     		strh	r3, [r0, #8]	@ movhi
 834:Drivers/GD32F30x_standard_peripheral/Source/gd32f30x_timer.c ****     ocpara->ocnidlestate = TIMER_OCN_IDLE_STATE_LOW;
 1556              		.loc 1 834 5 is_stmt 1 view .LVU349
 1557              		.loc 1 834 26 is_stmt 0 view .LVU350
 1558 000c 4381     		strh	r3, [r0, #10]	@ movhi
 835:Drivers/GD32F30x_standard_peripheral/Source/gd32f30x_timer.c **** }
 1559              		.loc 1 835 1 view .LVU351
 1560 000e 7047     		bx	lr
 1561              		.cfi_endproc
 1562              	.LFE156:
 1564              		.section	.text.timer_channel_output_config,"ax",%progbits
 1565              		.align	1
 1566              		.global	timer_channel_output_config
 1567              		.syntax unified
 1568              		.thumb
 1569              		.thumb_func
 1570              		.fpu fpv4-sp-d16
 1572              	timer_channel_output_config:
 1573              	.LVL87:
 1574              	.LFB157:
 836:Drivers/GD32F30x_standard_peripheral/Source/gd32f30x_timer.c **** 
 837:Drivers/GD32F30x_standard_peripheral/Source/gd32f30x_timer.c **** /*!
 838:Drivers/GD32F30x_standard_peripheral/Source/gd32f30x_timer.c ****     \brief      configure TIMER channel output function
 839:Drivers/GD32F30x_standard_peripheral/Source/gd32f30x_timer.c ****     \param[in]  timer_periph: please refer to the following parameters
 840:Drivers/GD32F30x_standard_peripheral/Source/gd32f30x_timer.c ****     \param[in]  channel:
 841:Drivers/GD32F30x_standard_peripheral/Source/gd32f30x_timer.c ****                 only one parameter can be selected which is shown as below:
 842:Drivers/GD32F30x_standard_peripheral/Source/gd32f30x_timer.c ****       \arg        TIMER_CH_0: TIMER channel 0(TIMERx(x=0..4,7..13))
 843:Drivers/GD32F30x_standard_peripheral/Source/gd32f30x_timer.c ****       \arg        TIMER_CH_1: TIMER channel 1(TIMERx(x=0..4,7,8,11))
 844:Drivers/GD32F30x_standard_peripheral/Source/gd32f30x_timer.c ****       \arg        TIMER_CH_2: TIMER channel 2(TIMERx(x=0..4,7))
 845:Drivers/GD32F30x_standard_peripheral/Source/gd32f30x_timer.c ****       \arg        TIMER_CH_3: TIMER channel 3(TIMERx(x=0..4,7))
 846:Drivers/GD32F30x_standard_peripheral/Source/gd32f30x_timer.c ****     \param[in]  ocpara: TIMER channeln output parameter struct
 847:Drivers/GD32F30x_standard_peripheral/Source/gd32f30x_timer.c ****                 outputstate: TIMER_CCX_ENABLE,TIMER_CCX_DISABLE
 848:Drivers/GD32F30x_standard_peripheral/Source/gd32f30x_timer.c ****                 outputnstate: TIMER_CCXN_ENABLE,TIMER_CCXN_DISABLE
 849:Drivers/GD32F30x_standard_peripheral/Source/gd32f30x_timer.c ****                 ocpolarity: TIMER_OC_POLARITY_HIGH,TIMER_OC_POLARITY_LOW
 850:Drivers/GD32F30x_standard_peripheral/Source/gd32f30x_timer.c ****                 ocnpolarity: TIMER_OCN_POLARITY_HIGH,TIMER_OCN_POLARITY_LOW
 851:Drivers/GD32F30x_standard_peripheral/Source/gd32f30x_timer.c ****                 ocidlestate: TIMER_OC_IDLE_STATE_LOW,TIMER_OC_IDLE_STATE_HIGH
 852:Drivers/GD32F30x_standard_peripheral/Source/gd32f30x_timer.c ****                 ocnidlestate: TIMER_OCN_IDLE_STATE_LOW,TIMER_OCN_IDLE_STATE_HIGH
 853:Drivers/GD32F30x_standard_peripheral/Source/gd32f30x_timer.c ****     \param[out] none
 854:Drivers/GD32F30x_standard_peripheral/Source/gd32f30x_timer.c ****     \retval     none
 855:Drivers/GD32F30x_standard_peripheral/Source/gd32f30x_timer.c **** */
 856:Drivers/GD32F30x_standard_peripheral/Source/gd32f30x_timer.c **** void timer_channel_output_config(uint32_t timer_periph, uint16_t channel, timer_oc_parameter_struct
ARM GAS  C:\Users\Prog\AppData\Local\Temp\ccT8qdHj.s 			page 43


 857:Drivers/GD32F30x_standard_peripheral/Source/gd32f30x_timer.c **** {
 1575              		.loc 1 857 1 is_stmt 1 view -0
 1576              		.cfi_startproc
 1577              		@ args = 0, pretend = 0, frame = 0
 1578              		@ frame_needed = 0, uses_anonymous_args = 0
 1579              		@ link register save eliminated.
 858:Drivers/GD32F30x_standard_peripheral/Source/gd32f30x_timer.c ****     switch(channel){
 1580              		.loc 1 858 5 view .LVU353
 1581 0000 0329     		cmp	r1, #3
 1582 0002 00F2EE80 		bhi	.L90
 1583 0006 DFE811F0 		tbh	[pc, r1, lsl #1]
 1584              	.L93:
 1585 000a 0400     		.2byte	(.L96-.L93)/2
 1586 000c 4100     		.2byte	(.L95-.L93)/2
 1587 000e 8400     		.2byte	(.L94-.L93)/2
 1588 0010 C600     		.2byte	(.L92-.L93)/2
 1589              		.p2align 1
 1590              	.L96:
 859:Drivers/GD32F30x_standard_peripheral/Source/gd32f30x_timer.c ****     /* configure TIMER_CH_0 */
 860:Drivers/GD32F30x_standard_peripheral/Source/gd32f30x_timer.c ****     case TIMER_CH_0:
 861:Drivers/GD32F30x_standard_peripheral/Source/gd32f30x_timer.c ****         /* reset the CH0EN bit */
 862:Drivers/GD32F30x_standard_peripheral/Source/gd32f30x_timer.c ****         TIMER_CHCTL2(timer_periph) &= (~(uint32_t)TIMER_CHCTL2_CH0EN);
 1591              		.loc 1 862 9 view .LVU354
 1592              		.loc 1 862 36 is_stmt 0 view .LVU355
 1593 0012 036A     		ldr	r3, [r0, #32]
 1594 0014 23F00103 		bic	r3, r3, #1
 1595 0018 0362     		str	r3, [r0, #32]
 863:Drivers/GD32F30x_standard_peripheral/Source/gd32f30x_timer.c ****         TIMER_CHCTL0(timer_periph) &= ~(uint32_t)TIMER_CHCTL0_CH0MS;
 1596              		.loc 1 863 9 is_stmt 1 view .LVU356
 1597              		.loc 1 863 36 is_stmt 0 view .LVU357
 1598 001a 8369     		ldr	r3, [r0, #24]
 1599 001c 23F00303 		bic	r3, r3, #3
 1600 0020 8361     		str	r3, [r0, #24]
 864:Drivers/GD32F30x_standard_peripheral/Source/gd32f30x_timer.c ****         /* set the CH0EN bit */
 865:Drivers/GD32F30x_standard_peripheral/Source/gd32f30x_timer.c ****         TIMER_CHCTL2(timer_periph) |= (uint32_t)ocpara->outputstate;
 1601              		.loc 1 865 9 is_stmt 1 view .LVU358
 1602              		.loc 1 865 36 is_stmt 0 view .LVU359
 1603 0022 036A     		ldr	r3, [r0, #32]
 1604              		.loc 1 865 55 view .LVU360
 1605 0024 1188     		ldrh	r1, [r2]
 1606              	.LVL88:
 1607              		.loc 1 865 36 view .LVU361
 1608 0026 0B43     		orrs	r3, r3, r1
 1609 0028 0362     		str	r3, [r0, #32]
 866:Drivers/GD32F30x_standard_peripheral/Source/gd32f30x_timer.c ****         /* reset the CH0P bit */
 867:Drivers/GD32F30x_standard_peripheral/Source/gd32f30x_timer.c ****         TIMER_CHCTL2(timer_periph) &= (~(uint32_t)TIMER_CHCTL2_CH0P);
 1610              		.loc 1 867 9 is_stmt 1 view .LVU362
 1611              		.loc 1 867 36 is_stmt 0 view .LVU363
 1612 002a 036A     		ldr	r3, [r0, #32]
 1613 002c 23F00203 		bic	r3, r3, #2
 1614 0030 0362     		str	r3, [r0, #32]
 868:Drivers/GD32F30x_standard_peripheral/Source/gd32f30x_timer.c ****         /* set the CH0P bit */
 869:Drivers/GD32F30x_standard_peripheral/Source/gd32f30x_timer.c ****         TIMER_CHCTL2(timer_periph) |= (uint32_t)ocpara->ocpolarity;
 1615              		.loc 1 869 9 is_stmt 1 view .LVU364
 1616              		.loc 1 869 36 is_stmt 0 view .LVU365
 1617 0032 036A     		ldr	r3, [r0, #32]
 1618              		.loc 1 869 55 view .LVU366
ARM GAS  C:\Users\Prog\AppData\Local\Temp\ccT8qdHj.s 			page 44


 1619 0034 9188     		ldrh	r1, [r2, #4]
 1620              		.loc 1 869 36 view .LVU367
 1621 0036 0B43     		orrs	r3, r3, r1
 1622 0038 0362     		str	r3, [r0, #32]
 870:Drivers/GD32F30x_standard_peripheral/Source/gd32f30x_timer.c **** 
 871:Drivers/GD32F30x_standard_peripheral/Source/gd32f30x_timer.c ****         if((TIMER0 == timer_periph) || (TIMER7 == timer_periph)){
 1623              		.loc 1 871 9 is_stmt 1 view .LVU368
 1624              		.loc 1 871 11 is_stmt 0 view .LVU369
 1625 003a 6A4B     		ldr	r3, .L101
 1626 003c 9842     		cmp	r0, r3
 1627 003e 04D0     		beq	.L97
 1628              		.loc 1 871 37 discriminator 1 view .LVU370
 1629 0040 03F50063 		add	r3, r3, #2048
 1630 0044 9842     		cmp	r0, r3
 1631 0046 40F0CC80 		bne	.L90
 1632              	.L97:
 872:Drivers/GD32F30x_standard_peripheral/Source/gd32f30x_timer.c ****             /* reset the CH0NEN bit */
 873:Drivers/GD32F30x_standard_peripheral/Source/gd32f30x_timer.c ****             TIMER_CHCTL2(timer_periph) &= (~(uint32_t)TIMER_CHCTL2_CH0NEN);
 1633              		.loc 1 873 13 is_stmt 1 view .LVU371
 1634              		.loc 1 873 40 is_stmt 0 view .LVU372
 1635 004a 036A     		ldr	r3, [r0, #32]
 1636 004c 23F00403 		bic	r3, r3, #4
 1637 0050 0362     		str	r3, [r0, #32]
 874:Drivers/GD32F30x_standard_peripheral/Source/gd32f30x_timer.c ****             /* set the CH0NEN bit */
 875:Drivers/GD32F30x_standard_peripheral/Source/gd32f30x_timer.c ****             TIMER_CHCTL2(timer_periph) |= (uint32_t)ocpara->outputnstate;
 1638              		.loc 1 875 13 is_stmt 1 view .LVU373
 1639              		.loc 1 875 40 is_stmt 0 view .LVU374
 1640 0052 036A     		ldr	r3, [r0, #32]
 1641              		.loc 1 875 59 view .LVU375
 1642 0054 5188     		ldrh	r1, [r2, #2]
 1643              		.loc 1 875 40 view .LVU376
 1644 0056 0B43     		orrs	r3, r3, r1
 1645 0058 0362     		str	r3, [r0, #32]
 876:Drivers/GD32F30x_standard_peripheral/Source/gd32f30x_timer.c ****             /* reset the CH0NP bit */
 877:Drivers/GD32F30x_standard_peripheral/Source/gd32f30x_timer.c ****             TIMER_CHCTL2(timer_periph) &= (~(uint32_t)TIMER_CHCTL2_CH0NP);
 1646              		.loc 1 877 13 is_stmt 1 view .LVU377
 1647              		.loc 1 877 40 is_stmt 0 view .LVU378
 1648 005a 036A     		ldr	r3, [r0, #32]
 1649 005c 23F00803 		bic	r3, r3, #8
 1650 0060 0362     		str	r3, [r0, #32]
 878:Drivers/GD32F30x_standard_peripheral/Source/gd32f30x_timer.c ****             /* set the CH0NP bit */
 879:Drivers/GD32F30x_standard_peripheral/Source/gd32f30x_timer.c ****             TIMER_CHCTL2(timer_periph) |= (uint32_t)ocpara->ocnpolarity;
 1651              		.loc 1 879 13 is_stmt 1 view .LVU379
 1652              		.loc 1 879 40 is_stmt 0 view .LVU380
 1653 0062 036A     		ldr	r3, [r0, #32]
 1654              		.loc 1 879 59 view .LVU381
 1655 0064 D188     		ldrh	r1, [r2, #6]
 1656              		.loc 1 879 40 view .LVU382
 1657 0066 0B43     		orrs	r3, r3, r1
 1658 0068 0362     		str	r3, [r0, #32]
 880:Drivers/GD32F30x_standard_peripheral/Source/gd32f30x_timer.c ****             /* reset the ISO0 bit */
 881:Drivers/GD32F30x_standard_peripheral/Source/gd32f30x_timer.c ****             TIMER_CTL1(timer_periph) &= (~(uint32_t)TIMER_CTL1_ISO0);
 1659              		.loc 1 881 13 is_stmt 1 view .LVU383
 1660              		.loc 1 881 38 is_stmt 0 view .LVU384
 1661 006a 4368     		ldr	r3, [r0, #4]
 1662 006c 23F48073 		bic	r3, r3, #256
 1663 0070 4360     		str	r3, [r0, #4]
ARM GAS  C:\Users\Prog\AppData\Local\Temp\ccT8qdHj.s 			page 45


 882:Drivers/GD32F30x_standard_peripheral/Source/gd32f30x_timer.c ****             /* set the ISO0 bit */
 883:Drivers/GD32F30x_standard_peripheral/Source/gd32f30x_timer.c ****             TIMER_CTL1(timer_periph) |= (uint32_t)ocpara->ocidlestate;
 1664              		.loc 1 883 13 is_stmt 1 view .LVU385
 1665              		.loc 1 883 38 is_stmt 0 view .LVU386
 1666 0072 4368     		ldr	r3, [r0, #4]
 1667              		.loc 1 883 57 view .LVU387
 1668 0074 1189     		ldrh	r1, [r2, #8]
 1669              		.loc 1 883 38 view .LVU388
 1670 0076 0B43     		orrs	r3, r3, r1
 1671 0078 4360     		str	r3, [r0, #4]
 884:Drivers/GD32F30x_standard_peripheral/Source/gd32f30x_timer.c ****             /* reset the ISO0N bit */
 885:Drivers/GD32F30x_standard_peripheral/Source/gd32f30x_timer.c ****             TIMER_CTL1(timer_periph) &= (~(uint32_t)TIMER_CTL1_ISO0N);
 1672              		.loc 1 885 13 is_stmt 1 view .LVU389
 1673              		.loc 1 885 38 is_stmt 0 view .LVU390
 1674 007a 4368     		ldr	r3, [r0, #4]
 1675 007c 23F40073 		bic	r3, r3, #512
 1676 0080 4360     		str	r3, [r0, #4]
 886:Drivers/GD32F30x_standard_peripheral/Source/gd32f30x_timer.c ****             /* set the ISO0N bit */
 887:Drivers/GD32F30x_standard_peripheral/Source/gd32f30x_timer.c ****             TIMER_CTL1(timer_periph) |= (uint32_t)ocpara->ocnidlestate;
 1677              		.loc 1 887 13 is_stmt 1 view .LVU391
 1678              		.loc 1 887 38 is_stmt 0 view .LVU392
 1679 0082 4368     		ldr	r3, [r0, #4]
 1680              		.loc 1 887 57 view .LVU393
 1681 0084 5289     		ldrh	r2, [r2, #10]
 1682              	.LVL89:
 1683              		.loc 1 887 38 view .LVU394
 1684 0086 1343     		orrs	r3, r3, r2
 1685 0088 4360     		str	r3, [r0, #4]
 1686 008a 7047     		bx	lr
 1687              	.LVL90:
 1688              	.L95:
 888:Drivers/GD32F30x_standard_peripheral/Source/gd32f30x_timer.c ****         }
 889:Drivers/GD32F30x_standard_peripheral/Source/gd32f30x_timer.c ****         break;
 890:Drivers/GD32F30x_standard_peripheral/Source/gd32f30x_timer.c ****     /* configure TIMER_CH_1 */
 891:Drivers/GD32F30x_standard_peripheral/Source/gd32f30x_timer.c ****     case TIMER_CH_1:
 892:Drivers/GD32F30x_standard_peripheral/Source/gd32f30x_timer.c ****         /* reset the CH1EN bit */
 893:Drivers/GD32F30x_standard_peripheral/Source/gd32f30x_timer.c ****         TIMER_CHCTL2(timer_periph) &= (~(uint32_t)TIMER_CHCTL2_CH1EN);
 1689              		.loc 1 893 9 is_stmt 1 view .LVU395
 1690              		.loc 1 893 36 is_stmt 0 view .LVU396
 1691 008c 036A     		ldr	r3, [r0, #32]
 1692 008e 23F01003 		bic	r3, r3, #16
 1693 0092 0362     		str	r3, [r0, #32]
 894:Drivers/GD32F30x_standard_peripheral/Source/gd32f30x_timer.c ****         TIMER_CHCTL0(timer_periph) &= ~(uint32_t)TIMER_CHCTL0_CH1MS;
 1694              		.loc 1 894 9 is_stmt 1 view .LVU397
 1695              		.loc 1 894 36 is_stmt 0 view .LVU398
 1696 0094 8369     		ldr	r3, [r0, #24]
 1697 0096 23F44073 		bic	r3, r3, #768
 1698 009a 8361     		str	r3, [r0, #24]
 895:Drivers/GD32F30x_standard_peripheral/Source/gd32f30x_timer.c ****         /* set the CH1EN bit */
 896:Drivers/GD32F30x_standard_peripheral/Source/gd32f30x_timer.c ****         TIMER_CHCTL2(timer_periph) |= (uint32_t)((uint32_t)ocpara->outputstate << 4U);
 1699              		.loc 1 896 9 is_stmt 1 view .LVU399
 1700              		.loc 1 896 36 is_stmt 0 view .LVU400
 1701 009c 036A     		ldr	r3, [r0, #32]
 1702              		.loc 1 896 66 view .LVU401
 1703 009e 1188     		ldrh	r1, [r2]
 1704              	.LVL91:
 1705              		.loc 1 896 36 view .LVU402
ARM GAS  C:\Users\Prog\AppData\Local\Temp\ccT8qdHj.s 			page 46


 1706 00a0 43EA0113 		orr	r3, r3, r1, lsl #4
 1707 00a4 0362     		str	r3, [r0, #32]
 897:Drivers/GD32F30x_standard_peripheral/Source/gd32f30x_timer.c ****         /* reset the CH1P bit */
 898:Drivers/GD32F30x_standard_peripheral/Source/gd32f30x_timer.c ****         TIMER_CHCTL2(timer_periph) &= (~(uint32_t)TIMER_CHCTL2_CH1P);
 1708              		.loc 1 898 9 is_stmt 1 view .LVU403
 1709              		.loc 1 898 36 is_stmt 0 view .LVU404
 1710 00a6 036A     		ldr	r3, [r0, #32]
 1711 00a8 23F02003 		bic	r3, r3, #32
 1712 00ac 0362     		str	r3, [r0, #32]
 899:Drivers/GD32F30x_standard_peripheral/Source/gd32f30x_timer.c ****         /* set the CH1P bit */
 900:Drivers/GD32F30x_standard_peripheral/Source/gd32f30x_timer.c ****         TIMER_CHCTL2(timer_periph) |= (uint32_t)((uint32_t)(ocpara->ocpolarity) << 4U);
 1713              		.loc 1 900 9 is_stmt 1 view .LVU405
 1714              		.loc 1 900 36 is_stmt 0 view .LVU406
 1715 00ae 036A     		ldr	r3, [r0, #32]
 1716              		.loc 1 900 67 view .LVU407
 1717 00b0 9188     		ldrh	r1, [r2, #4]
 1718              		.loc 1 900 36 view .LVU408
 1719 00b2 43EA0113 		orr	r3, r3, r1, lsl #4
 1720 00b6 0362     		str	r3, [r0, #32]
 901:Drivers/GD32F30x_standard_peripheral/Source/gd32f30x_timer.c **** 
 902:Drivers/GD32F30x_standard_peripheral/Source/gd32f30x_timer.c ****         if((TIMER0 == timer_periph) || (TIMER7 == timer_periph)){
 1721              		.loc 1 902 9 is_stmt 1 view .LVU409
 1722              		.loc 1 902 11 is_stmt 0 view .LVU410
 1723 00b8 4A4B     		ldr	r3, .L101
 1724 00ba 9842     		cmp	r0, r3
 1725 00bc 04D0     		beq	.L98
 1726              		.loc 1 902 37 discriminator 1 view .LVU411
 1727 00be 03F50063 		add	r3, r3, #2048
 1728 00c2 9842     		cmp	r0, r3
 1729 00c4 40F08D80 		bne	.L90
 1730              	.L98:
 903:Drivers/GD32F30x_standard_peripheral/Source/gd32f30x_timer.c ****             /* reset the CH1NEN bit */
 904:Drivers/GD32F30x_standard_peripheral/Source/gd32f30x_timer.c ****             TIMER_CHCTL2(timer_periph) &= (~(uint32_t)TIMER_CHCTL2_CH1NEN);
 1731              		.loc 1 904 13 is_stmt 1 view .LVU412
 1732              		.loc 1 904 40 is_stmt 0 view .LVU413
 1733 00c8 036A     		ldr	r3, [r0, #32]
 1734 00ca 23F04003 		bic	r3, r3, #64
 1735 00ce 0362     		str	r3, [r0, #32]
 905:Drivers/GD32F30x_standard_peripheral/Source/gd32f30x_timer.c ****             /* set the CH1NEN bit */
 906:Drivers/GD32F30x_standard_peripheral/Source/gd32f30x_timer.c ****             TIMER_CHCTL2(timer_periph) |= (uint32_t)((uint32_t)(ocpara->outputnstate) << 4U);
 1736              		.loc 1 906 13 is_stmt 1 view .LVU414
 1737              		.loc 1 906 40 is_stmt 0 view .LVU415
 1738 00d0 036A     		ldr	r3, [r0, #32]
 1739              		.loc 1 906 71 view .LVU416
 1740 00d2 5188     		ldrh	r1, [r2, #2]
 1741              		.loc 1 906 40 view .LVU417
 1742 00d4 43EA0113 		orr	r3, r3, r1, lsl #4
 1743 00d8 0362     		str	r3, [r0, #32]
 907:Drivers/GD32F30x_standard_peripheral/Source/gd32f30x_timer.c ****             /* reset the CH1NP bit */
 908:Drivers/GD32F30x_standard_peripheral/Source/gd32f30x_timer.c ****             TIMER_CHCTL2(timer_periph) &= (~(uint32_t)TIMER_CHCTL2_CH1NP);
 1744              		.loc 1 908 13 is_stmt 1 view .LVU418
 1745              		.loc 1 908 40 is_stmt 0 view .LVU419
 1746 00da 036A     		ldr	r3, [r0, #32]
 1747 00dc 23F08003 		bic	r3, r3, #128
 1748 00e0 0362     		str	r3, [r0, #32]
 909:Drivers/GD32F30x_standard_peripheral/Source/gd32f30x_timer.c ****             /* set the CH1NP bit */
 910:Drivers/GD32F30x_standard_peripheral/Source/gd32f30x_timer.c ****             TIMER_CHCTL2(timer_periph) |= (uint32_t)((uint32_t)(ocpara->ocnpolarity) << 4U);
ARM GAS  C:\Users\Prog\AppData\Local\Temp\ccT8qdHj.s 			page 47


 1749              		.loc 1 910 13 is_stmt 1 view .LVU420
 1750              		.loc 1 910 40 is_stmt 0 view .LVU421
 1751 00e2 036A     		ldr	r3, [r0, #32]
 1752              		.loc 1 910 71 view .LVU422
 1753 00e4 D188     		ldrh	r1, [r2, #6]
 1754              		.loc 1 910 40 view .LVU423
 1755 00e6 43EA0113 		orr	r3, r3, r1, lsl #4
 1756 00ea 0362     		str	r3, [r0, #32]
 911:Drivers/GD32F30x_standard_peripheral/Source/gd32f30x_timer.c ****             /* reset the ISO1 bit */
 912:Drivers/GD32F30x_standard_peripheral/Source/gd32f30x_timer.c ****             TIMER_CTL1(timer_periph) &= (~(uint32_t)TIMER_CTL1_ISO1);
 1757              		.loc 1 912 13 is_stmt 1 view .LVU424
 1758              		.loc 1 912 38 is_stmt 0 view .LVU425
 1759 00ec 4368     		ldr	r3, [r0, #4]
 1760 00ee 23F48063 		bic	r3, r3, #1024
 1761 00f2 4360     		str	r3, [r0, #4]
 913:Drivers/GD32F30x_standard_peripheral/Source/gd32f30x_timer.c ****             /* set the ISO1 bit */
 914:Drivers/GD32F30x_standard_peripheral/Source/gd32f30x_timer.c ****             TIMER_CTL1(timer_periph) |= (uint32_t)((uint32_t)(ocpara->ocidlestate) << 2U);
 1762              		.loc 1 914 13 is_stmt 1 view .LVU426
 1763              		.loc 1 914 38 is_stmt 0 view .LVU427
 1764 00f4 4368     		ldr	r3, [r0, #4]
 1765              		.loc 1 914 69 view .LVU428
 1766 00f6 1189     		ldrh	r1, [r2, #8]
 1767              		.loc 1 914 38 view .LVU429
 1768 00f8 43EA8103 		orr	r3, r3, r1, lsl #2
 1769 00fc 4360     		str	r3, [r0, #4]
 915:Drivers/GD32F30x_standard_peripheral/Source/gd32f30x_timer.c ****             /* reset the ISO1N bit */
 916:Drivers/GD32F30x_standard_peripheral/Source/gd32f30x_timer.c ****             TIMER_CTL1(timer_periph) &= (~(uint32_t)TIMER_CTL1_ISO1N);
 1770              		.loc 1 916 13 is_stmt 1 view .LVU430
 1771              		.loc 1 916 38 is_stmt 0 view .LVU431
 1772 00fe 4368     		ldr	r3, [r0, #4]
 1773 0100 23F40063 		bic	r3, r3, #2048
 1774 0104 4360     		str	r3, [r0, #4]
 917:Drivers/GD32F30x_standard_peripheral/Source/gd32f30x_timer.c ****             /* set the ISO1N bit */
 918:Drivers/GD32F30x_standard_peripheral/Source/gd32f30x_timer.c ****             TIMER_CTL1(timer_periph) |= (uint32_t)((uint32_t)(ocpara->ocnidlestate) << 2U);
 1775              		.loc 1 918 13 is_stmt 1 view .LVU432
 1776              		.loc 1 918 38 is_stmt 0 view .LVU433
 1777 0106 4368     		ldr	r3, [r0, #4]
 1778              		.loc 1 918 69 view .LVU434
 1779 0108 5289     		ldrh	r2, [r2, #10]
 1780              	.LVL92:
 1781              		.loc 1 918 38 view .LVU435
 1782 010a 43EA8203 		orr	r3, r3, r2, lsl #2
 1783 010e 4360     		str	r3, [r0, #4]
 1784 0110 7047     		bx	lr
 1785              	.LVL93:
 1786              	.L94:
 919:Drivers/GD32F30x_standard_peripheral/Source/gd32f30x_timer.c ****         }
 920:Drivers/GD32F30x_standard_peripheral/Source/gd32f30x_timer.c ****         break;
 921:Drivers/GD32F30x_standard_peripheral/Source/gd32f30x_timer.c ****     /* configure TIMER_CH_2 */
 922:Drivers/GD32F30x_standard_peripheral/Source/gd32f30x_timer.c ****     case TIMER_CH_2:
 923:Drivers/GD32F30x_standard_peripheral/Source/gd32f30x_timer.c ****         /* reset the CH2EN bit */
 924:Drivers/GD32F30x_standard_peripheral/Source/gd32f30x_timer.c ****         TIMER_CHCTL2(timer_periph) &= (~(uint32_t)TIMER_CHCTL2_CH2EN);
 1787              		.loc 1 924 9 is_stmt 1 view .LVU436
 1788              		.loc 1 924 36 is_stmt 0 view .LVU437
 1789 0112 036A     		ldr	r3, [r0, #32]
 1790 0114 23F48073 		bic	r3, r3, #256
 1791 0118 0362     		str	r3, [r0, #32]
ARM GAS  C:\Users\Prog\AppData\Local\Temp\ccT8qdHj.s 			page 48


 925:Drivers/GD32F30x_standard_peripheral/Source/gd32f30x_timer.c ****         TIMER_CHCTL1(timer_periph) &= ~(uint32_t)TIMER_CHCTL1_CH2MS;
 1792              		.loc 1 925 9 is_stmt 1 view .LVU438
 1793              		.loc 1 925 36 is_stmt 0 view .LVU439
 1794 011a C369     		ldr	r3, [r0, #28]
 1795 011c 23F00303 		bic	r3, r3, #3
 1796 0120 C361     		str	r3, [r0, #28]
 926:Drivers/GD32F30x_standard_peripheral/Source/gd32f30x_timer.c ****         /* set the CH2EN bit */
 927:Drivers/GD32F30x_standard_peripheral/Source/gd32f30x_timer.c ****         TIMER_CHCTL2(timer_periph) |= (uint32_t)((uint32_t)ocpara->outputstate << 8U);
 1797              		.loc 1 927 9 is_stmt 1 view .LVU440
 1798              		.loc 1 927 36 is_stmt 0 view .LVU441
 1799 0122 036A     		ldr	r3, [r0, #32]
 1800              		.loc 1 927 66 view .LVU442
 1801 0124 1188     		ldrh	r1, [r2]
 1802              	.LVL94:
 1803              		.loc 1 927 36 view .LVU443
 1804 0126 43EA0123 		orr	r3, r3, r1, lsl #8
 1805 012a 0362     		str	r3, [r0, #32]
 928:Drivers/GD32F30x_standard_peripheral/Source/gd32f30x_timer.c ****         /* reset the CH2P bit */
 929:Drivers/GD32F30x_standard_peripheral/Source/gd32f30x_timer.c ****         TIMER_CHCTL2(timer_periph) &= (~(uint32_t)TIMER_CHCTL2_CH2P);
 1806              		.loc 1 929 9 is_stmt 1 view .LVU444
 1807              		.loc 1 929 36 is_stmt 0 view .LVU445
 1808 012c 036A     		ldr	r3, [r0, #32]
 1809 012e 23F40073 		bic	r3, r3, #512
 1810 0132 0362     		str	r3, [r0, #32]
 930:Drivers/GD32F30x_standard_peripheral/Source/gd32f30x_timer.c ****         /* set the CH2P bit */
 931:Drivers/GD32F30x_standard_peripheral/Source/gd32f30x_timer.c ****         TIMER_CHCTL2(timer_periph) |= (uint32_t)((uint32_t)(ocpara->ocpolarity) << 8U);
 1811              		.loc 1 931 9 is_stmt 1 view .LVU446
 1812              		.loc 1 931 36 is_stmt 0 view .LVU447
 1813 0134 036A     		ldr	r3, [r0, #32]
 1814              		.loc 1 931 67 view .LVU448
 1815 0136 9188     		ldrh	r1, [r2, #4]
 1816              		.loc 1 931 36 view .LVU449
 1817 0138 43EA0123 		orr	r3, r3, r1, lsl #8
 1818 013c 0362     		str	r3, [r0, #32]
 932:Drivers/GD32F30x_standard_peripheral/Source/gd32f30x_timer.c **** 
 933:Drivers/GD32F30x_standard_peripheral/Source/gd32f30x_timer.c ****         if((TIMER0 == timer_periph) || (TIMER7 == timer_periph)){
 1819              		.loc 1 933 9 is_stmt 1 view .LVU450
 1820              		.loc 1 933 11 is_stmt 0 view .LVU451
 1821 013e 294B     		ldr	r3, .L101
 1822 0140 9842     		cmp	r0, r3
 1823 0142 03D0     		beq	.L99
 1824              		.loc 1 933 37 discriminator 1 view .LVU452
 1825 0144 03F50063 		add	r3, r3, #2048
 1826 0148 9842     		cmp	r0, r3
 1827 014a 4AD1     		bne	.L90
 1828              	.L99:
 934:Drivers/GD32F30x_standard_peripheral/Source/gd32f30x_timer.c ****             /* reset the CH2NEN bit */
 935:Drivers/GD32F30x_standard_peripheral/Source/gd32f30x_timer.c ****             TIMER_CHCTL2(timer_periph) &= (~(uint32_t)TIMER_CHCTL2_CH2NEN);
 1829              		.loc 1 935 13 is_stmt 1 view .LVU453
 1830              		.loc 1 935 40 is_stmt 0 view .LVU454
 1831 014c 036A     		ldr	r3, [r0, #32]
 1832 014e 23F48063 		bic	r3, r3, #1024
 1833 0152 0362     		str	r3, [r0, #32]
 936:Drivers/GD32F30x_standard_peripheral/Source/gd32f30x_timer.c ****             /* set the CH2NEN bit */
 937:Drivers/GD32F30x_standard_peripheral/Source/gd32f30x_timer.c ****             TIMER_CHCTL2(timer_periph) |= (uint32_t)((uint32_t)(ocpara->outputnstate) << 8U);
 1834              		.loc 1 937 13 is_stmt 1 view .LVU455
 1835              		.loc 1 937 40 is_stmt 0 view .LVU456
ARM GAS  C:\Users\Prog\AppData\Local\Temp\ccT8qdHj.s 			page 49


 1836 0154 036A     		ldr	r3, [r0, #32]
 1837              		.loc 1 937 71 view .LVU457
 1838 0156 5188     		ldrh	r1, [r2, #2]
 1839              		.loc 1 937 40 view .LVU458
 1840 0158 43EA0123 		orr	r3, r3, r1, lsl #8
 1841 015c 0362     		str	r3, [r0, #32]
 938:Drivers/GD32F30x_standard_peripheral/Source/gd32f30x_timer.c ****             /* reset the CH2NP bit */
 939:Drivers/GD32F30x_standard_peripheral/Source/gd32f30x_timer.c ****             TIMER_CHCTL2(timer_periph) &= (~(uint32_t)TIMER_CHCTL2_CH2NP);
 1842              		.loc 1 939 13 is_stmt 1 view .LVU459
 1843              		.loc 1 939 40 is_stmt 0 view .LVU460
 1844 015e 036A     		ldr	r3, [r0, #32]
 1845 0160 23F40063 		bic	r3, r3, #2048
 1846 0164 0362     		str	r3, [r0, #32]
 940:Drivers/GD32F30x_standard_peripheral/Source/gd32f30x_timer.c ****             /* set the CH2NP bit */
 941:Drivers/GD32F30x_standard_peripheral/Source/gd32f30x_timer.c ****             TIMER_CHCTL2(timer_periph) |= (uint32_t)((uint32_t)(ocpara->ocnpolarity) << 8U);
 1847              		.loc 1 941 13 is_stmt 1 view .LVU461
 1848              		.loc 1 941 40 is_stmt 0 view .LVU462
 1849 0166 036A     		ldr	r3, [r0, #32]
 1850              		.loc 1 941 71 view .LVU463
 1851 0168 D188     		ldrh	r1, [r2, #6]
 1852              		.loc 1 941 40 view .LVU464
 1853 016a 43EA0123 		orr	r3, r3, r1, lsl #8
 1854 016e 0362     		str	r3, [r0, #32]
 942:Drivers/GD32F30x_standard_peripheral/Source/gd32f30x_timer.c ****             /* reset the ISO2 bit */
 943:Drivers/GD32F30x_standard_peripheral/Source/gd32f30x_timer.c ****             TIMER_CTL1(timer_periph) &= (~(uint32_t)TIMER_CTL1_ISO2);
 1855              		.loc 1 943 13 is_stmt 1 view .LVU465
 1856              		.loc 1 943 38 is_stmt 0 view .LVU466
 1857 0170 4368     		ldr	r3, [r0, #4]
 1858 0172 23F48053 		bic	r3, r3, #4096
 1859 0176 4360     		str	r3, [r0, #4]
 944:Drivers/GD32F30x_standard_peripheral/Source/gd32f30x_timer.c ****             /* set the ISO2 bit */
 945:Drivers/GD32F30x_standard_peripheral/Source/gd32f30x_timer.c ****             TIMER_CTL1(timer_periph) |= (uint32_t)((uint32_t)(ocpara->ocidlestate) << 4U);
 1860              		.loc 1 945 13 is_stmt 1 view .LVU467
 1861              		.loc 1 945 38 is_stmt 0 view .LVU468
 1862 0178 4368     		ldr	r3, [r0, #4]
 1863              		.loc 1 945 69 view .LVU469
 1864 017a 1189     		ldrh	r1, [r2, #8]
 1865              		.loc 1 945 38 view .LVU470
 1866 017c 43EA0113 		orr	r3, r3, r1, lsl #4
 1867 0180 4360     		str	r3, [r0, #4]
 946:Drivers/GD32F30x_standard_peripheral/Source/gd32f30x_timer.c ****             /* reset the ISO2N bit */
 947:Drivers/GD32F30x_standard_peripheral/Source/gd32f30x_timer.c ****             TIMER_CTL1(timer_periph) &= (~(uint32_t)TIMER_CTL1_ISO2N);
 1868              		.loc 1 947 13 is_stmt 1 view .LVU471
 1869              		.loc 1 947 38 is_stmt 0 view .LVU472
 1870 0182 4368     		ldr	r3, [r0, #4]
 1871 0184 23F40053 		bic	r3, r3, #8192
 1872 0188 4360     		str	r3, [r0, #4]
 948:Drivers/GD32F30x_standard_peripheral/Source/gd32f30x_timer.c ****             /* set the ISO2N bit */
 949:Drivers/GD32F30x_standard_peripheral/Source/gd32f30x_timer.c ****             TIMER_CTL1(timer_periph) |= (uint32_t)((uint32_t)(ocpara->ocnidlestate) << 4U);
 1873              		.loc 1 949 13 is_stmt 1 view .LVU473
 1874              		.loc 1 949 38 is_stmt 0 view .LVU474
 1875 018a 4368     		ldr	r3, [r0, #4]
 1876              		.loc 1 949 69 view .LVU475
 1877 018c 5289     		ldrh	r2, [r2, #10]
 1878              	.LVL95:
 1879              		.loc 1 949 38 view .LVU476
 1880 018e 43EA0213 		orr	r3, r3, r2, lsl #4
ARM GAS  C:\Users\Prog\AppData\Local\Temp\ccT8qdHj.s 			page 50


 1881 0192 4360     		str	r3, [r0, #4]
 1882 0194 7047     		bx	lr
 1883              	.LVL96:
 1884              	.L92:
 950:Drivers/GD32F30x_standard_peripheral/Source/gd32f30x_timer.c ****         }
 951:Drivers/GD32F30x_standard_peripheral/Source/gd32f30x_timer.c ****         break;
 952:Drivers/GD32F30x_standard_peripheral/Source/gd32f30x_timer.c ****     /* configure TIMER_CH_3 */
 953:Drivers/GD32F30x_standard_peripheral/Source/gd32f30x_timer.c ****     case TIMER_CH_3:
 954:Drivers/GD32F30x_standard_peripheral/Source/gd32f30x_timer.c ****         /* reset the CH3EN bit */
 955:Drivers/GD32F30x_standard_peripheral/Source/gd32f30x_timer.c ****         TIMER_CHCTL2(timer_periph) &=(~(uint32_t)TIMER_CHCTL2_CH3EN);
 1885              		.loc 1 955 9 is_stmt 1 view .LVU477
 1886              		.loc 1 955 36 is_stmt 0 view .LVU478
 1887 0196 036A     		ldr	r3, [r0, #32]
 1888 0198 23F48053 		bic	r3, r3, #4096
 1889 019c 0362     		str	r3, [r0, #32]
 956:Drivers/GD32F30x_standard_peripheral/Source/gd32f30x_timer.c ****         TIMER_CHCTL1(timer_periph) &= ~(uint32_t)TIMER_CHCTL1_CH3MS;
 1890              		.loc 1 956 9 is_stmt 1 view .LVU479
 1891              		.loc 1 956 36 is_stmt 0 view .LVU480
 1892 019e C369     		ldr	r3, [r0, #28]
 1893 01a0 23F44073 		bic	r3, r3, #768
 1894 01a4 C361     		str	r3, [r0, #28]
 957:Drivers/GD32F30x_standard_peripheral/Source/gd32f30x_timer.c ****         /* set the CH3EN bit */
 958:Drivers/GD32F30x_standard_peripheral/Source/gd32f30x_timer.c ****         TIMER_CHCTL2(timer_periph) |= (uint32_t)((uint32_t)ocpara->outputstate << 12U);
 1895              		.loc 1 958 9 is_stmt 1 view .LVU481
 1896              		.loc 1 958 36 is_stmt 0 view .LVU482
 1897 01a6 036A     		ldr	r3, [r0, #32]
 1898              		.loc 1 958 66 view .LVU483
 1899 01a8 1188     		ldrh	r1, [r2]
 1900              	.LVL97:
 1901              		.loc 1 958 36 view .LVU484
 1902 01aa 43EA0133 		orr	r3, r3, r1, lsl #12
 1903 01ae 0362     		str	r3, [r0, #32]
 959:Drivers/GD32F30x_standard_peripheral/Source/gd32f30x_timer.c ****         /* reset the CH3P bit */
 960:Drivers/GD32F30x_standard_peripheral/Source/gd32f30x_timer.c ****         TIMER_CHCTL2(timer_periph) &= (~(uint32_t)TIMER_CHCTL2_CH3P);
 1904              		.loc 1 960 9 is_stmt 1 view .LVU485
 1905              		.loc 1 960 36 is_stmt 0 view .LVU486
 1906 01b0 036A     		ldr	r3, [r0, #32]
 1907 01b2 23F40053 		bic	r3, r3, #8192
 1908 01b6 0362     		str	r3, [r0, #32]
 961:Drivers/GD32F30x_standard_peripheral/Source/gd32f30x_timer.c ****         /* set the CH3P bit */
 962:Drivers/GD32F30x_standard_peripheral/Source/gd32f30x_timer.c ****         TIMER_CHCTL2(timer_periph) |= (uint32_t)((uint32_t)(ocpara->ocpolarity) << 12U);
 1909              		.loc 1 962 9 is_stmt 1 view .LVU487
 1910              		.loc 1 962 36 is_stmt 0 view .LVU488
 1911 01b8 036A     		ldr	r3, [r0, #32]
 1912              		.loc 1 962 67 view .LVU489
 1913 01ba 9188     		ldrh	r1, [r2, #4]
 1914              		.loc 1 962 36 view .LVU490
 1915 01bc 43EA0133 		orr	r3, r3, r1, lsl #12
 1916 01c0 0362     		str	r3, [r0, #32]
 963:Drivers/GD32F30x_standard_peripheral/Source/gd32f30x_timer.c **** 
 964:Drivers/GD32F30x_standard_peripheral/Source/gd32f30x_timer.c ****         if((TIMER0 == timer_periph) || (TIMER7 == timer_periph)){
 1917              		.loc 1 964 9 is_stmt 1 view .LVU491
 1918              		.loc 1 964 11 is_stmt 0 view .LVU492
 1919 01c2 084B     		ldr	r3, .L101
 1920 01c4 9842     		cmp	r0, r3
 1921 01c6 03D0     		beq	.L100
 1922              		.loc 1 964 37 discriminator 1 view .LVU493
ARM GAS  C:\Users\Prog\AppData\Local\Temp\ccT8qdHj.s 			page 51


 1923 01c8 03F50063 		add	r3, r3, #2048
 1924 01cc 9842     		cmp	r0, r3
 1925 01ce 08D1     		bne	.L90
 1926              	.L100:
 965:Drivers/GD32F30x_standard_peripheral/Source/gd32f30x_timer.c ****             /* reset the ISO3 bit */
 966:Drivers/GD32F30x_standard_peripheral/Source/gd32f30x_timer.c ****             TIMER_CTL1(timer_periph) &= (~(uint32_t)TIMER_CTL1_ISO3);
 1927              		.loc 1 966 13 is_stmt 1 view .LVU494
 1928              		.loc 1 966 38 is_stmt 0 view .LVU495
 1929 01d0 4368     		ldr	r3, [r0, #4]
 1930 01d2 23F48043 		bic	r3, r3, #16384
 1931 01d6 4360     		str	r3, [r0, #4]
 967:Drivers/GD32F30x_standard_peripheral/Source/gd32f30x_timer.c ****             /* set the ISO3 bit */
 968:Drivers/GD32F30x_standard_peripheral/Source/gd32f30x_timer.c ****             TIMER_CTL1(timer_periph) |= (uint32_t)((uint32_t)(ocpara->ocidlestate) << 6U);
 1932              		.loc 1 968 13 is_stmt 1 view .LVU496
 1933              		.loc 1 968 38 is_stmt 0 view .LVU497
 1934 01d8 4368     		ldr	r3, [r0, #4]
 1935              		.loc 1 968 69 view .LVU498
 1936 01da 1289     		ldrh	r2, [r2, #8]
 1937              	.LVL98:
 1938              		.loc 1 968 38 view .LVU499
 1939 01dc 43EA8213 		orr	r3, r3, r2, lsl #6
 1940 01e0 4360     		str	r3, [r0, #4]
 1941              	.L90:
 969:Drivers/GD32F30x_standard_peripheral/Source/gd32f30x_timer.c ****         }
 970:Drivers/GD32F30x_standard_peripheral/Source/gd32f30x_timer.c ****         break;
 971:Drivers/GD32F30x_standard_peripheral/Source/gd32f30x_timer.c ****     default:
 972:Drivers/GD32F30x_standard_peripheral/Source/gd32f30x_timer.c ****         break;
 973:Drivers/GD32F30x_standard_peripheral/Source/gd32f30x_timer.c ****     }
 974:Drivers/GD32F30x_standard_peripheral/Source/gd32f30x_timer.c **** }
 1942              		.loc 1 974 1 view .LVU500
 1943 01e2 7047     		bx	lr
 1944              	.L102:
 1945              		.align	2
 1946              	.L101:
 1947 01e4 002C0140 		.word	1073818624
 1948              		.cfi_endproc
 1949              	.LFE157:
 1951              		.section	.text.timer_channel_output_mode_config,"ax",%progbits
 1952              		.align	1
 1953              		.global	timer_channel_output_mode_config
 1954              		.syntax unified
 1955              		.thumb
 1956              		.thumb_func
 1957              		.fpu fpv4-sp-d16
 1959              	timer_channel_output_mode_config:
 1960              	.LVL99:
 1961              	.LFB158:
 975:Drivers/GD32F30x_standard_peripheral/Source/gd32f30x_timer.c **** 
 976:Drivers/GD32F30x_standard_peripheral/Source/gd32f30x_timer.c **** /*!
 977:Drivers/GD32F30x_standard_peripheral/Source/gd32f30x_timer.c ****     \brief      configure TIMER channel output compare mode
 978:Drivers/GD32F30x_standard_peripheral/Source/gd32f30x_timer.c ****     \param[in]  timer_periph: please refer to the following parameters
 979:Drivers/GD32F30x_standard_peripheral/Source/gd32f30x_timer.c ****     \param[in]  channel: 
 980:Drivers/GD32F30x_standard_peripheral/Source/gd32f30x_timer.c ****                 only one parameter can be selected which is shown as below:
 981:Drivers/GD32F30x_standard_peripheral/Source/gd32f30x_timer.c ****       \arg        TIMER_CH_0: TIMER channel0(TIMERx(x=0..4,7..13))
 982:Drivers/GD32F30x_standard_peripheral/Source/gd32f30x_timer.c ****       \arg        TIMER_CH_1: TIMER channel1(TIMERx(x=0..4,7,8,11))
 983:Drivers/GD32F30x_standard_peripheral/Source/gd32f30x_timer.c ****       \arg        TIMER_CH_2: TIMER channel2(TIMERx(x=0..4,7))
 984:Drivers/GD32F30x_standard_peripheral/Source/gd32f30x_timer.c ****       \arg        TIMER_CH_3: TIMER channel3(TIMERx(x=0..4,7))
ARM GAS  C:\Users\Prog\AppData\Local\Temp\ccT8qdHj.s 			page 52


 985:Drivers/GD32F30x_standard_peripheral/Source/gd32f30x_timer.c ****     \param[in]  ocmode: channel output compare mode
 986:Drivers/GD32F30x_standard_peripheral/Source/gd32f30x_timer.c ****                 only one parameter can be selected which is shown as below:
 987:Drivers/GD32F30x_standard_peripheral/Source/gd32f30x_timer.c ****       \arg        TIMER_OC_MODE_TIMING: timing mode
 988:Drivers/GD32F30x_standard_peripheral/Source/gd32f30x_timer.c ****       \arg        TIMER_OC_MODE_ACTIVE: active mode
 989:Drivers/GD32F30x_standard_peripheral/Source/gd32f30x_timer.c ****       \arg        TIMER_OC_MODE_INACTIVE: inactive mode
 990:Drivers/GD32F30x_standard_peripheral/Source/gd32f30x_timer.c ****       \arg        TIMER_OC_MODE_TOGGLE: toggle mode
 991:Drivers/GD32F30x_standard_peripheral/Source/gd32f30x_timer.c ****       \arg        TIMER_OC_MODE_LOW: force low mode
 992:Drivers/GD32F30x_standard_peripheral/Source/gd32f30x_timer.c ****       \arg        TIMER_OC_MODE_HIGH: force high mode
 993:Drivers/GD32F30x_standard_peripheral/Source/gd32f30x_timer.c ****       \arg        TIMER_OC_MODE_PWM0: PWM0 mode
 994:Drivers/GD32F30x_standard_peripheral/Source/gd32f30x_timer.c ****       \arg        TIMER_OC_MODE_PWM1: PWM1 mode
 995:Drivers/GD32F30x_standard_peripheral/Source/gd32f30x_timer.c ****     \param[out] none
 996:Drivers/GD32F30x_standard_peripheral/Source/gd32f30x_timer.c ****     \retval     none
 997:Drivers/GD32F30x_standard_peripheral/Source/gd32f30x_timer.c **** */
 998:Drivers/GD32F30x_standard_peripheral/Source/gd32f30x_timer.c **** void timer_channel_output_mode_config(uint32_t timer_periph, uint16_t channel, uint16_t ocmode)
 999:Drivers/GD32F30x_standard_peripheral/Source/gd32f30x_timer.c **** {
 1962              		.loc 1 999 1 is_stmt 1 view -0
 1963              		.cfi_startproc
 1964              		@ args = 0, pretend = 0, frame = 0
 1965              		@ frame_needed = 0, uses_anonymous_args = 0
 1966              		@ link register save eliminated.
1000:Drivers/GD32F30x_standard_peripheral/Source/gd32f30x_timer.c ****     switch(channel){
 1967              		.loc 1 1000 5 view .LVU502
 1968 0000 0329     		cmp	r1, #3
 1969 0002 24D8     		bhi	.L103
 1970 0004 DFE801F0 		tbb	[pc, r1]
 1971              	.L106:
 1972 0008 02       		.byte	(.L109-.L106)/2
 1973 0009 0A       		.byte	(.L108-.L106)/2
 1974 000a 13       		.byte	(.L107-.L106)/2
 1975 000b 1B       		.byte	(.L105-.L106)/2
 1976              		.p2align 1
 1977              	.L109:
1001:Drivers/GD32F30x_standard_peripheral/Source/gd32f30x_timer.c ****     /* configure TIMER_CH_0 */
1002:Drivers/GD32F30x_standard_peripheral/Source/gd32f30x_timer.c ****     case TIMER_CH_0:
1003:Drivers/GD32F30x_standard_peripheral/Source/gd32f30x_timer.c ****         TIMER_CHCTL0(timer_periph) &= (~(uint32_t)TIMER_CHCTL0_CH0COMCTL);
 1978              		.loc 1 1003 9 view .LVU503
 1979              		.loc 1 1003 36 is_stmt 0 view .LVU504
 1980 000c 8369     		ldr	r3, [r0, #24]
 1981 000e 23F07003 		bic	r3, r3, #112
 1982 0012 8361     		str	r3, [r0, #24]
1004:Drivers/GD32F30x_standard_peripheral/Source/gd32f30x_timer.c ****         TIMER_CHCTL0(timer_periph) |= (uint32_t)ocmode;
 1983              		.loc 1 1004 9 is_stmt 1 view .LVU505
 1984              		.loc 1 1004 36 is_stmt 0 view .LVU506
 1985 0014 8369     		ldr	r3, [r0, #24]
 1986 0016 1A43     		orrs	r2, r2, r3
 1987              	.LVL100:
 1988              		.loc 1 1004 36 view .LVU507
 1989 0018 8261     		str	r2, [r0, #24]
1005:Drivers/GD32F30x_standard_peripheral/Source/gd32f30x_timer.c ****         break;
 1990              		.loc 1 1005 9 is_stmt 1 view .LVU508
 1991 001a 7047     		bx	lr
 1992              	.LVL101:
 1993              	.L108:
1006:Drivers/GD32F30x_standard_peripheral/Source/gd32f30x_timer.c ****     /* configure TIMER_CH_1 */
1007:Drivers/GD32F30x_standard_peripheral/Source/gd32f30x_timer.c ****     case TIMER_CH_1:
1008:Drivers/GD32F30x_standard_peripheral/Source/gd32f30x_timer.c ****         TIMER_CHCTL0(timer_periph) &= (~(uint32_t)TIMER_CHCTL0_CH1COMCTL);
 1994              		.loc 1 1008 9 view .LVU509
ARM GAS  C:\Users\Prog\AppData\Local\Temp\ccT8qdHj.s 			page 53


 1995              		.loc 1 1008 36 is_stmt 0 view .LVU510
 1996 001c 8369     		ldr	r3, [r0, #24]
 1997 001e 23F4E043 		bic	r3, r3, #28672
 1998 0022 8361     		str	r3, [r0, #24]
1009:Drivers/GD32F30x_standard_peripheral/Source/gd32f30x_timer.c ****         TIMER_CHCTL0(timer_periph) |= (uint32_t)((uint32_t)(ocmode) << 8U);
 1999              		.loc 1 1009 9 is_stmt 1 view .LVU511
 2000              		.loc 1 1009 36 is_stmt 0 view .LVU512
 2001 0024 8369     		ldr	r3, [r0, #24]
 2002 0026 43EA0222 		orr	r2, r3, r2, lsl #8
 2003              	.LVL102:
 2004              		.loc 1 1009 36 view .LVU513
 2005 002a 8261     		str	r2, [r0, #24]
1010:Drivers/GD32F30x_standard_peripheral/Source/gd32f30x_timer.c ****         break;
 2006              		.loc 1 1010 9 is_stmt 1 view .LVU514
 2007 002c 7047     		bx	lr
 2008              	.LVL103:
 2009              	.L107:
1011:Drivers/GD32F30x_standard_peripheral/Source/gd32f30x_timer.c ****     /* configure TIMER_CH_2 */
1012:Drivers/GD32F30x_standard_peripheral/Source/gd32f30x_timer.c ****     case TIMER_CH_2:
1013:Drivers/GD32F30x_standard_peripheral/Source/gd32f30x_timer.c ****         TIMER_CHCTL1(timer_periph) &= (~(uint32_t)TIMER_CHCTL1_CH2COMCTL);
 2010              		.loc 1 1013 9 view .LVU515
 2011              		.loc 1 1013 36 is_stmt 0 view .LVU516
 2012 002e C369     		ldr	r3, [r0, #28]
 2013 0030 23F07003 		bic	r3, r3, #112
 2014 0034 C361     		str	r3, [r0, #28]
1014:Drivers/GD32F30x_standard_peripheral/Source/gd32f30x_timer.c ****         TIMER_CHCTL1(timer_periph) |= (uint32_t)ocmode;
 2015              		.loc 1 1014 9 is_stmt 1 view .LVU517
 2016              		.loc 1 1014 36 is_stmt 0 view .LVU518
 2017 0036 C369     		ldr	r3, [r0, #28]
 2018 0038 1A43     		orrs	r2, r2, r3
 2019              	.LVL104:
 2020              		.loc 1 1014 36 view .LVU519
 2021 003a C261     		str	r2, [r0, #28]
1015:Drivers/GD32F30x_standard_peripheral/Source/gd32f30x_timer.c ****         break;
 2022              		.loc 1 1015 9 is_stmt 1 view .LVU520
 2023 003c 7047     		bx	lr
 2024              	.LVL105:
 2025              	.L105:
1016:Drivers/GD32F30x_standard_peripheral/Source/gd32f30x_timer.c ****     /* configure TIMER_CH_3 */
1017:Drivers/GD32F30x_standard_peripheral/Source/gd32f30x_timer.c ****     case TIMER_CH_3:
1018:Drivers/GD32F30x_standard_peripheral/Source/gd32f30x_timer.c ****         TIMER_CHCTL1(timer_periph) &= (~(uint32_t)TIMER_CHCTL1_CH3COMCTL);
 2026              		.loc 1 1018 9 view .LVU521
 2027              		.loc 1 1018 36 is_stmt 0 view .LVU522
 2028 003e C369     		ldr	r3, [r0, #28]
 2029 0040 23F4E043 		bic	r3, r3, #28672
 2030 0044 C361     		str	r3, [r0, #28]
1019:Drivers/GD32F30x_standard_peripheral/Source/gd32f30x_timer.c ****         TIMER_CHCTL1(timer_periph) |= (uint32_t)((uint32_t)(ocmode) << 8U);
 2031              		.loc 1 1019 9 is_stmt 1 view .LVU523
 2032              		.loc 1 1019 36 is_stmt 0 view .LVU524
 2033 0046 C369     		ldr	r3, [r0, #28]
 2034 0048 43EA0222 		orr	r2, r3, r2, lsl #8
 2035              	.LVL106:
 2036              		.loc 1 1019 36 view .LVU525
 2037 004c C261     		str	r2, [r0, #28]
1020:Drivers/GD32F30x_standard_peripheral/Source/gd32f30x_timer.c ****         break;
 2038              		.loc 1 1020 9 is_stmt 1 view .LVU526
 2039              	.L103:
ARM GAS  C:\Users\Prog\AppData\Local\Temp\ccT8qdHj.s 			page 54


1021:Drivers/GD32F30x_standard_peripheral/Source/gd32f30x_timer.c ****     default:
1022:Drivers/GD32F30x_standard_peripheral/Source/gd32f30x_timer.c ****         break;
1023:Drivers/GD32F30x_standard_peripheral/Source/gd32f30x_timer.c ****     }
1024:Drivers/GD32F30x_standard_peripheral/Source/gd32f30x_timer.c **** }
 2040              		.loc 1 1024 1 is_stmt 0 view .LVU527
 2041 004e 7047     		bx	lr
 2042              		.cfi_endproc
 2043              	.LFE158:
 2045              		.section	.text.timer_channel_output_pulse_value_config,"ax",%progbits
 2046              		.align	1
 2047              		.global	timer_channel_output_pulse_value_config
 2048              		.syntax unified
 2049              		.thumb
 2050              		.thumb_func
 2051              		.fpu fpv4-sp-d16
 2053              	timer_channel_output_pulse_value_config:
 2054              	.LVL107:
 2055              	.LFB159:
1025:Drivers/GD32F30x_standard_peripheral/Source/gd32f30x_timer.c **** 
1026:Drivers/GD32F30x_standard_peripheral/Source/gd32f30x_timer.c **** /*!
1027:Drivers/GD32F30x_standard_peripheral/Source/gd32f30x_timer.c ****     \brief      configure TIMER channel output pulse value
1028:Drivers/GD32F30x_standard_peripheral/Source/gd32f30x_timer.c ****     \param[in]  timer_periph: please refer to the following parameters
1029:Drivers/GD32F30x_standard_peripheral/Source/gd32f30x_timer.c ****     \param[in]  channel:
1030:Drivers/GD32F30x_standard_peripheral/Source/gd32f30x_timer.c ****                 only one parameter can be selected which is shown as below:
1031:Drivers/GD32F30x_standard_peripheral/Source/gd32f30x_timer.c ****       \arg        TIMER_CH_0: TIMER channel0(TIMERx(x=0..4,7..13))
1032:Drivers/GD32F30x_standard_peripheral/Source/gd32f30x_timer.c ****       \arg        TIMER_CH_1: TIMER channel1(TIMERx(x=0..4,7,8,11))
1033:Drivers/GD32F30x_standard_peripheral/Source/gd32f30x_timer.c ****       \arg        TIMER_CH_2: TIMER channel2(TIMERx(x=0..4,7))
1034:Drivers/GD32F30x_standard_peripheral/Source/gd32f30x_timer.c ****       \arg        TIMER_CH_3: TIMER channel3(TIMERx(x=0..4,7))
1035:Drivers/GD32F30x_standard_peripheral/Source/gd32f30x_timer.c ****     \param[in]  pulse: channel output pulse value,0~65535
1036:Drivers/GD32F30x_standard_peripheral/Source/gd32f30x_timer.c ****     \param[out] none
1037:Drivers/GD32F30x_standard_peripheral/Source/gd32f30x_timer.c ****     \retval     none
1038:Drivers/GD32F30x_standard_peripheral/Source/gd32f30x_timer.c **** */
1039:Drivers/GD32F30x_standard_peripheral/Source/gd32f30x_timer.c **** void timer_channel_output_pulse_value_config(uint32_t timer_periph, uint16_t channel, uint32_t puls
1040:Drivers/GD32F30x_standard_peripheral/Source/gd32f30x_timer.c **** {
 2056              		.loc 1 1040 1 is_stmt 1 view -0
 2057              		.cfi_startproc
 2058              		@ args = 0, pretend = 0, frame = 0
 2059              		@ frame_needed = 0, uses_anonymous_args = 0
 2060              		@ link register save eliminated.
1041:Drivers/GD32F30x_standard_peripheral/Source/gd32f30x_timer.c ****     switch(channel){
 2061              		.loc 1 1041 5 view .LVU529
 2062 0000 0329     		cmp	r1, #3
 2063 0002 0AD8     		bhi	.L110
 2064 0004 DFE801F0 		tbb	[pc, r1]
 2065              	.L113:
 2066 0008 02       		.byte	(.L116-.L113)/2
 2067 0009 04       		.byte	(.L115-.L113)/2
 2068 000a 06       		.byte	(.L114-.L113)/2
 2069 000b 08       		.byte	(.L112-.L113)/2
 2070              		.p2align 1
 2071              	.L116:
1042:Drivers/GD32F30x_standard_peripheral/Source/gd32f30x_timer.c ****     /* configure TIMER_CH_0 */
1043:Drivers/GD32F30x_standard_peripheral/Source/gd32f30x_timer.c ****     case TIMER_CH_0:
1044:Drivers/GD32F30x_standard_peripheral/Source/gd32f30x_timer.c ****         TIMER_CH0CV(timer_periph) = (uint32_t)pulse;
 2072              		.loc 1 1044 9 view .LVU530
 2073              		.loc 1 1044 35 is_stmt 0 view .LVU531
 2074 000c 4263     		str	r2, [r0, #52]
ARM GAS  C:\Users\Prog\AppData\Local\Temp\ccT8qdHj.s 			page 55


1045:Drivers/GD32F30x_standard_peripheral/Source/gd32f30x_timer.c ****         break;
 2075              		.loc 1 1045 9 is_stmt 1 view .LVU532
 2076 000e 7047     		bx	lr
 2077              	.L115:
1046:Drivers/GD32F30x_standard_peripheral/Source/gd32f30x_timer.c ****     /* configure TIMER_CH_1 */
1047:Drivers/GD32F30x_standard_peripheral/Source/gd32f30x_timer.c ****     case TIMER_CH_1:
1048:Drivers/GD32F30x_standard_peripheral/Source/gd32f30x_timer.c ****         TIMER_CH1CV(timer_periph) = (uint32_t)pulse;
 2078              		.loc 1 1048 9 view .LVU533
 2079              		.loc 1 1048 35 is_stmt 0 view .LVU534
 2080 0010 8263     		str	r2, [r0, #56]
1049:Drivers/GD32F30x_standard_peripheral/Source/gd32f30x_timer.c ****         break;
 2081              		.loc 1 1049 9 is_stmt 1 view .LVU535
 2082 0012 7047     		bx	lr
 2083              	.L114:
1050:Drivers/GD32F30x_standard_peripheral/Source/gd32f30x_timer.c ****     /* configure TIMER_CH_2 */
1051:Drivers/GD32F30x_standard_peripheral/Source/gd32f30x_timer.c ****     case TIMER_CH_2:
1052:Drivers/GD32F30x_standard_peripheral/Source/gd32f30x_timer.c ****         TIMER_CH2CV(timer_periph) = (uint32_t)pulse;
 2084              		.loc 1 1052 9 view .LVU536
 2085              		.loc 1 1052 35 is_stmt 0 view .LVU537
 2086 0014 C263     		str	r2, [r0, #60]
1053:Drivers/GD32F30x_standard_peripheral/Source/gd32f30x_timer.c ****         break;
 2087              		.loc 1 1053 9 is_stmt 1 view .LVU538
 2088 0016 7047     		bx	lr
 2089              	.L112:
1054:Drivers/GD32F30x_standard_peripheral/Source/gd32f30x_timer.c ****     /* configure TIMER_CH_3 */
1055:Drivers/GD32F30x_standard_peripheral/Source/gd32f30x_timer.c ****     case TIMER_CH_3:
1056:Drivers/GD32F30x_standard_peripheral/Source/gd32f30x_timer.c ****          TIMER_CH3CV(timer_periph) = (uint32_t)pulse;
 2090              		.loc 1 1056 10 view .LVU539
 2091              		.loc 1 1056 36 is_stmt 0 view .LVU540
 2092 0018 0264     		str	r2, [r0, #64]
1057:Drivers/GD32F30x_standard_peripheral/Source/gd32f30x_timer.c ****         break;
 2093              		.loc 1 1057 9 is_stmt 1 view .LVU541
 2094              	.L110:
1058:Drivers/GD32F30x_standard_peripheral/Source/gd32f30x_timer.c ****     default:
1059:Drivers/GD32F30x_standard_peripheral/Source/gd32f30x_timer.c ****         break;
1060:Drivers/GD32F30x_standard_peripheral/Source/gd32f30x_timer.c ****     }
1061:Drivers/GD32F30x_standard_peripheral/Source/gd32f30x_timer.c **** }
 2095              		.loc 1 1061 1 is_stmt 0 view .LVU542
 2096 001a 7047     		bx	lr
 2097              		.cfi_endproc
 2098              	.LFE159:
 2100              		.section	.text.timer_channel_output_shadow_config,"ax",%progbits
 2101              		.align	1
 2102              		.global	timer_channel_output_shadow_config
 2103              		.syntax unified
 2104              		.thumb
 2105              		.thumb_func
 2106              		.fpu fpv4-sp-d16
 2108              	timer_channel_output_shadow_config:
 2109              	.LVL108:
 2110              	.LFB160:
1062:Drivers/GD32F30x_standard_peripheral/Source/gd32f30x_timer.c **** 
1063:Drivers/GD32F30x_standard_peripheral/Source/gd32f30x_timer.c **** /*!
1064:Drivers/GD32F30x_standard_peripheral/Source/gd32f30x_timer.c ****     \brief      configure TIMER channel output shadow function
1065:Drivers/GD32F30x_standard_peripheral/Source/gd32f30x_timer.c ****     \param[in]  timer_periph: please refer to the following parameters
1066:Drivers/GD32F30x_standard_peripheral/Source/gd32f30x_timer.c ****     \param[in]  channel:
1067:Drivers/GD32F30x_standard_peripheral/Source/gd32f30x_timer.c ****                 only one parameter can be selected which is shown as below:
ARM GAS  C:\Users\Prog\AppData\Local\Temp\ccT8qdHj.s 			page 56


1068:Drivers/GD32F30x_standard_peripheral/Source/gd32f30x_timer.c ****       \arg        TIMER_CH_0: TIMER channel0(TIMERx(x=0..4,7..13))
1069:Drivers/GD32F30x_standard_peripheral/Source/gd32f30x_timer.c ****       \arg        TIMER_CH_1: TIMER channel1(TIMERx(x=0..4,7,8,11))
1070:Drivers/GD32F30x_standard_peripheral/Source/gd32f30x_timer.c ****       \arg        TIMER_CH_2: TIMER channel2(TIMERx(x=0..4,7))
1071:Drivers/GD32F30x_standard_peripheral/Source/gd32f30x_timer.c ****       \arg        TIMER_CH_3: TIMER channel3(TIMERx(x=0..4,7))
1072:Drivers/GD32F30x_standard_peripheral/Source/gd32f30x_timer.c ****     \param[in]  ocshadow: channel output shadow state
1073:Drivers/GD32F30x_standard_peripheral/Source/gd32f30x_timer.c ****                 only one parameter can be selected which is shown as below:
1074:Drivers/GD32F30x_standard_peripheral/Source/gd32f30x_timer.c ****       \arg        TIMER_OC_SHADOW_ENABLE: channel output shadow state enable
1075:Drivers/GD32F30x_standard_peripheral/Source/gd32f30x_timer.c ****       \arg        TIMER_OC_SHADOW_DISABLE: channel output shadow state disable
1076:Drivers/GD32F30x_standard_peripheral/Source/gd32f30x_timer.c ****     \param[out] none
1077:Drivers/GD32F30x_standard_peripheral/Source/gd32f30x_timer.c ****     \retval     none
1078:Drivers/GD32F30x_standard_peripheral/Source/gd32f30x_timer.c **** */
1079:Drivers/GD32F30x_standard_peripheral/Source/gd32f30x_timer.c **** void timer_channel_output_shadow_config(uint32_t timer_periph, uint16_t channel, uint16_t ocshadow)
1080:Drivers/GD32F30x_standard_peripheral/Source/gd32f30x_timer.c **** {
 2111              		.loc 1 1080 1 is_stmt 1 view -0
 2112              		.cfi_startproc
 2113              		@ args = 0, pretend = 0, frame = 0
 2114              		@ frame_needed = 0, uses_anonymous_args = 0
 2115              		@ link register save eliminated.
1081:Drivers/GD32F30x_standard_peripheral/Source/gd32f30x_timer.c ****     switch(channel){
 2116              		.loc 1 1081 5 view .LVU544
 2117 0000 0329     		cmp	r1, #3
 2118 0002 24D8     		bhi	.L117
 2119 0004 DFE801F0 		tbb	[pc, r1]
 2120              	.L120:
 2121 0008 02       		.byte	(.L123-.L120)/2
 2122 0009 0A       		.byte	(.L122-.L120)/2
 2123 000a 13       		.byte	(.L121-.L120)/2
 2124 000b 1B       		.byte	(.L119-.L120)/2
 2125              		.p2align 1
 2126              	.L123:
1082:Drivers/GD32F30x_standard_peripheral/Source/gd32f30x_timer.c ****     /* configure TIMER_CH_0 */
1083:Drivers/GD32F30x_standard_peripheral/Source/gd32f30x_timer.c ****     case TIMER_CH_0:
1084:Drivers/GD32F30x_standard_peripheral/Source/gd32f30x_timer.c ****         TIMER_CHCTL0(timer_periph) &= (~(uint32_t)TIMER_CHCTL0_CH0COMSEN);
 2127              		.loc 1 1084 9 view .LVU545
 2128              		.loc 1 1084 36 is_stmt 0 view .LVU546
 2129 000c 8369     		ldr	r3, [r0, #24]
 2130 000e 23F00803 		bic	r3, r3, #8
 2131 0012 8361     		str	r3, [r0, #24]
1085:Drivers/GD32F30x_standard_peripheral/Source/gd32f30x_timer.c ****         TIMER_CHCTL0(timer_periph) |= (uint32_t)ocshadow;
 2132              		.loc 1 1085 9 is_stmt 1 view .LVU547
 2133              		.loc 1 1085 36 is_stmt 0 view .LVU548
 2134 0014 8369     		ldr	r3, [r0, #24]
 2135 0016 1A43     		orrs	r2, r2, r3
 2136              	.LVL109:
 2137              		.loc 1 1085 36 view .LVU549
 2138 0018 8261     		str	r2, [r0, #24]
1086:Drivers/GD32F30x_standard_peripheral/Source/gd32f30x_timer.c ****         break;
 2139              		.loc 1 1086 9 is_stmt 1 view .LVU550
 2140 001a 7047     		bx	lr
 2141              	.LVL110:
 2142              	.L122:
1087:Drivers/GD32F30x_standard_peripheral/Source/gd32f30x_timer.c ****     /* configure TIMER_CH_1 */
1088:Drivers/GD32F30x_standard_peripheral/Source/gd32f30x_timer.c ****     case TIMER_CH_1:
1089:Drivers/GD32F30x_standard_peripheral/Source/gd32f30x_timer.c ****         TIMER_CHCTL0(timer_periph) &= (~(uint32_t)TIMER_CHCTL0_CH1COMSEN);
 2143              		.loc 1 1089 9 view .LVU551
 2144              		.loc 1 1089 36 is_stmt 0 view .LVU552
 2145 001c 8369     		ldr	r3, [r0, #24]
ARM GAS  C:\Users\Prog\AppData\Local\Temp\ccT8qdHj.s 			page 57


 2146 001e 23F40063 		bic	r3, r3, #2048
 2147 0022 8361     		str	r3, [r0, #24]
1090:Drivers/GD32F30x_standard_peripheral/Source/gd32f30x_timer.c ****         TIMER_CHCTL0(timer_periph) |= (uint32_t)((uint32_t)(ocshadow) << 8U);
 2148              		.loc 1 1090 9 is_stmt 1 view .LVU553
 2149              		.loc 1 1090 36 is_stmt 0 view .LVU554
 2150 0024 8369     		ldr	r3, [r0, #24]
 2151 0026 43EA0222 		orr	r2, r3, r2, lsl #8
 2152              	.LVL111:
 2153              		.loc 1 1090 36 view .LVU555
 2154 002a 8261     		str	r2, [r0, #24]
1091:Drivers/GD32F30x_standard_peripheral/Source/gd32f30x_timer.c ****         break;
 2155              		.loc 1 1091 9 is_stmt 1 view .LVU556
 2156 002c 7047     		bx	lr
 2157              	.LVL112:
 2158              	.L121:
1092:Drivers/GD32F30x_standard_peripheral/Source/gd32f30x_timer.c ****     /* configure TIMER_CH_2 */
1093:Drivers/GD32F30x_standard_peripheral/Source/gd32f30x_timer.c ****     case TIMER_CH_2:
1094:Drivers/GD32F30x_standard_peripheral/Source/gd32f30x_timer.c ****         TIMER_CHCTL1(timer_periph) &= (~(uint32_t)TIMER_CHCTL1_CH2COMSEN);
 2159              		.loc 1 1094 9 view .LVU557
 2160              		.loc 1 1094 36 is_stmt 0 view .LVU558
 2161 002e C369     		ldr	r3, [r0, #28]
 2162 0030 23F00803 		bic	r3, r3, #8
 2163 0034 C361     		str	r3, [r0, #28]
1095:Drivers/GD32F30x_standard_peripheral/Source/gd32f30x_timer.c ****         TIMER_CHCTL1(timer_periph) |= (uint32_t)ocshadow;
 2164              		.loc 1 1095 9 is_stmt 1 view .LVU559
 2165              		.loc 1 1095 36 is_stmt 0 view .LVU560
 2166 0036 C369     		ldr	r3, [r0, #28]
 2167 0038 1A43     		orrs	r2, r2, r3
 2168              	.LVL113:
 2169              		.loc 1 1095 36 view .LVU561
 2170 003a C261     		str	r2, [r0, #28]
1096:Drivers/GD32F30x_standard_peripheral/Source/gd32f30x_timer.c ****         break;
 2171              		.loc 1 1096 9 is_stmt 1 view .LVU562
 2172 003c 7047     		bx	lr
 2173              	.LVL114:
 2174              	.L119:
1097:Drivers/GD32F30x_standard_peripheral/Source/gd32f30x_timer.c ****     /* configure TIMER_CH_3 */
1098:Drivers/GD32F30x_standard_peripheral/Source/gd32f30x_timer.c ****     case TIMER_CH_3:
1099:Drivers/GD32F30x_standard_peripheral/Source/gd32f30x_timer.c ****         TIMER_CHCTL1(timer_periph) &= (~(uint32_t)TIMER_CHCTL1_CH3COMSEN);
 2175              		.loc 1 1099 9 view .LVU563
 2176              		.loc 1 1099 36 is_stmt 0 view .LVU564
 2177 003e C369     		ldr	r3, [r0, #28]
 2178 0040 23F40063 		bic	r3, r3, #2048
 2179 0044 C361     		str	r3, [r0, #28]
1100:Drivers/GD32F30x_standard_peripheral/Source/gd32f30x_timer.c ****         TIMER_CHCTL1(timer_periph) |= (uint32_t)((uint32_t)(ocshadow) << 8U);
 2180              		.loc 1 1100 9 is_stmt 1 view .LVU565
 2181              		.loc 1 1100 36 is_stmt 0 view .LVU566
 2182 0046 C369     		ldr	r3, [r0, #28]
 2183 0048 43EA0222 		orr	r2, r3, r2, lsl #8
 2184              	.LVL115:
 2185              		.loc 1 1100 36 view .LVU567
 2186 004c C261     		str	r2, [r0, #28]
1101:Drivers/GD32F30x_standard_peripheral/Source/gd32f30x_timer.c ****         break;
 2187              		.loc 1 1101 9 is_stmt 1 view .LVU568
 2188              	.L117:
1102:Drivers/GD32F30x_standard_peripheral/Source/gd32f30x_timer.c ****     default:
1103:Drivers/GD32F30x_standard_peripheral/Source/gd32f30x_timer.c ****         break;
ARM GAS  C:\Users\Prog\AppData\Local\Temp\ccT8qdHj.s 			page 58


1104:Drivers/GD32F30x_standard_peripheral/Source/gd32f30x_timer.c ****     }
1105:Drivers/GD32F30x_standard_peripheral/Source/gd32f30x_timer.c **** }
 2189              		.loc 1 1105 1 is_stmt 0 view .LVU569
 2190 004e 7047     		bx	lr
 2191              		.cfi_endproc
 2192              	.LFE160:
 2194              		.section	.text.timer_channel_output_fast_config,"ax",%progbits
 2195              		.align	1
 2196              		.global	timer_channel_output_fast_config
 2197              		.syntax unified
 2198              		.thumb
 2199              		.thumb_func
 2200              		.fpu fpv4-sp-d16
 2202              	timer_channel_output_fast_config:
 2203              	.LVL116:
 2204              	.LFB161:
1106:Drivers/GD32F30x_standard_peripheral/Source/gd32f30x_timer.c **** 
1107:Drivers/GD32F30x_standard_peripheral/Source/gd32f30x_timer.c **** /*!
1108:Drivers/GD32F30x_standard_peripheral/Source/gd32f30x_timer.c ****     \brief      configure TIMER channel output fast function
1109:Drivers/GD32F30x_standard_peripheral/Source/gd32f30x_timer.c ****     \param[in]  timer_periph: please refer to the following parameters
1110:Drivers/GD32F30x_standard_peripheral/Source/gd32f30x_timer.c ****     \param[in]  channel:
1111:Drivers/GD32F30x_standard_peripheral/Source/gd32f30x_timer.c ****                 only one parameter can be selected which is shown as below:
1112:Drivers/GD32F30x_standard_peripheral/Source/gd32f30x_timer.c ****       \arg        TIMER_CH_0: TIMER channel0(TIMERx(x=0..4,7..13))
1113:Drivers/GD32F30x_standard_peripheral/Source/gd32f30x_timer.c ****       \arg        TIMER_CH_1: TIMER channel1(TIMERx(x=0..4,7,8,11))
1114:Drivers/GD32F30x_standard_peripheral/Source/gd32f30x_timer.c ****       \arg        TIMER_CH_2: TIMER channel2(TIMERx(x=0..4,7))
1115:Drivers/GD32F30x_standard_peripheral/Source/gd32f30x_timer.c ****       \arg        TIMER_CH_3: TIMER channel3(TIMERx(x=0..4,7))
1116:Drivers/GD32F30x_standard_peripheral/Source/gd32f30x_timer.c ****     \param[in]  ocfast: channel output fast function
1117:Drivers/GD32F30x_standard_peripheral/Source/gd32f30x_timer.c ****                 only one parameter can be selected which is shown as below:
1118:Drivers/GD32F30x_standard_peripheral/Source/gd32f30x_timer.c ****       \arg        TIMER_OC_FAST_ENABLE: channel output fast function enable
1119:Drivers/GD32F30x_standard_peripheral/Source/gd32f30x_timer.c ****       \arg        TIMER_OC_FAST_DISABLE: channel output fast function disable
1120:Drivers/GD32F30x_standard_peripheral/Source/gd32f30x_timer.c ****     \param[out] none
1121:Drivers/GD32F30x_standard_peripheral/Source/gd32f30x_timer.c ****     \retval     none
1122:Drivers/GD32F30x_standard_peripheral/Source/gd32f30x_timer.c **** */
1123:Drivers/GD32F30x_standard_peripheral/Source/gd32f30x_timer.c **** void timer_channel_output_fast_config(uint32_t timer_periph, uint16_t channel, uint16_t ocfast)
1124:Drivers/GD32F30x_standard_peripheral/Source/gd32f30x_timer.c **** {
 2205              		.loc 1 1124 1 is_stmt 1 view -0
 2206              		.cfi_startproc
 2207              		@ args = 0, pretend = 0, frame = 0
 2208              		@ frame_needed = 0, uses_anonymous_args = 0
 2209              		@ link register save eliminated.
1125:Drivers/GD32F30x_standard_peripheral/Source/gd32f30x_timer.c ****     switch(channel){
 2210              		.loc 1 1125 5 view .LVU571
 2211 0000 0329     		cmp	r1, #3
 2212 0002 24D8     		bhi	.L124
 2213 0004 DFE801F0 		tbb	[pc, r1]
 2214              	.L127:
 2215 0008 02       		.byte	(.L130-.L127)/2
 2216 0009 0A       		.byte	(.L129-.L127)/2
 2217 000a 13       		.byte	(.L128-.L127)/2
 2218 000b 1B       		.byte	(.L126-.L127)/2
 2219              		.p2align 1
 2220              	.L130:
1126:Drivers/GD32F30x_standard_peripheral/Source/gd32f30x_timer.c ****     /* configure TIMER_CH_0 */
1127:Drivers/GD32F30x_standard_peripheral/Source/gd32f30x_timer.c ****     case TIMER_CH_0:
1128:Drivers/GD32F30x_standard_peripheral/Source/gd32f30x_timer.c ****         TIMER_CHCTL0(timer_periph) &= (~(uint32_t)TIMER_CHCTL0_CH0COMFEN);
 2221              		.loc 1 1128 9 view .LVU572
 2222              		.loc 1 1128 36 is_stmt 0 view .LVU573
ARM GAS  C:\Users\Prog\AppData\Local\Temp\ccT8qdHj.s 			page 59


 2223 000c 8369     		ldr	r3, [r0, #24]
 2224 000e 23F00403 		bic	r3, r3, #4
 2225 0012 8361     		str	r3, [r0, #24]
1129:Drivers/GD32F30x_standard_peripheral/Source/gd32f30x_timer.c ****         TIMER_CHCTL0(timer_periph) |= (uint32_t)ocfast;
 2226              		.loc 1 1129 9 is_stmt 1 view .LVU574
 2227              		.loc 1 1129 36 is_stmt 0 view .LVU575
 2228 0014 8369     		ldr	r3, [r0, #24]
 2229 0016 1A43     		orrs	r2, r2, r3
 2230              	.LVL117:
 2231              		.loc 1 1129 36 view .LVU576
 2232 0018 8261     		str	r2, [r0, #24]
1130:Drivers/GD32F30x_standard_peripheral/Source/gd32f30x_timer.c ****         break;
 2233              		.loc 1 1130 9 is_stmt 1 view .LVU577
 2234 001a 7047     		bx	lr
 2235              	.LVL118:
 2236              	.L129:
1131:Drivers/GD32F30x_standard_peripheral/Source/gd32f30x_timer.c ****     /* configure TIMER_CH_1 */
1132:Drivers/GD32F30x_standard_peripheral/Source/gd32f30x_timer.c ****     case TIMER_CH_1:
1133:Drivers/GD32F30x_standard_peripheral/Source/gd32f30x_timer.c ****         TIMER_CHCTL0(timer_periph) &= (~(uint32_t)TIMER_CHCTL0_CH1COMFEN);
 2237              		.loc 1 1133 9 view .LVU578
 2238              		.loc 1 1133 36 is_stmt 0 view .LVU579
 2239 001c 8369     		ldr	r3, [r0, #24]
 2240 001e 23F48063 		bic	r3, r3, #1024
 2241 0022 8361     		str	r3, [r0, #24]
1134:Drivers/GD32F30x_standard_peripheral/Source/gd32f30x_timer.c ****         TIMER_CHCTL0(timer_periph) |= (uint32_t)((uint32_t)ocfast << 8U);
 2242              		.loc 1 1134 9 is_stmt 1 view .LVU580
 2243              		.loc 1 1134 36 is_stmt 0 view .LVU581
 2244 0024 8369     		ldr	r3, [r0, #24]
 2245 0026 43EA0222 		orr	r2, r3, r2, lsl #8
 2246              	.LVL119:
 2247              		.loc 1 1134 36 view .LVU582
 2248 002a 8261     		str	r2, [r0, #24]
1135:Drivers/GD32F30x_standard_peripheral/Source/gd32f30x_timer.c ****         break;
 2249              		.loc 1 1135 9 is_stmt 1 view .LVU583
 2250 002c 7047     		bx	lr
 2251              	.LVL120:
 2252              	.L128:
1136:Drivers/GD32F30x_standard_peripheral/Source/gd32f30x_timer.c ****     /* configure TIMER_CH_2 */
1137:Drivers/GD32F30x_standard_peripheral/Source/gd32f30x_timer.c ****     case TIMER_CH_2:
1138:Drivers/GD32F30x_standard_peripheral/Source/gd32f30x_timer.c ****         TIMER_CHCTL1(timer_periph) &= (~(uint32_t)TIMER_CHCTL1_CH2COMFEN);
 2253              		.loc 1 1138 9 view .LVU584
 2254              		.loc 1 1138 36 is_stmt 0 view .LVU585
 2255 002e C369     		ldr	r3, [r0, #28]
 2256 0030 23F00403 		bic	r3, r3, #4
 2257 0034 C361     		str	r3, [r0, #28]
1139:Drivers/GD32F30x_standard_peripheral/Source/gd32f30x_timer.c ****         TIMER_CHCTL1(timer_periph) |= (uint32_t)ocfast;
 2258              		.loc 1 1139 9 is_stmt 1 view .LVU586
 2259              		.loc 1 1139 36 is_stmt 0 view .LVU587
 2260 0036 C369     		ldr	r3, [r0, #28]
 2261 0038 1A43     		orrs	r2, r2, r3
 2262              	.LVL121:
 2263              		.loc 1 1139 36 view .LVU588
 2264 003a C261     		str	r2, [r0, #28]
1140:Drivers/GD32F30x_standard_peripheral/Source/gd32f30x_timer.c ****         break;
 2265              		.loc 1 1140 9 is_stmt 1 view .LVU589
 2266 003c 7047     		bx	lr
 2267              	.LVL122:
ARM GAS  C:\Users\Prog\AppData\Local\Temp\ccT8qdHj.s 			page 60


 2268              	.L126:
1141:Drivers/GD32F30x_standard_peripheral/Source/gd32f30x_timer.c ****     /* configure TIMER_CH_3 */
1142:Drivers/GD32F30x_standard_peripheral/Source/gd32f30x_timer.c ****     case TIMER_CH_3:
1143:Drivers/GD32F30x_standard_peripheral/Source/gd32f30x_timer.c ****         TIMER_CHCTL1(timer_periph) &= (~(uint32_t)TIMER_CHCTL1_CH3COMFEN);
 2269              		.loc 1 1143 9 view .LVU590
 2270              		.loc 1 1143 36 is_stmt 0 view .LVU591
 2271 003e C369     		ldr	r3, [r0, #28]
 2272 0040 23F48063 		bic	r3, r3, #1024
 2273 0044 C361     		str	r3, [r0, #28]
1144:Drivers/GD32F30x_standard_peripheral/Source/gd32f30x_timer.c ****         TIMER_CHCTL1(timer_periph) |= (uint32_t)((uint32_t)ocfast << 8U);
 2274              		.loc 1 1144 9 is_stmt 1 view .LVU592
 2275              		.loc 1 1144 36 is_stmt 0 view .LVU593
 2276 0046 C369     		ldr	r3, [r0, #28]
 2277 0048 43EA0222 		orr	r2, r3, r2, lsl #8
 2278              	.LVL123:
 2279              		.loc 1 1144 36 view .LVU594
 2280 004c C261     		str	r2, [r0, #28]
1145:Drivers/GD32F30x_standard_peripheral/Source/gd32f30x_timer.c ****         break;
 2281              		.loc 1 1145 9 is_stmt 1 view .LVU595
 2282              	.L124:
1146:Drivers/GD32F30x_standard_peripheral/Source/gd32f30x_timer.c ****     default:
1147:Drivers/GD32F30x_standard_peripheral/Source/gd32f30x_timer.c ****         break;
1148:Drivers/GD32F30x_standard_peripheral/Source/gd32f30x_timer.c ****     }
1149:Drivers/GD32F30x_standard_peripheral/Source/gd32f30x_timer.c **** }
 2283              		.loc 1 1149 1 is_stmt 0 view .LVU596
 2284 004e 7047     		bx	lr
 2285              		.cfi_endproc
 2286              	.LFE161:
 2288              		.section	.text.timer_channel_output_clear_config,"ax",%progbits
 2289              		.align	1
 2290              		.global	timer_channel_output_clear_config
 2291              		.syntax unified
 2292              		.thumb
 2293              		.thumb_func
 2294              		.fpu fpv4-sp-d16
 2296              	timer_channel_output_clear_config:
 2297              	.LVL124:
 2298              	.LFB162:
1150:Drivers/GD32F30x_standard_peripheral/Source/gd32f30x_timer.c **** 
1151:Drivers/GD32F30x_standard_peripheral/Source/gd32f30x_timer.c **** /*!
1152:Drivers/GD32F30x_standard_peripheral/Source/gd32f30x_timer.c ****     \brief      configure TIMER channel output clear function
1153:Drivers/GD32F30x_standard_peripheral/Source/gd32f30x_timer.c ****     \param[in]  timer_periph: TIMERx(x=0..4,7)
1154:Drivers/GD32F30x_standard_peripheral/Source/gd32f30x_timer.c ****     \param[in]  channel: 
1155:Drivers/GD32F30x_standard_peripheral/Source/gd32f30x_timer.c ****                 only one parameter can be selected which is shown as below:
1156:Drivers/GD32F30x_standard_peripheral/Source/gd32f30x_timer.c ****       \arg        TIMER_CH_0: TIMER channel0
1157:Drivers/GD32F30x_standard_peripheral/Source/gd32f30x_timer.c ****       \arg        TIMER_CH_1: TIMER channel1
1158:Drivers/GD32F30x_standard_peripheral/Source/gd32f30x_timer.c ****       \arg        TIMER_CH_2: TIMER channel2
1159:Drivers/GD32F30x_standard_peripheral/Source/gd32f30x_timer.c ****       \arg        TIMER_CH_3: TIMER channel3
1160:Drivers/GD32F30x_standard_peripheral/Source/gd32f30x_timer.c ****     \param[in]  occlear: channel output clear function
1161:Drivers/GD32F30x_standard_peripheral/Source/gd32f30x_timer.c ****                 only one parameter can be selected which is shown as below:
1162:Drivers/GD32F30x_standard_peripheral/Source/gd32f30x_timer.c ****       \arg        TIMER_OC_CLEAR_ENABLE: channel output clear function enable
1163:Drivers/GD32F30x_standard_peripheral/Source/gd32f30x_timer.c ****       \arg        TIMER_OC_CLEAR_DISABLE: channel output clear function disable
1164:Drivers/GD32F30x_standard_peripheral/Source/gd32f30x_timer.c ****     \param[out] none
1165:Drivers/GD32F30x_standard_peripheral/Source/gd32f30x_timer.c ****     \retval     none
1166:Drivers/GD32F30x_standard_peripheral/Source/gd32f30x_timer.c **** */
1167:Drivers/GD32F30x_standard_peripheral/Source/gd32f30x_timer.c **** void timer_channel_output_clear_config(uint32_t timer_periph, uint16_t channel, uint16_t occlear)
1168:Drivers/GD32F30x_standard_peripheral/Source/gd32f30x_timer.c **** {
ARM GAS  C:\Users\Prog\AppData\Local\Temp\ccT8qdHj.s 			page 61


 2299              		.loc 1 1168 1 is_stmt 1 view -0
 2300              		.cfi_startproc
 2301              		@ args = 0, pretend = 0, frame = 0
 2302              		@ frame_needed = 0, uses_anonymous_args = 0
 2303              		@ link register save eliminated.
1169:Drivers/GD32F30x_standard_peripheral/Source/gd32f30x_timer.c ****     switch(channel){
 2304              		.loc 1 1169 5 view .LVU598
 2305 0000 0329     		cmp	r1, #3
 2306 0002 24D8     		bhi	.L131
 2307 0004 DFE801F0 		tbb	[pc, r1]
 2308              	.L134:
 2309 0008 02       		.byte	(.L137-.L134)/2
 2310 0009 0A       		.byte	(.L136-.L134)/2
 2311 000a 13       		.byte	(.L135-.L134)/2
 2312 000b 1B       		.byte	(.L133-.L134)/2
 2313              		.p2align 1
 2314              	.L137:
1170:Drivers/GD32F30x_standard_peripheral/Source/gd32f30x_timer.c ****     /* configure TIMER_CH_0 */
1171:Drivers/GD32F30x_standard_peripheral/Source/gd32f30x_timer.c ****     case TIMER_CH_0:
1172:Drivers/GD32F30x_standard_peripheral/Source/gd32f30x_timer.c ****         TIMER_CHCTL0(timer_periph) &= (~(uint32_t)TIMER_CHCTL0_CH0COMCEN);
 2315              		.loc 1 1172 9 view .LVU599
 2316              		.loc 1 1172 36 is_stmt 0 view .LVU600
 2317 000c 8369     		ldr	r3, [r0, #24]
 2318 000e 23F08003 		bic	r3, r3, #128
 2319 0012 8361     		str	r3, [r0, #24]
1173:Drivers/GD32F30x_standard_peripheral/Source/gd32f30x_timer.c ****         TIMER_CHCTL0(timer_periph) |= (uint32_t)occlear;
 2320              		.loc 1 1173 9 is_stmt 1 view .LVU601
 2321              		.loc 1 1173 36 is_stmt 0 view .LVU602
 2322 0014 8369     		ldr	r3, [r0, #24]
 2323 0016 1A43     		orrs	r2, r2, r3
 2324              	.LVL125:
 2325              		.loc 1 1173 36 view .LVU603
 2326 0018 8261     		str	r2, [r0, #24]
1174:Drivers/GD32F30x_standard_peripheral/Source/gd32f30x_timer.c ****         break;
 2327              		.loc 1 1174 9 is_stmt 1 view .LVU604
 2328 001a 7047     		bx	lr
 2329              	.LVL126:
 2330              	.L136:
1175:Drivers/GD32F30x_standard_peripheral/Source/gd32f30x_timer.c ****     /* configure TIMER_CH_1 */
1176:Drivers/GD32F30x_standard_peripheral/Source/gd32f30x_timer.c ****     case TIMER_CH_1:
1177:Drivers/GD32F30x_standard_peripheral/Source/gd32f30x_timer.c ****         TIMER_CHCTL0(timer_periph) &= (~(uint32_t)TIMER_CHCTL0_CH1COMCEN);
 2331              		.loc 1 1177 9 view .LVU605
 2332              		.loc 1 1177 36 is_stmt 0 view .LVU606
 2333 001c 8369     		ldr	r3, [r0, #24]
 2334 001e 23F40043 		bic	r3, r3, #32768
 2335 0022 8361     		str	r3, [r0, #24]
1178:Drivers/GD32F30x_standard_peripheral/Source/gd32f30x_timer.c ****         TIMER_CHCTL0(timer_periph) |= (uint32_t)((uint32_t)occlear << 8U);
 2336              		.loc 1 1178 9 is_stmt 1 view .LVU607
 2337              		.loc 1 1178 36 is_stmt 0 view .LVU608
 2338 0024 8369     		ldr	r3, [r0, #24]
 2339 0026 43EA0222 		orr	r2, r3, r2, lsl #8
 2340              	.LVL127:
 2341              		.loc 1 1178 36 view .LVU609
 2342 002a 8261     		str	r2, [r0, #24]
1179:Drivers/GD32F30x_standard_peripheral/Source/gd32f30x_timer.c ****         break;
 2343              		.loc 1 1179 9 is_stmt 1 view .LVU610
 2344 002c 7047     		bx	lr
ARM GAS  C:\Users\Prog\AppData\Local\Temp\ccT8qdHj.s 			page 62


 2345              	.LVL128:
 2346              	.L135:
1180:Drivers/GD32F30x_standard_peripheral/Source/gd32f30x_timer.c ****     /* configure TIMER_CH_2 */
1181:Drivers/GD32F30x_standard_peripheral/Source/gd32f30x_timer.c ****     case TIMER_CH_2:
1182:Drivers/GD32F30x_standard_peripheral/Source/gd32f30x_timer.c ****         TIMER_CHCTL1(timer_periph) &= (~(uint32_t)TIMER_CHCTL1_CH2COMCEN);
 2347              		.loc 1 1182 9 view .LVU611
 2348              		.loc 1 1182 36 is_stmt 0 view .LVU612
 2349 002e C369     		ldr	r3, [r0, #28]
 2350 0030 23F08003 		bic	r3, r3, #128
 2351 0034 C361     		str	r3, [r0, #28]
1183:Drivers/GD32F30x_standard_peripheral/Source/gd32f30x_timer.c ****         TIMER_CHCTL1(timer_periph) |= (uint32_t)occlear;
 2352              		.loc 1 1183 9 is_stmt 1 view .LVU613
 2353              		.loc 1 1183 36 is_stmt 0 view .LVU614
 2354 0036 C369     		ldr	r3, [r0, #28]
 2355 0038 1A43     		orrs	r2, r2, r3
 2356              	.LVL129:
 2357              		.loc 1 1183 36 view .LVU615
 2358 003a C261     		str	r2, [r0, #28]
1184:Drivers/GD32F30x_standard_peripheral/Source/gd32f30x_timer.c ****         break;
 2359              		.loc 1 1184 9 is_stmt 1 view .LVU616
 2360 003c 7047     		bx	lr
 2361              	.LVL130:
 2362              	.L133:
1185:Drivers/GD32F30x_standard_peripheral/Source/gd32f30x_timer.c ****     /* configure TIMER_CH_3 */
1186:Drivers/GD32F30x_standard_peripheral/Source/gd32f30x_timer.c ****     case TIMER_CH_3:
1187:Drivers/GD32F30x_standard_peripheral/Source/gd32f30x_timer.c ****         TIMER_CHCTL1(timer_periph) &= (~(uint32_t)TIMER_CHCTL1_CH3COMCEN);
 2363              		.loc 1 1187 9 view .LVU617
 2364              		.loc 1 1187 36 is_stmt 0 view .LVU618
 2365 003e C369     		ldr	r3, [r0, #28]
 2366 0040 23F40043 		bic	r3, r3, #32768
 2367 0044 C361     		str	r3, [r0, #28]
1188:Drivers/GD32F30x_standard_peripheral/Source/gd32f30x_timer.c ****         TIMER_CHCTL1(timer_periph) |= (uint32_t)((uint32_t)occlear << 8U);
 2368              		.loc 1 1188 9 is_stmt 1 view .LVU619
 2369              		.loc 1 1188 36 is_stmt 0 view .LVU620
 2370 0046 C369     		ldr	r3, [r0, #28]
 2371 0048 43EA0222 		orr	r2, r3, r2, lsl #8
 2372              	.LVL131:
 2373              		.loc 1 1188 36 view .LVU621
 2374 004c C261     		str	r2, [r0, #28]
1189:Drivers/GD32F30x_standard_peripheral/Source/gd32f30x_timer.c ****         break;
 2375              		.loc 1 1189 9 is_stmt 1 view .LVU622
 2376              	.L131:
1190:Drivers/GD32F30x_standard_peripheral/Source/gd32f30x_timer.c ****     default:
1191:Drivers/GD32F30x_standard_peripheral/Source/gd32f30x_timer.c ****         break;
1192:Drivers/GD32F30x_standard_peripheral/Source/gd32f30x_timer.c ****     }
1193:Drivers/GD32F30x_standard_peripheral/Source/gd32f30x_timer.c **** }
 2377              		.loc 1 1193 1 is_stmt 0 view .LVU623
 2378 004e 7047     		bx	lr
 2379              		.cfi_endproc
 2380              	.LFE162:
 2382              		.section	.text.timer_channel_output_polarity_config,"ax",%progbits
 2383              		.align	1
 2384              		.global	timer_channel_output_polarity_config
 2385              		.syntax unified
 2386              		.thumb
 2387              		.thumb_func
 2388              		.fpu fpv4-sp-d16
ARM GAS  C:\Users\Prog\AppData\Local\Temp\ccT8qdHj.s 			page 63


 2390              	timer_channel_output_polarity_config:
 2391              	.LVL132:
 2392              	.LFB163:
1194:Drivers/GD32F30x_standard_peripheral/Source/gd32f30x_timer.c **** 
1195:Drivers/GD32F30x_standard_peripheral/Source/gd32f30x_timer.c **** /*!
1196:Drivers/GD32F30x_standard_peripheral/Source/gd32f30x_timer.c ****     \brief      configure TIMER channel output polarity 
1197:Drivers/GD32F30x_standard_peripheral/Source/gd32f30x_timer.c ****     \param[in]  timer_periph: please refer to the following parameters
1198:Drivers/GD32F30x_standard_peripheral/Source/gd32f30x_timer.c ****     \param[in]  channel: 
1199:Drivers/GD32F30x_standard_peripheral/Source/gd32f30x_timer.c ****                 only one parameter can be selected which is shown as below:
1200:Drivers/GD32F30x_standard_peripheral/Source/gd32f30x_timer.c ****       \arg        TIMER_CH_0: TIMER channel0(TIMERx(x=0..4,7..13))
1201:Drivers/GD32F30x_standard_peripheral/Source/gd32f30x_timer.c ****       \arg        TIMER_CH_1: TIMER channel1(TIMERx(x=0..4,7,8,11))
1202:Drivers/GD32F30x_standard_peripheral/Source/gd32f30x_timer.c ****       \arg        TIMER_CH_2: TIMER channel2(TIMERx(x=0..4,7))
1203:Drivers/GD32F30x_standard_peripheral/Source/gd32f30x_timer.c ****       \arg        TIMER_CH_3: TIMER channel3(TIMERx(x=0..4,7))
1204:Drivers/GD32F30x_standard_peripheral/Source/gd32f30x_timer.c ****     \param[in]  ocpolarity: channel output polarity 
1205:Drivers/GD32F30x_standard_peripheral/Source/gd32f30x_timer.c ****                 only one parameter can be selected which is shown as below:
1206:Drivers/GD32F30x_standard_peripheral/Source/gd32f30x_timer.c ****       \arg        TIMER_OC_POLARITY_HIGH: channel output polarity is high
1207:Drivers/GD32F30x_standard_peripheral/Source/gd32f30x_timer.c ****       \arg        TIMER_OC_POLARITY_LOW: channel output polarity is low
1208:Drivers/GD32F30x_standard_peripheral/Source/gd32f30x_timer.c ****     \param[out] none
1209:Drivers/GD32F30x_standard_peripheral/Source/gd32f30x_timer.c ****     \retval     none
1210:Drivers/GD32F30x_standard_peripheral/Source/gd32f30x_timer.c **** */
1211:Drivers/GD32F30x_standard_peripheral/Source/gd32f30x_timer.c **** void timer_channel_output_polarity_config(uint32_t timer_periph, uint16_t channel, uint16_t ocpolar
1212:Drivers/GD32F30x_standard_peripheral/Source/gd32f30x_timer.c **** {
 2393              		.loc 1 1212 1 is_stmt 1 view -0
 2394              		.cfi_startproc
 2395              		@ args = 0, pretend = 0, frame = 0
 2396              		@ frame_needed = 0, uses_anonymous_args = 0
 2397              		@ link register save eliminated.
1213:Drivers/GD32F30x_standard_peripheral/Source/gd32f30x_timer.c ****     switch(channel){
 2398              		.loc 1 1213 5 view .LVU625
 2399 0000 0329     		cmp	r1, #3
 2400 0002 25D8     		bhi	.L138
 2401 0004 DFE801F0 		tbb	[pc, r1]
 2402              	.L141:
 2403 0008 02       		.byte	(.L144-.L141)/2
 2404 0009 0A       		.byte	(.L143-.L141)/2
 2405 000a 13       		.byte	(.L142-.L141)/2
 2406 000b 1C       		.byte	(.L140-.L141)/2
 2407              		.p2align 1
 2408              	.L144:
1214:Drivers/GD32F30x_standard_peripheral/Source/gd32f30x_timer.c ****     /* configure TIMER_CH_0 */
1215:Drivers/GD32F30x_standard_peripheral/Source/gd32f30x_timer.c ****     case TIMER_CH_0:
1216:Drivers/GD32F30x_standard_peripheral/Source/gd32f30x_timer.c ****         TIMER_CHCTL2(timer_periph) &= (~(uint32_t)TIMER_CHCTL2_CH0P);
 2409              		.loc 1 1216 9 view .LVU626
 2410              		.loc 1 1216 36 is_stmt 0 view .LVU627
 2411 000c 036A     		ldr	r3, [r0, #32]
 2412 000e 23F00203 		bic	r3, r3, #2
 2413 0012 0362     		str	r3, [r0, #32]
1217:Drivers/GD32F30x_standard_peripheral/Source/gd32f30x_timer.c ****         TIMER_CHCTL2(timer_periph) |= (uint32_t)ocpolarity;
 2414              		.loc 1 1217 9 is_stmt 1 view .LVU628
 2415              		.loc 1 1217 36 is_stmt 0 view .LVU629
 2416 0014 036A     		ldr	r3, [r0, #32]
 2417 0016 1A43     		orrs	r2, r2, r3
 2418              	.LVL133:
 2419              		.loc 1 1217 36 view .LVU630
 2420 0018 0262     		str	r2, [r0, #32]
1218:Drivers/GD32F30x_standard_peripheral/Source/gd32f30x_timer.c ****         break;
 2421              		.loc 1 1218 9 is_stmt 1 view .LVU631
ARM GAS  C:\Users\Prog\AppData\Local\Temp\ccT8qdHj.s 			page 64


 2422 001a 7047     		bx	lr
 2423              	.LVL134:
 2424              	.L143:
1219:Drivers/GD32F30x_standard_peripheral/Source/gd32f30x_timer.c ****     /* configure TIMER_CH_1 */
1220:Drivers/GD32F30x_standard_peripheral/Source/gd32f30x_timer.c ****     case TIMER_CH_1:
1221:Drivers/GD32F30x_standard_peripheral/Source/gd32f30x_timer.c ****         TIMER_CHCTL2(timer_periph) &= (~(uint32_t)TIMER_CHCTL2_CH1P);
 2425              		.loc 1 1221 9 view .LVU632
 2426              		.loc 1 1221 36 is_stmt 0 view .LVU633
 2427 001c 036A     		ldr	r3, [r0, #32]
 2428 001e 23F02003 		bic	r3, r3, #32
 2429 0022 0362     		str	r3, [r0, #32]
1222:Drivers/GD32F30x_standard_peripheral/Source/gd32f30x_timer.c ****         TIMER_CHCTL2(timer_periph) |= (uint32_t)((uint32_t)ocpolarity << 4U);
 2430              		.loc 1 1222 9 is_stmt 1 view .LVU634
 2431              		.loc 1 1222 36 is_stmt 0 view .LVU635
 2432 0024 036A     		ldr	r3, [r0, #32]
 2433 0026 43EA0212 		orr	r2, r3, r2, lsl #4
 2434              	.LVL135:
 2435              		.loc 1 1222 36 view .LVU636
 2436 002a 0262     		str	r2, [r0, #32]
1223:Drivers/GD32F30x_standard_peripheral/Source/gd32f30x_timer.c ****         break;
 2437              		.loc 1 1223 9 is_stmt 1 view .LVU637
 2438 002c 7047     		bx	lr
 2439              	.LVL136:
 2440              	.L142:
1224:Drivers/GD32F30x_standard_peripheral/Source/gd32f30x_timer.c ****     /* configure TIMER_CH_2 */
1225:Drivers/GD32F30x_standard_peripheral/Source/gd32f30x_timer.c ****     case TIMER_CH_2:
1226:Drivers/GD32F30x_standard_peripheral/Source/gd32f30x_timer.c ****         TIMER_CHCTL2(timer_periph) &= (~(uint32_t)TIMER_CHCTL2_CH2P);
 2441              		.loc 1 1226 9 view .LVU638
 2442              		.loc 1 1226 36 is_stmt 0 view .LVU639
 2443 002e 036A     		ldr	r3, [r0, #32]
 2444 0030 23F40073 		bic	r3, r3, #512
 2445 0034 0362     		str	r3, [r0, #32]
1227:Drivers/GD32F30x_standard_peripheral/Source/gd32f30x_timer.c ****         TIMER_CHCTL2(timer_periph) |= (uint32_t)((uint32_t)ocpolarity << 8U);
 2446              		.loc 1 1227 9 is_stmt 1 view .LVU640
 2447              		.loc 1 1227 36 is_stmt 0 view .LVU641
 2448 0036 036A     		ldr	r3, [r0, #32]
 2449 0038 43EA0222 		orr	r2, r3, r2, lsl #8
 2450              	.LVL137:
 2451              		.loc 1 1227 36 view .LVU642
 2452 003c 0262     		str	r2, [r0, #32]
1228:Drivers/GD32F30x_standard_peripheral/Source/gd32f30x_timer.c ****         break;
 2453              		.loc 1 1228 9 is_stmt 1 view .LVU643
 2454 003e 7047     		bx	lr
 2455              	.LVL138:
 2456              	.L140:
1229:Drivers/GD32F30x_standard_peripheral/Source/gd32f30x_timer.c ****     /* configure TIMER_CH_3 */
1230:Drivers/GD32F30x_standard_peripheral/Source/gd32f30x_timer.c ****     case TIMER_CH_3:
1231:Drivers/GD32F30x_standard_peripheral/Source/gd32f30x_timer.c ****         TIMER_CHCTL2(timer_periph) &= (~(uint32_t)TIMER_CHCTL2_CH3P);
 2457              		.loc 1 1231 9 view .LVU644
 2458              		.loc 1 1231 36 is_stmt 0 view .LVU645
 2459 0040 036A     		ldr	r3, [r0, #32]
 2460 0042 23F40053 		bic	r3, r3, #8192
 2461 0046 0362     		str	r3, [r0, #32]
1232:Drivers/GD32F30x_standard_peripheral/Source/gd32f30x_timer.c ****         TIMER_CHCTL2(timer_periph) |= (uint32_t)((uint32_t)ocpolarity << 12U);
 2462              		.loc 1 1232 9 is_stmt 1 view .LVU646
 2463              		.loc 1 1232 36 is_stmt 0 view .LVU647
 2464 0048 036A     		ldr	r3, [r0, #32]
ARM GAS  C:\Users\Prog\AppData\Local\Temp\ccT8qdHj.s 			page 65


 2465 004a 43EA0232 		orr	r2, r3, r2, lsl #12
 2466              	.LVL139:
 2467              		.loc 1 1232 36 view .LVU648
 2468 004e 0262     		str	r2, [r0, #32]
1233:Drivers/GD32F30x_standard_peripheral/Source/gd32f30x_timer.c ****         break;
 2469              		.loc 1 1233 9 is_stmt 1 view .LVU649
 2470              	.L138:
1234:Drivers/GD32F30x_standard_peripheral/Source/gd32f30x_timer.c ****     default:
1235:Drivers/GD32F30x_standard_peripheral/Source/gd32f30x_timer.c ****         break;
1236:Drivers/GD32F30x_standard_peripheral/Source/gd32f30x_timer.c ****     }
1237:Drivers/GD32F30x_standard_peripheral/Source/gd32f30x_timer.c **** }
 2471              		.loc 1 1237 1 is_stmt 0 view .LVU650
 2472 0050 7047     		bx	lr
 2473              		.cfi_endproc
 2474              	.LFE163:
 2476              		.section	.text.timer_channel_complementary_output_polarity_config,"ax",%progbits
 2477              		.align	1
 2478              		.global	timer_channel_complementary_output_polarity_config
 2479              		.syntax unified
 2480              		.thumb
 2481              		.thumb_func
 2482              		.fpu fpv4-sp-d16
 2484              	timer_channel_complementary_output_polarity_config:
 2485              	.LVL140:
 2486              	.LFB164:
1238:Drivers/GD32F30x_standard_peripheral/Source/gd32f30x_timer.c **** 
1239:Drivers/GD32F30x_standard_peripheral/Source/gd32f30x_timer.c **** /*!
1240:Drivers/GD32F30x_standard_peripheral/Source/gd32f30x_timer.c ****     \brief      configure TIMER channel complementary output polarity 
1241:Drivers/GD32F30x_standard_peripheral/Source/gd32f30x_timer.c ****     \param[in]  timer_periph: please refer to the following parameters
1242:Drivers/GD32F30x_standard_peripheral/Source/gd32f30x_timer.c ****     \param[in]  channel:
1243:Drivers/GD32F30x_standard_peripheral/Source/gd32f30x_timer.c ****                 only one parameter can be selected which is shown as below:
1244:Drivers/GD32F30x_standard_peripheral/Source/gd32f30x_timer.c ****       \arg        TIMER_CH_0: TIMER channel0(TIMERx(x=0,7..13))
1245:Drivers/GD32F30x_standard_peripheral/Source/gd32f30x_timer.c ****       \arg        TIMER_CH_1: TIMER channel1(TIMERx(x=0,7,8,11))
1246:Drivers/GD32F30x_standard_peripheral/Source/gd32f30x_timer.c ****       \arg        TIMER_CH_2: TIMER channel2(TIMERx(x=0,7))
1247:Drivers/GD32F30x_standard_peripheral/Source/gd32f30x_timer.c ****     \param[in]  ocnpolarity: channel complementary output polarity 
1248:Drivers/GD32F30x_standard_peripheral/Source/gd32f30x_timer.c ****                 only one parameter can be selected which is shown as below:
1249:Drivers/GD32F30x_standard_peripheral/Source/gd32f30x_timer.c ****       \arg        TIMER_OCN_POLARITY_HIGH: channel complementary output polarity is high
1250:Drivers/GD32F30x_standard_peripheral/Source/gd32f30x_timer.c ****       \arg        TIMER_OCN_POLARITY_LOW: channel complementary output polarity is low
1251:Drivers/GD32F30x_standard_peripheral/Source/gd32f30x_timer.c ****     \param[out] none
1252:Drivers/GD32F30x_standard_peripheral/Source/gd32f30x_timer.c ****     \retval     none
1253:Drivers/GD32F30x_standard_peripheral/Source/gd32f30x_timer.c **** */
1254:Drivers/GD32F30x_standard_peripheral/Source/gd32f30x_timer.c **** void timer_channel_complementary_output_polarity_config(uint32_t timer_periph, uint16_t channel, ui
1255:Drivers/GD32F30x_standard_peripheral/Source/gd32f30x_timer.c **** {
 2487              		.loc 1 1255 1 is_stmt 1 view -0
 2488              		.cfi_startproc
 2489              		@ args = 0, pretend = 0, frame = 0
 2490              		@ frame_needed = 0, uses_anonymous_args = 0
 2491              		@ link register save eliminated.
1256:Drivers/GD32F30x_standard_peripheral/Source/gd32f30x_timer.c ****     switch(channel){
 2492              		.loc 1 1256 5 view .LVU652
 2493 0000 0129     		cmp	r1, #1
 2494 0002 0BD0     		beq	.L146
 2495 0004 0229     		cmp	r1, #2
 2496 0006 12D0     		beq	.L147
 2497 0008 01B1     		cbz	r1, .L149
 2498              	.LVL141:
 2499              	.L145:
ARM GAS  C:\Users\Prog\AppData\Local\Temp\ccT8qdHj.s 			page 66


1257:Drivers/GD32F30x_standard_peripheral/Source/gd32f30x_timer.c ****     /* configure TIMER_CH_0 */
1258:Drivers/GD32F30x_standard_peripheral/Source/gd32f30x_timer.c ****     case TIMER_CH_0:
1259:Drivers/GD32F30x_standard_peripheral/Source/gd32f30x_timer.c ****         TIMER_CHCTL2(timer_periph) &= (~(uint32_t)TIMER_CHCTL2_CH0NP);
1260:Drivers/GD32F30x_standard_peripheral/Source/gd32f30x_timer.c ****         TIMER_CHCTL2(timer_periph) |= (uint32_t)ocnpolarity;
1261:Drivers/GD32F30x_standard_peripheral/Source/gd32f30x_timer.c ****         break;
1262:Drivers/GD32F30x_standard_peripheral/Source/gd32f30x_timer.c ****     /* configure TIMER_CH_1 */
1263:Drivers/GD32F30x_standard_peripheral/Source/gd32f30x_timer.c ****     case TIMER_CH_1:
1264:Drivers/GD32F30x_standard_peripheral/Source/gd32f30x_timer.c ****         TIMER_CHCTL2(timer_periph) &= (~(uint32_t)TIMER_CHCTL2_CH1NP);
1265:Drivers/GD32F30x_standard_peripheral/Source/gd32f30x_timer.c ****         TIMER_CHCTL2(timer_periph) |= (uint32_t)((uint32_t)ocnpolarity << 4U);
1266:Drivers/GD32F30x_standard_peripheral/Source/gd32f30x_timer.c ****         break;
1267:Drivers/GD32F30x_standard_peripheral/Source/gd32f30x_timer.c ****     /* configure TIMER_CH_2 */
1268:Drivers/GD32F30x_standard_peripheral/Source/gd32f30x_timer.c ****     case TIMER_CH_2:
1269:Drivers/GD32F30x_standard_peripheral/Source/gd32f30x_timer.c ****         TIMER_CHCTL2(timer_periph) &= (~(uint32_t)TIMER_CHCTL2_CH2NP);
1270:Drivers/GD32F30x_standard_peripheral/Source/gd32f30x_timer.c ****         TIMER_CHCTL2(timer_periph) |= (uint32_t)((uint32_t)ocnpolarity << 8U);
1271:Drivers/GD32F30x_standard_peripheral/Source/gd32f30x_timer.c ****         break;
1272:Drivers/GD32F30x_standard_peripheral/Source/gd32f30x_timer.c ****     default:
1273:Drivers/GD32F30x_standard_peripheral/Source/gd32f30x_timer.c ****         break;
1274:Drivers/GD32F30x_standard_peripheral/Source/gd32f30x_timer.c ****     }
1275:Drivers/GD32F30x_standard_peripheral/Source/gd32f30x_timer.c **** }
 2500              		.loc 1 1275 1 is_stmt 0 view .LVU653
 2501 000a 7047     		bx	lr
 2502              	.LVL142:
 2503              	.L149:
1259:Drivers/GD32F30x_standard_peripheral/Source/gd32f30x_timer.c ****         TIMER_CHCTL2(timer_periph) |= (uint32_t)ocnpolarity;
 2504              		.loc 1 1259 9 is_stmt 1 view .LVU654
1259:Drivers/GD32F30x_standard_peripheral/Source/gd32f30x_timer.c ****         TIMER_CHCTL2(timer_periph) |= (uint32_t)ocnpolarity;
 2505              		.loc 1 1259 36 is_stmt 0 view .LVU655
 2506 000c 036A     		ldr	r3, [r0, #32]
 2507 000e 23F00803 		bic	r3, r3, #8
 2508 0012 0362     		str	r3, [r0, #32]
1260:Drivers/GD32F30x_standard_peripheral/Source/gd32f30x_timer.c ****         break;
 2509              		.loc 1 1260 9 is_stmt 1 view .LVU656
1260:Drivers/GD32F30x_standard_peripheral/Source/gd32f30x_timer.c ****         break;
 2510              		.loc 1 1260 36 is_stmt 0 view .LVU657
 2511 0014 036A     		ldr	r3, [r0, #32]
 2512 0016 1A43     		orrs	r2, r2, r3
 2513              	.LVL143:
1260:Drivers/GD32F30x_standard_peripheral/Source/gd32f30x_timer.c ****         break;
 2514              		.loc 1 1260 36 view .LVU658
 2515 0018 0262     		str	r2, [r0, #32]
1261:Drivers/GD32F30x_standard_peripheral/Source/gd32f30x_timer.c ****     /* configure TIMER_CH_1 */
 2516              		.loc 1 1261 9 is_stmt 1 view .LVU659
 2517 001a 7047     		bx	lr
 2518              	.LVL144:
 2519              	.L146:
1264:Drivers/GD32F30x_standard_peripheral/Source/gd32f30x_timer.c ****         TIMER_CHCTL2(timer_periph) |= (uint32_t)((uint32_t)ocnpolarity << 4U);
 2520              		.loc 1 1264 9 view .LVU660
1264:Drivers/GD32F30x_standard_peripheral/Source/gd32f30x_timer.c ****         TIMER_CHCTL2(timer_periph) |= (uint32_t)((uint32_t)ocnpolarity << 4U);
 2521              		.loc 1 1264 36 is_stmt 0 view .LVU661
 2522 001c 036A     		ldr	r3, [r0, #32]
 2523 001e 23F08003 		bic	r3, r3, #128
 2524 0022 0362     		str	r3, [r0, #32]
1265:Drivers/GD32F30x_standard_peripheral/Source/gd32f30x_timer.c ****         break;
 2525              		.loc 1 1265 9 is_stmt 1 view .LVU662
1265:Drivers/GD32F30x_standard_peripheral/Source/gd32f30x_timer.c ****         break;
 2526              		.loc 1 1265 36 is_stmt 0 view .LVU663
 2527 0024 036A     		ldr	r3, [r0, #32]
ARM GAS  C:\Users\Prog\AppData\Local\Temp\ccT8qdHj.s 			page 67


 2528 0026 43EA0212 		orr	r2, r3, r2, lsl #4
 2529              	.LVL145:
1265:Drivers/GD32F30x_standard_peripheral/Source/gd32f30x_timer.c ****         break;
 2530              		.loc 1 1265 36 view .LVU664
 2531 002a 0262     		str	r2, [r0, #32]
1266:Drivers/GD32F30x_standard_peripheral/Source/gd32f30x_timer.c ****     /* configure TIMER_CH_2 */
 2532              		.loc 1 1266 9 is_stmt 1 view .LVU665
 2533 002c 7047     		bx	lr
 2534              	.LVL146:
 2535              	.L147:
1269:Drivers/GD32F30x_standard_peripheral/Source/gd32f30x_timer.c ****         TIMER_CHCTL2(timer_periph) |= (uint32_t)((uint32_t)ocnpolarity << 8U);
 2536              		.loc 1 1269 9 view .LVU666
1269:Drivers/GD32F30x_standard_peripheral/Source/gd32f30x_timer.c ****         TIMER_CHCTL2(timer_periph) |= (uint32_t)((uint32_t)ocnpolarity << 8U);
 2537              		.loc 1 1269 36 is_stmt 0 view .LVU667
 2538 002e 036A     		ldr	r3, [r0, #32]
 2539 0030 23F40063 		bic	r3, r3, #2048
 2540 0034 0362     		str	r3, [r0, #32]
1270:Drivers/GD32F30x_standard_peripheral/Source/gd32f30x_timer.c ****         break;
 2541              		.loc 1 1270 9 is_stmt 1 view .LVU668
1270:Drivers/GD32F30x_standard_peripheral/Source/gd32f30x_timer.c ****         break;
 2542              		.loc 1 1270 36 is_stmt 0 view .LVU669
 2543 0036 036A     		ldr	r3, [r0, #32]
 2544 0038 43EA0222 		orr	r2, r3, r2, lsl #8
 2545              	.LVL147:
1270:Drivers/GD32F30x_standard_peripheral/Source/gd32f30x_timer.c ****         break;
 2546              		.loc 1 1270 36 view .LVU670
 2547 003c 0262     		str	r2, [r0, #32]
1271:Drivers/GD32F30x_standard_peripheral/Source/gd32f30x_timer.c ****     default:
 2548              		.loc 1 1271 9 is_stmt 1 view .LVU671
 2549              		.loc 1 1275 1 is_stmt 0 view .LVU672
 2550 003e E4E7     		b	.L145
 2551              		.cfi_endproc
 2552              	.LFE164:
 2554              		.section	.text.timer_channel_output_state_config,"ax",%progbits
 2555              		.align	1
 2556              		.global	timer_channel_output_state_config
 2557              		.syntax unified
 2558              		.thumb
 2559              		.thumb_func
 2560              		.fpu fpv4-sp-d16
 2562              	timer_channel_output_state_config:
 2563              	.LVL148:
 2564              	.LFB165:
1276:Drivers/GD32F30x_standard_peripheral/Source/gd32f30x_timer.c **** 
1277:Drivers/GD32F30x_standard_peripheral/Source/gd32f30x_timer.c **** /*!
1278:Drivers/GD32F30x_standard_peripheral/Source/gd32f30x_timer.c ****     \brief      configure TIMER channel enable state
1279:Drivers/GD32F30x_standard_peripheral/Source/gd32f30x_timer.c ****     \param[in]  timer_periph: please refer to the following parameters
1280:Drivers/GD32F30x_standard_peripheral/Source/gd32f30x_timer.c ****     \param[in]  channel: 
1281:Drivers/GD32F30x_standard_peripheral/Source/gd32f30x_timer.c ****                 only one parameter can be selected which is shown as below:
1282:Drivers/GD32F30x_standard_peripheral/Source/gd32f30x_timer.c ****       \arg        TIMER_CH_0: TIMER channel0(TIMERx(x=0..4,7..13))
1283:Drivers/GD32F30x_standard_peripheral/Source/gd32f30x_timer.c ****       \arg        TIMER_CH_1: TIMER channel1(TIMERx(x=0..4,7,8,11))
1284:Drivers/GD32F30x_standard_peripheral/Source/gd32f30x_timer.c ****       \arg        TIMER_CH_2: TIMER channel2(TIMERx(x=0..4,7))
1285:Drivers/GD32F30x_standard_peripheral/Source/gd32f30x_timer.c ****       \arg        TIMER_CH_3: TIMER channel3(TIMERx(x=0..4,7))
1286:Drivers/GD32F30x_standard_peripheral/Source/gd32f30x_timer.c ****     \param[in]  state: TIMER channel enable state
1287:Drivers/GD32F30x_standard_peripheral/Source/gd32f30x_timer.c ****                 only one parameter can be selected which is shown as below:
1288:Drivers/GD32F30x_standard_peripheral/Source/gd32f30x_timer.c ****       \arg        TIMER_CCX_ENABLE: channel enable 
1289:Drivers/GD32F30x_standard_peripheral/Source/gd32f30x_timer.c ****       \arg        TIMER_CCX_DISABLE: channel disable 
ARM GAS  C:\Users\Prog\AppData\Local\Temp\ccT8qdHj.s 			page 68


1290:Drivers/GD32F30x_standard_peripheral/Source/gd32f30x_timer.c ****     \param[out] none
1291:Drivers/GD32F30x_standard_peripheral/Source/gd32f30x_timer.c ****     \retval     none
1292:Drivers/GD32F30x_standard_peripheral/Source/gd32f30x_timer.c **** */
1293:Drivers/GD32F30x_standard_peripheral/Source/gd32f30x_timer.c **** void timer_channel_output_state_config(uint32_t timer_periph, uint16_t channel, uint32_t state)
1294:Drivers/GD32F30x_standard_peripheral/Source/gd32f30x_timer.c **** {
 2565              		.loc 1 1294 1 is_stmt 1 view -0
 2566              		.cfi_startproc
 2567              		@ args = 0, pretend = 0, frame = 0
 2568              		@ frame_needed = 0, uses_anonymous_args = 0
 2569              		@ link register save eliminated.
1295:Drivers/GD32F30x_standard_peripheral/Source/gd32f30x_timer.c ****     switch(channel){
 2570              		.loc 1 1295 5 view .LVU674
 2571 0000 0329     		cmp	r1, #3
 2572 0002 25D8     		bhi	.L150
 2573 0004 DFE801F0 		tbb	[pc, r1]
 2574              	.L153:
 2575 0008 02       		.byte	(.L156-.L153)/2
 2576 0009 0A       		.byte	(.L155-.L153)/2
 2577 000a 13       		.byte	(.L154-.L153)/2
 2578 000b 1C       		.byte	(.L152-.L153)/2
 2579              		.p2align 1
 2580              	.L156:
1296:Drivers/GD32F30x_standard_peripheral/Source/gd32f30x_timer.c ****     /* configure TIMER_CH_0 */
1297:Drivers/GD32F30x_standard_peripheral/Source/gd32f30x_timer.c ****     case TIMER_CH_0:
1298:Drivers/GD32F30x_standard_peripheral/Source/gd32f30x_timer.c ****         TIMER_CHCTL2(timer_periph) &= (~(uint32_t)TIMER_CHCTL2_CH0EN);
 2581              		.loc 1 1298 9 view .LVU675
 2582              		.loc 1 1298 36 is_stmt 0 view .LVU676
 2583 000c 036A     		ldr	r3, [r0, #32]
 2584 000e 23F00103 		bic	r3, r3, #1
 2585 0012 0362     		str	r3, [r0, #32]
1299:Drivers/GD32F30x_standard_peripheral/Source/gd32f30x_timer.c ****         TIMER_CHCTL2(timer_periph) |= (uint32_t)state;
 2586              		.loc 1 1299 9 is_stmt 1 view .LVU677
 2587              		.loc 1 1299 36 is_stmt 0 view .LVU678
 2588 0014 036A     		ldr	r3, [r0, #32]
 2589 0016 1A43     		orrs	r2, r2, r3
 2590              	.LVL149:
 2591              		.loc 1 1299 36 view .LVU679
 2592 0018 0262     		str	r2, [r0, #32]
1300:Drivers/GD32F30x_standard_peripheral/Source/gd32f30x_timer.c ****         break;
 2593              		.loc 1 1300 9 is_stmt 1 view .LVU680
 2594 001a 7047     		bx	lr
 2595              	.LVL150:
 2596              	.L155:
1301:Drivers/GD32F30x_standard_peripheral/Source/gd32f30x_timer.c ****     /* configure TIMER_CH_1 */
1302:Drivers/GD32F30x_standard_peripheral/Source/gd32f30x_timer.c ****     case TIMER_CH_1:
1303:Drivers/GD32F30x_standard_peripheral/Source/gd32f30x_timer.c ****         TIMER_CHCTL2(timer_periph) &= (~(uint32_t)TIMER_CHCTL2_CH1EN);
 2597              		.loc 1 1303 9 view .LVU681
 2598              		.loc 1 1303 36 is_stmt 0 view .LVU682
 2599 001c 036A     		ldr	r3, [r0, #32]
 2600 001e 23F01003 		bic	r3, r3, #16
 2601 0022 0362     		str	r3, [r0, #32]
1304:Drivers/GD32F30x_standard_peripheral/Source/gd32f30x_timer.c ****         TIMER_CHCTL2(timer_periph) |= (uint32_t)((uint32_t)state << 4U);
 2602              		.loc 1 1304 9 is_stmt 1 view .LVU683
 2603              		.loc 1 1304 36 is_stmt 0 view .LVU684
 2604 0024 036A     		ldr	r3, [r0, #32]
 2605 0026 43EA0212 		orr	r2, r3, r2, lsl #4
 2606              	.LVL151:
ARM GAS  C:\Users\Prog\AppData\Local\Temp\ccT8qdHj.s 			page 69


 2607              		.loc 1 1304 36 view .LVU685
 2608 002a 0262     		str	r2, [r0, #32]
1305:Drivers/GD32F30x_standard_peripheral/Source/gd32f30x_timer.c ****         break;
 2609              		.loc 1 1305 9 is_stmt 1 view .LVU686
 2610 002c 7047     		bx	lr
 2611              	.LVL152:
 2612              	.L154:
1306:Drivers/GD32F30x_standard_peripheral/Source/gd32f30x_timer.c ****     /* configure TIMER_CH_2 */
1307:Drivers/GD32F30x_standard_peripheral/Source/gd32f30x_timer.c ****     case TIMER_CH_2:
1308:Drivers/GD32F30x_standard_peripheral/Source/gd32f30x_timer.c ****         TIMER_CHCTL2(timer_periph) &= (~(uint32_t)TIMER_CHCTL2_CH2EN);
 2613              		.loc 1 1308 9 view .LVU687
 2614              		.loc 1 1308 36 is_stmt 0 view .LVU688
 2615 002e 036A     		ldr	r3, [r0, #32]
 2616 0030 23F48073 		bic	r3, r3, #256
 2617 0034 0362     		str	r3, [r0, #32]
1309:Drivers/GD32F30x_standard_peripheral/Source/gd32f30x_timer.c ****         TIMER_CHCTL2(timer_periph) |= (uint32_t)((uint32_t)state << 8U);
 2618              		.loc 1 1309 9 is_stmt 1 view .LVU689
 2619              		.loc 1 1309 36 is_stmt 0 view .LVU690
 2620 0036 036A     		ldr	r3, [r0, #32]
 2621 0038 43EA0222 		orr	r2, r3, r2, lsl #8
 2622              	.LVL153:
 2623              		.loc 1 1309 36 view .LVU691
 2624 003c 0262     		str	r2, [r0, #32]
1310:Drivers/GD32F30x_standard_peripheral/Source/gd32f30x_timer.c ****         break;
 2625              		.loc 1 1310 9 is_stmt 1 view .LVU692
 2626 003e 7047     		bx	lr
 2627              	.LVL154:
 2628              	.L152:
1311:Drivers/GD32F30x_standard_peripheral/Source/gd32f30x_timer.c ****     /* configure TIMER_CH_3 */
1312:Drivers/GD32F30x_standard_peripheral/Source/gd32f30x_timer.c ****     case TIMER_CH_3:
1313:Drivers/GD32F30x_standard_peripheral/Source/gd32f30x_timer.c ****         TIMER_CHCTL2(timer_periph) &= (~(uint32_t)TIMER_CHCTL2_CH3EN);
 2629              		.loc 1 1313 9 view .LVU693
 2630              		.loc 1 1313 36 is_stmt 0 view .LVU694
 2631 0040 036A     		ldr	r3, [r0, #32]
 2632 0042 23F48053 		bic	r3, r3, #4096
 2633 0046 0362     		str	r3, [r0, #32]
1314:Drivers/GD32F30x_standard_peripheral/Source/gd32f30x_timer.c ****         TIMER_CHCTL2(timer_periph) |= (uint32_t)((uint32_t)state << 12U);
 2634              		.loc 1 1314 9 is_stmt 1 view .LVU695
 2635              		.loc 1 1314 36 is_stmt 0 view .LVU696
 2636 0048 036A     		ldr	r3, [r0, #32]
 2637 004a 43EA0232 		orr	r2, r3, r2, lsl #12
 2638              	.LVL155:
 2639              		.loc 1 1314 36 view .LVU697
 2640 004e 0262     		str	r2, [r0, #32]
1315:Drivers/GD32F30x_standard_peripheral/Source/gd32f30x_timer.c ****         break;
 2641              		.loc 1 1315 9 is_stmt 1 view .LVU698
 2642              	.L150:
1316:Drivers/GD32F30x_standard_peripheral/Source/gd32f30x_timer.c ****     default:
1317:Drivers/GD32F30x_standard_peripheral/Source/gd32f30x_timer.c ****         break;
1318:Drivers/GD32F30x_standard_peripheral/Source/gd32f30x_timer.c ****     }
1319:Drivers/GD32F30x_standard_peripheral/Source/gd32f30x_timer.c **** }
 2643              		.loc 1 1319 1 is_stmt 0 view .LVU699
 2644 0050 7047     		bx	lr
 2645              		.cfi_endproc
 2646              	.LFE165:
 2648              		.section	.text.timer_channel_complementary_output_state_config,"ax",%progbits
 2649              		.align	1
ARM GAS  C:\Users\Prog\AppData\Local\Temp\ccT8qdHj.s 			page 70


 2650              		.global	timer_channel_complementary_output_state_config
 2651              		.syntax unified
 2652              		.thumb
 2653              		.thumb_func
 2654              		.fpu fpv4-sp-d16
 2656              	timer_channel_complementary_output_state_config:
 2657              	.LVL156:
 2658              	.LFB166:
1320:Drivers/GD32F30x_standard_peripheral/Source/gd32f30x_timer.c **** 
1321:Drivers/GD32F30x_standard_peripheral/Source/gd32f30x_timer.c **** /*!
1322:Drivers/GD32F30x_standard_peripheral/Source/gd32f30x_timer.c ****     \brief      configure TIMER channel complementary output enable state
1323:Drivers/GD32F30x_standard_peripheral/Source/gd32f30x_timer.c ****     \param[in]  timer_periph: please refer to the following parameters
1324:Drivers/GD32F30x_standard_peripheral/Source/gd32f30x_timer.c ****     \param[in]  channel: 
1325:Drivers/GD32F30x_standard_peripheral/Source/gd32f30x_timer.c ****                 only one parameter can be selected which is shown as below:
1326:Drivers/GD32F30x_standard_peripheral/Source/gd32f30x_timer.c ****       \arg        TIMER_CH_0: TIMER channel0(TIMERx(x=0,7))
1327:Drivers/GD32F30x_standard_peripheral/Source/gd32f30x_timer.c ****       \arg        TIMER_CH_1: TIMER channel1(TIMERx(x=0,7))
1328:Drivers/GD32F30x_standard_peripheral/Source/gd32f30x_timer.c ****       \arg        TIMER_CH_2: TIMER channel2(TIMERx(x=0,7))
1329:Drivers/GD32F30x_standard_peripheral/Source/gd32f30x_timer.c ****     \param[in]  ocnstate: TIMER channel complementary output enable state
1330:Drivers/GD32F30x_standard_peripheral/Source/gd32f30x_timer.c ****                 only one parameter can be selected which is shown as below:
1331:Drivers/GD32F30x_standard_peripheral/Source/gd32f30x_timer.c ****       \arg        TIMER_CCXN_ENABLE: channel complementary enable 
1332:Drivers/GD32F30x_standard_peripheral/Source/gd32f30x_timer.c ****       \arg        TIMER_CCXN_DISABLE: channel complementary disable 
1333:Drivers/GD32F30x_standard_peripheral/Source/gd32f30x_timer.c ****     \param[out] none
1334:Drivers/GD32F30x_standard_peripheral/Source/gd32f30x_timer.c ****     \retval     none
1335:Drivers/GD32F30x_standard_peripheral/Source/gd32f30x_timer.c **** */
1336:Drivers/GD32F30x_standard_peripheral/Source/gd32f30x_timer.c **** void timer_channel_complementary_output_state_config(uint32_t timer_periph, uint16_t channel, uint1
1337:Drivers/GD32F30x_standard_peripheral/Source/gd32f30x_timer.c **** {
 2659              		.loc 1 1337 1 is_stmt 1 view -0
 2660              		.cfi_startproc
 2661              		@ args = 0, pretend = 0, frame = 0
 2662              		@ frame_needed = 0, uses_anonymous_args = 0
 2663              		@ link register save eliminated.
1338:Drivers/GD32F30x_standard_peripheral/Source/gd32f30x_timer.c ****     switch(channel){
 2664              		.loc 1 1338 5 view .LVU701
 2665 0000 0129     		cmp	r1, #1
 2666 0002 0BD0     		beq	.L158
 2667 0004 0229     		cmp	r1, #2
 2668 0006 12D0     		beq	.L159
 2669 0008 01B1     		cbz	r1, .L161
 2670              	.LVL157:
 2671              	.L157:
1339:Drivers/GD32F30x_standard_peripheral/Source/gd32f30x_timer.c ****     /* configure TIMER_CH_0 */
1340:Drivers/GD32F30x_standard_peripheral/Source/gd32f30x_timer.c ****     case TIMER_CH_0:
1341:Drivers/GD32F30x_standard_peripheral/Source/gd32f30x_timer.c ****         TIMER_CHCTL2(timer_periph) &= (~(uint32_t)TIMER_CHCTL2_CH0NEN);
1342:Drivers/GD32F30x_standard_peripheral/Source/gd32f30x_timer.c ****         TIMER_CHCTL2(timer_periph) |= (uint32_t)ocnstate;
1343:Drivers/GD32F30x_standard_peripheral/Source/gd32f30x_timer.c ****         break;
1344:Drivers/GD32F30x_standard_peripheral/Source/gd32f30x_timer.c ****     /* configure TIMER_CH_1 */
1345:Drivers/GD32F30x_standard_peripheral/Source/gd32f30x_timer.c ****     case TIMER_CH_1:
1346:Drivers/GD32F30x_standard_peripheral/Source/gd32f30x_timer.c ****         TIMER_CHCTL2(timer_periph) &= (~(uint32_t)TIMER_CHCTL2_CH1NEN);
1347:Drivers/GD32F30x_standard_peripheral/Source/gd32f30x_timer.c ****         TIMER_CHCTL2(timer_periph) |= (uint32_t)((uint32_t)ocnstate << 4U);
1348:Drivers/GD32F30x_standard_peripheral/Source/gd32f30x_timer.c ****         break;
1349:Drivers/GD32F30x_standard_peripheral/Source/gd32f30x_timer.c ****     /* configure TIMER_CH_2 */
1350:Drivers/GD32F30x_standard_peripheral/Source/gd32f30x_timer.c ****     case TIMER_CH_2:
1351:Drivers/GD32F30x_standard_peripheral/Source/gd32f30x_timer.c ****         TIMER_CHCTL2(timer_periph) &= (~(uint32_t)TIMER_CHCTL2_CH2NEN);
1352:Drivers/GD32F30x_standard_peripheral/Source/gd32f30x_timer.c ****         TIMER_CHCTL2(timer_periph) |= (uint32_t)((uint32_t)ocnstate << 8U);
1353:Drivers/GD32F30x_standard_peripheral/Source/gd32f30x_timer.c ****         break;
1354:Drivers/GD32F30x_standard_peripheral/Source/gd32f30x_timer.c ****     default:
1355:Drivers/GD32F30x_standard_peripheral/Source/gd32f30x_timer.c ****         break;
ARM GAS  C:\Users\Prog\AppData\Local\Temp\ccT8qdHj.s 			page 71


1356:Drivers/GD32F30x_standard_peripheral/Source/gd32f30x_timer.c ****     }
1357:Drivers/GD32F30x_standard_peripheral/Source/gd32f30x_timer.c **** }
 2672              		.loc 1 1357 1 is_stmt 0 view .LVU702
 2673 000a 7047     		bx	lr
 2674              	.LVL158:
 2675              	.L161:
1341:Drivers/GD32F30x_standard_peripheral/Source/gd32f30x_timer.c ****         TIMER_CHCTL2(timer_periph) |= (uint32_t)ocnstate;
 2676              		.loc 1 1341 9 is_stmt 1 view .LVU703
1341:Drivers/GD32F30x_standard_peripheral/Source/gd32f30x_timer.c ****         TIMER_CHCTL2(timer_periph) |= (uint32_t)ocnstate;
 2677              		.loc 1 1341 36 is_stmt 0 view .LVU704
 2678 000c 036A     		ldr	r3, [r0, #32]
 2679 000e 23F00403 		bic	r3, r3, #4
 2680 0012 0362     		str	r3, [r0, #32]
1342:Drivers/GD32F30x_standard_peripheral/Source/gd32f30x_timer.c ****         break;
 2681              		.loc 1 1342 9 is_stmt 1 view .LVU705
1342:Drivers/GD32F30x_standard_peripheral/Source/gd32f30x_timer.c ****         break;
 2682              		.loc 1 1342 36 is_stmt 0 view .LVU706
 2683 0014 036A     		ldr	r3, [r0, #32]
 2684 0016 1A43     		orrs	r2, r2, r3
 2685              	.LVL159:
1342:Drivers/GD32F30x_standard_peripheral/Source/gd32f30x_timer.c ****         break;
 2686              		.loc 1 1342 36 view .LVU707
 2687 0018 0262     		str	r2, [r0, #32]
1343:Drivers/GD32F30x_standard_peripheral/Source/gd32f30x_timer.c ****     /* configure TIMER_CH_1 */
 2688              		.loc 1 1343 9 is_stmt 1 view .LVU708
 2689 001a 7047     		bx	lr
 2690              	.LVL160:
 2691              	.L158:
1346:Drivers/GD32F30x_standard_peripheral/Source/gd32f30x_timer.c ****         TIMER_CHCTL2(timer_periph) |= (uint32_t)((uint32_t)ocnstate << 4U);
 2692              		.loc 1 1346 9 view .LVU709
1346:Drivers/GD32F30x_standard_peripheral/Source/gd32f30x_timer.c ****         TIMER_CHCTL2(timer_periph) |= (uint32_t)((uint32_t)ocnstate << 4U);
 2693              		.loc 1 1346 36 is_stmt 0 view .LVU710
 2694 001c 036A     		ldr	r3, [r0, #32]
 2695 001e 23F04003 		bic	r3, r3, #64
 2696 0022 0362     		str	r3, [r0, #32]
1347:Drivers/GD32F30x_standard_peripheral/Source/gd32f30x_timer.c ****         break;
 2697              		.loc 1 1347 9 is_stmt 1 view .LVU711
1347:Drivers/GD32F30x_standard_peripheral/Source/gd32f30x_timer.c ****         break;
 2698              		.loc 1 1347 36 is_stmt 0 view .LVU712
 2699 0024 036A     		ldr	r3, [r0, #32]
 2700 0026 43EA0212 		orr	r2, r3, r2, lsl #4
 2701              	.LVL161:
1347:Drivers/GD32F30x_standard_peripheral/Source/gd32f30x_timer.c ****         break;
 2702              		.loc 1 1347 36 view .LVU713
 2703 002a 0262     		str	r2, [r0, #32]
1348:Drivers/GD32F30x_standard_peripheral/Source/gd32f30x_timer.c ****     /* configure TIMER_CH_2 */
 2704              		.loc 1 1348 9 is_stmt 1 view .LVU714
 2705 002c 7047     		bx	lr
 2706              	.LVL162:
 2707              	.L159:
1351:Drivers/GD32F30x_standard_peripheral/Source/gd32f30x_timer.c ****         TIMER_CHCTL2(timer_periph) |= (uint32_t)((uint32_t)ocnstate << 8U);
 2708              		.loc 1 1351 9 view .LVU715
1351:Drivers/GD32F30x_standard_peripheral/Source/gd32f30x_timer.c ****         TIMER_CHCTL2(timer_periph) |= (uint32_t)((uint32_t)ocnstate << 8U);
 2709              		.loc 1 1351 36 is_stmt 0 view .LVU716
 2710 002e 036A     		ldr	r3, [r0, #32]
 2711 0030 23F48063 		bic	r3, r3, #1024
 2712 0034 0362     		str	r3, [r0, #32]
ARM GAS  C:\Users\Prog\AppData\Local\Temp\ccT8qdHj.s 			page 72


1352:Drivers/GD32F30x_standard_peripheral/Source/gd32f30x_timer.c ****         break;
 2713              		.loc 1 1352 9 is_stmt 1 view .LVU717
1352:Drivers/GD32F30x_standard_peripheral/Source/gd32f30x_timer.c ****         break;
 2714              		.loc 1 1352 36 is_stmt 0 view .LVU718
 2715 0036 036A     		ldr	r3, [r0, #32]
 2716 0038 43EA0222 		orr	r2, r3, r2, lsl #8
 2717              	.LVL163:
1352:Drivers/GD32F30x_standard_peripheral/Source/gd32f30x_timer.c ****         break;
 2718              		.loc 1 1352 36 view .LVU719
 2719 003c 0262     		str	r2, [r0, #32]
1353:Drivers/GD32F30x_standard_peripheral/Source/gd32f30x_timer.c ****     default:
 2720              		.loc 1 1353 9 is_stmt 1 view .LVU720
 2721              		.loc 1 1357 1 is_stmt 0 view .LVU721
 2722 003e E4E7     		b	.L157
 2723              		.cfi_endproc
 2724              	.LFE166:
 2726              		.section	.text.timer_channel_input_struct_para_init,"ax",%progbits
 2727              		.align	1
 2728              		.global	timer_channel_input_struct_para_init
 2729              		.syntax unified
 2730              		.thumb
 2731              		.thumb_func
 2732              		.fpu fpv4-sp-d16
 2734              	timer_channel_input_struct_para_init:
 2735              	.LVL164:
 2736              	.LFB167:
1358:Drivers/GD32F30x_standard_peripheral/Source/gd32f30x_timer.c **** 
1359:Drivers/GD32F30x_standard_peripheral/Source/gd32f30x_timer.c **** /*!
1360:Drivers/GD32F30x_standard_peripheral/Source/gd32f30x_timer.c ****     \brief      initialize TIMER channel input parameter struct with a default value
1361:Drivers/GD32F30x_standard_peripheral/Source/gd32f30x_timer.c ****     \param[in]  icpara: TIMER channel intput parameter struct
1362:Drivers/GD32F30x_standard_peripheral/Source/gd32f30x_timer.c ****     \param[out] none
1363:Drivers/GD32F30x_standard_peripheral/Source/gd32f30x_timer.c ****     \retval     none
1364:Drivers/GD32F30x_standard_peripheral/Source/gd32f30x_timer.c **** */
1365:Drivers/GD32F30x_standard_peripheral/Source/gd32f30x_timer.c **** void timer_channel_input_struct_para_init(timer_ic_parameter_struct* icpara)
1366:Drivers/GD32F30x_standard_peripheral/Source/gd32f30x_timer.c **** {
 2737              		.loc 1 1366 1 is_stmt 1 view -0
 2738              		.cfi_startproc
 2739              		@ args = 0, pretend = 0, frame = 0
 2740              		@ frame_needed = 0, uses_anonymous_args = 0
 2741              		@ link register save eliminated.
1367:Drivers/GD32F30x_standard_peripheral/Source/gd32f30x_timer.c ****     /* initialize the channel input parameter struct member with the default value */
1368:Drivers/GD32F30x_standard_peripheral/Source/gd32f30x_timer.c ****     icpara->icpolarity  = TIMER_IC_POLARITY_RISING;
 2742              		.loc 1 1368 5 view .LVU723
 2743              		.loc 1 1368 25 is_stmt 0 view .LVU724
 2744 0000 0023     		movs	r3, #0
 2745 0002 0380     		strh	r3, [r0]	@ movhi
1369:Drivers/GD32F30x_standard_peripheral/Source/gd32f30x_timer.c ****     icpara->icselection = TIMER_IC_SELECTION_DIRECTTI;
 2746              		.loc 1 1369 5 is_stmt 1 view .LVU725
 2747              		.loc 1 1369 25 is_stmt 0 view .LVU726
 2748 0004 0122     		movs	r2, #1
 2749 0006 4280     		strh	r2, [r0, #2]	@ movhi
1370:Drivers/GD32F30x_standard_peripheral/Source/gd32f30x_timer.c ****     icpara->icprescaler = TIMER_IC_PSC_DIV1;
 2750              		.loc 1 1370 5 is_stmt 1 view .LVU727
 2751              		.loc 1 1370 25 is_stmt 0 view .LVU728
 2752 0008 8380     		strh	r3, [r0, #4]	@ movhi
1371:Drivers/GD32F30x_standard_peripheral/Source/gd32f30x_timer.c ****     icpara->icfilter    = 0U;
 2753              		.loc 1 1371 5 is_stmt 1 view .LVU729
ARM GAS  C:\Users\Prog\AppData\Local\Temp\ccT8qdHj.s 			page 73


 2754              		.loc 1 1371 25 is_stmt 0 view .LVU730
 2755 000a C380     		strh	r3, [r0, #6]	@ movhi
1372:Drivers/GD32F30x_standard_peripheral/Source/gd32f30x_timer.c **** }
 2756              		.loc 1 1372 1 view .LVU731
 2757 000c 7047     		bx	lr
 2758              		.cfi_endproc
 2759              	.LFE167:
 2761              		.section	.text.timer_channel_input_capture_prescaler_config,"ax",%progbits
 2762              		.align	1
 2763              		.global	timer_channel_input_capture_prescaler_config
 2764              		.syntax unified
 2765              		.thumb
 2766              		.thumb_func
 2767              		.fpu fpv4-sp-d16
 2769              	timer_channel_input_capture_prescaler_config:
 2770              	.LVL165:
 2771              	.LFB169:
1373:Drivers/GD32F30x_standard_peripheral/Source/gd32f30x_timer.c **** 
1374:Drivers/GD32F30x_standard_peripheral/Source/gd32f30x_timer.c **** /*!
1375:Drivers/GD32F30x_standard_peripheral/Source/gd32f30x_timer.c ****     \brief      configure TIMER input capture parameter 
1376:Drivers/GD32F30x_standard_peripheral/Source/gd32f30x_timer.c ****     \param[in]  timer_periph: please refer to the following parameters
1377:Drivers/GD32F30x_standard_peripheral/Source/gd32f30x_timer.c ****     \param[in]  channel: 
1378:Drivers/GD32F30x_standard_peripheral/Source/gd32f30x_timer.c ****                 only one parameter can be selected which is shown as below:
1379:Drivers/GD32F30x_standard_peripheral/Source/gd32f30x_timer.c ****       \arg        TIMER_CH_0: TIMER channel0(TIMERx(x=0..4,7..13))
1380:Drivers/GD32F30x_standard_peripheral/Source/gd32f30x_timer.c ****       \arg        TIMER_CH_1: TIMER channel1(TIMERx(x=0..4,7,8,11))
1381:Drivers/GD32F30x_standard_peripheral/Source/gd32f30x_timer.c ****       \arg        TIMER_CH_2: TIMER channel2(TIMERx(x=0..4,7))
1382:Drivers/GD32F30x_standard_peripheral/Source/gd32f30x_timer.c ****       \arg        TIMER_CH_3: TIMER channel3(TIMERx(x=0..4,7))
1383:Drivers/GD32F30x_standard_peripheral/Source/gd32f30x_timer.c ****      \param[in]  icpara: TIMER channel intput parameter struct
1384:Drivers/GD32F30x_standard_peripheral/Source/gd32f30x_timer.c ****                  icpolarity: TIMER_IC_POLARITY_RISING,TIMER_IC_POLARITY_FALLING
1385:Drivers/GD32F30x_standard_peripheral/Source/gd32f30x_timer.c ****                  icselection: TIMER_IC_SELECTION_DIRECTTI,TIMER_IC_SELECTION_INDIRECTTI,TIMER_IC_SE
1386:Drivers/GD32F30x_standard_peripheral/Source/gd32f30x_timer.c ****                  icprescaler: TIMER_IC_PSC_DIV1,TIMER_IC_PSC_DIV2,TIMER_IC_PSC_DIV4,TIMER_IC_PSC_DI
1387:Drivers/GD32F30x_standard_peripheral/Source/gd32f30x_timer.c ****                  icfilter: 0~15
1388:Drivers/GD32F30x_standard_peripheral/Source/gd32f30x_timer.c ****     \param[out]  none
1389:Drivers/GD32F30x_standard_peripheral/Source/gd32f30x_timer.c ****     \retval      none
1390:Drivers/GD32F30x_standard_peripheral/Source/gd32f30x_timer.c **** */
1391:Drivers/GD32F30x_standard_peripheral/Source/gd32f30x_timer.c **** void timer_input_capture_config(uint32_t timer_periph,uint16_t channel, timer_ic_parameter_struct* 
1392:Drivers/GD32F30x_standard_peripheral/Source/gd32f30x_timer.c **** {
1393:Drivers/GD32F30x_standard_peripheral/Source/gd32f30x_timer.c ****     switch(channel){
1394:Drivers/GD32F30x_standard_peripheral/Source/gd32f30x_timer.c ****     /* configure TIMER_CH_0 */
1395:Drivers/GD32F30x_standard_peripheral/Source/gd32f30x_timer.c ****     case TIMER_CH_0:
1396:Drivers/GD32F30x_standard_peripheral/Source/gd32f30x_timer.c ****         /* reset the CH0EN bit */
1397:Drivers/GD32F30x_standard_peripheral/Source/gd32f30x_timer.c ****         TIMER_CHCTL2(timer_periph) &= (~(uint32_t)TIMER_CHCTL2_CH0EN);
1398:Drivers/GD32F30x_standard_peripheral/Source/gd32f30x_timer.c **** 
1399:Drivers/GD32F30x_standard_peripheral/Source/gd32f30x_timer.c ****         /* reset the CH0P and CH0NP bits */
1400:Drivers/GD32F30x_standard_peripheral/Source/gd32f30x_timer.c ****         TIMER_CHCTL2(timer_periph) &= (~(uint32_t)(TIMER_CHCTL2_CH0P | TIMER_CHCTL2_CH0NP));
1401:Drivers/GD32F30x_standard_peripheral/Source/gd32f30x_timer.c ****         TIMER_CHCTL2(timer_periph) |= (uint32_t)(icpara->icpolarity);
1402:Drivers/GD32F30x_standard_peripheral/Source/gd32f30x_timer.c ****         /* reset the CH0MS bit */
1403:Drivers/GD32F30x_standard_peripheral/Source/gd32f30x_timer.c ****         TIMER_CHCTL0(timer_periph) &= (~(uint32_t)TIMER_CHCTL0_CH0MS);
1404:Drivers/GD32F30x_standard_peripheral/Source/gd32f30x_timer.c ****         TIMER_CHCTL0(timer_periph) |= (uint32_t)(icpara->icselection);
1405:Drivers/GD32F30x_standard_peripheral/Source/gd32f30x_timer.c ****         /* reset the CH0CAPFLT bit */
1406:Drivers/GD32F30x_standard_peripheral/Source/gd32f30x_timer.c ****         TIMER_CHCTL0(timer_periph) &= (~(uint32_t)TIMER_CHCTL0_CH0CAPFLT);
1407:Drivers/GD32F30x_standard_peripheral/Source/gd32f30x_timer.c ****         TIMER_CHCTL0(timer_periph) |= (uint32_t)((uint32_t)(icpara->icfilter) << 4U);
1408:Drivers/GD32F30x_standard_peripheral/Source/gd32f30x_timer.c **** 
1409:Drivers/GD32F30x_standard_peripheral/Source/gd32f30x_timer.c ****         /* set the CH0EN bit */
1410:Drivers/GD32F30x_standard_peripheral/Source/gd32f30x_timer.c ****         TIMER_CHCTL2(timer_periph) |= (uint32_t)TIMER_CHCTL2_CH0EN;
1411:Drivers/GD32F30x_standard_peripheral/Source/gd32f30x_timer.c ****         break;
1412:Drivers/GD32F30x_standard_peripheral/Source/gd32f30x_timer.c ****     
ARM GAS  C:\Users\Prog\AppData\Local\Temp\ccT8qdHj.s 			page 74


1413:Drivers/GD32F30x_standard_peripheral/Source/gd32f30x_timer.c ****     /* configure TIMER_CH_1 */
1414:Drivers/GD32F30x_standard_peripheral/Source/gd32f30x_timer.c ****     case TIMER_CH_1:
1415:Drivers/GD32F30x_standard_peripheral/Source/gd32f30x_timer.c ****         /* reset the CH1EN bit */
1416:Drivers/GD32F30x_standard_peripheral/Source/gd32f30x_timer.c ****         TIMER_CHCTL2(timer_periph) &= (~(uint32_t)TIMER_CHCTL2_CH1EN);
1417:Drivers/GD32F30x_standard_peripheral/Source/gd32f30x_timer.c **** 
1418:Drivers/GD32F30x_standard_peripheral/Source/gd32f30x_timer.c ****         /* reset the CH1P and CH1NP bits */
1419:Drivers/GD32F30x_standard_peripheral/Source/gd32f30x_timer.c ****         TIMER_CHCTL2(timer_periph) &= (~(uint32_t)(TIMER_CHCTL2_CH1P | TIMER_CHCTL2_CH1NP));
1420:Drivers/GD32F30x_standard_peripheral/Source/gd32f30x_timer.c ****         TIMER_CHCTL2(timer_periph) |= (uint32_t)((uint32_t)(icpara->icpolarity) << 4U);
1421:Drivers/GD32F30x_standard_peripheral/Source/gd32f30x_timer.c ****         /* reset the CH1MS bit */
1422:Drivers/GD32F30x_standard_peripheral/Source/gd32f30x_timer.c ****         TIMER_CHCTL0(timer_periph) &= (~(uint32_t)TIMER_CHCTL0_CH1MS);
1423:Drivers/GD32F30x_standard_peripheral/Source/gd32f30x_timer.c ****         TIMER_CHCTL0(timer_periph) |= (uint32_t)((uint32_t)(icpara->icselection) << 8U);
1424:Drivers/GD32F30x_standard_peripheral/Source/gd32f30x_timer.c ****         /* reset the CH1CAPFLT bit */
1425:Drivers/GD32F30x_standard_peripheral/Source/gd32f30x_timer.c ****         TIMER_CHCTL0(timer_periph) &= (~(uint32_t)TIMER_CHCTL0_CH1CAPFLT);
1426:Drivers/GD32F30x_standard_peripheral/Source/gd32f30x_timer.c ****         TIMER_CHCTL0(timer_periph) |= (uint32_t)((uint32_t)(icpara->icfilter) << 12U);
1427:Drivers/GD32F30x_standard_peripheral/Source/gd32f30x_timer.c **** 
1428:Drivers/GD32F30x_standard_peripheral/Source/gd32f30x_timer.c ****         /* set the CH1EN bit */
1429:Drivers/GD32F30x_standard_peripheral/Source/gd32f30x_timer.c ****         TIMER_CHCTL2(timer_periph) |= (uint32_t)TIMER_CHCTL2_CH1EN;
1430:Drivers/GD32F30x_standard_peripheral/Source/gd32f30x_timer.c ****         break;
1431:Drivers/GD32F30x_standard_peripheral/Source/gd32f30x_timer.c ****     /* configure TIMER_CH_2 */
1432:Drivers/GD32F30x_standard_peripheral/Source/gd32f30x_timer.c ****     case TIMER_CH_2:
1433:Drivers/GD32F30x_standard_peripheral/Source/gd32f30x_timer.c ****         /* reset the CH2EN bit */
1434:Drivers/GD32F30x_standard_peripheral/Source/gd32f30x_timer.c ****         TIMER_CHCTL2(timer_periph) &= (~(uint32_t)TIMER_CHCTL2_CH2EN);
1435:Drivers/GD32F30x_standard_peripheral/Source/gd32f30x_timer.c **** 
1436:Drivers/GD32F30x_standard_peripheral/Source/gd32f30x_timer.c ****         /* reset the CH2P and CH2NP bits */
1437:Drivers/GD32F30x_standard_peripheral/Source/gd32f30x_timer.c ****         TIMER_CHCTL2(timer_periph) &= (~(uint32_t)(TIMER_CHCTL2_CH2P|TIMER_CHCTL2_CH2NP));
1438:Drivers/GD32F30x_standard_peripheral/Source/gd32f30x_timer.c ****         TIMER_CHCTL2(timer_periph) |= (uint32_t)((uint32_t)(icpara->icpolarity) << 8U);
1439:Drivers/GD32F30x_standard_peripheral/Source/gd32f30x_timer.c **** 
1440:Drivers/GD32F30x_standard_peripheral/Source/gd32f30x_timer.c ****         /* reset the CH2MS bit */
1441:Drivers/GD32F30x_standard_peripheral/Source/gd32f30x_timer.c ****         TIMER_CHCTL1(timer_periph) &= (~(uint32_t)TIMER_CHCTL1_CH2MS);
1442:Drivers/GD32F30x_standard_peripheral/Source/gd32f30x_timer.c ****         TIMER_CHCTL1(timer_periph) |= (uint32_t)((uint32_t)(icpara->icselection));
1443:Drivers/GD32F30x_standard_peripheral/Source/gd32f30x_timer.c **** 
1444:Drivers/GD32F30x_standard_peripheral/Source/gd32f30x_timer.c ****         /* reset the CH2CAPFLT bit */
1445:Drivers/GD32F30x_standard_peripheral/Source/gd32f30x_timer.c ****         TIMER_CHCTL1(timer_periph) &= (~(uint32_t)TIMER_CHCTL1_CH2CAPFLT);
1446:Drivers/GD32F30x_standard_peripheral/Source/gd32f30x_timer.c ****         TIMER_CHCTL1(timer_periph) |= (uint32_t)((uint32_t)(icpara->icfilter) << 4U);
1447:Drivers/GD32F30x_standard_peripheral/Source/gd32f30x_timer.c **** 
1448:Drivers/GD32F30x_standard_peripheral/Source/gd32f30x_timer.c ****         /* set the CH2EN bit */
1449:Drivers/GD32F30x_standard_peripheral/Source/gd32f30x_timer.c ****         TIMER_CHCTL2(timer_periph) |= (uint32_t)TIMER_CHCTL2_CH2EN;
1450:Drivers/GD32F30x_standard_peripheral/Source/gd32f30x_timer.c ****         break;
1451:Drivers/GD32F30x_standard_peripheral/Source/gd32f30x_timer.c ****     /* configure TIMER_CH_3 */
1452:Drivers/GD32F30x_standard_peripheral/Source/gd32f30x_timer.c ****     case TIMER_CH_3:
1453:Drivers/GD32F30x_standard_peripheral/Source/gd32f30x_timer.c ****         /* reset the CH3EN bit */
1454:Drivers/GD32F30x_standard_peripheral/Source/gd32f30x_timer.c ****         TIMER_CHCTL2(timer_periph) &= (~(uint32_t)TIMER_CHCTL2_CH3EN);
1455:Drivers/GD32F30x_standard_peripheral/Source/gd32f30x_timer.c **** 
1456:Drivers/GD32F30x_standard_peripheral/Source/gd32f30x_timer.c ****         /* reset the CH3P bits */
1457:Drivers/GD32F30x_standard_peripheral/Source/gd32f30x_timer.c ****         TIMER_CHCTL2(timer_periph) &= (~(uint32_t)(TIMER_CHCTL2_CH3P));
1458:Drivers/GD32F30x_standard_peripheral/Source/gd32f30x_timer.c ****         TIMER_CHCTL2(timer_periph) |= (uint32_t)((uint32_t)(icpara->icpolarity) << 12U);
1459:Drivers/GD32F30x_standard_peripheral/Source/gd32f30x_timer.c **** 
1460:Drivers/GD32F30x_standard_peripheral/Source/gd32f30x_timer.c ****         /* reset the CH3MS bit */
1461:Drivers/GD32F30x_standard_peripheral/Source/gd32f30x_timer.c ****         TIMER_CHCTL1(timer_periph) &= (~(uint32_t)TIMER_CHCTL1_CH3MS);
1462:Drivers/GD32F30x_standard_peripheral/Source/gd32f30x_timer.c ****         TIMER_CHCTL1(timer_periph) |= (uint32_t)((uint32_t)(icpara->icselection) << 8U);
1463:Drivers/GD32F30x_standard_peripheral/Source/gd32f30x_timer.c **** 
1464:Drivers/GD32F30x_standard_peripheral/Source/gd32f30x_timer.c ****         /* reset the CH3CAPFLT bit */
1465:Drivers/GD32F30x_standard_peripheral/Source/gd32f30x_timer.c ****         TIMER_CHCTL1(timer_periph) &= (~(uint32_t)TIMER_CHCTL1_CH3CAPFLT);
1466:Drivers/GD32F30x_standard_peripheral/Source/gd32f30x_timer.c ****         TIMER_CHCTL1(timer_periph) |= (uint32_t)((uint32_t)(icpara->icfilter) << 12U);
1467:Drivers/GD32F30x_standard_peripheral/Source/gd32f30x_timer.c **** 
1468:Drivers/GD32F30x_standard_peripheral/Source/gd32f30x_timer.c ****         /* set the CH3EN bit */
1469:Drivers/GD32F30x_standard_peripheral/Source/gd32f30x_timer.c ****         TIMER_CHCTL2(timer_periph) |= (uint32_t)TIMER_CHCTL2_CH3EN;
ARM GAS  C:\Users\Prog\AppData\Local\Temp\ccT8qdHj.s 			page 75


1470:Drivers/GD32F30x_standard_peripheral/Source/gd32f30x_timer.c ****         break;
1471:Drivers/GD32F30x_standard_peripheral/Source/gd32f30x_timer.c ****     default:
1472:Drivers/GD32F30x_standard_peripheral/Source/gd32f30x_timer.c ****         break;
1473:Drivers/GD32F30x_standard_peripheral/Source/gd32f30x_timer.c ****     }
1474:Drivers/GD32F30x_standard_peripheral/Source/gd32f30x_timer.c ****     /* configure TIMER channel input capture prescaler value */
1475:Drivers/GD32F30x_standard_peripheral/Source/gd32f30x_timer.c ****     timer_channel_input_capture_prescaler_config(timer_periph, channel, (uint16_t)(icpara->icpresca
1476:Drivers/GD32F30x_standard_peripheral/Source/gd32f30x_timer.c **** }
1477:Drivers/GD32F30x_standard_peripheral/Source/gd32f30x_timer.c **** 
1478:Drivers/GD32F30x_standard_peripheral/Source/gd32f30x_timer.c **** /*!
1479:Drivers/GD32F30x_standard_peripheral/Source/gd32f30x_timer.c ****     \brief      configure TIMER channel input capture prescaler value
1480:Drivers/GD32F30x_standard_peripheral/Source/gd32f30x_timer.c ****     \param[in]  timer_periph: please refer to the following parameters
1481:Drivers/GD32F30x_standard_peripheral/Source/gd32f30x_timer.c ****     \param[in]  channel: 
1482:Drivers/GD32F30x_standard_peripheral/Source/gd32f30x_timer.c ****                 only one parameter can be selected which is shown as below:
1483:Drivers/GD32F30x_standard_peripheral/Source/gd32f30x_timer.c ****       \arg        TIMER_CH_0: TIMER channel0(TIMERx(x=0..4,7..13))
1484:Drivers/GD32F30x_standard_peripheral/Source/gd32f30x_timer.c ****       \arg        TIMER_CH_1: TIMER channel1(TIMERx(x=0..4,7,8,11))
1485:Drivers/GD32F30x_standard_peripheral/Source/gd32f30x_timer.c ****       \arg        TIMER_CH_2: TIMER channel2(TIMERx(x=0..4,7))
1486:Drivers/GD32F30x_standard_peripheral/Source/gd32f30x_timer.c ****       \arg        TIMER_CH_3: TIMER channel3(TIMERx(x=0..4,7))
1487:Drivers/GD32F30x_standard_peripheral/Source/gd32f30x_timer.c ****     \param[in]  prescaler: channel input capture prescaler value
1488:Drivers/GD32F30x_standard_peripheral/Source/gd32f30x_timer.c ****                 only one parameter can be selected which is shown as below:
1489:Drivers/GD32F30x_standard_peripheral/Source/gd32f30x_timer.c ****       \arg        TIMER_IC_PSC_DIV1: no prescaler
1490:Drivers/GD32F30x_standard_peripheral/Source/gd32f30x_timer.c ****       \arg        TIMER_IC_PSC_DIV2: divided by 2
1491:Drivers/GD32F30x_standard_peripheral/Source/gd32f30x_timer.c ****       \arg        TIMER_IC_PSC_DIV4: divided by 4
1492:Drivers/GD32F30x_standard_peripheral/Source/gd32f30x_timer.c ****       \arg        TIMER_IC_PSC_DIV8: divided by 8
1493:Drivers/GD32F30x_standard_peripheral/Source/gd32f30x_timer.c ****     \param[out] none
1494:Drivers/GD32F30x_standard_peripheral/Source/gd32f30x_timer.c ****     \retval     none
1495:Drivers/GD32F30x_standard_peripheral/Source/gd32f30x_timer.c **** */
1496:Drivers/GD32F30x_standard_peripheral/Source/gd32f30x_timer.c **** void timer_channel_input_capture_prescaler_config(uint32_t timer_periph, uint16_t channel, uint16_t
1497:Drivers/GD32F30x_standard_peripheral/Source/gd32f30x_timer.c **** {
 2772              		.loc 1 1497 1 is_stmt 1 view -0
 2773              		.cfi_startproc
 2774              		@ args = 0, pretend = 0, frame = 0
 2775              		@ frame_needed = 0, uses_anonymous_args = 0
 2776              		@ link register save eliminated.
1498:Drivers/GD32F30x_standard_peripheral/Source/gd32f30x_timer.c ****     switch(channel){
 2777              		.loc 1 1498 5 view .LVU733
 2778 0000 0329     		cmp	r1, #3
 2779 0002 24D8     		bhi	.L163
 2780 0004 DFE801F0 		tbb	[pc, r1]
 2781              	.L166:
 2782 0008 02       		.byte	(.L169-.L166)/2
 2783 0009 0A       		.byte	(.L168-.L166)/2
 2784 000a 13       		.byte	(.L167-.L166)/2
 2785 000b 1B       		.byte	(.L165-.L166)/2
 2786              		.p2align 1
 2787              	.L169:
1499:Drivers/GD32F30x_standard_peripheral/Source/gd32f30x_timer.c ****     /* configure TIMER_CH_0 */
1500:Drivers/GD32F30x_standard_peripheral/Source/gd32f30x_timer.c ****     case TIMER_CH_0:
1501:Drivers/GD32F30x_standard_peripheral/Source/gd32f30x_timer.c ****         TIMER_CHCTL0(timer_periph) &= (~(uint32_t)TIMER_CHCTL0_CH0CAPPSC);
 2788              		.loc 1 1501 9 view .LVU734
 2789              		.loc 1 1501 36 is_stmt 0 view .LVU735
 2790 000c 8369     		ldr	r3, [r0, #24]
 2791 000e 23F00C03 		bic	r3, r3, #12
 2792 0012 8361     		str	r3, [r0, #24]
1502:Drivers/GD32F30x_standard_peripheral/Source/gd32f30x_timer.c ****         TIMER_CHCTL0(timer_periph) |= (uint32_t)prescaler;
 2793              		.loc 1 1502 9 is_stmt 1 view .LVU736
 2794              		.loc 1 1502 36 is_stmt 0 view .LVU737
 2795 0014 8369     		ldr	r3, [r0, #24]
ARM GAS  C:\Users\Prog\AppData\Local\Temp\ccT8qdHj.s 			page 76


 2796 0016 1A43     		orrs	r2, r2, r3
 2797              	.LVL166:
 2798              		.loc 1 1502 36 view .LVU738
 2799 0018 8261     		str	r2, [r0, #24]
1503:Drivers/GD32F30x_standard_peripheral/Source/gd32f30x_timer.c ****         break;
 2800              		.loc 1 1503 9 is_stmt 1 view .LVU739
 2801 001a 7047     		bx	lr
 2802              	.LVL167:
 2803              	.L168:
1504:Drivers/GD32F30x_standard_peripheral/Source/gd32f30x_timer.c ****     /* configure TIMER_CH_1 */
1505:Drivers/GD32F30x_standard_peripheral/Source/gd32f30x_timer.c ****     case TIMER_CH_1:
1506:Drivers/GD32F30x_standard_peripheral/Source/gd32f30x_timer.c ****         TIMER_CHCTL0(timer_periph) &= (~(uint32_t)TIMER_CHCTL0_CH1CAPPSC);
 2804              		.loc 1 1506 9 view .LVU740
 2805              		.loc 1 1506 36 is_stmt 0 view .LVU741
 2806 001c 8369     		ldr	r3, [r0, #24]
 2807 001e 23F44063 		bic	r3, r3, #3072
 2808 0022 8361     		str	r3, [r0, #24]
1507:Drivers/GD32F30x_standard_peripheral/Source/gd32f30x_timer.c ****         TIMER_CHCTL0(timer_periph) |= ((uint32_t)prescaler << 8U);
 2809              		.loc 1 1507 9 is_stmt 1 view .LVU742
 2810              		.loc 1 1507 36 is_stmt 0 view .LVU743
 2811 0024 8369     		ldr	r3, [r0, #24]
 2812 0026 43EA0222 		orr	r2, r3, r2, lsl #8
 2813              	.LVL168:
 2814              		.loc 1 1507 36 view .LVU744
 2815 002a 8261     		str	r2, [r0, #24]
1508:Drivers/GD32F30x_standard_peripheral/Source/gd32f30x_timer.c ****         break;
 2816              		.loc 1 1508 9 is_stmt 1 view .LVU745
 2817 002c 7047     		bx	lr
 2818              	.LVL169:
 2819              	.L167:
1509:Drivers/GD32F30x_standard_peripheral/Source/gd32f30x_timer.c ****     /* configure TIMER_CH_2 */
1510:Drivers/GD32F30x_standard_peripheral/Source/gd32f30x_timer.c ****     case TIMER_CH_2:
1511:Drivers/GD32F30x_standard_peripheral/Source/gd32f30x_timer.c ****         TIMER_CHCTL1(timer_periph) &= (~(uint32_t)TIMER_CHCTL1_CH2CAPPSC);
 2820              		.loc 1 1511 9 view .LVU746
 2821              		.loc 1 1511 36 is_stmt 0 view .LVU747
 2822 002e C369     		ldr	r3, [r0, #28]
 2823 0030 23F00C03 		bic	r3, r3, #12
 2824 0034 C361     		str	r3, [r0, #28]
1512:Drivers/GD32F30x_standard_peripheral/Source/gd32f30x_timer.c ****         TIMER_CHCTL1(timer_periph) |= (uint32_t)prescaler;
 2825              		.loc 1 1512 9 is_stmt 1 view .LVU748
 2826              		.loc 1 1512 36 is_stmt 0 view .LVU749
 2827 0036 C369     		ldr	r3, [r0, #28]
 2828 0038 1A43     		orrs	r2, r2, r3
 2829              	.LVL170:
 2830              		.loc 1 1512 36 view .LVU750
 2831 003a C261     		str	r2, [r0, #28]
1513:Drivers/GD32F30x_standard_peripheral/Source/gd32f30x_timer.c ****         break;
 2832              		.loc 1 1513 9 is_stmt 1 view .LVU751
 2833 003c 7047     		bx	lr
 2834              	.LVL171:
 2835              	.L165:
1514:Drivers/GD32F30x_standard_peripheral/Source/gd32f30x_timer.c ****     /* configure TIMER_CH_3 */
1515:Drivers/GD32F30x_standard_peripheral/Source/gd32f30x_timer.c ****     case TIMER_CH_3:
1516:Drivers/GD32F30x_standard_peripheral/Source/gd32f30x_timer.c ****         TIMER_CHCTL1(timer_periph) &= (~(uint32_t)TIMER_CHCTL1_CH3CAPPSC);
 2836              		.loc 1 1516 9 view .LVU752
 2837              		.loc 1 1516 36 is_stmt 0 view .LVU753
 2838 003e C369     		ldr	r3, [r0, #28]
ARM GAS  C:\Users\Prog\AppData\Local\Temp\ccT8qdHj.s 			page 77


 2839 0040 23F44063 		bic	r3, r3, #3072
 2840 0044 C361     		str	r3, [r0, #28]
1517:Drivers/GD32F30x_standard_peripheral/Source/gd32f30x_timer.c ****         TIMER_CHCTL1(timer_periph) |= ((uint32_t)prescaler << 8U);
 2841              		.loc 1 1517 9 is_stmt 1 view .LVU754
 2842              		.loc 1 1517 36 is_stmt 0 view .LVU755
 2843 0046 C369     		ldr	r3, [r0, #28]
 2844 0048 43EA0222 		orr	r2, r3, r2, lsl #8
 2845              	.LVL172:
 2846              		.loc 1 1517 36 view .LVU756
 2847 004c C261     		str	r2, [r0, #28]
1518:Drivers/GD32F30x_standard_peripheral/Source/gd32f30x_timer.c ****         break;
 2848              		.loc 1 1518 9 is_stmt 1 view .LVU757
 2849              	.L163:
1519:Drivers/GD32F30x_standard_peripheral/Source/gd32f30x_timer.c ****     default:
1520:Drivers/GD32F30x_standard_peripheral/Source/gd32f30x_timer.c ****         break;
1521:Drivers/GD32F30x_standard_peripheral/Source/gd32f30x_timer.c ****     }
1522:Drivers/GD32F30x_standard_peripheral/Source/gd32f30x_timer.c **** }
 2850              		.loc 1 1522 1 is_stmt 0 view .LVU758
 2851 004e 7047     		bx	lr
 2852              		.cfi_endproc
 2853              	.LFE169:
 2855              		.section	.text.timer_input_capture_config,"ax",%progbits
 2856              		.align	1
 2857              		.global	timer_input_capture_config
 2858              		.syntax unified
 2859              		.thumb
 2860              		.thumb_func
 2861              		.fpu fpv4-sp-d16
 2863              	timer_input_capture_config:
 2864              	.LVL173:
 2865              	.LFB168:
1392:Drivers/GD32F30x_standard_peripheral/Source/gd32f30x_timer.c ****     switch(channel){
 2866              		.loc 1 1392 1 is_stmt 1 view -0
 2867              		.cfi_startproc
 2868              		@ args = 0, pretend = 0, frame = 0
 2869              		@ frame_needed = 0, uses_anonymous_args = 0
1392:Drivers/GD32F30x_standard_peripheral/Source/gd32f30x_timer.c ****     switch(channel){
 2870              		.loc 1 1392 1 is_stmt 0 view .LVU760
 2871 0000 08B5     		push	{r3, lr}
 2872              	.LCFI2:
 2873              		.cfi_def_cfa_offset 8
 2874              		.cfi_offset 3, -8
 2875              		.cfi_offset 14, -4
1393:Drivers/GD32F30x_standard_peripheral/Source/gd32f30x_timer.c ****     /* configure TIMER_CH_0 */
 2876              		.loc 1 1393 5 is_stmt 1 view .LVU761
 2877 0002 0329     		cmp	r1, #3
 2878 0004 29D8     		bhi	.L171
 2879 0006 DFE801F0 		tbb	[pc, r1]
 2880              	.L173:
 2881 000a 02       		.byte	(.L176-.L173)/2
 2882 000b 2C       		.byte	(.L175-.L173)/2
 2883 000c 53       		.byte	(.L174-.L173)/2
 2884 000d 7A       		.byte	(.L172-.L173)/2
 2885              		.p2align 1
 2886              	.L176:
1397:Drivers/GD32F30x_standard_peripheral/Source/gd32f30x_timer.c **** 
 2887              		.loc 1 1397 9 view .LVU762
ARM GAS  C:\Users\Prog\AppData\Local\Temp\ccT8qdHj.s 			page 78


1397:Drivers/GD32F30x_standard_peripheral/Source/gd32f30x_timer.c **** 
 2888              		.loc 1 1397 36 is_stmt 0 view .LVU763
 2889 000e 036A     		ldr	r3, [r0, #32]
 2890 0010 23F00103 		bic	r3, r3, #1
 2891 0014 0362     		str	r3, [r0, #32]
1400:Drivers/GD32F30x_standard_peripheral/Source/gd32f30x_timer.c ****         TIMER_CHCTL2(timer_periph) |= (uint32_t)(icpara->icpolarity);
 2892              		.loc 1 1400 9 is_stmt 1 view .LVU764
1400:Drivers/GD32F30x_standard_peripheral/Source/gd32f30x_timer.c ****         TIMER_CHCTL2(timer_periph) |= (uint32_t)(icpara->icpolarity);
 2893              		.loc 1 1400 36 is_stmt 0 view .LVU765
 2894 0016 036A     		ldr	r3, [r0, #32]
 2895 0018 23F00A03 		bic	r3, r3, #10
 2896 001c 0362     		str	r3, [r0, #32]
1401:Drivers/GD32F30x_standard_peripheral/Source/gd32f30x_timer.c ****         /* reset the CH0MS bit */
 2897              		.loc 1 1401 9 is_stmt 1 view .LVU766
1401:Drivers/GD32F30x_standard_peripheral/Source/gd32f30x_timer.c ****         /* reset the CH0MS bit */
 2898              		.loc 1 1401 36 is_stmt 0 view .LVU767
 2899 001e 036A     		ldr	r3, [r0, #32]
1401:Drivers/GD32F30x_standard_peripheral/Source/gd32f30x_timer.c ****         /* reset the CH0MS bit */
 2900              		.loc 1 1401 56 view .LVU768
 2901 0020 B2F800C0 		ldrh	ip, [r2]
1401:Drivers/GD32F30x_standard_peripheral/Source/gd32f30x_timer.c ****         /* reset the CH0MS bit */
 2902              		.loc 1 1401 36 view .LVU769
 2903 0024 43EA0C03 		orr	r3, r3, ip
 2904 0028 0362     		str	r3, [r0, #32]
1403:Drivers/GD32F30x_standard_peripheral/Source/gd32f30x_timer.c ****         TIMER_CHCTL0(timer_periph) |= (uint32_t)(icpara->icselection);
 2905              		.loc 1 1403 9 is_stmt 1 view .LVU770
1403:Drivers/GD32F30x_standard_peripheral/Source/gd32f30x_timer.c ****         TIMER_CHCTL0(timer_periph) |= (uint32_t)(icpara->icselection);
 2906              		.loc 1 1403 36 is_stmt 0 view .LVU771
 2907 002a 8369     		ldr	r3, [r0, #24]
 2908 002c 23F00303 		bic	r3, r3, #3
 2909 0030 8361     		str	r3, [r0, #24]
1404:Drivers/GD32F30x_standard_peripheral/Source/gd32f30x_timer.c ****         /* reset the CH0CAPFLT bit */
 2910              		.loc 1 1404 9 is_stmt 1 view .LVU772
1404:Drivers/GD32F30x_standard_peripheral/Source/gd32f30x_timer.c ****         /* reset the CH0CAPFLT bit */
 2911              		.loc 1 1404 36 is_stmt 0 view .LVU773
 2912 0032 8369     		ldr	r3, [r0, #24]
1404:Drivers/GD32F30x_standard_peripheral/Source/gd32f30x_timer.c ****         /* reset the CH0CAPFLT bit */
 2913              		.loc 1 1404 56 view .LVU774
 2914 0034 B2F802C0 		ldrh	ip, [r2, #2]
1404:Drivers/GD32F30x_standard_peripheral/Source/gd32f30x_timer.c ****         /* reset the CH0CAPFLT bit */
 2915              		.loc 1 1404 36 view .LVU775
 2916 0038 43EA0C03 		orr	r3, r3, ip
 2917 003c 8361     		str	r3, [r0, #24]
1406:Drivers/GD32F30x_standard_peripheral/Source/gd32f30x_timer.c ****         TIMER_CHCTL0(timer_periph) |= (uint32_t)((uint32_t)(icpara->icfilter) << 4U);
 2918              		.loc 1 1406 9 is_stmt 1 view .LVU776
1406:Drivers/GD32F30x_standard_peripheral/Source/gd32f30x_timer.c ****         TIMER_CHCTL0(timer_periph) |= (uint32_t)((uint32_t)(icpara->icfilter) << 4U);
 2919              		.loc 1 1406 36 is_stmt 0 view .LVU777
 2920 003e 8369     		ldr	r3, [r0, #24]
 2921 0040 23F0F003 		bic	r3, r3, #240
 2922 0044 8361     		str	r3, [r0, #24]
1407:Drivers/GD32F30x_standard_peripheral/Source/gd32f30x_timer.c **** 
 2923              		.loc 1 1407 9 is_stmt 1 view .LVU778
1407:Drivers/GD32F30x_standard_peripheral/Source/gd32f30x_timer.c **** 
 2924              		.loc 1 1407 36 is_stmt 0 view .LVU779
 2925 0046 8369     		ldr	r3, [r0, #24]
1407:Drivers/GD32F30x_standard_peripheral/Source/gd32f30x_timer.c **** 
 2926              		.loc 1 1407 67 view .LVU780
ARM GAS  C:\Users\Prog\AppData\Local\Temp\ccT8qdHj.s 			page 79


 2927 0048 B2F806C0 		ldrh	ip, [r2, #6]
1407:Drivers/GD32F30x_standard_peripheral/Source/gd32f30x_timer.c **** 
 2928              		.loc 1 1407 36 view .LVU781
 2929 004c 43EA0C13 		orr	r3, r3, ip, lsl #4
 2930 0050 8361     		str	r3, [r0, #24]
1410:Drivers/GD32F30x_standard_peripheral/Source/gd32f30x_timer.c ****         break;
 2931              		.loc 1 1410 9 is_stmt 1 view .LVU782
1410:Drivers/GD32F30x_standard_peripheral/Source/gd32f30x_timer.c ****         break;
 2932              		.loc 1 1410 36 is_stmt 0 view .LVU783
 2933 0052 036A     		ldr	r3, [r0, #32]
 2934 0054 43F00103 		orr	r3, r3, #1
 2935 0058 0362     		str	r3, [r0, #32]
1411:Drivers/GD32F30x_standard_peripheral/Source/gd32f30x_timer.c ****     
 2936              		.loc 1 1411 9 is_stmt 1 view .LVU784
 2937              	.L171:
1475:Drivers/GD32F30x_standard_peripheral/Source/gd32f30x_timer.c **** }
 2938              		.loc 1 1475 5 view .LVU785
 2939 005a 9288     		ldrh	r2, [r2, #4]
 2940              	.LVL174:
1475:Drivers/GD32F30x_standard_peripheral/Source/gd32f30x_timer.c **** }
 2941              		.loc 1 1475 5 is_stmt 0 view .LVU786
 2942 005c FFF7FEFF 		bl	timer_channel_input_capture_prescaler_config
 2943              	.LVL175:
1476:Drivers/GD32F30x_standard_peripheral/Source/gd32f30x_timer.c **** 
 2944              		.loc 1 1476 1 view .LVU787
 2945 0060 08BD     		pop	{r3, pc}
 2946              	.LVL176:
 2947              	.L175:
1416:Drivers/GD32F30x_standard_peripheral/Source/gd32f30x_timer.c **** 
 2948              		.loc 1 1416 9 is_stmt 1 view .LVU788
1416:Drivers/GD32F30x_standard_peripheral/Source/gd32f30x_timer.c **** 
 2949              		.loc 1 1416 36 is_stmt 0 view .LVU789
 2950 0062 036A     		ldr	r3, [r0, #32]
 2951 0064 23F01003 		bic	r3, r3, #16
 2952 0068 0362     		str	r3, [r0, #32]
1419:Drivers/GD32F30x_standard_peripheral/Source/gd32f30x_timer.c ****         TIMER_CHCTL2(timer_periph) |= (uint32_t)((uint32_t)(icpara->icpolarity) << 4U);
 2953              		.loc 1 1419 9 is_stmt 1 view .LVU790
1419:Drivers/GD32F30x_standard_peripheral/Source/gd32f30x_timer.c ****         TIMER_CHCTL2(timer_periph) |= (uint32_t)((uint32_t)(icpara->icpolarity) << 4U);
 2954              		.loc 1 1419 36 is_stmt 0 view .LVU791
 2955 006a 036A     		ldr	r3, [r0, #32]
 2956 006c 23F0A003 		bic	r3, r3, #160
 2957 0070 0362     		str	r3, [r0, #32]
1420:Drivers/GD32F30x_standard_peripheral/Source/gd32f30x_timer.c ****         /* reset the CH1MS bit */
 2958              		.loc 1 1420 9 is_stmt 1 view .LVU792
1420:Drivers/GD32F30x_standard_peripheral/Source/gd32f30x_timer.c ****         /* reset the CH1MS bit */
 2959              		.loc 1 1420 36 is_stmt 0 view .LVU793
 2960 0072 036A     		ldr	r3, [r0, #32]
1420:Drivers/GD32F30x_standard_peripheral/Source/gd32f30x_timer.c ****         /* reset the CH1MS bit */
 2961              		.loc 1 1420 67 view .LVU794
 2962 0074 B2F800C0 		ldrh	ip, [r2]
1420:Drivers/GD32F30x_standard_peripheral/Source/gd32f30x_timer.c ****         /* reset the CH1MS bit */
 2963              		.loc 1 1420 36 view .LVU795
 2964 0078 43EA0C13 		orr	r3, r3, ip, lsl #4
 2965 007c 0362     		str	r3, [r0, #32]
1422:Drivers/GD32F30x_standard_peripheral/Source/gd32f30x_timer.c ****         TIMER_CHCTL0(timer_periph) |= (uint32_t)((uint32_t)(icpara->icselection) << 8U);
 2966              		.loc 1 1422 9 is_stmt 1 view .LVU796
1422:Drivers/GD32F30x_standard_peripheral/Source/gd32f30x_timer.c ****         TIMER_CHCTL0(timer_periph) |= (uint32_t)((uint32_t)(icpara->icselection) << 8U);
ARM GAS  C:\Users\Prog\AppData\Local\Temp\ccT8qdHj.s 			page 80


 2967              		.loc 1 1422 36 is_stmt 0 view .LVU797
 2968 007e 8369     		ldr	r3, [r0, #24]
 2969 0080 23F44073 		bic	r3, r3, #768
 2970 0084 8361     		str	r3, [r0, #24]
1423:Drivers/GD32F30x_standard_peripheral/Source/gd32f30x_timer.c ****         /* reset the CH1CAPFLT bit */
 2971              		.loc 1 1423 9 is_stmt 1 view .LVU798
1423:Drivers/GD32F30x_standard_peripheral/Source/gd32f30x_timer.c ****         /* reset the CH1CAPFLT bit */
 2972              		.loc 1 1423 36 is_stmt 0 view .LVU799
 2973 0086 8369     		ldr	r3, [r0, #24]
1423:Drivers/GD32F30x_standard_peripheral/Source/gd32f30x_timer.c ****         /* reset the CH1CAPFLT bit */
 2974              		.loc 1 1423 67 view .LVU800
 2975 0088 B2F802C0 		ldrh	ip, [r2, #2]
1423:Drivers/GD32F30x_standard_peripheral/Source/gd32f30x_timer.c ****         /* reset the CH1CAPFLT bit */
 2976              		.loc 1 1423 36 view .LVU801
 2977 008c 43EA0C23 		orr	r3, r3, ip, lsl #8
 2978 0090 8361     		str	r3, [r0, #24]
1425:Drivers/GD32F30x_standard_peripheral/Source/gd32f30x_timer.c ****         TIMER_CHCTL0(timer_periph) |= (uint32_t)((uint32_t)(icpara->icfilter) << 12U);
 2979              		.loc 1 1425 9 is_stmt 1 view .LVU802
1425:Drivers/GD32F30x_standard_peripheral/Source/gd32f30x_timer.c ****         TIMER_CHCTL0(timer_periph) |= (uint32_t)((uint32_t)(icpara->icfilter) << 12U);
 2980              		.loc 1 1425 36 is_stmt 0 view .LVU803
 2981 0092 8369     		ldr	r3, [r0, #24]
 2982 0094 23F47043 		bic	r3, r3, #61440
 2983 0098 8361     		str	r3, [r0, #24]
1426:Drivers/GD32F30x_standard_peripheral/Source/gd32f30x_timer.c **** 
 2984              		.loc 1 1426 9 is_stmt 1 view .LVU804
1426:Drivers/GD32F30x_standard_peripheral/Source/gd32f30x_timer.c **** 
 2985              		.loc 1 1426 36 is_stmt 0 view .LVU805
 2986 009a 8369     		ldr	r3, [r0, #24]
1426:Drivers/GD32F30x_standard_peripheral/Source/gd32f30x_timer.c **** 
 2987              		.loc 1 1426 67 view .LVU806
 2988 009c B2F806C0 		ldrh	ip, [r2, #6]
1426:Drivers/GD32F30x_standard_peripheral/Source/gd32f30x_timer.c **** 
 2989              		.loc 1 1426 36 view .LVU807
 2990 00a0 43EA0C33 		orr	r3, r3, ip, lsl #12
 2991 00a4 8361     		str	r3, [r0, #24]
1429:Drivers/GD32F30x_standard_peripheral/Source/gd32f30x_timer.c ****         break;
 2992              		.loc 1 1429 9 is_stmt 1 view .LVU808
1429:Drivers/GD32F30x_standard_peripheral/Source/gd32f30x_timer.c ****         break;
 2993              		.loc 1 1429 36 is_stmt 0 view .LVU809
 2994 00a6 036A     		ldr	r3, [r0, #32]
 2995 00a8 43F01003 		orr	r3, r3, #16
 2996 00ac 0362     		str	r3, [r0, #32]
1430:Drivers/GD32F30x_standard_peripheral/Source/gd32f30x_timer.c ****     /* configure TIMER_CH_2 */
 2997              		.loc 1 1430 9 is_stmt 1 view .LVU810
 2998 00ae D4E7     		b	.L171
 2999              	.L174:
1434:Drivers/GD32F30x_standard_peripheral/Source/gd32f30x_timer.c **** 
 3000              		.loc 1 1434 9 view .LVU811
1434:Drivers/GD32F30x_standard_peripheral/Source/gd32f30x_timer.c **** 
 3001              		.loc 1 1434 36 is_stmt 0 view .LVU812
 3002 00b0 036A     		ldr	r3, [r0, #32]
 3003 00b2 23F48073 		bic	r3, r3, #256
 3004 00b6 0362     		str	r3, [r0, #32]
1437:Drivers/GD32F30x_standard_peripheral/Source/gd32f30x_timer.c ****         TIMER_CHCTL2(timer_periph) |= (uint32_t)((uint32_t)(icpara->icpolarity) << 8U);
 3005              		.loc 1 1437 9 is_stmt 1 view .LVU813
1437:Drivers/GD32F30x_standard_peripheral/Source/gd32f30x_timer.c ****         TIMER_CHCTL2(timer_periph) |= (uint32_t)((uint32_t)(icpara->icpolarity) << 8U);
 3006              		.loc 1 1437 36 is_stmt 0 view .LVU814
ARM GAS  C:\Users\Prog\AppData\Local\Temp\ccT8qdHj.s 			page 81


 3007 00b8 036A     		ldr	r3, [r0, #32]
 3008 00ba 23F42063 		bic	r3, r3, #2560
 3009 00be 0362     		str	r3, [r0, #32]
1438:Drivers/GD32F30x_standard_peripheral/Source/gd32f30x_timer.c **** 
 3010              		.loc 1 1438 9 is_stmt 1 view .LVU815
1438:Drivers/GD32F30x_standard_peripheral/Source/gd32f30x_timer.c **** 
 3011              		.loc 1 1438 36 is_stmt 0 view .LVU816
 3012 00c0 036A     		ldr	r3, [r0, #32]
1438:Drivers/GD32F30x_standard_peripheral/Source/gd32f30x_timer.c **** 
 3013              		.loc 1 1438 67 view .LVU817
 3014 00c2 B2F800C0 		ldrh	ip, [r2]
1438:Drivers/GD32F30x_standard_peripheral/Source/gd32f30x_timer.c **** 
 3015              		.loc 1 1438 36 view .LVU818
 3016 00c6 43EA0C23 		orr	r3, r3, ip, lsl #8
 3017 00ca 0362     		str	r3, [r0, #32]
1441:Drivers/GD32F30x_standard_peripheral/Source/gd32f30x_timer.c ****         TIMER_CHCTL1(timer_periph) |= (uint32_t)((uint32_t)(icpara->icselection));
 3018              		.loc 1 1441 9 is_stmt 1 view .LVU819
1441:Drivers/GD32F30x_standard_peripheral/Source/gd32f30x_timer.c ****         TIMER_CHCTL1(timer_periph) |= (uint32_t)((uint32_t)(icpara->icselection));
 3019              		.loc 1 1441 36 is_stmt 0 view .LVU820
 3020 00cc C369     		ldr	r3, [r0, #28]
 3021 00ce 23F00303 		bic	r3, r3, #3
 3022 00d2 C361     		str	r3, [r0, #28]
1442:Drivers/GD32F30x_standard_peripheral/Source/gd32f30x_timer.c **** 
 3023              		.loc 1 1442 9 is_stmt 1 view .LVU821
1442:Drivers/GD32F30x_standard_peripheral/Source/gd32f30x_timer.c **** 
 3024              		.loc 1 1442 36 is_stmt 0 view .LVU822
 3025 00d4 C369     		ldr	r3, [r0, #28]
1442:Drivers/GD32F30x_standard_peripheral/Source/gd32f30x_timer.c **** 
 3026              		.loc 1 1442 67 view .LVU823
 3027 00d6 B2F802C0 		ldrh	ip, [r2, #2]
1442:Drivers/GD32F30x_standard_peripheral/Source/gd32f30x_timer.c **** 
 3028              		.loc 1 1442 36 view .LVU824
 3029 00da 43EA0C03 		orr	r3, r3, ip
 3030 00de C361     		str	r3, [r0, #28]
1445:Drivers/GD32F30x_standard_peripheral/Source/gd32f30x_timer.c ****         TIMER_CHCTL1(timer_periph) |= (uint32_t)((uint32_t)(icpara->icfilter) << 4U);
 3031              		.loc 1 1445 9 is_stmt 1 view .LVU825
1445:Drivers/GD32F30x_standard_peripheral/Source/gd32f30x_timer.c ****         TIMER_CHCTL1(timer_periph) |= (uint32_t)((uint32_t)(icpara->icfilter) << 4U);
 3032              		.loc 1 1445 36 is_stmt 0 view .LVU826
 3033 00e0 C369     		ldr	r3, [r0, #28]
 3034 00e2 23F0F003 		bic	r3, r3, #240
 3035 00e6 C361     		str	r3, [r0, #28]
1446:Drivers/GD32F30x_standard_peripheral/Source/gd32f30x_timer.c **** 
 3036              		.loc 1 1446 9 is_stmt 1 view .LVU827
1446:Drivers/GD32F30x_standard_peripheral/Source/gd32f30x_timer.c **** 
 3037              		.loc 1 1446 36 is_stmt 0 view .LVU828
 3038 00e8 C369     		ldr	r3, [r0, #28]
1446:Drivers/GD32F30x_standard_peripheral/Source/gd32f30x_timer.c **** 
 3039              		.loc 1 1446 67 view .LVU829
 3040 00ea B2F806C0 		ldrh	ip, [r2, #6]
1446:Drivers/GD32F30x_standard_peripheral/Source/gd32f30x_timer.c **** 
 3041              		.loc 1 1446 36 view .LVU830
 3042 00ee 43EA0C13 		orr	r3, r3, ip, lsl #4
 3043 00f2 C361     		str	r3, [r0, #28]
1449:Drivers/GD32F30x_standard_peripheral/Source/gd32f30x_timer.c ****         break;
 3044              		.loc 1 1449 9 is_stmt 1 view .LVU831
1449:Drivers/GD32F30x_standard_peripheral/Source/gd32f30x_timer.c ****         break;
 3045              		.loc 1 1449 36 is_stmt 0 view .LVU832
ARM GAS  C:\Users\Prog\AppData\Local\Temp\ccT8qdHj.s 			page 82


 3046 00f4 036A     		ldr	r3, [r0, #32]
 3047 00f6 43F48073 		orr	r3, r3, #256
 3048 00fa 0362     		str	r3, [r0, #32]
1450:Drivers/GD32F30x_standard_peripheral/Source/gd32f30x_timer.c ****     /* configure TIMER_CH_3 */
 3049              		.loc 1 1450 9 is_stmt 1 view .LVU833
 3050 00fc ADE7     		b	.L171
 3051              	.L172:
1454:Drivers/GD32F30x_standard_peripheral/Source/gd32f30x_timer.c **** 
 3052              		.loc 1 1454 9 view .LVU834
1454:Drivers/GD32F30x_standard_peripheral/Source/gd32f30x_timer.c **** 
 3053              		.loc 1 1454 36 is_stmt 0 view .LVU835
 3054 00fe 036A     		ldr	r3, [r0, #32]
 3055 0100 23F48053 		bic	r3, r3, #4096
 3056 0104 0362     		str	r3, [r0, #32]
1457:Drivers/GD32F30x_standard_peripheral/Source/gd32f30x_timer.c ****         TIMER_CHCTL2(timer_periph) |= (uint32_t)((uint32_t)(icpara->icpolarity) << 12U);
 3057              		.loc 1 1457 9 is_stmt 1 view .LVU836
1457:Drivers/GD32F30x_standard_peripheral/Source/gd32f30x_timer.c ****         TIMER_CHCTL2(timer_periph) |= (uint32_t)((uint32_t)(icpara->icpolarity) << 12U);
 3058              		.loc 1 1457 36 is_stmt 0 view .LVU837
 3059 0106 036A     		ldr	r3, [r0, #32]
 3060 0108 23F40053 		bic	r3, r3, #8192
 3061 010c 0362     		str	r3, [r0, #32]
1458:Drivers/GD32F30x_standard_peripheral/Source/gd32f30x_timer.c **** 
 3062              		.loc 1 1458 9 is_stmt 1 view .LVU838
1458:Drivers/GD32F30x_standard_peripheral/Source/gd32f30x_timer.c **** 
 3063              		.loc 1 1458 36 is_stmt 0 view .LVU839
 3064 010e 036A     		ldr	r3, [r0, #32]
1458:Drivers/GD32F30x_standard_peripheral/Source/gd32f30x_timer.c **** 
 3065              		.loc 1 1458 67 view .LVU840
 3066 0110 B2F800C0 		ldrh	ip, [r2]
1458:Drivers/GD32F30x_standard_peripheral/Source/gd32f30x_timer.c **** 
 3067              		.loc 1 1458 36 view .LVU841
 3068 0114 43EA0C33 		orr	r3, r3, ip, lsl #12
 3069 0118 0362     		str	r3, [r0, #32]
1461:Drivers/GD32F30x_standard_peripheral/Source/gd32f30x_timer.c ****         TIMER_CHCTL1(timer_periph) |= (uint32_t)((uint32_t)(icpara->icselection) << 8U);
 3070              		.loc 1 1461 9 is_stmt 1 view .LVU842
1461:Drivers/GD32F30x_standard_peripheral/Source/gd32f30x_timer.c ****         TIMER_CHCTL1(timer_periph) |= (uint32_t)((uint32_t)(icpara->icselection) << 8U);
 3071              		.loc 1 1461 36 is_stmt 0 view .LVU843
 3072 011a C369     		ldr	r3, [r0, #28]
 3073 011c 23F44073 		bic	r3, r3, #768
 3074 0120 C361     		str	r3, [r0, #28]
1462:Drivers/GD32F30x_standard_peripheral/Source/gd32f30x_timer.c **** 
 3075              		.loc 1 1462 9 is_stmt 1 view .LVU844
1462:Drivers/GD32F30x_standard_peripheral/Source/gd32f30x_timer.c **** 
 3076              		.loc 1 1462 36 is_stmt 0 view .LVU845
 3077 0122 C369     		ldr	r3, [r0, #28]
1462:Drivers/GD32F30x_standard_peripheral/Source/gd32f30x_timer.c **** 
 3078              		.loc 1 1462 67 view .LVU846
 3079 0124 B2F802C0 		ldrh	ip, [r2, #2]
1462:Drivers/GD32F30x_standard_peripheral/Source/gd32f30x_timer.c **** 
 3080              		.loc 1 1462 36 view .LVU847
 3081 0128 43EA0C23 		orr	r3, r3, ip, lsl #8
 3082 012c C361     		str	r3, [r0, #28]
1465:Drivers/GD32F30x_standard_peripheral/Source/gd32f30x_timer.c ****         TIMER_CHCTL1(timer_periph) |= (uint32_t)((uint32_t)(icpara->icfilter) << 12U);
 3083              		.loc 1 1465 9 is_stmt 1 view .LVU848
1465:Drivers/GD32F30x_standard_peripheral/Source/gd32f30x_timer.c ****         TIMER_CHCTL1(timer_periph) |= (uint32_t)((uint32_t)(icpara->icfilter) << 12U);
 3084              		.loc 1 1465 36 is_stmt 0 view .LVU849
 3085 012e C369     		ldr	r3, [r0, #28]
ARM GAS  C:\Users\Prog\AppData\Local\Temp\ccT8qdHj.s 			page 83


 3086 0130 23F47043 		bic	r3, r3, #61440
 3087 0134 C361     		str	r3, [r0, #28]
1466:Drivers/GD32F30x_standard_peripheral/Source/gd32f30x_timer.c **** 
 3088              		.loc 1 1466 9 is_stmt 1 view .LVU850
1466:Drivers/GD32F30x_standard_peripheral/Source/gd32f30x_timer.c **** 
 3089              		.loc 1 1466 36 is_stmt 0 view .LVU851
 3090 0136 C369     		ldr	r3, [r0, #28]
1466:Drivers/GD32F30x_standard_peripheral/Source/gd32f30x_timer.c **** 
 3091              		.loc 1 1466 67 view .LVU852
 3092 0138 B2F806C0 		ldrh	ip, [r2, #6]
1466:Drivers/GD32F30x_standard_peripheral/Source/gd32f30x_timer.c **** 
 3093              		.loc 1 1466 36 view .LVU853
 3094 013c 43EA0C33 		orr	r3, r3, ip, lsl #12
 3095 0140 C361     		str	r3, [r0, #28]
1469:Drivers/GD32F30x_standard_peripheral/Source/gd32f30x_timer.c ****         break;
 3096              		.loc 1 1469 9 is_stmt 1 view .LVU854
1469:Drivers/GD32F30x_standard_peripheral/Source/gd32f30x_timer.c ****         break;
 3097              		.loc 1 1469 36 is_stmt 0 view .LVU855
 3098 0142 036A     		ldr	r3, [r0, #32]
 3099 0144 43F48053 		orr	r3, r3, #4096
 3100 0148 0362     		str	r3, [r0, #32]
1470:Drivers/GD32F30x_standard_peripheral/Source/gd32f30x_timer.c ****     default:
 3101              		.loc 1 1470 9 is_stmt 1 view .LVU856
 3102 014a 86E7     		b	.L171
 3103              		.cfi_endproc
 3104              	.LFE168:
 3106              		.section	.text.timer_channel_capture_value_register_read,"ax",%progbits
 3107              		.align	1
 3108              		.global	timer_channel_capture_value_register_read
 3109              		.syntax unified
 3110              		.thumb
 3111              		.thumb_func
 3112              		.fpu fpv4-sp-d16
 3114              	timer_channel_capture_value_register_read:
 3115              	.LVL177:
 3116              	.LFB170:
1523:Drivers/GD32F30x_standard_peripheral/Source/gd32f30x_timer.c **** 
1524:Drivers/GD32F30x_standard_peripheral/Source/gd32f30x_timer.c **** /*!
1525:Drivers/GD32F30x_standard_peripheral/Source/gd32f30x_timer.c ****     \brief      read TIMER channel capture compare register value
1526:Drivers/GD32F30x_standard_peripheral/Source/gd32f30x_timer.c ****     \param[in]  timer_periph: please refer to the following parameters
1527:Drivers/GD32F30x_standard_peripheral/Source/gd32f30x_timer.c ****     \param[in]  channel: 
1528:Drivers/GD32F30x_standard_peripheral/Source/gd32f30x_timer.c ****                 only one parameter can be selected which is shown as below:
1529:Drivers/GD32F30x_standard_peripheral/Source/gd32f30x_timer.c ****       \arg        TIMER_CH_0: TIMER channel0(TIMERx(x=0..4,7..13))
1530:Drivers/GD32F30x_standard_peripheral/Source/gd32f30x_timer.c ****       \arg        TIMER_CH_1: TIMER channel1(TIMERx(x=0..4,7,8,11))
1531:Drivers/GD32F30x_standard_peripheral/Source/gd32f30x_timer.c ****       \arg        TIMER_CH_2: TIMER channel2(TIMERx(x=0..4,7))
1532:Drivers/GD32F30x_standard_peripheral/Source/gd32f30x_timer.c ****       \arg        TIMER_CH_3: TIMER channel3(TIMERx(x=0..4,7))
1533:Drivers/GD32F30x_standard_peripheral/Source/gd32f30x_timer.c ****     \param[out] none
1534:Drivers/GD32F30x_standard_peripheral/Source/gd32f30x_timer.c ****     \retval     channel capture compare register value
1535:Drivers/GD32F30x_standard_peripheral/Source/gd32f30x_timer.c **** */
1536:Drivers/GD32F30x_standard_peripheral/Source/gd32f30x_timer.c **** uint32_t timer_channel_capture_value_register_read(uint32_t timer_periph, uint16_t channel)
1537:Drivers/GD32F30x_standard_peripheral/Source/gd32f30x_timer.c **** {
 3117              		.loc 1 1537 1 view -0
 3118              		.cfi_startproc
 3119              		@ args = 0, pretend = 0, frame = 0
 3120              		@ frame_needed = 0, uses_anonymous_args = 0
 3121              		@ link register save eliminated.
1538:Drivers/GD32F30x_standard_peripheral/Source/gd32f30x_timer.c ****     uint32_t count_value = 0U;
ARM GAS  C:\Users\Prog\AppData\Local\Temp\ccT8qdHj.s 			page 84


 3122              		.loc 1 1538 5 view .LVU858
1539:Drivers/GD32F30x_standard_peripheral/Source/gd32f30x_timer.c **** 
1540:Drivers/GD32F30x_standard_peripheral/Source/gd32f30x_timer.c ****     switch(channel){
 3123              		.loc 1 1540 5 view .LVU859
 3124 0000 0329     		cmp	r1, #3
 3125 0002 0BD8     		bhi	.L185
 3126 0004 DFE801F0 		tbb	[pc, r1]
 3127              	.L181:
 3128 0008 02       		.byte	(.L184-.L181)/2
 3129 0009 04       		.byte	(.L183-.L181)/2
 3130 000a 06       		.byte	(.L182-.L181)/2
 3131 000b 08       		.byte	(.L180-.L181)/2
 3132              		.p2align 1
 3133              	.L184:
1541:Drivers/GD32F30x_standard_peripheral/Source/gd32f30x_timer.c ****     /* read TIMER channel 0 capture compare register value */
1542:Drivers/GD32F30x_standard_peripheral/Source/gd32f30x_timer.c ****     case TIMER_CH_0:
1543:Drivers/GD32F30x_standard_peripheral/Source/gd32f30x_timer.c ****         count_value = TIMER_CH0CV(timer_periph);
 3134              		.loc 1 1543 9 view .LVU860
 3135              		.loc 1 1543 21 is_stmt 0 view .LVU861
 3136 000c 406B     		ldr	r0, [r0, #52]
 3137              	.LVL178:
1544:Drivers/GD32F30x_standard_peripheral/Source/gd32f30x_timer.c ****         break;
 3138              		.loc 1 1544 9 is_stmt 1 view .LVU862
 3139 000e 7047     		bx	lr
 3140              	.LVL179:
 3141              	.L183:
1545:Drivers/GD32F30x_standard_peripheral/Source/gd32f30x_timer.c ****     /* read TIMER channel 1 capture compare register value */
1546:Drivers/GD32F30x_standard_peripheral/Source/gd32f30x_timer.c ****     case TIMER_CH_1:
1547:Drivers/GD32F30x_standard_peripheral/Source/gd32f30x_timer.c ****         count_value = TIMER_CH1CV(timer_periph);
 3142              		.loc 1 1547 9 view .LVU863
 3143              		.loc 1 1547 21 is_stmt 0 view .LVU864
 3144 0010 806B     		ldr	r0, [r0, #56]
 3145              	.LVL180:
1548:Drivers/GD32F30x_standard_peripheral/Source/gd32f30x_timer.c ****         break;
 3146              		.loc 1 1548 9 is_stmt 1 view .LVU865
 3147 0012 7047     		bx	lr
 3148              	.LVL181:
 3149              	.L182:
1549:Drivers/GD32F30x_standard_peripheral/Source/gd32f30x_timer.c ****     /* read TIMER channel 2 capture compare register value */
1550:Drivers/GD32F30x_standard_peripheral/Source/gd32f30x_timer.c ****     case TIMER_CH_2:
1551:Drivers/GD32F30x_standard_peripheral/Source/gd32f30x_timer.c ****         count_value = TIMER_CH2CV(timer_periph);
 3150              		.loc 1 1551 9 view .LVU866
 3151              		.loc 1 1551 21 is_stmt 0 view .LVU867
 3152 0014 C06B     		ldr	r0, [r0, #60]
 3153              	.LVL182:
1552:Drivers/GD32F30x_standard_peripheral/Source/gd32f30x_timer.c ****         break;
 3154              		.loc 1 1552 9 is_stmt 1 view .LVU868
 3155 0016 7047     		bx	lr
 3156              	.LVL183:
 3157              	.L180:
1553:Drivers/GD32F30x_standard_peripheral/Source/gd32f30x_timer.c ****     /* read TIMER channel 3 capture compare register value */
1554:Drivers/GD32F30x_standard_peripheral/Source/gd32f30x_timer.c ****     case TIMER_CH_3:
1555:Drivers/GD32F30x_standard_peripheral/Source/gd32f30x_timer.c ****         count_value = TIMER_CH3CV(timer_periph);
 3158              		.loc 1 1555 9 view .LVU869
 3159              		.loc 1 1555 21 is_stmt 0 view .LVU870
 3160 0018 006C     		ldr	r0, [r0, #64]
 3161              	.LVL184:
ARM GAS  C:\Users\Prog\AppData\Local\Temp\ccT8qdHj.s 			page 85


1556:Drivers/GD32F30x_standard_peripheral/Source/gd32f30x_timer.c ****         break;
 3162              		.loc 1 1556 9 is_stmt 1 view .LVU871
 3163 001a 7047     		bx	lr
 3164              	.LVL185:
 3165              	.L185:
1537:Drivers/GD32F30x_standard_peripheral/Source/gd32f30x_timer.c ****     uint32_t count_value = 0U;
 3166              		.loc 1 1537 1 is_stmt 0 view .LVU872
 3167 001c 0020     		movs	r0, #0
 3168              	.LVL186:
1557:Drivers/GD32F30x_standard_peripheral/Source/gd32f30x_timer.c ****     default:
1558:Drivers/GD32F30x_standard_peripheral/Source/gd32f30x_timer.c ****         break;
1559:Drivers/GD32F30x_standard_peripheral/Source/gd32f30x_timer.c ****     }
1560:Drivers/GD32F30x_standard_peripheral/Source/gd32f30x_timer.c ****     return (count_value);
 3169              		.loc 1 1560 5 is_stmt 1 view .LVU873
1561:Drivers/GD32F30x_standard_peripheral/Source/gd32f30x_timer.c **** }
 3170              		.loc 1 1561 1 is_stmt 0 view .LVU874
 3171 001e 7047     		bx	lr
 3172              		.cfi_endproc
 3173              	.LFE170:
 3175              		.section	.text.timer_input_pwm_capture_config,"ax",%progbits
 3176              		.align	1
 3177              		.global	timer_input_pwm_capture_config
 3178              		.syntax unified
 3179              		.thumb
 3180              		.thumb_func
 3181              		.fpu fpv4-sp-d16
 3183              	timer_input_pwm_capture_config:
 3184              	.LVL187:
 3185              	.LFB171:
1562:Drivers/GD32F30x_standard_peripheral/Source/gd32f30x_timer.c **** 
1563:Drivers/GD32F30x_standard_peripheral/Source/gd32f30x_timer.c **** /*!
1564:Drivers/GD32F30x_standard_peripheral/Source/gd32f30x_timer.c ****     \brief      configure TIMER input pwm capture function 
1565:Drivers/GD32F30x_standard_peripheral/Source/gd32f30x_timer.c ****     \param[in]  timer_periph: TIMERx(x=0..4,7,8,11)
1566:Drivers/GD32F30x_standard_peripheral/Source/gd32f30x_timer.c ****     \param[in]  channel: 
1567:Drivers/GD32F30x_standard_peripheral/Source/gd32f30x_timer.c ****                 only one parameter can be selected which is shown as below:
1568:Drivers/GD32F30x_standard_peripheral/Source/gd32f30x_timer.c ****       \arg        TIMER_CH_0: TIMER channel0
1569:Drivers/GD32F30x_standard_peripheral/Source/gd32f30x_timer.c ****       \arg        TIMER_CH_1: TIMER channel1
1570:Drivers/GD32F30x_standard_peripheral/Source/gd32f30x_timer.c ****      \param[in]  icpwm:TIMER channel intput pwm parameter struct
1571:Drivers/GD32F30x_standard_peripheral/Source/gd32f30x_timer.c ****                  icpolarity: TIMER_IC_POLARITY_RISING,TIMER_IC_POLARITY_FALLING
1572:Drivers/GD32F30x_standard_peripheral/Source/gd32f30x_timer.c ****                  icselection: TIMER_IC_SELECTION_DIRECTTI,TIMER_IC_SELECTION_INDIRECTTI
1573:Drivers/GD32F30x_standard_peripheral/Source/gd32f30x_timer.c ****                  icprescaler: TIMER_IC_PSC_DIV1,TIMER_IC_PSC_DIV2,TIMER_IC_PSC_DIV4,TIMER_IC_PSC_DI
1574:Drivers/GD32F30x_standard_peripheral/Source/gd32f30x_timer.c ****                  icfilter: 0~15
1575:Drivers/GD32F30x_standard_peripheral/Source/gd32f30x_timer.c ****     \param[out] none
1576:Drivers/GD32F30x_standard_peripheral/Source/gd32f30x_timer.c ****     \retval     none
1577:Drivers/GD32F30x_standard_peripheral/Source/gd32f30x_timer.c **** */
1578:Drivers/GD32F30x_standard_peripheral/Source/gd32f30x_timer.c **** void timer_input_pwm_capture_config(uint32_t timer_periph, uint16_t channel, timer_ic_parameter_str
1579:Drivers/GD32F30x_standard_peripheral/Source/gd32f30x_timer.c **** {
 3186              		.loc 1 1579 1 is_stmt 1 view -0
 3187              		.cfi_startproc
 3188              		@ args = 0, pretend = 0, frame = 0
 3189              		@ frame_needed = 0, uses_anonymous_args = 0
 3190              		.loc 1 1579 1 is_stmt 0 view .LVU876
 3191 0000 F8B5     		push	{r3, r4, r5, r6, r7, lr}
 3192              	.LCFI3:
 3193              		.cfi_def_cfa_offset 24
 3194              		.cfi_offset 3, -24
 3195              		.cfi_offset 4, -20
ARM GAS  C:\Users\Prog\AppData\Local\Temp\ccT8qdHj.s 			page 86


 3196              		.cfi_offset 5, -16
 3197              		.cfi_offset 6, -12
 3198              		.cfi_offset 7, -8
 3199              		.cfi_offset 14, -4
 3200 0002 0446     		mov	r4, r0
 3201 0004 1546     		mov	r5, r2
1580:Drivers/GD32F30x_standard_peripheral/Source/gd32f30x_timer.c ****     uint16_t icpolarity  = 0x0U;
 3202              		.loc 1 1580 5 is_stmt 1 view .LVU877
 3203              	.LVL188:
1581:Drivers/GD32F30x_standard_peripheral/Source/gd32f30x_timer.c ****     uint16_t icselection = 0x0U;
 3204              		.loc 1 1581 5 view .LVU878
1582:Drivers/GD32F30x_standard_peripheral/Source/gd32f30x_timer.c **** 
1583:Drivers/GD32F30x_standard_peripheral/Source/gd32f30x_timer.c ****     /* Set channel input polarity */
1584:Drivers/GD32F30x_standard_peripheral/Source/gd32f30x_timer.c ****     if(TIMER_IC_POLARITY_RISING == icpwm->icpolarity){
 3205              		.loc 1 1584 5 view .LVU879
 3206              		.loc 1 1584 41 is_stmt 0 view .LVU880
 3207 0006 1388     		ldrh	r3, [r2]
 3208              		.loc 1 1584 7 view .LVU881
 3209 0008 002B     		cmp	r3, #0
 3210 000a 52D1     		bne	.L191
1585:Drivers/GD32F30x_standard_peripheral/Source/gd32f30x_timer.c ****         icpolarity = TIMER_IC_POLARITY_FALLING;
 3211              		.loc 1 1585 20 view .LVU882
 3212 000c 0227     		movs	r7, #2
 3213              	.L187:
 3214              	.LVL189:
1586:Drivers/GD32F30x_standard_peripheral/Source/gd32f30x_timer.c ****     }else{
1587:Drivers/GD32F30x_standard_peripheral/Source/gd32f30x_timer.c ****         icpolarity = TIMER_IC_POLARITY_RISING;
1588:Drivers/GD32F30x_standard_peripheral/Source/gd32f30x_timer.c ****     }
1589:Drivers/GD32F30x_standard_peripheral/Source/gd32f30x_timer.c **** 
1590:Drivers/GD32F30x_standard_peripheral/Source/gd32f30x_timer.c ****     /* Set channel input mode selection */
1591:Drivers/GD32F30x_standard_peripheral/Source/gd32f30x_timer.c ****     if(TIMER_IC_SELECTION_DIRECTTI == icpwm->icselection){
 3215              		.loc 1 1591 5 is_stmt 1 view .LVU883
 3216              		.loc 1 1591 44 is_stmt 0 view .LVU884
 3217 000e 6B88     		ldrh	r3, [r5, #2]
 3218              		.loc 1 1591 7 view .LVU885
 3219 0010 012B     		cmp	r3, #1
 3220 0012 50D0     		beq	.L194
1592:Drivers/GD32F30x_standard_peripheral/Source/gd32f30x_timer.c ****         icselection = TIMER_IC_SELECTION_INDIRECTTI;
1593:Drivers/GD32F30x_standard_peripheral/Source/gd32f30x_timer.c ****     }else{
1594:Drivers/GD32F30x_standard_peripheral/Source/gd32f30x_timer.c ****         icselection = TIMER_IC_SELECTION_DIRECTTI;
 3221              		.loc 1 1594 21 view .LVU886
 3222 0014 0126     		movs	r6, #1
 3223              	.L188:
 3224              	.LVL190:
1595:Drivers/GD32F30x_standard_peripheral/Source/gd32f30x_timer.c ****     }
1596:Drivers/GD32F30x_standard_peripheral/Source/gd32f30x_timer.c **** 
1597:Drivers/GD32F30x_standard_peripheral/Source/gd32f30x_timer.c ****     if(TIMER_CH_0 == channel){
 3225              		.loc 1 1597 5 is_stmt 1 view .LVU887
 3226              		.loc 1 1597 7 is_stmt 0 view .LVU888
 3227 0016 0029     		cmp	r1, #0
 3228 0018 4FD1     		bne	.L189
1598:Drivers/GD32F30x_standard_peripheral/Source/gd32f30x_timer.c ****         /* reset the CH0EN bit */
1599:Drivers/GD32F30x_standard_peripheral/Source/gd32f30x_timer.c ****         TIMER_CHCTL2(timer_periph) &= (~(uint32_t)TIMER_CHCTL2_CH0EN);
 3229              		.loc 1 1599 9 is_stmt 1 view .LVU889
 3230              		.loc 1 1599 36 is_stmt 0 view .LVU890
 3231 001a 236A     		ldr	r3, [r4, #32]
 3232 001c 23F00103 		bic	r3, r3, #1
ARM GAS  C:\Users\Prog\AppData\Local\Temp\ccT8qdHj.s 			page 87


 3233 0020 2362     		str	r3, [r4, #32]
1600:Drivers/GD32F30x_standard_peripheral/Source/gd32f30x_timer.c ****         /* reset the CH0P and CH0NP bits */
1601:Drivers/GD32F30x_standard_peripheral/Source/gd32f30x_timer.c ****         TIMER_CHCTL2(timer_periph) &= (~(uint32_t)(TIMER_CHCTL2_CH0P|TIMER_CHCTL2_CH0NP));
 3234              		.loc 1 1601 9 is_stmt 1 view .LVU891
 3235              		.loc 1 1601 36 is_stmt 0 view .LVU892
 3236 0022 236A     		ldr	r3, [r4, #32]
 3237 0024 23F00A03 		bic	r3, r3, #10
 3238 0028 2362     		str	r3, [r4, #32]
1602:Drivers/GD32F30x_standard_peripheral/Source/gd32f30x_timer.c ****         /* set the CH0P and CH0NP bits */
1603:Drivers/GD32F30x_standard_peripheral/Source/gd32f30x_timer.c ****         TIMER_CHCTL2(timer_periph) |= (uint32_t)(icpwm->icpolarity);
 3239              		.loc 1 1603 9 is_stmt 1 view .LVU893
 3240              		.loc 1 1603 36 is_stmt 0 view .LVU894
 3241 002a 236A     		ldr	r3, [r4, #32]
 3242              		.loc 1 1603 55 view .LVU895
 3243 002c 2A88     		ldrh	r2, [r5]
 3244              	.LVL191:
 3245              		.loc 1 1603 36 view .LVU896
 3246 002e 1343     		orrs	r3, r3, r2
 3247 0030 2362     		str	r3, [r4, #32]
1604:Drivers/GD32F30x_standard_peripheral/Source/gd32f30x_timer.c ****         /* reset the CH0MS bit */
1605:Drivers/GD32F30x_standard_peripheral/Source/gd32f30x_timer.c ****         TIMER_CHCTL0(timer_periph) &= (~(uint32_t)TIMER_CHCTL0_CH0MS);
 3248              		.loc 1 1605 9 is_stmt 1 view .LVU897
 3249              		.loc 1 1605 36 is_stmt 0 view .LVU898
 3250 0032 A369     		ldr	r3, [r4, #24]
 3251 0034 23F00303 		bic	r3, r3, #3
 3252 0038 A361     		str	r3, [r4, #24]
1606:Drivers/GD32F30x_standard_peripheral/Source/gd32f30x_timer.c ****         /* set the CH0MS bit */
1607:Drivers/GD32F30x_standard_peripheral/Source/gd32f30x_timer.c ****         TIMER_CHCTL0(timer_periph) |= (uint32_t)(icpwm->icselection);
 3253              		.loc 1 1607 9 is_stmt 1 view .LVU899
 3254              		.loc 1 1607 36 is_stmt 0 view .LVU900
 3255 003a A369     		ldr	r3, [r4, #24]
 3256              		.loc 1 1607 55 view .LVU901
 3257 003c 6A88     		ldrh	r2, [r5, #2]
 3258              		.loc 1 1607 36 view .LVU902
 3259 003e 1343     		orrs	r3, r3, r2
 3260 0040 A361     		str	r3, [r4, #24]
1608:Drivers/GD32F30x_standard_peripheral/Source/gd32f30x_timer.c ****         /* reset the CH0CAPFLT bit */
1609:Drivers/GD32F30x_standard_peripheral/Source/gd32f30x_timer.c ****         TIMER_CHCTL0(timer_periph) &= (~(uint32_t)TIMER_CHCTL0_CH0CAPFLT);
 3261              		.loc 1 1609 9 is_stmt 1 view .LVU903
 3262              		.loc 1 1609 36 is_stmt 0 view .LVU904
 3263 0042 A369     		ldr	r3, [r4, #24]
 3264 0044 23F0F003 		bic	r3, r3, #240
 3265 0048 A361     		str	r3, [r4, #24]
1610:Drivers/GD32F30x_standard_peripheral/Source/gd32f30x_timer.c ****         /* set the CH0CAPFLT bit */
1611:Drivers/GD32F30x_standard_peripheral/Source/gd32f30x_timer.c ****         TIMER_CHCTL0(timer_periph) |= ((uint32_t)(icpwm->icfilter) << 4U);
 3266              		.loc 1 1611 9 is_stmt 1 view .LVU905
 3267              		.loc 1 1611 36 is_stmt 0 view .LVU906
 3268 004a A369     		ldr	r3, [r4, #24]
 3269              		.loc 1 1611 56 view .LVU907
 3270 004c EA88     		ldrh	r2, [r5, #6]
 3271              		.loc 1 1611 36 view .LVU908
 3272 004e 43EA0213 		orr	r3, r3, r2, lsl #4
 3273 0052 A361     		str	r3, [r4, #24]
1612:Drivers/GD32F30x_standard_peripheral/Source/gd32f30x_timer.c ****         /* set the CH0EN bit */
1613:Drivers/GD32F30x_standard_peripheral/Source/gd32f30x_timer.c ****         TIMER_CHCTL2(timer_periph) |= (uint32_t)TIMER_CHCTL2_CH0EN;
 3274              		.loc 1 1613 9 is_stmt 1 view .LVU909
 3275              		.loc 1 1613 36 is_stmt 0 view .LVU910
ARM GAS  C:\Users\Prog\AppData\Local\Temp\ccT8qdHj.s 			page 88


 3276 0054 236A     		ldr	r3, [r4, #32]
 3277 0056 43F00103 		orr	r3, r3, #1
 3278 005a 2362     		str	r3, [r4, #32]
1614:Drivers/GD32F30x_standard_peripheral/Source/gd32f30x_timer.c ****         /* configure TIMER channel input capture prescaler value */
1615:Drivers/GD32F30x_standard_peripheral/Source/gd32f30x_timer.c ****         timer_channel_input_capture_prescaler_config(timer_periph,TIMER_CH_0,(uint16_t)(icpwm->icpr
 3279              		.loc 1 1615 9 is_stmt 1 view .LVU911
 3280 005c AA88     		ldrh	r2, [r5, #4]
 3281 005e 2046     		mov	r0, r4
 3282              	.LVL192:
 3283              		.loc 1 1615 9 is_stmt 0 view .LVU912
 3284 0060 FFF7FEFF 		bl	timer_channel_input_capture_prescaler_config
 3285              	.LVL193:
1616:Drivers/GD32F30x_standard_peripheral/Source/gd32f30x_timer.c **** 
1617:Drivers/GD32F30x_standard_peripheral/Source/gd32f30x_timer.c ****         /* reset the CH1EN bit */
1618:Drivers/GD32F30x_standard_peripheral/Source/gd32f30x_timer.c ****         TIMER_CHCTL2(timer_periph) &= (~(uint32_t)TIMER_CHCTL2_CH1EN);
 3286              		.loc 1 1618 9 is_stmt 1 view .LVU913
 3287              		.loc 1 1618 36 is_stmt 0 view .LVU914
 3288 0064 236A     		ldr	r3, [r4, #32]
 3289 0066 23F01003 		bic	r3, r3, #16
 3290 006a 2362     		str	r3, [r4, #32]
1619:Drivers/GD32F30x_standard_peripheral/Source/gd32f30x_timer.c ****         /* reset the CH1P and CH1NP bits */
1620:Drivers/GD32F30x_standard_peripheral/Source/gd32f30x_timer.c ****         TIMER_CHCTL2(timer_periph) &= (~(uint32_t)(TIMER_CHCTL2_CH1P|TIMER_CHCTL2_CH1NP));
 3291              		.loc 1 1620 9 is_stmt 1 view .LVU915
 3292              		.loc 1 1620 36 is_stmt 0 view .LVU916
 3293 006c 236A     		ldr	r3, [r4, #32]
 3294 006e 23F0A003 		bic	r3, r3, #160
 3295 0072 2362     		str	r3, [r4, #32]
1621:Drivers/GD32F30x_standard_peripheral/Source/gd32f30x_timer.c ****         /* set the CH1P and CH1NP bits */
1622:Drivers/GD32F30x_standard_peripheral/Source/gd32f30x_timer.c ****         TIMER_CHCTL2(timer_periph) |= (uint32_t)((uint32_t)icpolarity << 4U);
 3296              		.loc 1 1622 9 is_stmt 1 view .LVU917
 3297              		.loc 1 1622 36 is_stmt 0 view .LVU918
 3298 0074 236A     		ldr	r3, [r4, #32]
 3299 0076 43EA0713 		orr	r3, r3, r7, lsl #4
 3300 007a 2362     		str	r3, [r4, #32]
1623:Drivers/GD32F30x_standard_peripheral/Source/gd32f30x_timer.c ****         /* reset the CH1MS bit */
1624:Drivers/GD32F30x_standard_peripheral/Source/gd32f30x_timer.c ****         TIMER_CHCTL0(timer_periph) &= (~(uint32_t)TIMER_CHCTL0_CH1MS);
 3301              		.loc 1 1624 9 is_stmt 1 view .LVU919
 3302              		.loc 1 1624 36 is_stmt 0 view .LVU920
 3303 007c A369     		ldr	r3, [r4, #24]
 3304 007e 23F44073 		bic	r3, r3, #768
 3305 0082 A361     		str	r3, [r4, #24]
1625:Drivers/GD32F30x_standard_peripheral/Source/gd32f30x_timer.c ****         /* set the CH1MS bit */
1626:Drivers/GD32F30x_standard_peripheral/Source/gd32f30x_timer.c ****         TIMER_CHCTL0(timer_periph) |= (uint32_t)((uint32_t)icselection << 8U);
 3306              		.loc 1 1626 9 is_stmt 1 view .LVU921
 3307              		.loc 1 1626 36 is_stmt 0 view .LVU922
 3308 0084 A369     		ldr	r3, [r4, #24]
 3309 0086 43EA0623 		orr	r3, r3, r6, lsl #8
 3310 008a A361     		str	r3, [r4, #24]
1627:Drivers/GD32F30x_standard_peripheral/Source/gd32f30x_timer.c ****         /* reset the CH1CAPFLT bit */
1628:Drivers/GD32F30x_standard_peripheral/Source/gd32f30x_timer.c ****         TIMER_CHCTL0(timer_periph) &= (~(uint32_t)TIMER_CHCTL0_CH1CAPFLT);
 3311              		.loc 1 1628 9 is_stmt 1 view .LVU923
 3312              		.loc 1 1628 36 is_stmt 0 view .LVU924
 3313 008c A369     		ldr	r3, [r4, #24]
 3314 008e 23F47043 		bic	r3, r3, #61440
 3315 0092 A361     		str	r3, [r4, #24]
1629:Drivers/GD32F30x_standard_peripheral/Source/gd32f30x_timer.c ****         /* set the CH1CAPFLT bit */
1630:Drivers/GD32F30x_standard_peripheral/Source/gd32f30x_timer.c ****         TIMER_CHCTL0(timer_periph) |= (uint32_t)((uint32_t)(icpwm->icfilter) << 12U);
ARM GAS  C:\Users\Prog\AppData\Local\Temp\ccT8qdHj.s 			page 89


 3316              		.loc 1 1630 9 is_stmt 1 view .LVU925
 3317              		.loc 1 1630 36 is_stmt 0 view .LVU926
 3318 0094 A369     		ldr	r3, [r4, #24]
 3319              		.loc 1 1630 66 view .LVU927
 3320 0096 EA88     		ldrh	r2, [r5, #6]
 3321              		.loc 1 1630 36 view .LVU928
 3322 0098 43EA0233 		orr	r3, r3, r2, lsl #12
 3323 009c A361     		str	r3, [r4, #24]
1631:Drivers/GD32F30x_standard_peripheral/Source/gd32f30x_timer.c ****         /* set the CH1EN bit */
1632:Drivers/GD32F30x_standard_peripheral/Source/gd32f30x_timer.c ****         TIMER_CHCTL2(timer_periph) |= (uint32_t)TIMER_CHCTL2_CH1EN;
 3324              		.loc 1 1632 9 is_stmt 1 view .LVU929
 3325              		.loc 1 1632 36 is_stmt 0 view .LVU930
 3326 009e 236A     		ldr	r3, [r4, #32]
 3327 00a0 43F01003 		orr	r3, r3, #16
 3328 00a4 2362     		str	r3, [r4, #32]
1633:Drivers/GD32F30x_standard_peripheral/Source/gd32f30x_timer.c ****         /* configure TIMER channel input capture prescaler value */
1634:Drivers/GD32F30x_standard_peripheral/Source/gd32f30x_timer.c ****         timer_channel_input_capture_prescaler_config(timer_periph,TIMER_CH_1,(uint16_t)(icpwm->icpr
 3329              		.loc 1 1634 9 is_stmt 1 view .LVU931
 3330 00a6 AA88     		ldrh	r2, [r5, #4]
 3331 00a8 0121     		movs	r1, #1
 3332 00aa 2046     		mov	r0, r4
 3333 00ac FFF7FEFF 		bl	timer_channel_input_capture_prescaler_config
 3334              	.LVL194:
 3335              	.L186:
1635:Drivers/GD32F30x_standard_peripheral/Source/gd32f30x_timer.c ****     }else{
1636:Drivers/GD32F30x_standard_peripheral/Source/gd32f30x_timer.c ****         /* reset the CH1EN bit */
1637:Drivers/GD32F30x_standard_peripheral/Source/gd32f30x_timer.c ****         TIMER_CHCTL2(timer_periph) &= (~(uint32_t)TIMER_CHCTL2_CH1EN);
1638:Drivers/GD32F30x_standard_peripheral/Source/gd32f30x_timer.c ****         /* reset the CH1P and CH1NP bits */
1639:Drivers/GD32F30x_standard_peripheral/Source/gd32f30x_timer.c ****         TIMER_CHCTL2(timer_periph) &= (~(uint32_t)(TIMER_CHCTL2_CH1P|TIMER_CHCTL2_CH1NP));
1640:Drivers/GD32F30x_standard_peripheral/Source/gd32f30x_timer.c ****         /* set the CH1P and CH1NP bits */
1641:Drivers/GD32F30x_standard_peripheral/Source/gd32f30x_timer.c ****         TIMER_CHCTL2(timer_periph) |= (uint32_t)((uint32_t)(icpwm->icpolarity) << 4U);
1642:Drivers/GD32F30x_standard_peripheral/Source/gd32f30x_timer.c ****         /* reset the CH1MS bit */
1643:Drivers/GD32F30x_standard_peripheral/Source/gd32f30x_timer.c ****         TIMER_CHCTL0(timer_periph) &= (~(uint32_t)TIMER_CHCTL0_CH1MS);
1644:Drivers/GD32F30x_standard_peripheral/Source/gd32f30x_timer.c ****         /* set the CH1MS bit */
1645:Drivers/GD32F30x_standard_peripheral/Source/gd32f30x_timer.c ****         TIMER_CHCTL0(timer_periph) |= (uint32_t)((uint32_t)(icpwm->icselection) << 8U);
1646:Drivers/GD32F30x_standard_peripheral/Source/gd32f30x_timer.c ****         /* reset the CH1CAPFLT bit */
1647:Drivers/GD32F30x_standard_peripheral/Source/gd32f30x_timer.c ****         TIMER_CHCTL0(timer_periph) &= (~(uint32_t)TIMER_CHCTL0_CH1CAPFLT);
1648:Drivers/GD32F30x_standard_peripheral/Source/gd32f30x_timer.c ****         /* set the CH1CAPFLT bit */
1649:Drivers/GD32F30x_standard_peripheral/Source/gd32f30x_timer.c ****         TIMER_CHCTL0(timer_periph) |= (uint32_t)((uint32_t)(icpwm->icfilter) << 12U);
1650:Drivers/GD32F30x_standard_peripheral/Source/gd32f30x_timer.c ****         /* set the CH1EN bit */
1651:Drivers/GD32F30x_standard_peripheral/Source/gd32f30x_timer.c ****         TIMER_CHCTL2(timer_periph) |= (uint32_t)TIMER_CHCTL2_CH1EN;
1652:Drivers/GD32F30x_standard_peripheral/Source/gd32f30x_timer.c ****         /* configure TIMER channel input capture prescaler value */
1653:Drivers/GD32F30x_standard_peripheral/Source/gd32f30x_timer.c ****         timer_channel_input_capture_prescaler_config(timer_periph, TIMER_CH_1, (uint16_t)(icpwm->ic
1654:Drivers/GD32F30x_standard_peripheral/Source/gd32f30x_timer.c **** 
1655:Drivers/GD32F30x_standard_peripheral/Source/gd32f30x_timer.c ****         /* reset the CH0EN bit */
1656:Drivers/GD32F30x_standard_peripheral/Source/gd32f30x_timer.c ****         TIMER_CHCTL2(timer_periph) &= (~(uint32_t)TIMER_CHCTL2_CH0EN);
1657:Drivers/GD32F30x_standard_peripheral/Source/gd32f30x_timer.c ****         /* reset the CH0P and CH0NP bits */
1658:Drivers/GD32F30x_standard_peripheral/Source/gd32f30x_timer.c ****         TIMER_CHCTL2(timer_periph) &= (~(uint32_t)(TIMER_CHCTL2_CH0P|TIMER_CHCTL2_CH0NP));
1659:Drivers/GD32F30x_standard_peripheral/Source/gd32f30x_timer.c ****         /* set the CH0P and CH0NP bits */
1660:Drivers/GD32F30x_standard_peripheral/Source/gd32f30x_timer.c ****         TIMER_CHCTL2(timer_periph) |= (uint32_t)icpolarity;
1661:Drivers/GD32F30x_standard_peripheral/Source/gd32f30x_timer.c ****         /* reset the CH0MS bit */
1662:Drivers/GD32F30x_standard_peripheral/Source/gd32f30x_timer.c ****         TIMER_CHCTL0(timer_periph) &= (~(uint32_t)TIMER_CHCTL0_CH0MS);
1663:Drivers/GD32F30x_standard_peripheral/Source/gd32f30x_timer.c ****         /* set the CH0MS bit */
1664:Drivers/GD32F30x_standard_peripheral/Source/gd32f30x_timer.c ****         TIMER_CHCTL0(timer_periph) |= (uint32_t)icselection;
1665:Drivers/GD32F30x_standard_peripheral/Source/gd32f30x_timer.c ****         /* reset the CH0CAPFLT bit */
1666:Drivers/GD32F30x_standard_peripheral/Source/gd32f30x_timer.c ****         TIMER_CHCTL0(timer_periph) &= (~(uint32_t)TIMER_CHCTL0_CH0CAPFLT);
1667:Drivers/GD32F30x_standard_peripheral/Source/gd32f30x_timer.c ****         /* set the CH0CAPFLT bit */
ARM GAS  C:\Users\Prog\AppData\Local\Temp\ccT8qdHj.s 			page 90


1668:Drivers/GD32F30x_standard_peripheral/Source/gd32f30x_timer.c ****         TIMER_CHCTL0(timer_periph) |= ((uint32_t)(icpwm->icfilter) << 4U);
1669:Drivers/GD32F30x_standard_peripheral/Source/gd32f30x_timer.c ****         /* set the CH0EN bit */
1670:Drivers/GD32F30x_standard_peripheral/Source/gd32f30x_timer.c ****         TIMER_CHCTL2(timer_periph) |= (uint32_t)TIMER_CHCTL2_CH0EN;
1671:Drivers/GD32F30x_standard_peripheral/Source/gd32f30x_timer.c ****         /* configure TIMER channel input capture prescaler value */
1672:Drivers/GD32F30x_standard_peripheral/Source/gd32f30x_timer.c ****         timer_channel_input_capture_prescaler_config(timer_periph, TIMER_CH_0, (uint16_t)(icpwm->ic
1673:Drivers/GD32F30x_standard_peripheral/Source/gd32f30x_timer.c ****     }
1674:Drivers/GD32F30x_standard_peripheral/Source/gd32f30x_timer.c **** }
 3336              		.loc 1 1674 1 is_stmt 0 view .LVU932
 3337 00b0 F8BD     		pop	{r3, r4, r5, r6, r7, pc}
 3338              	.LVL195:
 3339              	.L191:
1587:Drivers/GD32F30x_standard_peripheral/Source/gd32f30x_timer.c ****     }
 3340              		.loc 1 1587 20 view .LVU933
 3341 00b2 0027     		movs	r7, #0
 3342 00b4 ABE7     		b	.L187
 3343              	.LVL196:
 3344              	.L194:
1592:Drivers/GD32F30x_standard_peripheral/Source/gd32f30x_timer.c ****     }else{
 3345              		.loc 1 1592 21 view .LVU934
 3346 00b6 0226     		movs	r6, #2
 3347 00b8 ADE7     		b	.L188
 3348              	.LVL197:
 3349              	.L189:
1637:Drivers/GD32F30x_standard_peripheral/Source/gd32f30x_timer.c ****         /* reset the CH1P and CH1NP bits */
 3350              		.loc 1 1637 9 is_stmt 1 view .LVU935
1637:Drivers/GD32F30x_standard_peripheral/Source/gd32f30x_timer.c ****         /* reset the CH1P and CH1NP bits */
 3351              		.loc 1 1637 36 is_stmt 0 view .LVU936
 3352 00ba 236A     		ldr	r3, [r4, #32]
 3353 00bc 23F01003 		bic	r3, r3, #16
 3354 00c0 2362     		str	r3, [r4, #32]
1639:Drivers/GD32F30x_standard_peripheral/Source/gd32f30x_timer.c ****         /* set the CH1P and CH1NP bits */
 3355              		.loc 1 1639 9 is_stmt 1 view .LVU937
1639:Drivers/GD32F30x_standard_peripheral/Source/gd32f30x_timer.c ****         /* set the CH1P and CH1NP bits */
 3356              		.loc 1 1639 36 is_stmt 0 view .LVU938
 3357 00c2 236A     		ldr	r3, [r4, #32]
 3358 00c4 23F0A003 		bic	r3, r3, #160
 3359 00c8 2362     		str	r3, [r4, #32]
1641:Drivers/GD32F30x_standard_peripheral/Source/gd32f30x_timer.c ****         /* reset the CH1MS bit */
 3360              		.loc 1 1641 9 is_stmt 1 view .LVU939
1641:Drivers/GD32F30x_standard_peripheral/Source/gd32f30x_timer.c ****         /* reset the CH1MS bit */
 3361              		.loc 1 1641 36 is_stmt 0 view .LVU940
 3362 00ca 236A     		ldr	r3, [r4, #32]
1641:Drivers/GD32F30x_standard_peripheral/Source/gd32f30x_timer.c ****         /* reset the CH1MS bit */
 3363              		.loc 1 1641 66 view .LVU941
 3364 00cc 2A88     		ldrh	r2, [r5]
 3365              	.LVL198:
1641:Drivers/GD32F30x_standard_peripheral/Source/gd32f30x_timer.c ****         /* reset the CH1MS bit */
 3366              		.loc 1 1641 36 view .LVU942
 3367 00ce 43EA0213 		orr	r3, r3, r2, lsl #4
 3368 00d2 2362     		str	r3, [r4, #32]
1643:Drivers/GD32F30x_standard_peripheral/Source/gd32f30x_timer.c ****         /* set the CH1MS bit */
 3369              		.loc 1 1643 9 is_stmt 1 view .LVU943
1643:Drivers/GD32F30x_standard_peripheral/Source/gd32f30x_timer.c ****         /* set the CH1MS bit */
 3370              		.loc 1 1643 36 is_stmt 0 view .LVU944
 3371 00d4 A369     		ldr	r3, [r4, #24]
 3372 00d6 23F44073 		bic	r3, r3, #768
 3373 00da A361     		str	r3, [r4, #24]
ARM GAS  C:\Users\Prog\AppData\Local\Temp\ccT8qdHj.s 			page 91


1645:Drivers/GD32F30x_standard_peripheral/Source/gd32f30x_timer.c ****         /* reset the CH1CAPFLT bit */
 3374              		.loc 1 1645 9 is_stmt 1 view .LVU945
1645:Drivers/GD32F30x_standard_peripheral/Source/gd32f30x_timer.c ****         /* reset the CH1CAPFLT bit */
 3375              		.loc 1 1645 36 is_stmt 0 view .LVU946
 3376 00dc A369     		ldr	r3, [r4, #24]
1645:Drivers/GD32F30x_standard_peripheral/Source/gd32f30x_timer.c ****         /* reset the CH1CAPFLT bit */
 3377              		.loc 1 1645 66 view .LVU947
 3378 00de 6A88     		ldrh	r2, [r5, #2]
1645:Drivers/GD32F30x_standard_peripheral/Source/gd32f30x_timer.c ****         /* reset the CH1CAPFLT bit */
 3379              		.loc 1 1645 36 view .LVU948
 3380 00e0 43EA0223 		orr	r3, r3, r2, lsl #8
 3381 00e4 A361     		str	r3, [r4, #24]
1647:Drivers/GD32F30x_standard_peripheral/Source/gd32f30x_timer.c ****         /* set the CH1CAPFLT bit */
 3382              		.loc 1 1647 9 is_stmt 1 view .LVU949
1647:Drivers/GD32F30x_standard_peripheral/Source/gd32f30x_timer.c ****         /* set the CH1CAPFLT bit */
 3383              		.loc 1 1647 36 is_stmt 0 view .LVU950
 3384 00e6 A369     		ldr	r3, [r4, #24]
 3385 00e8 23F47043 		bic	r3, r3, #61440
 3386 00ec A361     		str	r3, [r4, #24]
1649:Drivers/GD32F30x_standard_peripheral/Source/gd32f30x_timer.c ****         /* set the CH1EN bit */
 3387              		.loc 1 1649 9 is_stmt 1 view .LVU951
1649:Drivers/GD32F30x_standard_peripheral/Source/gd32f30x_timer.c ****         /* set the CH1EN bit */
 3388              		.loc 1 1649 36 is_stmt 0 view .LVU952
 3389 00ee A369     		ldr	r3, [r4, #24]
1649:Drivers/GD32F30x_standard_peripheral/Source/gd32f30x_timer.c ****         /* set the CH1EN bit */
 3390              		.loc 1 1649 66 view .LVU953
 3391 00f0 EA88     		ldrh	r2, [r5, #6]
1649:Drivers/GD32F30x_standard_peripheral/Source/gd32f30x_timer.c ****         /* set the CH1EN bit */
 3392              		.loc 1 1649 36 view .LVU954
 3393 00f2 43EA0233 		orr	r3, r3, r2, lsl #12
 3394 00f6 A361     		str	r3, [r4, #24]
1651:Drivers/GD32F30x_standard_peripheral/Source/gd32f30x_timer.c ****         /* configure TIMER channel input capture prescaler value */
 3395              		.loc 1 1651 9 is_stmt 1 view .LVU955
1651:Drivers/GD32F30x_standard_peripheral/Source/gd32f30x_timer.c ****         /* configure TIMER channel input capture prescaler value */
 3396              		.loc 1 1651 36 is_stmt 0 view .LVU956
 3397 00f8 236A     		ldr	r3, [r4, #32]
 3398 00fa 43F01003 		orr	r3, r3, #16
 3399 00fe 2362     		str	r3, [r4, #32]
1653:Drivers/GD32F30x_standard_peripheral/Source/gd32f30x_timer.c **** 
 3400              		.loc 1 1653 9 is_stmt 1 view .LVU957
 3401 0100 AA88     		ldrh	r2, [r5, #4]
 3402 0102 0121     		movs	r1, #1
 3403              	.LVL199:
1653:Drivers/GD32F30x_standard_peripheral/Source/gd32f30x_timer.c **** 
 3404              		.loc 1 1653 9 is_stmt 0 view .LVU958
 3405 0104 2046     		mov	r0, r4
 3406              	.LVL200:
1653:Drivers/GD32F30x_standard_peripheral/Source/gd32f30x_timer.c **** 
 3407              		.loc 1 1653 9 view .LVU959
 3408 0106 FFF7FEFF 		bl	timer_channel_input_capture_prescaler_config
 3409              	.LVL201:
1656:Drivers/GD32F30x_standard_peripheral/Source/gd32f30x_timer.c ****         /* reset the CH0P and CH0NP bits */
 3410              		.loc 1 1656 9 is_stmt 1 view .LVU960
1656:Drivers/GD32F30x_standard_peripheral/Source/gd32f30x_timer.c ****         /* reset the CH0P and CH0NP bits */
 3411              		.loc 1 1656 36 is_stmt 0 view .LVU961
 3412 010a 236A     		ldr	r3, [r4, #32]
 3413 010c 23F00103 		bic	r3, r3, #1
ARM GAS  C:\Users\Prog\AppData\Local\Temp\ccT8qdHj.s 			page 92


 3414 0110 2362     		str	r3, [r4, #32]
1658:Drivers/GD32F30x_standard_peripheral/Source/gd32f30x_timer.c ****         /* set the CH0P and CH0NP bits */
 3415              		.loc 1 1658 9 is_stmt 1 view .LVU962
1658:Drivers/GD32F30x_standard_peripheral/Source/gd32f30x_timer.c ****         /* set the CH0P and CH0NP bits */
 3416              		.loc 1 1658 36 is_stmt 0 view .LVU963
 3417 0112 236A     		ldr	r3, [r4, #32]
 3418 0114 23F00A03 		bic	r3, r3, #10
 3419 0118 2362     		str	r3, [r4, #32]
1660:Drivers/GD32F30x_standard_peripheral/Source/gd32f30x_timer.c ****         /* reset the CH0MS bit */
 3420              		.loc 1 1660 9 is_stmt 1 view .LVU964
1660:Drivers/GD32F30x_standard_peripheral/Source/gd32f30x_timer.c ****         /* reset the CH0MS bit */
 3421              		.loc 1 1660 36 is_stmt 0 view .LVU965
 3422 011a 236A     		ldr	r3, [r4, #32]
 3423 011c 3B43     		orrs	r3, r3, r7
 3424 011e 2362     		str	r3, [r4, #32]
1662:Drivers/GD32F30x_standard_peripheral/Source/gd32f30x_timer.c ****         /* set the CH0MS bit */
 3425              		.loc 1 1662 9 is_stmt 1 view .LVU966
1662:Drivers/GD32F30x_standard_peripheral/Source/gd32f30x_timer.c ****         /* set the CH0MS bit */
 3426              		.loc 1 1662 36 is_stmt 0 view .LVU967
 3427 0120 A369     		ldr	r3, [r4, #24]
 3428 0122 23F00303 		bic	r3, r3, #3
 3429 0126 A361     		str	r3, [r4, #24]
1664:Drivers/GD32F30x_standard_peripheral/Source/gd32f30x_timer.c ****         /* reset the CH0CAPFLT bit */
 3430              		.loc 1 1664 9 is_stmt 1 view .LVU968
1664:Drivers/GD32F30x_standard_peripheral/Source/gd32f30x_timer.c ****         /* reset the CH0CAPFLT bit */
 3431              		.loc 1 1664 36 is_stmt 0 view .LVU969
 3432 0128 A369     		ldr	r3, [r4, #24]
 3433 012a 3343     		orrs	r3, r3, r6
 3434 012c A361     		str	r3, [r4, #24]
1666:Drivers/GD32F30x_standard_peripheral/Source/gd32f30x_timer.c ****         /* set the CH0CAPFLT bit */
 3435              		.loc 1 1666 9 is_stmt 1 view .LVU970
1666:Drivers/GD32F30x_standard_peripheral/Source/gd32f30x_timer.c ****         /* set the CH0CAPFLT bit */
 3436              		.loc 1 1666 36 is_stmt 0 view .LVU971
 3437 012e A369     		ldr	r3, [r4, #24]
 3438 0130 23F0F003 		bic	r3, r3, #240
 3439 0134 A361     		str	r3, [r4, #24]
1668:Drivers/GD32F30x_standard_peripheral/Source/gd32f30x_timer.c ****         /* set the CH0EN bit */
 3440              		.loc 1 1668 9 is_stmt 1 view .LVU972
1668:Drivers/GD32F30x_standard_peripheral/Source/gd32f30x_timer.c ****         /* set the CH0EN bit */
 3441              		.loc 1 1668 36 is_stmt 0 view .LVU973
 3442 0136 A369     		ldr	r3, [r4, #24]
1668:Drivers/GD32F30x_standard_peripheral/Source/gd32f30x_timer.c ****         /* set the CH0EN bit */
 3443              		.loc 1 1668 56 view .LVU974
 3444 0138 EA88     		ldrh	r2, [r5, #6]
1668:Drivers/GD32F30x_standard_peripheral/Source/gd32f30x_timer.c ****         /* set the CH0EN bit */
 3445              		.loc 1 1668 36 view .LVU975
 3446 013a 43EA0213 		orr	r3, r3, r2, lsl #4
 3447 013e A361     		str	r3, [r4, #24]
1670:Drivers/GD32F30x_standard_peripheral/Source/gd32f30x_timer.c ****         /* configure TIMER channel input capture prescaler value */
 3448              		.loc 1 1670 9 is_stmt 1 view .LVU976
1670:Drivers/GD32F30x_standard_peripheral/Source/gd32f30x_timer.c ****         /* configure TIMER channel input capture prescaler value */
 3449              		.loc 1 1670 36 is_stmt 0 view .LVU977
 3450 0140 236A     		ldr	r3, [r4, #32]
 3451 0142 43F00103 		orr	r3, r3, #1
 3452 0146 2362     		str	r3, [r4, #32]
1672:Drivers/GD32F30x_standard_peripheral/Source/gd32f30x_timer.c ****     }
 3453              		.loc 1 1672 9 is_stmt 1 view .LVU978
ARM GAS  C:\Users\Prog\AppData\Local\Temp\ccT8qdHj.s 			page 93


 3454 0148 AA88     		ldrh	r2, [r5, #4]
 3455 014a 0021     		movs	r1, #0
 3456 014c 2046     		mov	r0, r4
 3457 014e FFF7FEFF 		bl	timer_channel_input_capture_prescaler_config
 3458              	.LVL202:
 3459              		.loc 1 1674 1 is_stmt 0 view .LVU979
 3460 0152 ADE7     		b	.L186
 3461              		.cfi_endproc
 3462              	.LFE171:
 3464              		.section	.text.timer_hall_mode_config,"ax",%progbits
 3465              		.align	1
 3466              		.global	timer_hall_mode_config
 3467              		.syntax unified
 3468              		.thumb
 3469              		.thumb_func
 3470              		.fpu fpv4-sp-d16
 3472              	timer_hall_mode_config:
 3473              	.LVL203:
 3474              	.LFB172:
1675:Drivers/GD32F30x_standard_peripheral/Source/gd32f30x_timer.c **** 
1676:Drivers/GD32F30x_standard_peripheral/Source/gd32f30x_timer.c **** /*!
1677:Drivers/GD32F30x_standard_peripheral/Source/gd32f30x_timer.c ****     \brief      configure TIMER hall sensor mode
1678:Drivers/GD32F30x_standard_peripheral/Source/gd32f30x_timer.c ****     \param[in]  timer_periph: TIMERx(x=0..4,7)
1679:Drivers/GD32F30x_standard_peripheral/Source/gd32f30x_timer.c ****     \param[in]  hallmode: 
1680:Drivers/GD32F30x_standard_peripheral/Source/gd32f30x_timer.c ****                 only one parameter can be selected which is shown as below:
1681:Drivers/GD32F30x_standard_peripheral/Source/gd32f30x_timer.c ****       \arg        TIMER_HALLINTERFACE_ENABLE: TIMER hall sensor mode enable
1682:Drivers/GD32F30x_standard_peripheral/Source/gd32f30x_timer.c ****       \arg        TIMER_HALLINTERFACE_DISABLE: TIMER hall sensor mode disable
1683:Drivers/GD32F30x_standard_peripheral/Source/gd32f30x_timer.c ****     \param[out] none
1684:Drivers/GD32F30x_standard_peripheral/Source/gd32f30x_timer.c ****     \retval     none
1685:Drivers/GD32F30x_standard_peripheral/Source/gd32f30x_timer.c **** */
1686:Drivers/GD32F30x_standard_peripheral/Source/gd32f30x_timer.c **** void timer_hall_mode_config(uint32_t timer_periph, uint32_t hallmode)
1687:Drivers/GD32F30x_standard_peripheral/Source/gd32f30x_timer.c **** {
 3475              		.loc 1 1687 1 is_stmt 1 view -0
 3476              		.cfi_startproc
 3477              		@ args = 0, pretend = 0, frame = 0
 3478              		@ frame_needed = 0, uses_anonymous_args = 0
 3479              		@ link register save eliminated.
1688:Drivers/GD32F30x_standard_peripheral/Source/gd32f30x_timer.c ****     if(TIMER_HALLINTERFACE_ENABLE == hallmode){
 3480              		.loc 1 1688 5 view .LVU981
 3481              		.loc 1 1688 7 is_stmt 0 view .LVU982
 3482 0000 21B9     		cbnz	r1, .L196
1689:Drivers/GD32F30x_standard_peripheral/Source/gd32f30x_timer.c ****         TIMER_CTL1(timer_periph) |= (uint32_t)TIMER_CTL1_TI0S;
 3483              		.loc 1 1689 9 is_stmt 1 view .LVU983
 3484              		.loc 1 1689 34 is_stmt 0 view .LVU984
 3485 0002 4368     		ldr	r3, [r0, #4]
 3486 0004 43F08003 		orr	r3, r3, #128
 3487 0008 4360     		str	r3, [r0, #4]
 3488 000a 7047     		bx	lr
 3489              	.L196:
1690:Drivers/GD32F30x_standard_peripheral/Source/gd32f30x_timer.c ****     }else if(TIMER_HALLINTERFACE_DISABLE == hallmode){
 3490              		.loc 1 1690 11 is_stmt 1 view .LVU985
 3491              		.loc 1 1690 13 is_stmt 0 view .LVU986
 3492 000c 0129     		cmp	r1, #1
 3493 000e 00D0     		beq	.L198
 3494              	.L195:
1691:Drivers/GD32F30x_standard_peripheral/Source/gd32f30x_timer.c ****         TIMER_CTL1(timer_periph) &= ~(uint32_t)TIMER_CTL1_TI0S;
1692:Drivers/GD32F30x_standard_peripheral/Source/gd32f30x_timer.c ****     }else{
ARM GAS  C:\Users\Prog\AppData\Local\Temp\ccT8qdHj.s 			page 94


1693:Drivers/GD32F30x_standard_peripheral/Source/gd32f30x_timer.c ****         /* illegal parameters */
1694:Drivers/GD32F30x_standard_peripheral/Source/gd32f30x_timer.c ****     }
1695:Drivers/GD32F30x_standard_peripheral/Source/gd32f30x_timer.c **** }
 3495              		.loc 1 1695 1 view .LVU987
 3496 0010 7047     		bx	lr
 3497              	.L198:
1691:Drivers/GD32F30x_standard_peripheral/Source/gd32f30x_timer.c ****         TIMER_CTL1(timer_periph) &= ~(uint32_t)TIMER_CTL1_TI0S;
 3498              		.loc 1 1691 9 is_stmt 1 view .LVU988
1691:Drivers/GD32F30x_standard_peripheral/Source/gd32f30x_timer.c ****         TIMER_CTL1(timer_periph) &= ~(uint32_t)TIMER_CTL1_TI0S;
 3499              		.loc 1 1691 34 is_stmt 0 view .LVU989
 3500 0012 4368     		ldr	r3, [r0, #4]
 3501 0014 23F08003 		bic	r3, r3, #128
 3502 0018 4360     		str	r3, [r0, #4]
1694:Drivers/GD32F30x_standard_peripheral/Source/gd32f30x_timer.c **** }
 3503              		.loc 1 1694 5 is_stmt 1 view .LVU990
 3504              		.loc 1 1695 1 is_stmt 0 view .LVU991
 3505 001a F9E7     		b	.L195
 3506              		.cfi_endproc
 3507              	.LFE172:
 3509              		.section	.text.timer_input_trigger_source_select,"ax",%progbits
 3510              		.align	1
 3511              		.global	timer_input_trigger_source_select
 3512              		.syntax unified
 3513              		.thumb
 3514              		.thumb_func
 3515              		.fpu fpv4-sp-d16
 3517              	timer_input_trigger_source_select:
 3518              	.LVL204:
 3519              	.LFB173:
1696:Drivers/GD32F30x_standard_peripheral/Source/gd32f30x_timer.c **** 
1697:Drivers/GD32F30x_standard_peripheral/Source/gd32f30x_timer.c **** /*!
1698:Drivers/GD32F30x_standard_peripheral/Source/gd32f30x_timer.c ****     \brief      select TIMER input trigger source 
1699:Drivers/GD32F30x_standard_peripheral/Source/gd32f30x_timer.c ****     \param[in]  timer_periph: TIMERx(x=0..4,7,8,11)
1700:Drivers/GD32F30x_standard_peripheral/Source/gd32f30x_timer.c ****     \param[in]  intrigger:
1701:Drivers/GD32F30x_standard_peripheral/Source/gd32f30x_timer.c ****                 only one parameter can be selected which is shown as below:
1702:Drivers/GD32F30x_standard_peripheral/Source/gd32f30x_timer.c ****       \arg        TIMER_SMCFG_TRGSEL_ITI0: internal trigger 0
1703:Drivers/GD32F30x_standard_peripheral/Source/gd32f30x_timer.c ****       \arg        TIMER_SMCFG_TRGSEL_ITI1: internal trigger 1
1704:Drivers/GD32F30x_standard_peripheral/Source/gd32f30x_timer.c ****       \arg        TIMER_SMCFG_TRGSEL_ITI2: internal trigger 2
1705:Drivers/GD32F30x_standard_peripheral/Source/gd32f30x_timer.c ****       \arg        TIMER_SMCFG_TRGSEL_ITI3: internal trigger 3
1706:Drivers/GD32F30x_standard_peripheral/Source/gd32f30x_timer.c ****       \arg        TIMER_SMCFG_TRGSEL_CI0F_ED: TI0 edge detector
1707:Drivers/GD32F30x_standard_peripheral/Source/gd32f30x_timer.c ****       \arg        TIMER_SMCFG_TRGSEL_CI0FE0: filtered TIMER input 0
1708:Drivers/GD32F30x_standard_peripheral/Source/gd32f30x_timer.c ****       \arg        TIMER_SMCFG_TRGSEL_CI1FE1: filtered TIMER input 1
1709:Drivers/GD32F30x_standard_peripheral/Source/gd32f30x_timer.c ****       \arg        TIMER_SMCFG_TRGSEL_ETIFP: external trigger(x=0..4,7)
1710:Drivers/GD32F30x_standard_peripheral/Source/gd32f30x_timer.c ****     \param[out] none
1711:Drivers/GD32F30x_standard_peripheral/Source/gd32f30x_timer.c ****     \retval     none
1712:Drivers/GD32F30x_standard_peripheral/Source/gd32f30x_timer.c **** */
1713:Drivers/GD32F30x_standard_peripheral/Source/gd32f30x_timer.c **** void timer_input_trigger_source_select(uint32_t timer_periph, uint32_t intrigger)
1714:Drivers/GD32F30x_standard_peripheral/Source/gd32f30x_timer.c **** {
 3520              		.loc 1 1714 1 is_stmt 1 view -0
 3521              		.cfi_startproc
 3522              		@ args = 0, pretend = 0, frame = 0
 3523              		@ frame_needed = 0, uses_anonymous_args = 0
 3524              		@ link register save eliminated.
1715:Drivers/GD32F30x_standard_peripheral/Source/gd32f30x_timer.c ****     TIMER_SMCFG(timer_periph) &= (~(uint32_t)TIMER_SMCFG_TRGS);
 3525              		.loc 1 1715 5 view .LVU993
 3526              		.loc 1 1715 31 is_stmt 0 view .LVU994
 3527 0000 8268     		ldr	r2, [r0, #8]
ARM GAS  C:\Users\Prog\AppData\Local\Temp\ccT8qdHj.s 			page 95


 3528 0002 22F07002 		bic	r2, r2, #112
 3529 0006 8260     		str	r2, [r0, #8]
1716:Drivers/GD32F30x_standard_peripheral/Source/gd32f30x_timer.c ****     TIMER_SMCFG(timer_periph) |= (uint32_t)intrigger;
 3530              		.loc 1 1716 5 is_stmt 1 view .LVU995
 3531              		.loc 1 1716 31 is_stmt 0 view .LVU996
 3532 0008 8368     		ldr	r3, [r0, #8]
 3533 000a 0B43     		orrs	r3, r3, r1
 3534 000c 8360     		str	r3, [r0, #8]
1717:Drivers/GD32F30x_standard_peripheral/Source/gd32f30x_timer.c **** }
 3535              		.loc 1 1717 1 view .LVU997
 3536 000e 7047     		bx	lr
 3537              		.cfi_endproc
 3538              	.LFE173:
 3540              		.section	.text.timer_master_output_trigger_source_select,"ax",%progbits
 3541              		.align	1
 3542              		.global	timer_master_output_trigger_source_select
 3543              		.syntax unified
 3544              		.thumb
 3545              		.thumb_func
 3546              		.fpu fpv4-sp-d16
 3548              	timer_master_output_trigger_source_select:
 3549              	.LVL205:
 3550              	.LFB174:
1718:Drivers/GD32F30x_standard_peripheral/Source/gd32f30x_timer.c **** 
1719:Drivers/GD32F30x_standard_peripheral/Source/gd32f30x_timer.c **** /*!
1720:Drivers/GD32F30x_standard_peripheral/Source/gd32f30x_timer.c ****     \brief      select TIMER master mode output trigger source 
1721:Drivers/GD32F30x_standard_peripheral/Source/gd32f30x_timer.c ****     \param[in]  timer_periph: TIMERx(x=0..7)
1722:Drivers/GD32F30x_standard_peripheral/Source/gd32f30x_timer.c ****     \param[in]  outrigger: 
1723:Drivers/GD32F30x_standard_peripheral/Source/gd32f30x_timer.c ****                 only one parameter can be selected which is shown as below:
1724:Drivers/GD32F30x_standard_peripheral/Source/gd32f30x_timer.c ****       \arg        TIMER_TRI_OUT_SRC_RESET: the UPG bit as trigger output
1725:Drivers/GD32F30x_standard_peripheral/Source/gd32f30x_timer.c ****       \arg        TIMER_TRI_OUT_SRC_ENABLE: the counter enable signal TIMER_CTL0_CEN as trigger out
1726:Drivers/GD32F30x_standard_peripheral/Source/gd32f30x_timer.c ****       \arg        TIMER_TRI_OUT_SRC_UPDATE: update event as trigger output
1727:Drivers/GD32F30x_standard_peripheral/Source/gd32f30x_timer.c ****       \arg        TIMER_TRI_OUT_SRC_CH0: a capture or a compare match occurred in channal0 as trigg
1728:Drivers/GD32F30x_standard_peripheral/Source/gd32f30x_timer.c ****       \arg        TIMER_TRI_OUT_SRC_O0CPRE: O0CPRE as trigger output
1729:Drivers/GD32F30x_standard_peripheral/Source/gd32f30x_timer.c ****       \arg        TIMER_TRI_OUT_SRC_O1CPRE: O1CPRE as trigger output
1730:Drivers/GD32F30x_standard_peripheral/Source/gd32f30x_timer.c ****       \arg        TIMER_TRI_OUT_SRC_O2CPRE: O2CPRE as trigger output
1731:Drivers/GD32F30x_standard_peripheral/Source/gd32f30x_timer.c ****       \arg        TIMER_TRI_OUT_SRC_O3CPRE: O3CPRE as trigger output
1732:Drivers/GD32F30x_standard_peripheral/Source/gd32f30x_timer.c ****     \param[out] none
1733:Drivers/GD32F30x_standard_peripheral/Source/gd32f30x_timer.c ****     \retval     none
1734:Drivers/GD32F30x_standard_peripheral/Source/gd32f30x_timer.c **** */
1735:Drivers/GD32F30x_standard_peripheral/Source/gd32f30x_timer.c **** void timer_master_output_trigger_source_select(uint32_t timer_periph, uint32_t outrigger)
1736:Drivers/GD32F30x_standard_peripheral/Source/gd32f30x_timer.c **** {
 3551              		.loc 1 1736 1 is_stmt 1 view -0
 3552              		.cfi_startproc
 3553              		@ args = 0, pretend = 0, frame = 0
 3554              		@ frame_needed = 0, uses_anonymous_args = 0
 3555              		@ link register save eliminated.
1737:Drivers/GD32F30x_standard_peripheral/Source/gd32f30x_timer.c ****     TIMER_CTL1(timer_periph) &= (~(uint32_t)TIMER_CTL1_MMC);
 3556              		.loc 1 1737 5 view .LVU999
 3557              		.loc 1 1737 30 is_stmt 0 view .LVU1000
 3558 0000 4268     		ldr	r2, [r0, #4]
 3559 0002 22F07002 		bic	r2, r2, #112
 3560 0006 4260     		str	r2, [r0, #4]
1738:Drivers/GD32F30x_standard_peripheral/Source/gd32f30x_timer.c ****     TIMER_CTL1(timer_periph) |= (uint32_t)outrigger;
 3561              		.loc 1 1738 5 is_stmt 1 view .LVU1001
 3562              		.loc 1 1738 30 is_stmt 0 view .LVU1002
 3563 0008 4368     		ldr	r3, [r0, #4]
ARM GAS  C:\Users\Prog\AppData\Local\Temp\ccT8qdHj.s 			page 96


 3564 000a 0B43     		orrs	r3, r3, r1
 3565 000c 4360     		str	r3, [r0, #4]
1739:Drivers/GD32F30x_standard_peripheral/Source/gd32f30x_timer.c **** }
 3566              		.loc 1 1739 1 view .LVU1003
 3567 000e 7047     		bx	lr
 3568              		.cfi_endproc
 3569              	.LFE174:
 3571              		.section	.text.timer_slave_mode_select,"ax",%progbits
 3572              		.align	1
 3573              		.global	timer_slave_mode_select
 3574              		.syntax unified
 3575              		.thumb
 3576              		.thumb_func
 3577              		.fpu fpv4-sp-d16
 3579              	timer_slave_mode_select:
 3580              	.LVL206:
 3581              	.LFB175:
1740:Drivers/GD32F30x_standard_peripheral/Source/gd32f30x_timer.c **** 
1741:Drivers/GD32F30x_standard_peripheral/Source/gd32f30x_timer.c **** /*!
1742:Drivers/GD32F30x_standard_peripheral/Source/gd32f30x_timer.c ****     \brief      select TIMER slave mode 
1743:Drivers/GD32F30x_standard_peripheral/Source/gd32f30x_timer.c ****     \param[in]  timer_periph: TIMERx(x=0..4,7,8,11)
1744:Drivers/GD32F30x_standard_peripheral/Source/gd32f30x_timer.c ****     \param[in]  slavemode:
1745:Drivers/GD32F30x_standard_peripheral/Source/gd32f30x_timer.c ****                 only one parameter can be selected which is shown as below:
1746:Drivers/GD32F30x_standard_peripheral/Source/gd32f30x_timer.c ****       \arg        TIMER_SLAVE_MODE_DISABLE: slave mode disable
1747:Drivers/GD32F30x_standard_peripheral/Source/gd32f30x_timer.c ****       \arg        TIMER_ENCODER_MODE0: encoder mode 0
1748:Drivers/GD32F30x_standard_peripheral/Source/gd32f30x_timer.c ****       \arg        TIMER_ENCODER_MODE1: encoder mode 1
1749:Drivers/GD32F30x_standard_peripheral/Source/gd32f30x_timer.c ****       \arg        TIMER_ENCODER_MODE2: encoder mode 2
1750:Drivers/GD32F30x_standard_peripheral/Source/gd32f30x_timer.c ****       \arg        TIMER_SLAVE_MODE_RESTART: restart mode
1751:Drivers/GD32F30x_standard_peripheral/Source/gd32f30x_timer.c ****       \arg        TIMER_SLAVE_MODE_PAUSE: pause mode
1752:Drivers/GD32F30x_standard_peripheral/Source/gd32f30x_timer.c ****       \arg        TIMER_SLAVE_MODE_EVENT: event mode
1753:Drivers/GD32F30x_standard_peripheral/Source/gd32f30x_timer.c ****       \arg        TIMER_SLAVE_MODE_EXTERNAL0: external clock mode 0.
1754:Drivers/GD32F30x_standard_peripheral/Source/gd32f30x_timer.c ****     \param[out] none
1755:Drivers/GD32F30x_standard_peripheral/Source/gd32f30x_timer.c ****     \retval     none
1756:Drivers/GD32F30x_standard_peripheral/Source/gd32f30x_timer.c **** */
1757:Drivers/GD32F30x_standard_peripheral/Source/gd32f30x_timer.c **** 
1758:Drivers/GD32F30x_standard_peripheral/Source/gd32f30x_timer.c **** void timer_slave_mode_select(uint32_t timer_periph, uint32_t slavemode)
1759:Drivers/GD32F30x_standard_peripheral/Source/gd32f30x_timer.c **** {
 3582              		.loc 1 1759 1 is_stmt 1 view -0
 3583              		.cfi_startproc
 3584              		@ args = 0, pretend = 0, frame = 0
 3585              		@ frame_needed = 0, uses_anonymous_args = 0
 3586              		@ link register save eliminated.
1760:Drivers/GD32F30x_standard_peripheral/Source/gd32f30x_timer.c ****     TIMER_SMCFG(timer_periph) &= (~(uint32_t)TIMER_SMCFG_SMC);
 3587              		.loc 1 1760 5 view .LVU1005
 3588              		.loc 1 1760 31 is_stmt 0 view .LVU1006
 3589 0000 8268     		ldr	r2, [r0, #8]
 3590 0002 22F00702 		bic	r2, r2, #7
 3591 0006 8260     		str	r2, [r0, #8]
1761:Drivers/GD32F30x_standard_peripheral/Source/gd32f30x_timer.c **** 
1762:Drivers/GD32F30x_standard_peripheral/Source/gd32f30x_timer.c ****     TIMER_SMCFG(timer_periph) |= (uint32_t)slavemode;
 3592              		.loc 1 1762 5 is_stmt 1 view .LVU1007
 3593              		.loc 1 1762 31 is_stmt 0 view .LVU1008
 3594 0008 8368     		ldr	r3, [r0, #8]
 3595 000a 0B43     		orrs	r3, r3, r1
 3596 000c 8360     		str	r3, [r0, #8]
1763:Drivers/GD32F30x_standard_peripheral/Source/gd32f30x_timer.c **** }
 3597              		.loc 1 1763 1 view .LVU1009
ARM GAS  C:\Users\Prog\AppData\Local\Temp\ccT8qdHj.s 			page 97


 3598 000e 7047     		bx	lr
 3599              		.cfi_endproc
 3600              	.LFE175:
 3602              		.section	.text.timer_master_slave_mode_config,"ax",%progbits
 3603              		.align	1
 3604              		.global	timer_master_slave_mode_config
 3605              		.syntax unified
 3606              		.thumb
 3607              		.thumb_func
 3608              		.fpu fpv4-sp-d16
 3610              	timer_master_slave_mode_config:
 3611              	.LVL207:
 3612              	.LFB176:
1764:Drivers/GD32F30x_standard_peripheral/Source/gd32f30x_timer.c **** 
1765:Drivers/GD32F30x_standard_peripheral/Source/gd32f30x_timer.c **** /*!
1766:Drivers/GD32F30x_standard_peripheral/Source/gd32f30x_timer.c ****     \brief      configure TIMER master slave mode 
1767:Drivers/GD32F30x_standard_peripheral/Source/gd32f30x_timer.c ****     \param[in]  timer_periph: TIMERx(x=0..4,7,8,11)
1768:Drivers/GD32F30x_standard_peripheral/Source/gd32f30x_timer.c ****     \param[in]  masterslave:
1769:Drivers/GD32F30x_standard_peripheral/Source/gd32f30x_timer.c ****                 only one parameter can be selected which is shown as below:
1770:Drivers/GD32F30x_standard_peripheral/Source/gd32f30x_timer.c ****       \arg        TIMER_MASTER_SLAVE_MODE_ENABLE: master slave mode enable
1771:Drivers/GD32F30x_standard_peripheral/Source/gd32f30x_timer.c ****       \arg        TIMER_MASTER_SLAVE_MODE_DISABLE: master slave mode disable
1772:Drivers/GD32F30x_standard_peripheral/Source/gd32f30x_timer.c ****     \param[out] none
1773:Drivers/GD32F30x_standard_peripheral/Source/gd32f30x_timer.c ****     \retval     none
1774:Drivers/GD32F30x_standard_peripheral/Source/gd32f30x_timer.c **** */ 
1775:Drivers/GD32F30x_standard_peripheral/Source/gd32f30x_timer.c **** void timer_master_slave_mode_config(uint32_t timer_periph, uint32_t masterslave)
1776:Drivers/GD32F30x_standard_peripheral/Source/gd32f30x_timer.c **** {
 3613              		.loc 1 1776 1 is_stmt 1 view -0
 3614              		.cfi_startproc
 3615              		@ args = 0, pretend = 0, frame = 0
 3616              		@ frame_needed = 0, uses_anonymous_args = 0
 3617              		@ link register save eliminated.
1777:Drivers/GD32F30x_standard_peripheral/Source/gd32f30x_timer.c ****     if(TIMER_MASTER_SLAVE_MODE_ENABLE == masterslave){
 3618              		.loc 1 1777 5 view .LVU1011
 3619              		.loc 1 1777 7 is_stmt 0 view .LVU1012
 3620 0000 21B9     		cbnz	r1, .L203
1778:Drivers/GD32F30x_standard_peripheral/Source/gd32f30x_timer.c ****         TIMER_SMCFG(timer_periph) |= (uint32_t)TIMER_SMCFG_MSM;
 3621              		.loc 1 1778 9 is_stmt 1 view .LVU1013
 3622              		.loc 1 1778 35 is_stmt 0 view .LVU1014
 3623 0002 8368     		ldr	r3, [r0, #8]
 3624 0004 43F08003 		orr	r3, r3, #128
 3625 0008 8360     		str	r3, [r0, #8]
 3626 000a 7047     		bx	lr
 3627              	.L203:
1779:Drivers/GD32F30x_standard_peripheral/Source/gd32f30x_timer.c ****     }else if(TIMER_MASTER_SLAVE_MODE_DISABLE == masterslave){
 3628              		.loc 1 1779 11 is_stmt 1 view .LVU1015
 3629              		.loc 1 1779 13 is_stmt 0 view .LVU1016
 3630 000c 0129     		cmp	r1, #1
 3631 000e 00D0     		beq	.L205
 3632              	.L202:
1780:Drivers/GD32F30x_standard_peripheral/Source/gd32f30x_timer.c ****         TIMER_SMCFG(timer_periph) &= ~(uint32_t)TIMER_SMCFG_MSM;
1781:Drivers/GD32F30x_standard_peripheral/Source/gd32f30x_timer.c ****     }else{
1782:Drivers/GD32F30x_standard_peripheral/Source/gd32f30x_timer.c ****         /* illegal parameters */
1783:Drivers/GD32F30x_standard_peripheral/Source/gd32f30x_timer.c ****     }
1784:Drivers/GD32F30x_standard_peripheral/Source/gd32f30x_timer.c **** }
 3633              		.loc 1 1784 1 view .LVU1017
 3634 0010 7047     		bx	lr
 3635              	.L205:
ARM GAS  C:\Users\Prog\AppData\Local\Temp\ccT8qdHj.s 			page 98


1780:Drivers/GD32F30x_standard_peripheral/Source/gd32f30x_timer.c ****         TIMER_SMCFG(timer_periph) &= ~(uint32_t)TIMER_SMCFG_MSM;
 3636              		.loc 1 1780 9 is_stmt 1 view .LVU1018
1780:Drivers/GD32F30x_standard_peripheral/Source/gd32f30x_timer.c ****         TIMER_SMCFG(timer_periph) &= ~(uint32_t)TIMER_SMCFG_MSM;
 3637              		.loc 1 1780 35 is_stmt 0 view .LVU1019
 3638 0012 8368     		ldr	r3, [r0, #8]
 3639 0014 23F08003 		bic	r3, r3, #128
 3640 0018 8360     		str	r3, [r0, #8]
1783:Drivers/GD32F30x_standard_peripheral/Source/gd32f30x_timer.c **** }
 3641              		.loc 1 1783 5 is_stmt 1 view .LVU1020
 3642              		.loc 1 1784 1 is_stmt 0 view .LVU1021
 3643 001a F9E7     		b	.L202
 3644              		.cfi_endproc
 3645              	.LFE176:
 3647              		.section	.text.timer_external_trigger_config,"ax",%progbits
 3648              		.align	1
 3649              		.global	timer_external_trigger_config
 3650              		.syntax unified
 3651              		.thumb
 3652              		.thumb_func
 3653              		.fpu fpv4-sp-d16
 3655              	timer_external_trigger_config:
 3656              	.LVL208:
 3657              	.LFB177:
1785:Drivers/GD32F30x_standard_peripheral/Source/gd32f30x_timer.c **** 
1786:Drivers/GD32F30x_standard_peripheral/Source/gd32f30x_timer.c **** /*!
1787:Drivers/GD32F30x_standard_peripheral/Source/gd32f30x_timer.c ****     \brief      configure TIMER external trigger input
1788:Drivers/GD32F30x_standard_peripheral/Source/gd32f30x_timer.c ****     \param[in]  timer_periph: TIMERx(x=0..4,7)
1789:Drivers/GD32F30x_standard_peripheral/Source/gd32f30x_timer.c ****     \param[in]  extprescaler:
1790:Drivers/GD32F30x_standard_peripheral/Source/gd32f30x_timer.c ****                 only one parameter can be selected which is shown as below:
1791:Drivers/GD32F30x_standard_peripheral/Source/gd32f30x_timer.c ****       \arg        TIMER_EXT_TRI_PSC_OFF: no divided
1792:Drivers/GD32F30x_standard_peripheral/Source/gd32f30x_timer.c ****       \arg        TIMER_EXT_TRI_PSC_DIV2: divided by 2
1793:Drivers/GD32F30x_standard_peripheral/Source/gd32f30x_timer.c ****       \arg        TIMER_EXT_TRI_PSC_DIV4: divided by 4
1794:Drivers/GD32F30x_standard_peripheral/Source/gd32f30x_timer.c ****       \arg        TIMER_EXT_TRI_PSC_DIV8: divided by 8
1795:Drivers/GD32F30x_standard_peripheral/Source/gd32f30x_timer.c ****     \param[in]  extpolarity:
1796:Drivers/GD32F30x_standard_peripheral/Source/gd32f30x_timer.c ****                 only one parameter can be selected which is shown as below:
1797:Drivers/GD32F30x_standard_peripheral/Source/gd32f30x_timer.c ****       \arg        TIMER_ETP_FALLING: active low or falling edge active
1798:Drivers/GD32F30x_standard_peripheral/Source/gd32f30x_timer.c ****       \arg        TIMER_ETP_RISING: active high or rising edge active
1799:Drivers/GD32F30x_standard_peripheral/Source/gd32f30x_timer.c ****     \param[in]  extfilter: a value between 0 and 15
1800:Drivers/GD32F30x_standard_peripheral/Source/gd32f30x_timer.c ****     \param[out] none
1801:Drivers/GD32F30x_standard_peripheral/Source/gd32f30x_timer.c ****     \retval     none
1802:Drivers/GD32F30x_standard_peripheral/Source/gd32f30x_timer.c **** */
1803:Drivers/GD32F30x_standard_peripheral/Source/gd32f30x_timer.c **** void timer_external_trigger_config(uint32_t timer_periph, uint32_t extprescaler,
1804:Drivers/GD32F30x_standard_peripheral/Source/gd32f30x_timer.c ****                                    uint32_t extpolarity, uint32_t extfilter)
1805:Drivers/GD32F30x_standard_peripheral/Source/gd32f30x_timer.c **** {
 3658              		.loc 1 1805 1 is_stmt 1 view -0
 3659              		.cfi_startproc
 3660              		@ args = 0, pretend = 0, frame = 0
 3661              		@ frame_needed = 0, uses_anonymous_args = 0
 3662              		@ link register save eliminated.
 3663              		.loc 1 1805 1 is_stmt 0 view .LVU1023
 3664 0000 30B4     		push	{r4, r5}
 3665              	.LCFI4:
 3666              		.cfi_def_cfa_offset 8
 3667              		.cfi_offset 4, -8
 3668              		.cfi_offset 5, -4
1806:Drivers/GD32F30x_standard_peripheral/Source/gd32f30x_timer.c ****     TIMER_SMCFG(timer_periph) &= (~(uint32_t)(TIMER_SMCFG_ETP | TIMER_SMCFG_ETPSC | TIMER_SMCFG_ETF
 3669              		.loc 1 1806 5 is_stmt 1 view .LVU1024
ARM GAS  C:\Users\Prog\AppData\Local\Temp\ccT8qdHj.s 			page 99


 3670              		.loc 1 1806 31 is_stmt 0 view .LVU1025
 3671 0002 8568     		ldr	r5, [r0, #8]
 3672 0004 25F43F45 		bic	r5, r5, #48896
 3673 0008 8560     		str	r5, [r0, #8]
1807:Drivers/GD32F30x_standard_peripheral/Source/gd32f30x_timer.c ****     TIMER_SMCFG(timer_periph) |= (uint32_t)(extprescaler | extpolarity);
 3674              		.loc 1 1807 5 is_stmt 1 view .LVU1026
 3675              		.loc 1 1807 31 is_stmt 0 view .LVU1027
 3676 000a 8468     		ldr	r4, [r0, #8]
 3677              		.loc 1 1807 58 view .LVU1028
 3678 000c 1143     		orrs	r1, r1, r2
 3679              	.LVL209:
 3680              		.loc 1 1807 31 view .LVU1029
 3681 000e 0C43     		orrs	r4, r4, r1
 3682 0010 8460     		str	r4, [r0, #8]
1808:Drivers/GD32F30x_standard_peripheral/Source/gd32f30x_timer.c ****     TIMER_SMCFG(timer_periph) |= (uint32_t)(extfilter << 8U);
 3683              		.loc 1 1808 5 is_stmt 1 view .LVU1030
 3684              		.loc 1 1808 31 is_stmt 0 view .LVU1031
 3685 0012 8268     		ldr	r2, [r0, #8]
 3686              	.LVL210:
 3687              		.loc 1 1808 31 view .LVU1032
 3688 0014 42EA0322 		orr	r2, r2, r3, lsl #8
 3689 0018 8260     		str	r2, [r0, #8]
1809:Drivers/GD32F30x_standard_peripheral/Source/gd32f30x_timer.c **** }
 3690              		.loc 1 1809 1 view .LVU1033
 3691 001a 30BC     		pop	{r4, r5}
 3692              	.LCFI5:
 3693              		.cfi_restore 5
 3694              		.cfi_restore 4
 3695              		.cfi_def_cfa_offset 0
 3696 001c 7047     		bx	lr
 3697              		.cfi_endproc
 3698              	.LFE177:
 3700              		.section	.text.timer_quadrature_decoder_mode_config,"ax",%progbits
 3701              		.align	1
 3702              		.global	timer_quadrature_decoder_mode_config
 3703              		.syntax unified
 3704              		.thumb
 3705              		.thumb_func
 3706              		.fpu fpv4-sp-d16
 3708              	timer_quadrature_decoder_mode_config:
 3709              	.LVL211:
 3710              	.LFB178:
1810:Drivers/GD32F30x_standard_peripheral/Source/gd32f30x_timer.c **** 
1811:Drivers/GD32F30x_standard_peripheral/Source/gd32f30x_timer.c **** /*!
1812:Drivers/GD32F30x_standard_peripheral/Source/gd32f30x_timer.c ****     \brief      configure TIMER quadrature decoder mode
1813:Drivers/GD32F30x_standard_peripheral/Source/gd32f30x_timer.c ****     \param[in]  timer_periph: TIMERx(x=0..4,7)
1814:Drivers/GD32F30x_standard_peripheral/Source/gd32f30x_timer.c ****     \param[in]  decomode: 
1815:Drivers/GD32F30x_standard_peripheral/Source/gd32f30x_timer.c ****                 only one parameter can be selected which is shown as below:
1816:Drivers/GD32F30x_standard_peripheral/Source/gd32f30x_timer.c ****       \arg        TIMER_ENCODER_MODE0: counter counts on CI0FE0 edge depending on CI1FE1 level
1817:Drivers/GD32F30x_standard_peripheral/Source/gd32f30x_timer.c ****       \arg        TIMER_ENCODER_MODE1: counter counts on CI1FE1 edge depending on CI0FE0 level
1818:Drivers/GD32F30x_standard_peripheral/Source/gd32f30x_timer.c ****       \arg        TIMER_ENCODER_MODE2: counter counts on both CI0FE0 and CI1FE1 edges depending on 
1819:Drivers/GD32F30x_standard_peripheral/Source/gd32f30x_timer.c ****     \param[in]  ic0polarity: 
1820:Drivers/GD32F30x_standard_peripheral/Source/gd32f30x_timer.c ****                 only one parameter can be selected which is shown as below:
1821:Drivers/GD32F30x_standard_peripheral/Source/gd32f30x_timer.c ****       \arg        TIMER_IC_POLARITY_RISING: capture rising edge
1822:Drivers/GD32F30x_standard_peripheral/Source/gd32f30x_timer.c ****       \arg        TIMER_IC_POLARITY_FALLING: capture falling edge
1823:Drivers/GD32F30x_standard_peripheral/Source/gd32f30x_timer.c ****     \param[in]  ic1polarity:
1824:Drivers/GD32F30x_standard_peripheral/Source/gd32f30x_timer.c ****                 only one parameter can be selected which is shown as below:
ARM GAS  C:\Users\Prog\AppData\Local\Temp\ccT8qdHj.s 			page 100


1825:Drivers/GD32F30x_standard_peripheral/Source/gd32f30x_timer.c ****       \arg        TIMER_IC_POLARITY_RISING: capture rising edge
1826:Drivers/GD32F30x_standard_peripheral/Source/gd32f30x_timer.c ****       \arg        TIMER_IC_POLARITY_FALLING: capture falling edge
1827:Drivers/GD32F30x_standard_peripheral/Source/gd32f30x_timer.c ****     \param[out] none
1828:Drivers/GD32F30x_standard_peripheral/Source/gd32f30x_timer.c ****     \retval     none
1829:Drivers/GD32F30x_standard_peripheral/Source/gd32f30x_timer.c **** */
1830:Drivers/GD32F30x_standard_peripheral/Source/gd32f30x_timer.c **** void timer_quadrature_decoder_mode_config(uint32_t timer_periph, uint32_t decomode,
1831:Drivers/GD32F30x_standard_peripheral/Source/gd32f30x_timer.c ****                                    uint16_t ic0polarity, uint16_t ic1polarity)
1832:Drivers/GD32F30x_standard_peripheral/Source/gd32f30x_timer.c **** {
 3711              		.loc 1 1832 1 is_stmt 1 view -0
 3712              		.cfi_startproc
 3713              		@ args = 0, pretend = 0, frame = 0
 3714              		@ frame_needed = 0, uses_anonymous_args = 0
 3715              		@ link register save eliminated.
 3716              		.loc 1 1832 1 is_stmt 0 view .LVU1035
 3717 0000 30B4     		push	{r4, r5}
 3718              	.LCFI6:
 3719              		.cfi_def_cfa_offset 8
 3720              		.cfi_offset 4, -8
 3721              		.cfi_offset 5, -4
1833:Drivers/GD32F30x_standard_peripheral/Source/gd32f30x_timer.c ****     TIMER_SMCFG(timer_periph) &= (~(uint32_t)TIMER_SMCFG_SMC);
 3722              		.loc 1 1833 5 is_stmt 1 view .LVU1036
 3723              		.loc 1 1833 31 is_stmt 0 view .LVU1037
 3724 0002 8568     		ldr	r5, [r0, #8]
 3725 0004 25F00705 		bic	r5, r5, #7
 3726 0008 8560     		str	r5, [r0, #8]
1834:Drivers/GD32F30x_standard_peripheral/Source/gd32f30x_timer.c ****     TIMER_SMCFG(timer_periph) |= (uint32_t)decomode;
 3727              		.loc 1 1834 5 is_stmt 1 view .LVU1038
 3728              		.loc 1 1834 31 is_stmt 0 view .LVU1039
 3729 000a 8468     		ldr	r4, [r0, #8]
 3730 000c 0C43     		orrs	r4, r4, r1
 3731 000e 8460     		str	r4, [r0, #8]
1835:Drivers/GD32F30x_standard_peripheral/Source/gd32f30x_timer.c **** 
1836:Drivers/GD32F30x_standard_peripheral/Source/gd32f30x_timer.c ****     TIMER_CHCTL0(timer_periph) &= (uint32_t)(((~(uint32_t)TIMER_CHCTL0_CH0MS))&((~(uint32_t)TIMER_C
 3732              		.loc 1 1836 5 is_stmt 1 view .LVU1040
 3733              		.loc 1 1836 32 is_stmt 0 view .LVU1041
 3734 0010 8169     		ldr	r1, [r0, #24]
 3735              	.LVL212:
 3736              		.loc 1 1836 32 view .LVU1042
 3737 0012 21F44071 		bic	r1, r1, #768
 3738 0016 21F00301 		bic	r1, r1, #3
 3739 001a 8161     		str	r1, [r0, #24]
1837:Drivers/GD32F30x_standard_peripheral/Source/gd32f30x_timer.c ****     TIMER_CHCTL0(timer_periph) |= (uint32_t)(TIMER_IC_SELECTION_DIRECTTI|((uint32_t)TIMER_IC_SELECT
 3740              		.loc 1 1837 5 is_stmt 1 view .LVU1043
 3741              		.loc 1 1837 32 is_stmt 0 view .LVU1044
 3742 001c 8169     		ldr	r1, [r0, #24]
 3743 001e 41F48071 		orr	r1, r1, #256
 3744 0022 41F00101 		orr	r1, r1, #1
 3745 0026 8161     		str	r1, [r0, #24]
1838:Drivers/GD32F30x_standard_peripheral/Source/gd32f30x_timer.c **** 
1839:Drivers/GD32F30x_standard_peripheral/Source/gd32f30x_timer.c ****     TIMER_CHCTL2(timer_periph) &= (~(uint32_t)(TIMER_CHCTL2_CH0P|TIMER_CHCTL2_CH0NP));
 3746              		.loc 1 1839 5 is_stmt 1 view .LVU1045
 3747              		.loc 1 1839 32 is_stmt 0 view .LVU1046
 3748 0028 046A     		ldr	r4, [r0, #32]
 3749 002a 24F00A04 		bic	r4, r4, #10
 3750 002e 0462     		str	r4, [r0, #32]
1840:Drivers/GD32F30x_standard_peripheral/Source/gd32f30x_timer.c ****     TIMER_CHCTL2(timer_periph) &= (~(uint32_t)(TIMER_CHCTL2_CH1P|TIMER_CHCTL2_CH1NP));
 3751              		.loc 1 1840 5 is_stmt 1 view .LVU1047
ARM GAS  C:\Users\Prog\AppData\Local\Temp\ccT8qdHj.s 			page 101


 3752              		.loc 1 1840 32 is_stmt 0 view .LVU1048
 3753 0030 046A     		ldr	r4, [r0, #32]
 3754 0032 24F0A004 		bic	r4, r4, #160
 3755 0036 0462     		str	r4, [r0, #32]
1841:Drivers/GD32F30x_standard_peripheral/Source/gd32f30x_timer.c ****     TIMER_CHCTL2(timer_periph) |= ((uint32_t)ic0polarity|((uint32_t)ic1polarity << 4U));
 3756              		.loc 1 1841 5 is_stmt 1 view .LVU1049
 3757              		.loc 1 1841 32 is_stmt 0 view .LVU1050
 3758 0038 016A     		ldr	r1, [r0, #32]
 3759              		.loc 1 1841 57 view .LVU1051
 3760 003a 42EA0312 		orr	r2, r2, r3, lsl #4
 3761              	.LVL213:
 3762              		.loc 1 1841 32 view .LVU1052
 3763 003e 1143     		orrs	r1, r1, r2
 3764 0040 0162     		str	r1, [r0, #32]
1842:Drivers/GD32F30x_standard_peripheral/Source/gd32f30x_timer.c **** }
 3765              		.loc 1 1842 1 view .LVU1053
 3766 0042 30BC     		pop	{r4, r5}
 3767              	.LCFI7:
 3768              		.cfi_restore 5
 3769              		.cfi_restore 4
 3770              		.cfi_def_cfa_offset 0
 3771 0044 7047     		bx	lr
 3772              		.cfi_endproc
 3773              	.LFE178:
 3775              		.section	.text.timer_internal_clock_config,"ax",%progbits
 3776              		.align	1
 3777              		.global	timer_internal_clock_config
 3778              		.syntax unified
 3779              		.thumb
 3780              		.thumb_func
 3781              		.fpu fpv4-sp-d16
 3783              	timer_internal_clock_config:
 3784              	.LVL214:
 3785              	.LFB179:
1843:Drivers/GD32F30x_standard_peripheral/Source/gd32f30x_timer.c **** 
1844:Drivers/GD32F30x_standard_peripheral/Source/gd32f30x_timer.c **** /*!
1845:Drivers/GD32F30x_standard_peripheral/Source/gd32f30x_timer.c ****     \brief      configure TIMER internal clock mode
1846:Drivers/GD32F30x_standard_peripheral/Source/gd32f30x_timer.c ****     \param[in]  timer_periph: TIMERx(x=0..4,7,8,11)
1847:Drivers/GD32F30x_standard_peripheral/Source/gd32f30x_timer.c ****     \param[out] none
1848:Drivers/GD32F30x_standard_peripheral/Source/gd32f30x_timer.c ****     \retval     none
1849:Drivers/GD32F30x_standard_peripheral/Source/gd32f30x_timer.c **** */
1850:Drivers/GD32F30x_standard_peripheral/Source/gd32f30x_timer.c **** void timer_internal_clock_config(uint32_t timer_periph)
1851:Drivers/GD32F30x_standard_peripheral/Source/gd32f30x_timer.c **** {
 3786              		.loc 1 1851 1 is_stmt 1 view -0
 3787              		.cfi_startproc
 3788              		@ args = 0, pretend = 0, frame = 0
 3789              		@ frame_needed = 0, uses_anonymous_args = 0
 3790              		@ link register save eliminated.
1852:Drivers/GD32F30x_standard_peripheral/Source/gd32f30x_timer.c ****     TIMER_SMCFG(timer_periph) &= ~(uint32_t)TIMER_SMCFG_SMC;
 3791              		.loc 1 1852 5 view .LVU1055
 3792              		.loc 1 1852 31 is_stmt 0 view .LVU1056
 3793 0000 8368     		ldr	r3, [r0, #8]
 3794 0002 23F00703 		bic	r3, r3, #7
 3795 0006 8360     		str	r3, [r0, #8]
1853:Drivers/GD32F30x_standard_peripheral/Source/gd32f30x_timer.c **** }
 3796              		.loc 1 1853 1 view .LVU1057
 3797 0008 7047     		bx	lr
ARM GAS  C:\Users\Prog\AppData\Local\Temp\ccT8qdHj.s 			page 102


 3798              		.cfi_endproc
 3799              	.LFE179:
 3801              		.section	.text.timer_internal_trigger_as_external_clock_config,"ax",%progbits
 3802              		.align	1
 3803              		.global	timer_internal_trigger_as_external_clock_config
 3804              		.syntax unified
 3805              		.thumb
 3806              		.thumb_func
 3807              		.fpu fpv4-sp-d16
 3809              	timer_internal_trigger_as_external_clock_config:
 3810              	.LVL215:
 3811              	.LFB180:
1854:Drivers/GD32F30x_standard_peripheral/Source/gd32f30x_timer.c **** 
1855:Drivers/GD32F30x_standard_peripheral/Source/gd32f30x_timer.c **** /*!
1856:Drivers/GD32F30x_standard_peripheral/Source/gd32f30x_timer.c ****     \brief      configure TIMER the internal trigger as external clock input
1857:Drivers/GD32F30x_standard_peripheral/Source/gd32f30x_timer.c ****     \param[in]  timer_periph: TIMERx(x=0..4,7,8,11)
1858:Drivers/GD32F30x_standard_peripheral/Source/gd32f30x_timer.c ****     \param[in]  intrigger:
1859:Drivers/GD32F30x_standard_peripheral/Source/gd32f30x_timer.c ****                 only one parameter can be selected which is shown as below:
1860:Drivers/GD32F30x_standard_peripheral/Source/gd32f30x_timer.c ****       \arg        TIMER_SMCFG_TRGSEL_ITI0: internal trigger 0
1861:Drivers/GD32F30x_standard_peripheral/Source/gd32f30x_timer.c ****       \arg        TIMER_SMCFG_TRGSEL_ITI1: internal trigger 1
1862:Drivers/GD32F30x_standard_peripheral/Source/gd32f30x_timer.c ****       \arg        TIMER_SMCFG_TRGSEL_ITI2: internal trigger 2
1863:Drivers/GD32F30x_standard_peripheral/Source/gd32f30x_timer.c ****       \arg        TIMER_SMCFG_TRGSEL_ITI3: internal trigger 3
1864:Drivers/GD32F30x_standard_peripheral/Source/gd32f30x_timer.c ****     \param[out] none
1865:Drivers/GD32F30x_standard_peripheral/Source/gd32f30x_timer.c ****     \retval     none
1866:Drivers/GD32F30x_standard_peripheral/Source/gd32f30x_timer.c **** */
1867:Drivers/GD32F30x_standard_peripheral/Source/gd32f30x_timer.c **** void timer_internal_trigger_as_external_clock_config(uint32_t timer_periph, uint32_t intrigger)
1868:Drivers/GD32F30x_standard_peripheral/Source/gd32f30x_timer.c **** {
 3812              		.loc 1 1868 1 is_stmt 1 view -0
 3813              		.cfi_startproc
 3814              		@ args = 0, pretend = 0, frame = 0
 3815              		@ frame_needed = 0, uses_anonymous_args = 0
 3816              		.loc 1 1868 1 is_stmt 0 view .LVU1059
 3817 0000 10B5     		push	{r4, lr}
 3818              	.LCFI8:
 3819              		.cfi_def_cfa_offset 8
 3820              		.cfi_offset 4, -8
 3821              		.cfi_offset 14, -4
 3822 0002 0446     		mov	r4, r0
1869:Drivers/GD32F30x_standard_peripheral/Source/gd32f30x_timer.c ****     timer_input_trigger_source_select(timer_periph, intrigger);
 3823              		.loc 1 1869 5 is_stmt 1 view .LVU1060
 3824 0004 FFF7FEFF 		bl	timer_input_trigger_source_select
 3825              	.LVL216:
1870:Drivers/GD32F30x_standard_peripheral/Source/gd32f30x_timer.c ****     TIMER_SMCFG(timer_periph) &= ~(uint32_t)TIMER_SMCFG_SMC;
 3826              		.loc 1 1870 5 view .LVU1061
 3827              		.loc 1 1870 31 is_stmt 0 view .LVU1062
 3828 0008 A368     		ldr	r3, [r4, #8]
 3829 000a 23F00703 		bic	r3, r3, #7
 3830 000e A360     		str	r3, [r4, #8]
1871:Drivers/GD32F30x_standard_peripheral/Source/gd32f30x_timer.c ****     TIMER_SMCFG(timer_periph) |= (uint32_t)TIMER_SLAVE_MODE_EXTERNAL0;
 3831              		.loc 1 1871 5 is_stmt 1 view .LVU1063
 3832              		.loc 1 1871 31 is_stmt 0 view .LVU1064
 3833 0010 A368     		ldr	r3, [r4, #8]
 3834 0012 43F00703 		orr	r3, r3, #7
 3835 0016 A360     		str	r3, [r4, #8]
1872:Drivers/GD32F30x_standard_peripheral/Source/gd32f30x_timer.c **** }
 3836              		.loc 1 1872 1 view .LVU1065
 3837 0018 10BD     		pop	{r4, pc}
ARM GAS  C:\Users\Prog\AppData\Local\Temp\ccT8qdHj.s 			page 103


 3838              		.loc 1 1872 1 view .LVU1066
 3839              		.cfi_endproc
 3840              	.LFE180:
 3842              		.section	.text.timer_external_trigger_as_external_clock_config,"ax",%progbits
 3843              		.align	1
 3844              		.global	timer_external_trigger_as_external_clock_config
 3845              		.syntax unified
 3846              		.thumb
 3847              		.thumb_func
 3848              		.fpu fpv4-sp-d16
 3850              	timer_external_trigger_as_external_clock_config:
 3851              	.LVL217:
 3852              	.LFB181:
1873:Drivers/GD32F30x_standard_peripheral/Source/gd32f30x_timer.c **** 
1874:Drivers/GD32F30x_standard_peripheral/Source/gd32f30x_timer.c **** /*!
1875:Drivers/GD32F30x_standard_peripheral/Source/gd32f30x_timer.c ****     \brief      configure TIMER the external trigger as external clock input
1876:Drivers/GD32F30x_standard_peripheral/Source/gd32f30x_timer.c ****     \param[in]  timer_periph: TIMERx(x=0..4,7,8,11)
1877:Drivers/GD32F30x_standard_peripheral/Source/gd32f30x_timer.c ****     \param[in]  extrigger:
1878:Drivers/GD32F30x_standard_peripheral/Source/gd32f30x_timer.c ****                 only one parameter can be selected which is shown as below:
1879:Drivers/GD32F30x_standard_peripheral/Source/gd32f30x_timer.c ****       \arg        TIMER_SMCFG_TRGSEL_CI0F_ED: TI0 edge detector
1880:Drivers/GD32F30x_standard_peripheral/Source/gd32f30x_timer.c ****       \arg        TIMER_SMCFG_TRGSEL_CI0FE0: filtered TIMER input 0
1881:Drivers/GD32F30x_standard_peripheral/Source/gd32f30x_timer.c ****       \arg        TIMER_SMCFG_TRGSEL_CI1FE1: filtered TIMER input 1
1882:Drivers/GD32F30x_standard_peripheral/Source/gd32f30x_timer.c ****     \param[in]  extpolarity: 
1883:Drivers/GD32F30x_standard_peripheral/Source/gd32f30x_timer.c ****                 only one parameter can be selected which is shown as below:
1884:Drivers/GD32F30x_standard_peripheral/Source/gd32f30x_timer.c ****       \arg        TIMER_IC_POLARITY_RISING: active high or rising edge active
1885:Drivers/GD32F30x_standard_peripheral/Source/gd32f30x_timer.c ****       \arg        TIMER_IC_POLARITY_FALLING: active low or falling edge active
1886:Drivers/GD32F30x_standard_peripheral/Source/gd32f30x_timer.c ****     \param[in]  extfilter: a value between 0 and 15
1887:Drivers/GD32F30x_standard_peripheral/Source/gd32f30x_timer.c ****     \param[out] none
1888:Drivers/GD32F30x_standard_peripheral/Source/gd32f30x_timer.c ****     \retval     none
1889:Drivers/GD32F30x_standard_peripheral/Source/gd32f30x_timer.c **** */
1890:Drivers/GD32F30x_standard_peripheral/Source/gd32f30x_timer.c **** void timer_external_trigger_as_external_clock_config(uint32_t timer_periph, uint32_t extrigger,
1891:Drivers/GD32F30x_standard_peripheral/Source/gd32f30x_timer.c ****                                        uint16_t extpolarity, uint32_t extfilter)
1892:Drivers/GD32F30x_standard_peripheral/Source/gd32f30x_timer.c **** {
 3853              		.loc 1 1892 1 is_stmt 1 view -0
 3854              		.cfi_startproc
 3855              		@ args = 0, pretend = 0, frame = 0
 3856              		@ frame_needed = 0, uses_anonymous_args = 0
 3857              		.loc 1 1892 1 is_stmt 0 view .LVU1068
 3858 0000 10B5     		push	{r4, lr}
 3859              	.LCFI9:
 3860              		.cfi_def_cfa_offset 8
 3861              		.cfi_offset 4, -8
 3862              		.cfi_offset 14, -4
 3863 0002 0446     		mov	r4, r0
1893:Drivers/GD32F30x_standard_peripheral/Source/gd32f30x_timer.c ****     if(TIMER_SMCFG_TRGSEL_CI1FE1 == extrigger){
 3864              		.loc 1 1893 5 is_stmt 1 view .LVU1069
 3865              		.loc 1 1893 7 is_stmt 0 view .LVU1070
 3866 0004 6029     		cmp	r1, #96
 3867 0006 2AD0     		beq	.L217
1894:Drivers/GD32F30x_standard_peripheral/Source/gd32f30x_timer.c ****         /* reset the CH1EN bit */
1895:Drivers/GD32F30x_standard_peripheral/Source/gd32f30x_timer.c ****         TIMER_CHCTL2(timer_periph) &= (~(uint32_t)TIMER_CHCTL2_CH1EN);
1896:Drivers/GD32F30x_standard_peripheral/Source/gd32f30x_timer.c ****         /* reset the CH1NP bit */
1897:Drivers/GD32F30x_standard_peripheral/Source/gd32f30x_timer.c ****         TIMER_CHCTL2(timer_periph) &= (~(uint32_t)(TIMER_CHCTL2_CH1P|TIMER_CHCTL2_CH1NP));
1898:Drivers/GD32F30x_standard_peripheral/Source/gd32f30x_timer.c ****         /* set the CH1NP bit */
1899:Drivers/GD32F30x_standard_peripheral/Source/gd32f30x_timer.c ****         TIMER_CHCTL2(timer_periph) |= (uint32_t)((uint32_t)extpolarity << 4U);
1900:Drivers/GD32F30x_standard_peripheral/Source/gd32f30x_timer.c ****         /* reset the CH1MS bit */
1901:Drivers/GD32F30x_standard_peripheral/Source/gd32f30x_timer.c ****         TIMER_CHCTL0(timer_periph) &= (~(uint32_t)TIMER_CHCTL0_CH1MS);
ARM GAS  C:\Users\Prog\AppData\Local\Temp\ccT8qdHj.s 			page 104


1902:Drivers/GD32F30x_standard_peripheral/Source/gd32f30x_timer.c ****         /* set the CH1MS bit */
1903:Drivers/GD32F30x_standard_peripheral/Source/gd32f30x_timer.c ****         TIMER_CHCTL0(timer_periph) |= (uint32_t)((uint32_t)TIMER_IC_SELECTION_DIRECTTI << 8U);
1904:Drivers/GD32F30x_standard_peripheral/Source/gd32f30x_timer.c ****         /* reset the CH1CAPFLT bit */
1905:Drivers/GD32F30x_standard_peripheral/Source/gd32f30x_timer.c ****         TIMER_CHCTL0(timer_periph) &= (~(uint32_t)TIMER_CHCTL0_CH1CAPFLT);
1906:Drivers/GD32F30x_standard_peripheral/Source/gd32f30x_timer.c ****         /* set the CH1CAPFLT bit */
1907:Drivers/GD32F30x_standard_peripheral/Source/gd32f30x_timer.c ****         TIMER_CHCTL0(timer_periph) |= (uint32_t)(extfilter << 12U);
1908:Drivers/GD32F30x_standard_peripheral/Source/gd32f30x_timer.c ****         /* set the CH1EN bit */
1909:Drivers/GD32F30x_standard_peripheral/Source/gd32f30x_timer.c ****         TIMER_CHCTL2(timer_periph) |= (uint32_t)TIMER_CHCTL2_CH1EN;
1910:Drivers/GD32F30x_standard_peripheral/Source/gd32f30x_timer.c ****     }else{
1911:Drivers/GD32F30x_standard_peripheral/Source/gd32f30x_timer.c ****         /* reset the CH0EN bit */
1912:Drivers/GD32F30x_standard_peripheral/Source/gd32f30x_timer.c ****         TIMER_CHCTL2(timer_periph) &= (~(uint32_t)TIMER_CHCTL2_CH0EN);
 3868              		.loc 1 1912 9 is_stmt 1 view .LVU1071
 3869              		.loc 1 1912 36 is_stmt 0 view .LVU1072
 3870 0008 006A     		ldr	r0, [r0, #32]
 3871              	.LVL218:
 3872              		.loc 1 1912 36 view .LVU1073
 3873 000a 20F00100 		bic	r0, r0, #1
 3874 000e 2062     		str	r0, [r4, #32]
1913:Drivers/GD32F30x_standard_peripheral/Source/gd32f30x_timer.c ****         /* reset the CH0P and CH0NP bits */
1914:Drivers/GD32F30x_standard_peripheral/Source/gd32f30x_timer.c ****         TIMER_CHCTL2(timer_periph) &= (~(uint32_t)(TIMER_CHCTL2_CH0P|TIMER_CHCTL2_CH0NP));
 3875              		.loc 1 1914 9 is_stmt 1 view .LVU1074
 3876              		.loc 1 1914 36 is_stmt 0 view .LVU1075
 3877 0010 206A     		ldr	r0, [r4, #32]
 3878 0012 20F00A00 		bic	r0, r0, #10
 3879 0016 2062     		str	r0, [r4, #32]
1915:Drivers/GD32F30x_standard_peripheral/Source/gd32f30x_timer.c ****         /* set the CH0P and CH0NP bits */
1916:Drivers/GD32F30x_standard_peripheral/Source/gd32f30x_timer.c ****         TIMER_CHCTL2(timer_periph) |= (uint32_t)extpolarity;
 3880              		.loc 1 1916 9 is_stmt 1 view .LVU1076
 3881              		.loc 1 1916 36 is_stmt 0 view .LVU1077
 3882 0018 206A     		ldr	r0, [r4, #32]
 3883 001a 0243     		orrs	r2, r2, r0
 3884              	.LVL219:
 3885              		.loc 1 1916 36 view .LVU1078
 3886 001c 2262     		str	r2, [r4, #32]
1917:Drivers/GD32F30x_standard_peripheral/Source/gd32f30x_timer.c ****         /* reset the CH0MS bit */
1918:Drivers/GD32F30x_standard_peripheral/Source/gd32f30x_timer.c ****         TIMER_CHCTL0(timer_periph) &= (~(uint32_t)TIMER_CHCTL0_CH0MS);
 3887              		.loc 1 1918 9 is_stmt 1 view .LVU1079
 3888              		.loc 1 1918 36 is_stmt 0 view .LVU1080
 3889 001e A269     		ldr	r2, [r4, #24]
 3890 0020 22F00302 		bic	r2, r2, #3
 3891 0024 A261     		str	r2, [r4, #24]
1919:Drivers/GD32F30x_standard_peripheral/Source/gd32f30x_timer.c ****         /* set the CH0MS bit */
1920:Drivers/GD32F30x_standard_peripheral/Source/gd32f30x_timer.c ****         TIMER_CHCTL0(timer_periph) |= (uint32_t)TIMER_IC_SELECTION_DIRECTTI;
 3892              		.loc 1 1920 9 is_stmt 1 view .LVU1081
 3893              		.loc 1 1920 36 is_stmt 0 view .LVU1082
 3894 0026 A269     		ldr	r2, [r4, #24]
 3895 0028 42F00102 		orr	r2, r2, #1
 3896 002c A261     		str	r2, [r4, #24]
1921:Drivers/GD32F30x_standard_peripheral/Source/gd32f30x_timer.c ****         /* reset the CH0CAPFLT bit */
1922:Drivers/GD32F30x_standard_peripheral/Source/gd32f30x_timer.c ****         TIMER_CHCTL0(timer_periph) &= (~(uint32_t)TIMER_CHCTL0_CH0CAPFLT);
 3897              		.loc 1 1922 9 is_stmt 1 view .LVU1083
 3898              		.loc 1 1922 36 is_stmt 0 view .LVU1084
 3899 002e A269     		ldr	r2, [r4, #24]
 3900 0030 22F0F002 		bic	r2, r2, #240
 3901 0034 A261     		str	r2, [r4, #24]
1923:Drivers/GD32F30x_standard_peripheral/Source/gd32f30x_timer.c ****         /* reset the CH0CAPFLT bit */
1924:Drivers/GD32F30x_standard_peripheral/Source/gd32f30x_timer.c ****         TIMER_CHCTL0(timer_periph) |= (uint32_t)(extfilter << 4U);
ARM GAS  C:\Users\Prog\AppData\Local\Temp\ccT8qdHj.s 			page 105


 3902              		.loc 1 1924 9 is_stmt 1 view .LVU1085
 3903              		.loc 1 1924 36 is_stmt 0 view .LVU1086
 3904 0036 A269     		ldr	r2, [r4, #24]
 3905 0038 42EA0313 		orr	r3, r2, r3, lsl #4
 3906              	.LVL220:
 3907              		.loc 1 1924 36 view .LVU1087
 3908 003c A361     		str	r3, [r4, #24]
1925:Drivers/GD32F30x_standard_peripheral/Source/gd32f30x_timer.c ****         /* set the CH0EN bit */
1926:Drivers/GD32F30x_standard_peripheral/Source/gd32f30x_timer.c ****         TIMER_CHCTL2(timer_periph) |= (uint32_t)TIMER_CHCTL2_CH0EN;
 3909              		.loc 1 1926 9 is_stmt 1 view .LVU1088
 3910              		.loc 1 1926 36 is_stmt 0 view .LVU1089
 3911 003e 236A     		ldr	r3, [r4, #32]
 3912 0040 43F00103 		orr	r3, r3, #1
 3913 0044 2362     		str	r3, [r4, #32]
 3914              	.L215:
1927:Drivers/GD32F30x_standard_peripheral/Source/gd32f30x_timer.c ****     }
1928:Drivers/GD32F30x_standard_peripheral/Source/gd32f30x_timer.c ****     /* select TIMER input trigger source */
1929:Drivers/GD32F30x_standard_peripheral/Source/gd32f30x_timer.c ****     timer_input_trigger_source_select(timer_periph,extrigger);
 3915              		.loc 1 1929 5 is_stmt 1 view .LVU1090
 3916 0046 2046     		mov	r0, r4
 3917 0048 FFF7FEFF 		bl	timer_input_trigger_source_select
 3918              	.LVL221:
1930:Drivers/GD32F30x_standard_peripheral/Source/gd32f30x_timer.c ****     /* reset the SMC bit */
1931:Drivers/GD32F30x_standard_peripheral/Source/gd32f30x_timer.c ****     TIMER_SMCFG(timer_periph) &= (~(uint32_t)TIMER_SMCFG_SMC);
 3919              		.loc 1 1931 5 view .LVU1091
 3920              		.loc 1 1931 31 is_stmt 0 view .LVU1092
 3921 004c A368     		ldr	r3, [r4, #8]
 3922 004e 23F00703 		bic	r3, r3, #7
 3923 0052 A360     		str	r3, [r4, #8]
1932:Drivers/GD32F30x_standard_peripheral/Source/gd32f30x_timer.c ****     /* set the SMC bit */
1933:Drivers/GD32F30x_standard_peripheral/Source/gd32f30x_timer.c ****     TIMER_SMCFG(timer_periph) |= (uint32_t)TIMER_SLAVE_MODE_EXTERNAL0;
 3924              		.loc 1 1933 5 is_stmt 1 view .LVU1093
 3925              		.loc 1 1933 31 is_stmt 0 view .LVU1094
 3926 0054 A368     		ldr	r3, [r4, #8]
 3927 0056 43F00703 		orr	r3, r3, #7
 3928 005a A360     		str	r3, [r4, #8]
1934:Drivers/GD32F30x_standard_peripheral/Source/gd32f30x_timer.c **** }
 3929              		.loc 1 1934 1 view .LVU1095
 3930 005c 10BD     		pop	{r4, pc}
 3931              	.LVL222:
 3932              	.L217:
1895:Drivers/GD32F30x_standard_peripheral/Source/gd32f30x_timer.c ****         /* reset the CH1NP bit */
 3933              		.loc 1 1895 9 is_stmt 1 view .LVU1096
1895:Drivers/GD32F30x_standard_peripheral/Source/gd32f30x_timer.c ****         /* reset the CH1NP bit */
 3934              		.loc 1 1895 36 is_stmt 0 view .LVU1097
 3935 005e 006A     		ldr	r0, [r0, #32]
 3936              	.LVL223:
1895:Drivers/GD32F30x_standard_peripheral/Source/gd32f30x_timer.c ****         /* reset the CH1NP bit */
 3937              		.loc 1 1895 36 view .LVU1098
 3938 0060 20F01000 		bic	r0, r0, #16
 3939 0064 2062     		str	r0, [r4, #32]
1897:Drivers/GD32F30x_standard_peripheral/Source/gd32f30x_timer.c ****         /* set the CH1NP bit */
 3940              		.loc 1 1897 9 is_stmt 1 view .LVU1099
1897:Drivers/GD32F30x_standard_peripheral/Source/gd32f30x_timer.c ****         /* set the CH1NP bit */
 3941              		.loc 1 1897 36 is_stmt 0 view .LVU1100
 3942 0066 206A     		ldr	r0, [r4, #32]
 3943 0068 20F0A000 		bic	r0, r0, #160
ARM GAS  C:\Users\Prog\AppData\Local\Temp\ccT8qdHj.s 			page 106


 3944 006c 2062     		str	r0, [r4, #32]
1899:Drivers/GD32F30x_standard_peripheral/Source/gd32f30x_timer.c ****         /* reset the CH1MS bit */
 3945              		.loc 1 1899 9 is_stmt 1 view .LVU1101
1899:Drivers/GD32F30x_standard_peripheral/Source/gd32f30x_timer.c ****         /* reset the CH1MS bit */
 3946              		.loc 1 1899 36 is_stmt 0 view .LVU1102
 3947 006e 206A     		ldr	r0, [r4, #32]
 3948 0070 40EA0212 		orr	r2, r0, r2, lsl #4
 3949              	.LVL224:
1899:Drivers/GD32F30x_standard_peripheral/Source/gd32f30x_timer.c ****         /* reset the CH1MS bit */
 3950              		.loc 1 1899 36 view .LVU1103
 3951 0074 2262     		str	r2, [r4, #32]
1901:Drivers/GD32F30x_standard_peripheral/Source/gd32f30x_timer.c ****         /* set the CH1MS bit */
 3952              		.loc 1 1901 9 is_stmt 1 view .LVU1104
1901:Drivers/GD32F30x_standard_peripheral/Source/gd32f30x_timer.c ****         /* set the CH1MS bit */
 3953              		.loc 1 1901 36 is_stmt 0 view .LVU1105
 3954 0076 A269     		ldr	r2, [r4, #24]
 3955 0078 22F44072 		bic	r2, r2, #768
 3956 007c A261     		str	r2, [r4, #24]
1903:Drivers/GD32F30x_standard_peripheral/Source/gd32f30x_timer.c ****         /* reset the CH1CAPFLT bit */
 3957              		.loc 1 1903 9 is_stmt 1 view .LVU1106
1903:Drivers/GD32F30x_standard_peripheral/Source/gd32f30x_timer.c ****         /* reset the CH1CAPFLT bit */
 3958              		.loc 1 1903 36 is_stmt 0 view .LVU1107
 3959 007e A269     		ldr	r2, [r4, #24]
 3960 0080 42F48072 		orr	r2, r2, #256
 3961 0084 A261     		str	r2, [r4, #24]
1905:Drivers/GD32F30x_standard_peripheral/Source/gd32f30x_timer.c ****         /* set the CH1CAPFLT bit */
 3962              		.loc 1 1905 9 is_stmt 1 view .LVU1108
1905:Drivers/GD32F30x_standard_peripheral/Source/gd32f30x_timer.c ****         /* set the CH1CAPFLT bit */
 3963              		.loc 1 1905 36 is_stmt 0 view .LVU1109
 3964 0086 A269     		ldr	r2, [r4, #24]
 3965 0088 22F47042 		bic	r2, r2, #61440
 3966 008c A261     		str	r2, [r4, #24]
1907:Drivers/GD32F30x_standard_peripheral/Source/gd32f30x_timer.c ****         /* set the CH1EN bit */
 3967              		.loc 1 1907 9 is_stmt 1 view .LVU1110
1907:Drivers/GD32F30x_standard_peripheral/Source/gd32f30x_timer.c ****         /* set the CH1EN bit */
 3968              		.loc 1 1907 36 is_stmt 0 view .LVU1111
 3969 008e A269     		ldr	r2, [r4, #24]
 3970 0090 42EA0333 		orr	r3, r2, r3, lsl #12
 3971              	.LVL225:
1907:Drivers/GD32F30x_standard_peripheral/Source/gd32f30x_timer.c ****         /* set the CH1EN bit */
 3972              		.loc 1 1907 36 view .LVU1112
 3973 0094 A361     		str	r3, [r4, #24]
1909:Drivers/GD32F30x_standard_peripheral/Source/gd32f30x_timer.c ****     }else{
 3974              		.loc 1 1909 9 is_stmt 1 view .LVU1113
1909:Drivers/GD32F30x_standard_peripheral/Source/gd32f30x_timer.c ****     }else{
 3975              		.loc 1 1909 36 is_stmt 0 view .LVU1114
 3976 0096 236A     		ldr	r3, [r4, #32]
 3977 0098 43F01003 		orr	r3, r3, #16
 3978 009c 2362     		str	r3, [r4, #32]
 3979 009e D2E7     		b	.L215
 3980              		.cfi_endproc
 3981              	.LFE181:
 3983              		.section	.text.timer_external_clock_mode0_config,"ax",%progbits
 3984              		.align	1
 3985              		.global	timer_external_clock_mode0_config
 3986              		.syntax unified
 3987              		.thumb
ARM GAS  C:\Users\Prog\AppData\Local\Temp\ccT8qdHj.s 			page 107


 3988              		.thumb_func
 3989              		.fpu fpv4-sp-d16
 3991              	timer_external_clock_mode0_config:
 3992              	.LVL226:
 3993              	.LFB182:
1935:Drivers/GD32F30x_standard_peripheral/Source/gd32f30x_timer.c **** 
1936:Drivers/GD32F30x_standard_peripheral/Source/gd32f30x_timer.c **** /*!
1937:Drivers/GD32F30x_standard_peripheral/Source/gd32f30x_timer.c ****     \brief      configure TIMER the external clock mode0
1938:Drivers/GD32F30x_standard_peripheral/Source/gd32f30x_timer.c ****     \param[in]  timer_periph: TIMERx(x=0..4,7,8,11)
1939:Drivers/GD32F30x_standard_peripheral/Source/gd32f30x_timer.c ****     \param[in]  extprescaler: 
1940:Drivers/GD32F30x_standard_peripheral/Source/gd32f30x_timer.c ****                 only one parameter can be selected which is shown as below:
1941:Drivers/GD32F30x_standard_peripheral/Source/gd32f30x_timer.c ****       \arg        TIMER_EXT_TRI_PSC_OFF: no divided
1942:Drivers/GD32F30x_standard_peripheral/Source/gd32f30x_timer.c ****       \arg        TIMER_EXT_TRI_PSC_DIV2: divided by 2
1943:Drivers/GD32F30x_standard_peripheral/Source/gd32f30x_timer.c ****       \arg        TIMER_EXT_TRI_PSC_DIV4: divided by 4
1944:Drivers/GD32F30x_standard_peripheral/Source/gd32f30x_timer.c ****       \arg        TIMER_EXT_TRI_PSC_DIV8: divided by 8
1945:Drivers/GD32F30x_standard_peripheral/Source/gd32f30x_timer.c ****     \param[in]  extpolarity: 
1946:Drivers/GD32F30x_standard_peripheral/Source/gd32f30x_timer.c ****                 only one parameter can be selected which is shown as below:
1947:Drivers/GD32F30x_standard_peripheral/Source/gd32f30x_timer.c ****       \arg        TIMER_ETP_FALLING: active low or falling edge active
1948:Drivers/GD32F30x_standard_peripheral/Source/gd32f30x_timer.c ****       \arg        TIMER_ETP_RISING: active high or rising edge active
1949:Drivers/GD32F30x_standard_peripheral/Source/gd32f30x_timer.c ****     \param[in]  extfilter: a value between 0 and 15
1950:Drivers/GD32F30x_standard_peripheral/Source/gd32f30x_timer.c ****     \param[out] none
1951:Drivers/GD32F30x_standard_peripheral/Source/gd32f30x_timer.c ****     \retval     none
1952:Drivers/GD32F30x_standard_peripheral/Source/gd32f30x_timer.c **** */
1953:Drivers/GD32F30x_standard_peripheral/Source/gd32f30x_timer.c **** void timer_external_clock_mode0_config(uint32_t timer_periph, uint32_t extprescaler,
1954:Drivers/GD32F30x_standard_peripheral/Source/gd32f30x_timer.c ****                                        uint32_t extpolarity, uint32_t extfilter)
1955:Drivers/GD32F30x_standard_peripheral/Source/gd32f30x_timer.c **** {
 3994              		.loc 1 1955 1 is_stmt 1 view -0
 3995              		.cfi_startproc
 3996              		@ args = 0, pretend = 0, frame = 0
 3997              		@ frame_needed = 0, uses_anonymous_args = 0
 3998              		.loc 1 1955 1 is_stmt 0 view .LVU1116
 3999 0000 10B5     		push	{r4, lr}
 4000              	.LCFI10:
 4001              		.cfi_def_cfa_offset 8
 4002              		.cfi_offset 4, -8
 4003              		.cfi_offset 14, -4
 4004 0002 0446     		mov	r4, r0
1956:Drivers/GD32F30x_standard_peripheral/Source/gd32f30x_timer.c ****     /* configure TIMER external trigger input */
1957:Drivers/GD32F30x_standard_peripheral/Source/gd32f30x_timer.c ****     timer_external_trigger_config(timer_periph, extprescaler, extpolarity, extfilter);
 4005              		.loc 1 1957 5 is_stmt 1 view .LVU1117
 4006 0004 FFF7FEFF 		bl	timer_external_trigger_config
 4007              	.LVL227:
1958:Drivers/GD32F30x_standard_peripheral/Source/gd32f30x_timer.c **** 
1959:Drivers/GD32F30x_standard_peripheral/Source/gd32f30x_timer.c ****     /* reset the SMC bit,TRGS bit */
1960:Drivers/GD32F30x_standard_peripheral/Source/gd32f30x_timer.c ****     TIMER_SMCFG(timer_periph) &= (~(uint32_t)(TIMER_SMCFG_SMC | TIMER_SMCFG_TRGS));
 4008              		.loc 1 1960 5 view .LVU1118
 4009              		.loc 1 1960 31 is_stmt 0 view .LVU1119
 4010 0008 A368     		ldr	r3, [r4, #8]
 4011 000a 23F07703 		bic	r3, r3, #119
 4012 000e A360     		str	r3, [r4, #8]
1961:Drivers/GD32F30x_standard_peripheral/Source/gd32f30x_timer.c ****     /* set the SMC bit,TRGS bit */
1962:Drivers/GD32F30x_standard_peripheral/Source/gd32f30x_timer.c ****     TIMER_SMCFG(timer_periph) |= (uint32_t)(TIMER_SLAVE_MODE_EXTERNAL0 | TIMER_SMCFG_TRGSEL_ETIFP);
 4013              		.loc 1 1962 5 is_stmt 1 view .LVU1120
 4014              		.loc 1 1962 31 is_stmt 0 view .LVU1121
 4015 0010 A368     		ldr	r3, [r4, #8]
 4016 0012 43F07703 		orr	r3, r3, #119
 4017 0016 A360     		str	r3, [r4, #8]
ARM GAS  C:\Users\Prog\AppData\Local\Temp\ccT8qdHj.s 			page 108


1963:Drivers/GD32F30x_standard_peripheral/Source/gd32f30x_timer.c **** }
 4018              		.loc 1 1963 1 view .LVU1122
 4019 0018 10BD     		pop	{r4, pc}
 4020              		.loc 1 1963 1 view .LVU1123
 4021              		.cfi_endproc
 4022              	.LFE182:
 4024              		.section	.text.timer_external_clock_mode1_config,"ax",%progbits
 4025              		.align	1
 4026              		.global	timer_external_clock_mode1_config
 4027              		.syntax unified
 4028              		.thumb
 4029              		.thumb_func
 4030              		.fpu fpv4-sp-d16
 4032              	timer_external_clock_mode1_config:
 4033              	.LVL228:
 4034              	.LFB183:
1964:Drivers/GD32F30x_standard_peripheral/Source/gd32f30x_timer.c **** 
1965:Drivers/GD32F30x_standard_peripheral/Source/gd32f30x_timer.c **** /*!
1966:Drivers/GD32F30x_standard_peripheral/Source/gd32f30x_timer.c ****     \brief      configure TIMER the external clock mode1
1967:Drivers/GD32F30x_standard_peripheral/Source/gd32f30x_timer.c ****     \param[in]  timer_periph: TIMERx(x=0..4,7)
1968:Drivers/GD32F30x_standard_peripheral/Source/gd32f30x_timer.c ****     \param[in]  extprescaler: 
1969:Drivers/GD32F30x_standard_peripheral/Source/gd32f30x_timer.c ****                 only one parameter can be selected which is shown as below:
1970:Drivers/GD32F30x_standard_peripheral/Source/gd32f30x_timer.c ****       \arg        TIMER_EXT_TRI_PSC_OFF: no divided
1971:Drivers/GD32F30x_standard_peripheral/Source/gd32f30x_timer.c ****       \arg        TIMER_EXT_TRI_PSC_DIV2: divided by 2
1972:Drivers/GD32F30x_standard_peripheral/Source/gd32f30x_timer.c ****       \arg        TIMER_EXT_TRI_PSC_DIV4: divided by 4
1973:Drivers/GD32F30x_standard_peripheral/Source/gd32f30x_timer.c ****       \arg        TIMER_EXT_TRI_PSC_DIV8: divided by 8
1974:Drivers/GD32F30x_standard_peripheral/Source/gd32f30x_timer.c ****     \param[in]  extpolarity: 
1975:Drivers/GD32F30x_standard_peripheral/Source/gd32f30x_timer.c ****                 only one parameter can be selected which is shown as below:
1976:Drivers/GD32F30x_standard_peripheral/Source/gd32f30x_timer.c ****       \arg        TIMER_ETP_FALLING: active low or falling edge active
1977:Drivers/GD32F30x_standard_peripheral/Source/gd32f30x_timer.c ****       \arg        TIMER_ETP_RISING: active high or rising edge active
1978:Drivers/GD32F30x_standard_peripheral/Source/gd32f30x_timer.c ****     \param[in]  extfilter: a value between 0 and 15
1979:Drivers/GD32F30x_standard_peripheral/Source/gd32f30x_timer.c ****     \param[out] none
1980:Drivers/GD32F30x_standard_peripheral/Source/gd32f30x_timer.c ****     \retval     none
1981:Drivers/GD32F30x_standard_peripheral/Source/gd32f30x_timer.c **** */
1982:Drivers/GD32F30x_standard_peripheral/Source/gd32f30x_timer.c **** void timer_external_clock_mode1_config(uint32_t timer_periph, uint32_t extprescaler,
1983:Drivers/GD32F30x_standard_peripheral/Source/gd32f30x_timer.c ****                                        uint32_t extpolarity, uint32_t extfilter)
1984:Drivers/GD32F30x_standard_peripheral/Source/gd32f30x_timer.c **** {
 4035              		.loc 1 1984 1 is_stmt 1 view -0
 4036              		.cfi_startproc
 4037              		@ args = 0, pretend = 0, frame = 0
 4038              		@ frame_needed = 0, uses_anonymous_args = 0
 4039              		.loc 1 1984 1 is_stmt 0 view .LVU1125
 4040 0000 10B5     		push	{r4, lr}
 4041              	.LCFI11:
 4042              		.cfi_def_cfa_offset 8
 4043              		.cfi_offset 4, -8
 4044              		.cfi_offset 14, -4
 4045 0002 0446     		mov	r4, r0
1985:Drivers/GD32F30x_standard_peripheral/Source/gd32f30x_timer.c ****     /* configure TIMER external trigger input */
1986:Drivers/GD32F30x_standard_peripheral/Source/gd32f30x_timer.c ****     timer_external_trigger_config(timer_periph, extprescaler, extpolarity, extfilter);
 4046              		.loc 1 1986 5 is_stmt 1 view .LVU1126
 4047 0004 FFF7FEFF 		bl	timer_external_trigger_config
 4048              	.LVL229:
1987:Drivers/GD32F30x_standard_peripheral/Source/gd32f30x_timer.c **** 
1988:Drivers/GD32F30x_standard_peripheral/Source/gd32f30x_timer.c ****     TIMER_SMCFG(timer_periph) |= (uint32_t)TIMER_SMCFG_SMC1;
 4049              		.loc 1 1988 5 view .LVU1127
 4050              		.loc 1 1988 31 is_stmt 0 view .LVU1128
ARM GAS  C:\Users\Prog\AppData\Local\Temp\ccT8qdHj.s 			page 109


 4051 0008 A368     		ldr	r3, [r4, #8]
 4052 000a 43F48043 		orr	r3, r3, #16384
 4053 000e A360     		str	r3, [r4, #8]
1989:Drivers/GD32F30x_standard_peripheral/Source/gd32f30x_timer.c **** }
 4054              		.loc 1 1989 1 view .LVU1129
 4055 0010 10BD     		pop	{r4, pc}
 4056              		.loc 1 1989 1 view .LVU1130
 4057              		.cfi_endproc
 4058              	.LFE183:
 4060              		.section	.text.timer_external_clock_mode1_disable,"ax",%progbits
 4061              		.align	1
 4062              		.global	timer_external_clock_mode1_disable
 4063              		.syntax unified
 4064              		.thumb
 4065              		.thumb_func
 4066              		.fpu fpv4-sp-d16
 4068              	timer_external_clock_mode1_disable:
 4069              	.LVL230:
 4070              	.LFB184:
1990:Drivers/GD32F30x_standard_peripheral/Source/gd32f30x_timer.c **** 
1991:Drivers/GD32F30x_standard_peripheral/Source/gd32f30x_timer.c **** /*!
1992:Drivers/GD32F30x_standard_peripheral/Source/gd32f30x_timer.c ****     \brief      disable TIMER the external clock mode1
1993:Drivers/GD32F30x_standard_peripheral/Source/gd32f30x_timer.c ****     \param[in]  timer_periph: TIMERx(x=0..4,7)
1994:Drivers/GD32F30x_standard_peripheral/Source/gd32f30x_timer.c ****     \param[out] none
1995:Drivers/GD32F30x_standard_peripheral/Source/gd32f30x_timer.c ****     \retval     none
1996:Drivers/GD32F30x_standard_peripheral/Source/gd32f30x_timer.c **** */
1997:Drivers/GD32F30x_standard_peripheral/Source/gd32f30x_timer.c **** void timer_external_clock_mode1_disable(uint32_t timer_periph)
1998:Drivers/GD32F30x_standard_peripheral/Source/gd32f30x_timer.c **** {
 4071              		.loc 1 1998 1 is_stmt 1 view -0
 4072              		.cfi_startproc
 4073              		@ args = 0, pretend = 0, frame = 0
 4074              		@ frame_needed = 0, uses_anonymous_args = 0
 4075              		@ link register save eliminated.
1999:Drivers/GD32F30x_standard_peripheral/Source/gd32f30x_timer.c ****     TIMER_SMCFG(timer_periph) &= ~(uint32_t)TIMER_SMCFG_SMC1;
 4076              		.loc 1 1999 5 view .LVU1132
 4077              		.loc 1 1999 31 is_stmt 0 view .LVU1133
 4078 0000 8368     		ldr	r3, [r0, #8]
 4079 0002 23F48043 		bic	r3, r3, #16384
 4080 0006 8360     		str	r3, [r0, #8]
2000:Drivers/GD32F30x_standard_peripheral/Source/gd32f30x_timer.c **** }
 4081              		.loc 1 2000 1 view .LVU1134
 4082 0008 7047     		bx	lr
 4083              		.cfi_endproc
 4084              	.LFE184:
 4086              		.section	.text.timer_write_chxval_register_config,"ax",%progbits
 4087              		.align	1
 4088              		.global	timer_write_chxval_register_config
 4089              		.syntax unified
 4090              		.thumb
 4091              		.thumb_func
 4092              		.fpu fpv4-sp-d16
 4094              	timer_write_chxval_register_config:
 4095              	.LVL231:
 4096              	.LFB185:
2001:Drivers/GD32F30x_standard_peripheral/Source/gd32f30x_timer.c **** 
2002:Drivers/GD32F30x_standard_peripheral/Source/gd32f30x_timer.c **** /*!
2003:Drivers/GD32F30x_standard_peripheral/Source/gd32f30x_timer.c ****     \brief      configure TIMER write CHxVAL register selection
ARM GAS  C:\Users\Prog\AppData\Local\Temp\ccT8qdHj.s 			page 110


2004:Drivers/GD32F30x_standard_peripheral/Source/gd32f30x_timer.c ****     \param[in]  timer_periph: TIMERx(x=0..4,7..13)
2005:Drivers/GD32F30x_standard_peripheral/Source/gd32f30x_timer.c ****     \param[in]  ccsel:
2006:Drivers/GD32F30x_standard_peripheral/Source/gd32f30x_timer.c ****                 only one parameter can be selected which is shown as below:
2007:Drivers/GD32F30x_standard_peripheral/Source/gd32f30x_timer.c ****       \arg        TIMER_CHVSEL_DISABLE: no effect
2008:Drivers/GD32F30x_standard_peripheral/Source/gd32f30x_timer.c ****       \arg        TIMER_CHVSEL_ENABLE: when write the CHxVAL register, if the write value is same a
2009:Drivers/GD32F30x_standard_peripheral/Source/gd32f30x_timer.c ****     \param[out] none
2010:Drivers/GD32F30x_standard_peripheral/Source/gd32f30x_timer.c ****     \retval     none
2011:Drivers/GD32F30x_standard_peripheral/Source/gd32f30x_timer.c **** */
2012:Drivers/GD32F30x_standard_peripheral/Source/gd32f30x_timer.c **** void timer_write_chxval_register_config(uint32_t timer_periph, uint16_t ccsel)
2013:Drivers/GD32F30x_standard_peripheral/Source/gd32f30x_timer.c **** {
 4097              		.loc 1 2013 1 is_stmt 1 view -0
 4098              		.cfi_startproc
 4099              		@ args = 0, pretend = 0, frame = 0
 4100              		@ frame_needed = 0, uses_anonymous_args = 0
 4101              		@ link register save eliminated.
2014:Drivers/GD32F30x_standard_peripheral/Source/gd32f30x_timer.c ****     if(TIMER_CHVSEL_ENABLE == ccsel){
 4102              		.loc 1 2014 5 view .LVU1136
 4103              		.loc 1 2014 7 is_stmt 0 view .LVU1137
 4104 0000 0229     		cmp	r1, #2
 4105 0002 07D0     		beq	.L226
2015:Drivers/GD32F30x_standard_peripheral/Source/gd32f30x_timer.c ****         TIMER_CFG(timer_periph) |= (uint32_t)TIMER_CFG_CHVSEL;
2016:Drivers/GD32F30x_standard_peripheral/Source/gd32f30x_timer.c ****     }else if(TIMER_CHVSEL_DISABLE == ccsel){
 4106              		.loc 1 2016 11 is_stmt 1 view .LVU1138
 4107              		.loc 1 2016 13 is_stmt 0 view .LVU1139
 4108 0004 29B9     		cbnz	r1, .L223
2017:Drivers/GD32F30x_standard_peripheral/Source/gd32f30x_timer.c ****         TIMER_CFG(timer_periph) &= ~(uint32_t)TIMER_CFG_CHVSEL;
 4109              		.loc 1 2017 9 is_stmt 1 view .LVU1140
 4110              		.loc 1 2017 33 is_stmt 0 view .LVU1141
 4111 0006 D0F8FC30 		ldr	r3, [r0, #252]
 4112 000a 23F00203 		bic	r3, r3, #2
 4113 000e C0F8FC30 		str	r3, [r0, #252]
2018:Drivers/GD32F30x_standard_peripheral/Source/gd32f30x_timer.c ****     }else{
2019:Drivers/GD32F30x_standard_peripheral/Source/gd32f30x_timer.c ****         /* illegal parameters */
2020:Drivers/GD32F30x_standard_peripheral/Source/gd32f30x_timer.c ****     }
 4114              		.loc 1 2020 5 is_stmt 1 view .LVU1142
 4115              	.L223:
2021:Drivers/GD32F30x_standard_peripheral/Source/gd32f30x_timer.c **** }
 4116              		.loc 1 2021 1 is_stmt 0 view .LVU1143
 4117 0012 7047     		bx	lr
 4118              	.L226:
2015:Drivers/GD32F30x_standard_peripheral/Source/gd32f30x_timer.c ****     }else if(TIMER_CHVSEL_DISABLE == ccsel){
 4119              		.loc 1 2015 9 is_stmt 1 view .LVU1144
2015:Drivers/GD32F30x_standard_peripheral/Source/gd32f30x_timer.c ****     }else if(TIMER_CHVSEL_DISABLE == ccsel){
 4120              		.loc 1 2015 33 is_stmt 0 view .LVU1145
 4121 0014 D0F8FC30 		ldr	r3, [r0, #252]
 4122 0018 43F00203 		orr	r3, r3, #2
 4123 001c C0F8FC30 		str	r3, [r0, #252]
 4124 0020 7047     		bx	lr
 4125              		.cfi_endproc
 4126              	.LFE185:
 4128              		.section	.text.timer_output_value_selection_config,"ax",%progbits
 4129              		.align	1
 4130              		.global	timer_output_value_selection_config
 4131              		.syntax unified
 4132              		.thumb
 4133              		.thumb_func
 4134              		.fpu fpv4-sp-d16
ARM GAS  C:\Users\Prog\AppData\Local\Temp\ccT8qdHj.s 			page 111


 4136              	timer_output_value_selection_config:
 4137              	.LVL232:
 4138              	.LFB186:
2022:Drivers/GD32F30x_standard_peripheral/Source/gd32f30x_timer.c **** 
2023:Drivers/GD32F30x_standard_peripheral/Source/gd32f30x_timer.c **** /*!
2024:Drivers/GD32F30x_standard_peripheral/Source/gd32f30x_timer.c ****     \brief      configure TIMER output value selection
2025:Drivers/GD32F30x_standard_peripheral/Source/gd32f30x_timer.c ****     \param[in]  timer_periph: TIMERx(x=0,7)
2026:Drivers/GD32F30x_standard_peripheral/Source/gd32f30x_timer.c ****     \param[in]  outsel:
2027:Drivers/GD32F30x_standard_peripheral/Source/gd32f30x_timer.c ****                 only one parameter can be selected which is shown as below:
2028:Drivers/GD32F30x_standard_peripheral/Source/gd32f30x_timer.c ****       \arg        TIMER_OUTSEL_DISABLE: no effect
2029:Drivers/GD32F30x_standard_peripheral/Source/gd32f30x_timer.c ****       \arg        TIMER_OUTSEL_ENABLE: if POEN and IOS is 0, the output disabled
2030:Drivers/GD32F30x_standard_peripheral/Source/gd32f30x_timer.c ****     \param[out] none
2031:Drivers/GD32F30x_standard_peripheral/Source/gd32f30x_timer.c ****     \retval     none
2032:Drivers/GD32F30x_standard_peripheral/Source/gd32f30x_timer.c **** */
2033:Drivers/GD32F30x_standard_peripheral/Source/gd32f30x_timer.c **** void timer_output_value_selection_config(uint32_t timer_periph, uint16_t outsel)
2034:Drivers/GD32F30x_standard_peripheral/Source/gd32f30x_timer.c **** {
 4139              		.loc 1 2034 1 is_stmt 1 view -0
 4140              		.cfi_startproc
 4141              		@ args = 0, pretend = 0, frame = 0
 4142              		@ frame_needed = 0, uses_anonymous_args = 0
 4143              		@ link register save eliminated.
2035:Drivers/GD32F30x_standard_peripheral/Source/gd32f30x_timer.c ****     if(TIMER_OUTSEL_ENABLE == outsel){
 4144              		.loc 1 2035 5 view .LVU1147
 4145              		.loc 1 2035 7 is_stmt 0 view .LVU1148
 4146 0000 0129     		cmp	r1, #1
 4147 0002 07D0     		beq	.L230
2036:Drivers/GD32F30x_standard_peripheral/Source/gd32f30x_timer.c ****         TIMER_CFG(timer_periph) |= (uint32_t)TIMER_CFG_OUTSEL;
2037:Drivers/GD32F30x_standard_peripheral/Source/gd32f30x_timer.c ****     }else if(TIMER_OUTSEL_DISABLE == outsel){
 4148              		.loc 1 2037 11 is_stmt 1 view .LVU1149
 4149              		.loc 1 2037 13 is_stmt 0 view .LVU1150
 4150 0004 29B9     		cbnz	r1, .L227
2038:Drivers/GD32F30x_standard_peripheral/Source/gd32f30x_timer.c ****         TIMER_CFG(timer_periph) &= ~(uint32_t)TIMER_CFG_OUTSEL;
 4151              		.loc 1 2038 9 is_stmt 1 view .LVU1151
 4152              		.loc 1 2038 33 is_stmt 0 view .LVU1152
 4153 0006 D0F8FC30 		ldr	r3, [r0, #252]
 4154 000a 23F00103 		bic	r3, r3, #1
 4155 000e C0F8FC30 		str	r3, [r0, #252]
2039:Drivers/GD32F30x_standard_peripheral/Source/gd32f30x_timer.c ****     }else{
2040:Drivers/GD32F30x_standard_peripheral/Source/gd32f30x_timer.c ****         /* illegal parameters */
2041:Drivers/GD32F30x_standard_peripheral/Source/gd32f30x_timer.c ****     }
 4156              		.loc 1 2041 5 is_stmt 1 view .LVU1153
 4157              	.L227:
2042:Drivers/GD32F30x_standard_peripheral/Source/gd32f30x_timer.c **** }
 4158              		.loc 1 2042 1 is_stmt 0 view .LVU1154
 4159 0012 7047     		bx	lr
 4160              	.L230:
2036:Drivers/GD32F30x_standard_peripheral/Source/gd32f30x_timer.c ****     }else if(TIMER_OUTSEL_DISABLE == outsel){
 4161              		.loc 1 2036 9 is_stmt 1 view .LVU1155
2036:Drivers/GD32F30x_standard_peripheral/Source/gd32f30x_timer.c ****     }else if(TIMER_OUTSEL_DISABLE == outsel){
 4162              		.loc 1 2036 33 is_stmt 0 view .LVU1156
 4163 0014 D0F8FC30 		ldr	r3, [r0, #252]
 4164 0018 43F00103 		orr	r3, r3, #1
 4165 001c C0F8FC30 		str	r3, [r0, #252]
 4166 0020 7047     		bx	lr
 4167              		.cfi_endproc
 4168              	.LFE186:
 4170              		.text
ARM GAS  C:\Users\Prog\AppData\Local\Temp\ccT8qdHj.s 			page 112


 4171              	.Letext0:
 4172              		.file 2 "c:\\programdata\\chocolatey\\lib\\gcc-arm-embedded\\tools\\gcc-arm-none-eabi-10-2020-q4-m
 4173              		.file 3 "c:\\programdata\\chocolatey\\lib\\gcc-arm-embedded\\tools\\gcc-arm-none-eabi-10-2020-q4-m
 4174              		.file 4 "Drivers/CMSIS/GD/GD32F30x/Include/gd32f30x.h"
 4175              		.file 5 "Drivers/GD32F30x_standard_peripheral/Include/gd32f30x_rcu.h"
 4176              		.file 6 "Drivers/GD32F30x_standard_peripheral/Include/gd32f30x_timer.h"
ARM GAS  C:\Users\Prog\AppData\Local\Temp\ccT8qdHj.s 			page 113


DEFINED SYMBOLS
                            *ABS*:00000000 gd32f30x_timer.c
C:\Users\Prog\AppData\Local\Temp\ccT8qdHj.s:18     .text.timer_deinit:00000000 $t
C:\Users\Prog\AppData\Local\Temp\ccT8qdHj.s:26     .text.timer_deinit:00000000 timer_deinit
C:\Users\Prog\AppData\Local\Temp\ccT8qdHj.s:185    .text.timer_deinit:000000d0 $d
C:\Users\Prog\AppData\Local\Temp\ccT8qdHj.s:192    .text.timer_struct_para_init:00000000 $t
C:\Users\Prog\AppData\Local\Temp\ccT8qdHj.s:199    .text.timer_struct_para_init:00000000 timer_struct_para_init
C:\Users\Prog\AppData\Local\Temp\ccT8qdHj.s:233    .text.timer_init:00000000 $t
C:\Users\Prog\AppData\Local\Temp\ccT8qdHj.s:240    .text.timer_init:00000000 timer_init
C:\Users\Prog\AppData\Local\Temp\ccT8qdHj.s:354    .text.timer_init:00000088 $d
C:\Users\Prog\AppData\Local\Temp\ccT8qdHj.s:360    .text.timer_enable:00000000 $t
C:\Users\Prog\AppData\Local\Temp\ccT8qdHj.s:367    .text.timer_enable:00000000 timer_enable
C:\Users\Prog\AppData\Local\Temp\ccT8qdHj.s:386    .text.timer_disable:00000000 $t
C:\Users\Prog\AppData\Local\Temp\ccT8qdHj.s:393    .text.timer_disable:00000000 timer_disable
C:\Users\Prog\AppData\Local\Temp\ccT8qdHj.s:412    .text.timer_auto_reload_shadow_enable:00000000 $t
C:\Users\Prog\AppData\Local\Temp\ccT8qdHj.s:419    .text.timer_auto_reload_shadow_enable:00000000 timer_auto_reload_shadow_enable
C:\Users\Prog\AppData\Local\Temp\ccT8qdHj.s:438    .text.timer_auto_reload_shadow_disable:00000000 $t
C:\Users\Prog\AppData\Local\Temp\ccT8qdHj.s:445    .text.timer_auto_reload_shadow_disable:00000000 timer_auto_reload_shadow_disable
C:\Users\Prog\AppData\Local\Temp\ccT8qdHj.s:464    .text.timer_update_event_enable:00000000 $t
C:\Users\Prog\AppData\Local\Temp\ccT8qdHj.s:471    .text.timer_update_event_enable:00000000 timer_update_event_enable
C:\Users\Prog\AppData\Local\Temp\ccT8qdHj.s:490    .text.timer_update_event_disable:00000000 $t
C:\Users\Prog\AppData\Local\Temp\ccT8qdHj.s:497    .text.timer_update_event_disable:00000000 timer_update_event_disable
C:\Users\Prog\AppData\Local\Temp\ccT8qdHj.s:516    .text.timer_counter_alignment:00000000 $t
C:\Users\Prog\AppData\Local\Temp\ccT8qdHj.s:523    .text.timer_counter_alignment:00000000 timer_counter_alignment
C:\Users\Prog\AppData\Local\Temp\ccT8qdHj.s:547    .text.timer_counter_up_direction:00000000 $t
C:\Users\Prog\AppData\Local\Temp\ccT8qdHj.s:554    .text.timer_counter_up_direction:00000000 timer_counter_up_direction
C:\Users\Prog\AppData\Local\Temp\ccT8qdHj.s:573    .text.timer_counter_down_direction:00000000 $t
C:\Users\Prog\AppData\Local\Temp\ccT8qdHj.s:580    .text.timer_counter_down_direction:00000000 timer_counter_down_direction
C:\Users\Prog\AppData\Local\Temp\ccT8qdHj.s:599    .text.timer_prescaler_config:00000000 $t
C:\Users\Prog\AppData\Local\Temp\ccT8qdHj.s:606    .text.timer_prescaler_config:00000000 timer_prescaler_config
C:\Users\Prog\AppData\Local\Temp\ccT8qdHj.s:632    .text.timer_repetition_value_config:00000000 $t
C:\Users\Prog\AppData\Local\Temp\ccT8qdHj.s:639    .text.timer_repetition_value_config:00000000 timer_repetition_value_config
C:\Users\Prog\AppData\Local\Temp\ccT8qdHj.s:656    .text.timer_autoreload_value_config:00000000 $t
C:\Users\Prog\AppData\Local\Temp\ccT8qdHj.s:663    .text.timer_autoreload_value_config:00000000 timer_autoreload_value_config
C:\Users\Prog\AppData\Local\Temp\ccT8qdHj.s:680    .text.timer_counter_value_config:00000000 $t
C:\Users\Prog\AppData\Local\Temp\ccT8qdHj.s:687    .text.timer_counter_value_config:00000000 timer_counter_value_config
C:\Users\Prog\AppData\Local\Temp\ccT8qdHj.s:704    .text.timer_counter_read:00000000 $t
C:\Users\Prog\AppData\Local\Temp\ccT8qdHj.s:711    .text.timer_counter_read:00000000 timer_counter_read
C:\Users\Prog\AppData\Local\Temp\ccT8qdHj.s:731    .text.timer_prescaler_read:00000000 $t
C:\Users\Prog\AppData\Local\Temp\ccT8qdHj.s:738    .text.timer_prescaler_read:00000000 timer_prescaler_read
C:\Users\Prog\AppData\Local\Temp\ccT8qdHj.s:760    .text.timer_single_pulse_mode_config:00000000 $t
C:\Users\Prog\AppData\Local\Temp\ccT8qdHj.s:767    .text.timer_single_pulse_mode_config:00000000 timer_single_pulse_mode_config
C:\Users\Prog\AppData\Local\Temp\ccT8qdHj.s:805    .text.timer_update_source_config:00000000 $t
C:\Users\Prog\AppData\Local\Temp\ccT8qdHj.s:812    .text.timer_update_source_config:00000000 timer_update_source_config
C:\Users\Prog\AppData\Local\Temp\ccT8qdHj.s:850    .text.timer_interrupt_enable:00000000 $t
C:\Users\Prog\AppData\Local\Temp\ccT8qdHj.s:857    .text.timer_interrupt_enable:00000000 timer_interrupt_enable
C:\Users\Prog\AppData\Local\Temp\ccT8qdHj.s:876    .text.timer_interrupt_disable:00000000 $t
C:\Users\Prog\AppData\Local\Temp\ccT8qdHj.s:883    .text.timer_interrupt_disable:00000000 timer_interrupt_disable
C:\Users\Prog\AppData\Local\Temp\ccT8qdHj.s:902    .text.timer_interrupt_flag_get:00000000 $t
C:\Users\Prog\AppData\Local\Temp\ccT8qdHj.s:909    .text.timer_interrupt_flag_get:00000000 timer_interrupt_flag_get
C:\Users\Prog\AppData\Local\Temp\ccT8qdHj.s:955    .text.timer_interrupt_flag_clear:00000000 $t
C:\Users\Prog\AppData\Local\Temp\ccT8qdHj.s:962    .text.timer_interrupt_flag_clear:00000000 timer_interrupt_flag_clear
C:\Users\Prog\AppData\Local\Temp\ccT8qdHj.s:982    .text.timer_flag_get:00000000 $t
C:\Users\Prog\AppData\Local\Temp\ccT8qdHj.s:989    .text.timer_flag_get:00000000 timer_flag_get
C:\Users\Prog\AppData\Local\Temp\ccT8qdHj.s:1019   .text.timer_flag_clear:00000000 $t
C:\Users\Prog\AppData\Local\Temp\ccT8qdHj.s:1026   .text.timer_flag_clear:00000000 timer_flag_clear
C:\Users\Prog\AppData\Local\Temp\ccT8qdHj.s:1046   .text.timer_dma_enable:00000000 $t
ARM GAS  C:\Users\Prog\AppData\Local\Temp\ccT8qdHj.s 			page 114


C:\Users\Prog\AppData\Local\Temp\ccT8qdHj.s:1053   .text.timer_dma_enable:00000000 timer_dma_enable
C:\Users\Prog\AppData\Local\Temp\ccT8qdHj.s:1072   .text.timer_dma_disable:00000000 $t
C:\Users\Prog\AppData\Local\Temp\ccT8qdHj.s:1079   .text.timer_dma_disable:00000000 timer_dma_disable
C:\Users\Prog\AppData\Local\Temp\ccT8qdHj.s:1098   .text.timer_channel_dma_request_source_select:00000000 $t
C:\Users\Prog\AppData\Local\Temp\ccT8qdHj.s:1105   .text.timer_channel_dma_request_source_select:00000000 timer_channel_dma_request_source_select
C:\Users\Prog\AppData\Local\Temp\ccT8qdHj.s:1143   .text.timer_dma_transfer_config:00000000 $t
C:\Users\Prog\AppData\Local\Temp\ccT8qdHj.s:1150   .text.timer_dma_transfer_config:00000000 timer_dma_transfer_config
C:\Users\Prog\AppData\Local\Temp\ccT8qdHj.s:1179   .text.timer_event_software_generate:00000000 $t
C:\Users\Prog\AppData\Local\Temp\ccT8qdHj.s:1186   .text.timer_event_software_generate:00000000 timer_event_software_generate
C:\Users\Prog\AppData\Local\Temp\ccT8qdHj.s:1205   .text.timer_break_struct_para_init:00000000 $t
C:\Users\Prog\AppData\Local\Temp\ccT8qdHj.s:1212   .text.timer_break_struct_para_init:00000000 timer_break_struct_para_init
C:\Users\Prog\AppData\Local\Temp\ccT8qdHj.s:1248   .text.timer_break_config:00000000 $t
C:\Users\Prog\AppData\Local\Temp\ccT8qdHj.s:1255   .text.timer_break_config:00000000 timer_break_config
C:\Users\Prog\AppData\Local\Temp\ccT8qdHj.s:1302   .text.timer_break_enable:00000000 $t
C:\Users\Prog\AppData\Local\Temp\ccT8qdHj.s:1309   .text.timer_break_enable:00000000 timer_break_enable
C:\Users\Prog\AppData\Local\Temp\ccT8qdHj.s:1328   .text.timer_break_disable:00000000 $t
C:\Users\Prog\AppData\Local\Temp\ccT8qdHj.s:1335   .text.timer_break_disable:00000000 timer_break_disable
C:\Users\Prog\AppData\Local\Temp\ccT8qdHj.s:1354   .text.timer_automatic_output_enable:00000000 $t
C:\Users\Prog\AppData\Local\Temp\ccT8qdHj.s:1361   .text.timer_automatic_output_enable:00000000 timer_automatic_output_enable
C:\Users\Prog\AppData\Local\Temp\ccT8qdHj.s:1380   .text.timer_automatic_output_disable:00000000 $t
C:\Users\Prog\AppData\Local\Temp\ccT8qdHj.s:1387   .text.timer_automatic_output_disable:00000000 timer_automatic_output_disable
C:\Users\Prog\AppData\Local\Temp\ccT8qdHj.s:1406   .text.timer_primary_output_config:00000000 $t
C:\Users\Prog\AppData\Local\Temp\ccT8qdHj.s:1413   .text.timer_primary_output_config:00000000 timer_primary_output_config
C:\Users\Prog\AppData\Local\Temp\ccT8qdHj.s:1443   .text.timer_channel_control_shadow_config:00000000 $t
C:\Users\Prog\AppData\Local\Temp\ccT8qdHj.s:1450   .text.timer_channel_control_shadow_config:00000000 timer_channel_control_shadow_config
C:\Users\Prog\AppData\Local\Temp\ccT8qdHj.s:1480   .text.timer_channel_control_shadow_update_config:00000000 $t
C:\Users\Prog\AppData\Local\Temp\ccT8qdHj.s:1487   .text.timer_channel_control_shadow_update_config:00000000 timer_channel_control_shadow_update_config
C:\Users\Prog\AppData\Local\Temp\ccT8qdHj.s:1525   .text.timer_channel_output_struct_para_init:00000000 $t
C:\Users\Prog\AppData\Local\Temp\ccT8qdHj.s:1532   .text.timer_channel_output_struct_para_init:00000000 timer_channel_output_struct_para_init
C:\Users\Prog\AppData\Local\Temp\ccT8qdHj.s:1565   .text.timer_channel_output_config:00000000 $t
C:\Users\Prog\AppData\Local\Temp\ccT8qdHj.s:1572   .text.timer_channel_output_config:00000000 timer_channel_output_config
C:\Users\Prog\AppData\Local\Temp\ccT8qdHj.s:1585   .text.timer_channel_output_config:0000000a $d
C:\Users\Prog\AppData\Local\Temp\ccT8qdHj.s:1589   .text.timer_channel_output_config:00000012 $t
C:\Users\Prog\AppData\Local\Temp\ccT8qdHj.s:1947   .text.timer_channel_output_config:000001e4 $d
C:\Users\Prog\AppData\Local\Temp\ccT8qdHj.s:1952   .text.timer_channel_output_mode_config:00000000 $t
C:\Users\Prog\AppData\Local\Temp\ccT8qdHj.s:1959   .text.timer_channel_output_mode_config:00000000 timer_channel_output_mode_config
C:\Users\Prog\AppData\Local\Temp\ccT8qdHj.s:1972   .text.timer_channel_output_mode_config:00000008 $d
C:\Users\Prog\AppData\Local\Temp\ccT8qdHj.s:1976   .text.timer_channel_output_mode_config:0000000c $t
C:\Users\Prog\AppData\Local\Temp\ccT8qdHj.s:2046   .text.timer_channel_output_pulse_value_config:00000000 $t
C:\Users\Prog\AppData\Local\Temp\ccT8qdHj.s:2053   .text.timer_channel_output_pulse_value_config:00000000 timer_channel_output_pulse_value_config
C:\Users\Prog\AppData\Local\Temp\ccT8qdHj.s:2066   .text.timer_channel_output_pulse_value_config:00000008 $d
C:\Users\Prog\AppData\Local\Temp\ccT8qdHj.s:2070   .text.timer_channel_output_pulse_value_config:0000000c $t
C:\Users\Prog\AppData\Local\Temp\ccT8qdHj.s:2101   .text.timer_channel_output_shadow_config:00000000 $t
C:\Users\Prog\AppData\Local\Temp\ccT8qdHj.s:2108   .text.timer_channel_output_shadow_config:00000000 timer_channel_output_shadow_config
C:\Users\Prog\AppData\Local\Temp\ccT8qdHj.s:2121   .text.timer_channel_output_shadow_config:00000008 $d
C:\Users\Prog\AppData\Local\Temp\ccT8qdHj.s:2125   .text.timer_channel_output_shadow_config:0000000c $t
C:\Users\Prog\AppData\Local\Temp\ccT8qdHj.s:2195   .text.timer_channel_output_fast_config:00000000 $t
C:\Users\Prog\AppData\Local\Temp\ccT8qdHj.s:2202   .text.timer_channel_output_fast_config:00000000 timer_channel_output_fast_config
C:\Users\Prog\AppData\Local\Temp\ccT8qdHj.s:2215   .text.timer_channel_output_fast_config:00000008 $d
C:\Users\Prog\AppData\Local\Temp\ccT8qdHj.s:2219   .text.timer_channel_output_fast_config:0000000c $t
C:\Users\Prog\AppData\Local\Temp\ccT8qdHj.s:2289   .text.timer_channel_output_clear_config:00000000 $t
C:\Users\Prog\AppData\Local\Temp\ccT8qdHj.s:2296   .text.timer_channel_output_clear_config:00000000 timer_channel_output_clear_config
C:\Users\Prog\AppData\Local\Temp\ccT8qdHj.s:2309   .text.timer_channel_output_clear_config:00000008 $d
C:\Users\Prog\AppData\Local\Temp\ccT8qdHj.s:2313   .text.timer_channel_output_clear_config:0000000c $t
C:\Users\Prog\AppData\Local\Temp\ccT8qdHj.s:2383   .text.timer_channel_output_polarity_config:00000000 $t
C:\Users\Prog\AppData\Local\Temp\ccT8qdHj.s:2390   .text.timer_channel_output_polarity_config:00000000 timer_channel_output_polarity_config
C:\Users\Prog\AppData\Local\Temp\ccT8qdHj.s:2403   .text.timer_channel_output_polarity_config:00000008 $d
ARM GAS  C:\Users\Prog\AppData\Local\Temp\ccT8qdHj.s 			page 115


C:\Users\Prog\AppData\Local\Temp\ccT8qdHj.s:2407   .text.timer_channel_output_polarity_config:0000000c $t
C:\Users\Prog\AppData\Local\Temp\ccT8qdHj.s:2477   .text.timer_channel_complementary_output_polarity_config:00000000 $t
C:\Users\Prog\AppData\Local\Temp\ccT8qdHj.s:2484   .text.timer_channel_complementary_output_polarity_config:00000000 timer_channel_complementary_output_polarity_config
C:\Users\Prog\AppData\Local\Temp\ccT8qdHj.s:2555   .text.timer_channel_output_state_config:00000000 $t
C:\Users\Prog\AppData\Local\Temp\ccT8qdHj.s:2562   .text.timer_channel_output_state_config:00000000 timer_channel_output_state_config
C:\Users\Prog\AppData\Local\Temp\ccT8qdHj.s:2575   .text.timer_channel_output_state_config:00000008 $d
C:\Users\Prog\AppData\Local\Temp\ccT8qdHj.s:2579   .text.timer_channel_output_state_config:0000000c $t
C:\Users\Prog\AppData\Local\Temp\ccT8qdHj.s:2649   .text.timer_channel_complementary_output_state_config:00000000 $t
C:\Users\Prog\AppData\Local\Temp\ccT8qdHj.s:2656   .text.timer_channel_complementary_output_state_config:00000000 timer_channel_complementary_output_state_config
C:\Users\Prog\AppData\Local\Temp\ccT8qdHj.s:2727   .text.timer_channel_input_struct_para_init:00000000 $t
C:\Users\Prog\AppData\Local\Temp\ccT8qdHj.s:2734   .text.timer_channel_input_struct_para_init:00000000 timer_channel_input_struct_para_init
C:\Users\Prog\AppData\Local\Temp\ccT8qdHj.s:2762   .text.timer_channel_input_capture_prescaler_config:00000000 $t
C:\Users\Prog\AppData\Local\Temp\ccT8qdHj.s:2769   .text.timer_channel_input_capture_prescaler_config:00000000 timer_channel_input_capture_prescaler_config
C:\Users\Prog\AppData\Local\Temp\ccT8qdHj.s:2782   .text.timer_channel_input_capture_prescaler_config:00000008 $d
C:\Users\Prog\AppData\Local\Temp\ccT8qdHj.s:2786   .text.timer_channel_input_capture_prescaler_config:0000000c $t
C:\Users\Prog\AppData\Local\Temp\ccT8qdHj.s:2856   .text.timer_input_capture_config:00000000 $t
C:\Users\Prog\AppData\Local\Temp\ccT8qdHj.s:2863   .text.timer_input_capture_config:00000000 timer_input_capture_config
C:\Users\Prog\AppData\Local\Temp\ccT8qdHj.s:2881   .text.timer_input_capture_config:0000000a $d
C:\Users\Prog\AppData\Local\Temp\ccT8qdHj.s:2885   .text.timer_input_capture_config:0000000e $t
C:\Users\Prog\AppData\Local\Temp\ccT8qdHj.s:3107   .text.timer_channel_capture_value_register_read:00000000 $t
C:\Users\Prog\AppData\Local\Temp\ccT8qdHj.s:3114   .text.timer_channel_capture_value_register_read:00000000 timer_channel_capture_value_register_read
C:\Users\Prog\AppData\Local\Temp\ccT8qdHj.s:3128   .text.timer_channel_capture_value_register_read:00000008 $d
C:\Users\Prog\AppData\Local\Temp\ccT8qdHj.s:3132   .text.timer_channel_capture_value_register_read:0000000c $t
C:\Users\Prog\AppData\Local\Temp\ccT8qdHj.s:3176   .text.timer_input_pwm_capture_config:00000000 $t
C:\Users\Prog\AppData\Local\Temp\ccT8qdHj.s:3183   .text.timer_input_pwm_capture_config:00000000 timer_input_pwm_capture_config
C:\Users\Prog\AppData\Local\Temp\ccT8qdHj.s:3465   .text.timer_hall_mode_config:00000000 $t
C:\Users\Prog\AppData\Local\Temp\ccT8qdHj.s:3472   .text.timer_hall_mode_config:00000000 timer_hall_mode_config
C:\Users\Prog\AppData\Local\Temp\ccT8qdHj.s:3510   .text.timer_input_trigger_source_select:00000000 $t
C:\Users\Prog\AppData\Local\Temp\ccT8qdHj.s:3517   .text.timer_input_trigger_source_select:00000000 timer_input_trigger_source_select
C:\Users\Prog\AppData\Local\Temp\ccT8qdHj.s:3541   .text.timer_master_output_trigger_source_select:00000000 $t
C:\Users\Prog\AppData\Local\Temp\ccT8qdHj.s:3548   .text.timer_master_output_trigger_source_select:00000000 timer_master_output_trigger_source_select
C:\Users\Prog\AppData\Local\Temp\ccT8qdHj.s:3572   .text.timer_slave_mode_select:00000000 $t
C:\Users\Prog\AppData\Local\Temp\ccT8qdHj.s:3579   .text.timer_slave_mode_select:00000000 timer_slave_mode_select
C:\Users\Prog\AppData\Local\Temp\ccT8qdHj.s:3603   .text.timer_master_slave_mode_config:00000000 $t
C:\Users\Prog\AppData\Local\Temp\ccT8qdHj.s:3610   .text.timer_master_slave_mode_config:00000000 timer_master_slave_mode_config
C:\Users\Prog\AppData\Local\Temp\ccT8qdHj.s:3648   .text.timer_external_trigger_config:00000000 $t
C:\Users\Prog\AppData\Local\Temp\ccT8qdHj.s:3655   .text.timer_external_trigger_config:00000000 timer_external_trigger_config
C:\Users\Prog\AppData\Local\Temp\ccT8qdHj.s:3701   .text.timer_quadrature_decoder_mode_config:00000000 $t
C:\Users\Prog\AppData\Local\Temp\ccT8qdHj.s:3708   .text.timer_quadrature_decoder_mode_config:00000000 timer_quadrature_decoder_mode_config
C:\Users\Prog\AppData\Local\Temp\ccT8qdHj.s:3776   .text.timer_internal_clock_config:00000000 $t
C:\Users\Prog\AppData\Local\Temp\ccT8qdHj.s:3783   .text.timer_internal_clock_config:00000000 timer_internal_clock_config
C:\Users\Prog\AppData\Local\Temp\ccT8qdHj.s:3802   .text.timer_internal_trigger_as_external_clock_config:00000000 $t
C:\Users\Prog\AppData\Local\Temp\ccT8qdHj.s:3809   .text.timer_internal_trigger_as_external_clock_config:00000000 timer_internal_trigger_as_external_clock_config
C:\Users\Prog\AppData\Local\Temp\ccT8qdHj.s:3843   .text.timer_external_trigger_as_external_clock_config:00000000 $t
C:\Users\Prog\AppData\Local\Temp\ccT8qdHj.s:3850   .text.timer_external_trigger_as_external_clock_config:00000000 timer_external_trigger_as_external_clock_config
C:\Users\Prog\AppData\Local\Temp\ccT8qdHj.s:3984   .text.timer_external_clock_mode0_config:00000000 $t
C:\Users\Prog\AppData\Local\Temp\ccT8qdHj.s:3991   .text.timer_external_clock_mode0_config:00000000 timer_external_clock_mode0_config
C:\Users\Prog\AppData\Local\Temp\ccT8qdHj.s:4025   .text.timer_external_clock_mode1_config:00000000 $t
C:\Users\Prog\AppData\Local\Temp\ccT8qdHj.s:4032   .text.timer_external_clock_mode1_config:00000000 timer_external_clock_mode1_config
C:\Users\Prog\AppData\Local\Temp\ccT8qdHj.s:4061   .text.timer_external_clock_mode1_disable:00000000 $t
C:\Users\Prog\AppData\Local\Temp\ccT8qdHj.s:4068   .text.timer_external_clock_mode1_disable:00000000 timer_external_clock_mode1_disable
C:\Users\Prog\AppData\Local\Temp\ccT8qdHj.s:4087   .text.timer_write_chxval_register_config:00000000 $t
C:\Users\Prog\AppData\Local\Temp\ccT8qdHj.s:4094   .text.timer_write_chxval_register_config:00000000 timer_write_chxval_register_config
C:\Users\Prog\AppData\Local\Temp\ccT8qdHj.s:4129   .text.timer_output_value_selection_config:00000000 $t
C:\Users\Prog\AppData\Local\Temp\ccT8qdHj.s:4136   .text.timer_output_value_selection_config:00000000 timer_output_value_selection_config

UNDEFINED SYMBOLS
ARM GAS  C:\Users\Prog\AppData\Local\Temp\ccT8qdHj.s 			page 116


rcu_periph_reset_enable
rcu_periph_reset_disable
