ARM GAS  C:\Users\Prog\AppData\Local\Temp\ccYUSqVP.s 			page 1


   1              		.cpu cortex-m4
   2              		.eabi_attribute 27, 1
   3              		.eabi_attribute 28, 1
   4              		.eabi_attribute 20, 1
   5              		.eabi_attribute 21, 1
   6              		.eabi_attribute 23, 3
   7              		.eabi_attribute 24, 1
   8              		.eabi_attribute 25, 1
   9              		.eabi_attribute 26, 1
  10              		.eabi_attribute 30, 1
  11              		.eabi_attribute 34, 1
  12              		.eabi_attribute 18, 4
  13              		.file	"main.c"
  14              		.text
  15              	.Ltext0:
  16              		.cfi_sections	.debug_frame
  17              		.section	.text.main,"ax",%progbits
  18              		.align	1
  19              		.global	main
  20              		.arch armv7e-m
  21              		.syntax unified
  22              		.thumb
  23              		.thumb_func
  24              		.fpu fpv4-sp-d16
  26              	main:
  27              	.LFB116:
  28              		.file 1 "Src/main.c"
   1:Src/main.c    **** /*!
   2:Src/main.c    ****     \file  main.c
   3:Src/main.c    ****     \brief systick LED demo
   4:Src/main.c    ****     
   5:Src/main.c    ****     \version 2021-03-23, V2.0.0, demo for GD32F30x
   6:Src/main.c    **** */
   7:Src/main.c    **** 
   8:Src/main.c    **** 
   9:Src/main.c    **** #include "gd32f30x.h"
  10:Src/main.c    **** #include "systick.h"
  11:Src/main.c    **** 
  12:Src/main.c    **** /*!
  13:Src/main.c    ****     \brief      main function
  14:Src/main.c    ****     \param[in]  none
  15:Src/main.c    ****     \param[out] none
  16:Src/main.c    ****     \retval     none
  17:Src/main.c    **** */
  18:Src/main.c    **** 
  19:Src/main.c    **** int main(void)
  20:Src/main.c    **** {
  29              		.loc 1 20 1 view -0
  30              		.cfi_startproc
  31              		@ Volatile: function does not return.
  32              		@ args = 0, pretend = 0, frame = 0
  33              		@ frame_needed = 0, uses_anonymous_args = 0
  34 0000 08B5     		push	{r3, lr}
  35              	.LCFI0:
  36              		.cfi_def_cfa_offset 8
  37              		.cfi_offset 3, -8
  38              		.cfi_offset 14, -4
ARM GAS  C:\Users\Prog\AppData\Local\Temp\ccYUSqVP.s 			page 2


  21:Src/main.c    ****     /* configure systick */
  22:Src/main.c    ****     systick_config();
  39              		.loc 1 22 5 view .LVU1
  40 0002 FFF7FEFF 		bl	systick_config
  41              	.LVL0:
  23:Src/main.c    ****     
  24:Src/main.c    ****     /* enable the LEDs GPIO clock */
  25:Src/main.c    ****     rcu_periph_clock_enable(RCU_GPIOC);
  42              		.loc 1 25 5 view .LVU2
  43 0006 40F20460 		movw	r0, #1540
  44 000a FFF7FEFF 		bl	rcu_periph_clock_enable
  45              	.LVL1:
  26:Src/main.c    **** 
  27:Src/main.c    ****     /* configure LED1 LED2 GPIO port */
  28:Src/main.c    ****     gpio_pin_remap_config(GPIO_SWJ_SWDPENABLE_REMAP, ENABLE); // SWD/CJTAG only
  46              		.loc 1 28 5 view .LVU3
  47 000e 0121     		movs	r1, #1
  48 0010 1148     		ldr	r0, .L4
  49 0012 FFF7FEFF 		bl	gpio_pin_remap_config
  50              	.LVL2:
  29:Src/main.c    ****     gpio_init(GPIOC, GPIO_MODE_OUT_PP, GPIO_OSPEED_50MHZ, GPIO_PIN_13);
  51              		.loc 1 29 5 view .LVU4
  52 0016 114C     		ldr	r4, .L4+4
  53 0018 4FF40053 		mov	r3, #8192
  54 001c 0322     		movs	r2, #3
  55 001e 1021     		movs	r1, #16
  56 0020 2046     		mov	r0, r4
  57 0022 FFF7FEFF 		bl	gpio_init
  58              	.LVL3:
  30:Src/main.c    ****     
  31:Src/main.c    ****     /* reset LED1 LED2 GPIO pin */
  32:Src/main.c    ****     gpio_bit_reset(GPIOC, GPIO_PIN_13);
  59              		.loc 1 32 5 view .LVU5
  60 0026 4FF40051 		mov	r1, #8192
  61 002a 2046     		mov	r0, r4
  62 002c FFF7FEFF 		bl	gpio_bit_reset
  63              	.LVL4:
  64              	.L2:
  33:Src/main.c    **** 
  34:Src/main.c    ****     while(1){
  65              		.loc 1 34 5 discriminator 1 view .LVU6
  35:Src/main.c    ****         gpio_bit_set(GPIOC, GPIO_PIN_13);
  66              		.loc 1 35 9 discriminator 1 view .LVU7
  67 0030 0A4C     		ldr	r4, .L4+4
  68 0032 4FF40051 		mov	r1, #8192
  69 0036 2046     		mov	r0, r4
  70 0038 FFF7FEFF 		bl	gpio_bit_set
  71              	.LVL5:
  36:Src/main.c    ****         delay_1ms(750);
  72              		.loc 1 36 9 discriminator 1 view .LVU8
  73 003c 40F2EE20 		movw	r0, #750
  74 0040 FFF7FEFF 		bl	delay_1ms
  75              	.LVL6:
  37:Src/main.c    ****         gpio_bit_reset(GPIOC, GPIO_PIN_13);
  76              		.loc 1 37 9 discriminator 1 view .LVU9
  77 0044 4FF40051 		mov	r1, #8192
  78 0048 2046     		mov	r0, r4
ARM GAS  C:\Users\Prog\AppData\Local\Temp\ccYUSqVP.s 			page 3


  79 004a FFF7FEFF 		bl	gpio_bit_reset
  80              	.LVL7:
  38:Src/main.c    ****         delay_1ms(250);
  81              		.loc 1 38 9 discriminator 1 view .LVU10
  82 004e FA20     		movs	r0, #250
  83 0050 FFF7FEFF 		bl	delay_1ms
  84              	.LVL8:
  34:Src/main.c    ****         gpio_bit_set(GPIOC, GPIO_PIN_13);
  85              		.loc 1 34 10 discriminator 1 view .LVU11
  86 0054 ECE7     		b	.L2
  87              	.L5:
  88 0056 00BF     		.align	2
  89              	.L4:
  90 0058 00023000 		.word	3146240
  91 005c 00100140 		.word	1073811456
  92              		.cfi_endproc
  93              	.LFE116:
  95              		.text
  96              	.Letext0:
  97              		.file 2 "c:\\programdata\\chocolatey\\lib\\gcc-arm-embedded\\tools\\gcc-arm-none-eabi-10-2020-q4-m
  98              		.file 3 "c:\\programdata\\chocolatey\\lib\\gcc-arm-embedded\\tools\\gcc-arm-none-eabi-10-2020-q4-m
  99              		.file 4 "Drivers/CMSIS/GD/GD32F30x/Include/gd32f30x.h"
 100              		.file 5 "Drivers/GD32F30x_standard_peripheral/Include/gd32f30x_rcu.h"
 101              		.file 6 "Inc/systick.h"
 102              		.file 7 "Drivers/GD32F30x_standard_peripheral/Include/gd32f30x_gpio.h"
ARM GAS  C:\Users\Prog\AppData\Local\Temp\ccYUSqVP.s 			page 4


DEFINED SYMBOLS
                            *ABS*:00000000 main.c
C:\Users\Prog\AppData\Local\Temp\ccYUSqVP.s:18     .text.main:00000000 $t
C:\Users\Prog\AppData\Local\Temp\ccYUSqVP.s:26     .text.main:00000000 main
C:\Users\Prog\AppData\Local\Temp\ccYUSqVP.s:90     .text.main:00000058 $d

UNDEFINED SYMBOLS
systick_config
rcu_periph_clock_enable
gpio_pin_remap_config
gpio_init
gpio_bit_reset
gpio_bit_set
delay_1ms
